; Listing generated by Microsoft (R) Optimizing Compiler Version 14.00.50727.762 

	TITLE	C:\quirt\comps\exe\dgate\sqlite3.c
	.686P
	.XMM
	include listing.inc
	.model	flat

INCLUDELIB LIBCMT
INCLUDELIB OLDNAMES

PUBLIC	??_C@_05JJGFHFCC@aaada?$AA@			; `string'
PUBLIC	??_C@_0BA@HAFLJCI@CREATE?5TRIGGER?5?$AA@	; `string'
PUBLIC	??_C@_07DIDNFGDE@trigger?$AA@			; `string'
PUBLIC	??_C@_05MNCHLHCA@UTF16?$AA@			; `string'
PUBLIC	??_C@_06KNDPGIKI@UTF?916?$AA@			; `string'
PUBLIC	??_C@_07JDFIEPAG@UTF16be?$AA@			; `string'
PUBLIC	??_C@_08HGGOPCBI@UTF?916be?$AA@			; `string'
PUBLIC	??_C@_07JJMGGCAM@UTF16le?$AA@			; `string'
PUBLIC	??_C@_08HMPANPBC@UTF?916le?$AA@			; `string'
PUBLIC	??_C@_04OOMJJNCF@UTF8?$AA@			; `string'
PUBLIC	??_C@_05EGJIMALK@UTF?98?$AA@			; `string'
PUBLIC	??_C@_0BN@JKHLHJNK@wrong?5?$CD?5of?5entries?5in?5index?5?$AA@ ; `string'
PUBLIC	??_C@_0BF@JGBLFHJL@?5missing?5from?5index?5?$AA@ ; `string'
PUBLIC	??_C@_06DHEAJPAE@rowid?5?$AA@			; `string'
PUBLIC	??_C@_02MFDMBIJM@ok?$AA@			; `string'
PUBLIC	??_C@_0BB@KLHJNGLH@read_uncommitted?$AA@	; `string'
PUBLIC	??_C@_0O@FCIFIHH@omit_readlock?$AA@		; `string'
PUBLIC	??_C@_0BA@OHBCLCAL@writable_schema?$AA@		; `string'
PUBLIC	??_C@_0BJ@KLIMENGM@ignore_check_constraints?$AA@ ; `string'
PUBLIC	??_C@_09MLJLLBEB@fullfsync?$AA@			; `string'
PUBLIC	??_C@_0BD@LEFOEGBK@legacy_file_format?$AA@	; `string'
PUBLIC	??_C@_0BH@CMLDBHJP@empty_result_callbacks?$AA@	; `string'
PUBLIC	??_C@_0O@PEBBJPHD@count_changes?$AA@		; `string'
PUBLIC	??_C@_0BD@BFIEDLEP@short_column_names?$AA@	; `string'
PUBLIC	??_C@_0BC@CBBNFKC@full_column_names?$AA@	; `string'
PUBLIC	_sqlite3_clear_bindings
PUBLIC	_sqlite3_prepare16_v2
PUBLIC	_sqlite3_prepare_v2
PUBLIC	_sqlite3_overload_function
PUBLIC	_sqlite3_vmprintf
PUBLIC	_sqlite3_value_type
PUBLIC	_sqlite3_value_text16le
PUBLIC	_sqlite3_value_text16be
PUBLIC	_sqlite3_value_text16
PUBLIC	_sqlite3_value_text
PUBLIC	_sqlite3_value_numeric_type
PUBLIC	_sqlite3_value_int64
PUBLIC	_sqlite3_value_int
PUBLIC	_sqlite3_value_double
PUBLIC	_sqlite3_value_bytes16
PUBLIC	_sqlite3_value_bytes
PUBLIC	_sqlite3_value_blob
PUBLIC	_sqlite3_user_data
PUBLIC	_sqlite3_update_hook
PUBLIC	_sqlite3_transfer_bindings
PUBLIC	_sqlite3_trace
PUBLIC	_sqlite3_total_changes
PUBLIC	_sqlite3_thread_cleanup
PUBLIC	_sqlite3_step
PUBLIC	_sqlite3_snprintf
PUBLIC	_sqlite3_set_auxdata
PUBLIC	_sqlite3_set_authorizer
PUBLIC	_sqlite3_rollback_hook
PUBLIC	_sqlite3_result_value
PUBLIC	_sqlite3_result_text16le
PUBLIC	_sqlite3_result_text16be
PUBLIC	_sqlite3_result_text16
PUBLIC	_sqlite3_result_text
PUBLIC	_sqlite3_result_null
PUBLIC	_sqlite3_result_int64
PUBLIC	_sqlite3_result_int
PUBLIC	_sqlite3_result_error16
PUBLIC	_sqlite3_result_error
PUBLIC	_sqlite3_result_double
PUBLIC	_sqlite3_result_blob
PUBLIC	_sqlite3_reset
PUBLIC	_sqlite3_realloc
PUBLIC	_sqlite3_progress_handler
PUBLIC	_sqlite3_profile
PUBLIC	_sqlite3_prepare16
PUBLIC	_sqlite3_prepare
PUBLIC	_sqlite3_open16
PUBLIC	_sqlite3_open
PUBLIC	_sqlite3_mprintf
PUBLIC	_sqlite3_malloc
PUBLIC	_sqlite3_libversion_number
PUBLIC	_sqlite3_libversion
PUBLIC	_sqlite3_last_insert_rowid
PUBLIC	_sqlite3_interrupt
PUBLIC	_sqlite3_get_table
PUBLIC	_sqlite3_get_auxdata
PUBLIC	_sqlite3_get_autocommit
PUBLIC	_sqlite3_free_table
PUBLIC	_sqlite3_free
PUBLIC	_sqlite3_finalize
PUBLIC	_sqlite3_expired
PUBLIC	_sqlite3_exec
PUBLIC	_sqlite3_errmsg16
PUBLIC	_sqlite3_errmsg
PUBLIC	_sqlite3_errcode
PUBLIC	_sqlite3_enable_shared_cache
PUBLIC	_sqlite3_declare_vtab
PUBLIC	_sqlite3_db_handle
PUBLIC	_sqlite3_data_count
PUBLIC	_sqlite3_create_module
PUBLIC	_sqlite3_create_function16
PUBLIC	_sqlite3_create_function
PUBLIC	_sqlite3_create_collation16
PUBLIC	_sqlite3_create_collation
PUBLIC	_sqlite3_complete16
PUBLIC	_sqlite3_complete
PUBLIC	_sqlite3_commit_hook
PUBLIC	_sqlite3_column_value
PUBLIC	_sqlite3_column_type
PUBLIC	_sqlite3_column_text16
PUBLIC	_sqlite3_column_text
PUBLIC	_sqlite3_column_name16
PUBLIC	_sqlite3_column_name
PUBLIC	_sqlite3_column_int64
PUBLIC	_sqlite3_column_int
PUBLIC	_sqlite3_column_double
PUBLIC	_sqlite3_column_decltype16
PUBLIC	_sqlite3_column_decltype
PUBLIC	_sqlite3_column_count
PUBLIC	_sqlite3_column_bytes16
PUBLIC	_sqlite3_column_bytes
PUBLIC	_sqlite3_column_blob
PUBLIC	_sqlite3_collation_needed16
PUBLIC	_sqlite3_collation_needed
PUBLIC	_sqlite3_close
PUBLIC	_sqlite3_changes
PUBLIC	_sqlite3_busy_timeout
PUBLIC	_sqlite3_busy_handler
PUBLIC	_sqlite3_bind_value
PUBLIC	_sqlite3_bind_text16
PUBLIC	_sqlite3_bind_text
PUBLIC	_sqlite3_bind_parameter_name
PUBLIC	_sqlite3_bind_parameter_index
PUBLIC	_sqlite3_bind_parameter_count
PUBLIC	_sqlite3_bind_null
PUBLIC	_sqlite3_bind_int64
PUBLIC	_sqlite3_bind_int
PUBLIC	_sqlite3_bind_double
PUBLIC	_sqlite3_bind_blob
PUBLIC	_sqlite3_aggregate_count
PUBLIC	_sqlite3_aggregate_context
PUBLIC	??_C@_05IOMEMJEC@count?$AA@			; `string'
PUBLIC	??_C@_03CHOBFJAH@avg?$AA@			; `string'
PUBLIC	??_C@_05KBOMEDGA@total?$AA@			; `string'
PUBLIC	??_C@_03CFFIJAMA@sum?$AA@			; `string'
PUBLIC	??_C@_0P@BJKPICNH@load_extension?$AA@		; `string'
PUBLIC	??_C@_08OAGHJJOG@zeroblob?$AA@			; `string'
PUBLIC	??_C@_04GDOMMDLP@trim?$AA@			; `string'
PUBLIC	??_C@_05FCOGDJML@rtrim?$AA@			; `string'
PUBLIC	??_C@_05GLDKFKCA@ltrim?$AA@			; `string'
PUBLIC	??_C@_07CLEHDIEJ@replace?$AA@			; `string'
PUBLIC	??_C@_0O@MLEKHAGK@total_changes?$AA@		; `string'
PUBLIC	??_C@_07HFLFHMNL@changes?$AA@			; `string'
PUBLIC	??_C@_0BC@EKKKCJJE@last_insert_rowid?$AA@	; `string'
PUBLIC	??_C@_05JHEGFHLM@quote?$AA@			; `string'
PUBLIC	??_C@_0P@IPDPEBN@sqlite_version?$AA@		; `string'
PUBLIC	??_C@_06LLGGGFDC@nullif?$AA@			; `string'
PUBLIC	??_C@_0L@IDMFPHDO@randomblob?$AA@		; `string'
PUBLIC	??_C@_06NLFCANPD@random?$AA@			; `string'
PUBLIC	??_C@_06FAHGEKJN@ifnull?$AA@			; `string'
PUBLIC	??_C@_03IJNDAFDK@hex?$AA@			; `string'
PUBLIC	??_C@_08FNGHHBID@coalesce?$AA@			; `string'
PUBLIC	??_C@_05IPJEPLHL@lower?$AA@			; `string'
PUBLIC	??_C@_05NECKJAMC@upper?$AA@			; `string'
PUBLIC	??_C@_05MIMAKCN@round?$AA@			; `string'
PUBLIC	??_C@_03BCGAIFPO@abs?$AA@			; `string'
PUBLIC	??_C@_06DAHFIGOC@substr?$AA@			; `string'
PUBLIC	??_C@_06IJDLPEM@length?$AA@			; `string'
PUBLIC	??_C@_06NDJPCPHC@typeof?$AA@			; `string'
PUBLIC	??_C@_03LJAEFNNE@max?$AA@			; `string'
PUBLIC	??_C@_03KLIPLJLL@min?$AA@			; `string'
PUBLIC	??_C@_01CLKCMJKC@?5?$AA@			; `string'
PUBLIC	??_C@_0BG@DKJJOMDK@sqlite_rename_trigger?$AA@	; `string'
PUBLIC	??_C@_0BE@JHJAJICL@sqlite_rename_table?$AA@	; `string'
PUBLIC	??_C@_01HIHLOKLC@1?$AA@				; `string'
PUBLIC	??_C@_00CNPNBAHC@?$AA@				; `string'
PUBLIC	??_C@_06ICNNEOIM@ToReal?$AA@			; `string'
PUBLIC	??_C@_05CNEGLJEO@ToInt?$AA@			; `string'
PUBLIC	??_C@_09IAEPJEPI@ToNumeric?$AA@			; `string'
PUBLIC	??_C@_06LCIJGAA@ToBlob?$AA@			; `string'
PUBLIC	??_C@_06JMHBLLIK@ToText?$AA@			; `string'
PUBLIC	??_C@_0M@HFPJJKAF@NotUsed_137?$AA@		; `string'
PUBLIC	??_C@_0M@GMOCKLEE@NotUsed_136?$AA@		; `string'
PUBLIC	??_C@_07HJJPPOKN@NullRow?$AA@			; `string'
PUBLIC	??_C@_05JDGHEPJG@Found?$AA@			; `string'
PUBLIC	??_C@_07HGAGCIAF@MemNull?$AA@			; `string'
PUBLIC	??_C@_07MOHBHIMB@MemMove?$AA@			; `string'
PUBLIC	??_C@_07KDKHCOMM@VCreate?$AA@			; `string'
PUBLIC	??_C@_07NHABAPID@VUpdate?$AA@			; `string'
PUBLIC	??_C@_06CLFNNGGK@VBegin?$AA@			; `string'
PUBLIC	??_C@_06KJNIJPEO@MoveGe?$AA@			; `string'
PUBLIC	??_C@_06MAOEIKCJ@Rewind?$AA@			; `string'
PUBLIC	??_C@_07BJNJNDIK@HexBlob?$AA@			; `string'
PUBLIC	??_C@_04PHKLBGME@Real?$AA@			; `string'
PUBLIC	??_C@_08OOLDHECE@MemStore?$AA@			; `string'
PUBLIC	??_C@_04HOFOMOEI@Blob?$AA@			; `string'
PUBLIC	??_C@_04KHKKIIL@Null?$AA@			; `string'
PUBLIC	??_C@_0O@MHKNMBPC@OpenEphemeral?$AA@		; `string'
PUBLIC	??_C@_0L@PKPPHKBP@OpenPseudo?$AA@		; `string'
PUBLIC	??_C@_09EFJEPADK@IfMemZero?$AA@			; `string'
PUBLIC	??_C@_07EMCFMDDO@Explain?$AA@			; `string'
PUBLIC	??_C@_0N@FEAPPFEN@LoadAnalysis?$AA@		; `string'
PUBLIC	??_C@_08PGPGCKGP@ForceInt?$AA@			; `string'
PUBLIC	??_C@_0L@LIFFPDNM@ReadCookie?$AA@		; `string'
PUBLIC	??_C@_07BDCAJABG@Destroy?$AA@			; `string'
PUBLIC	??_C@_06CPFCODOD@Insert?$AA@			; `string'
PUBLIC	??_C@_08FGAGNLCM@Distinct?$AA@			; `string'
PUBLIC	??_C@_09ENCBCCAM@IdxInsert?$AA@			; `string'
PUBLIC	??_C@_04MDFHGMOB@Next?$AA@			; `string'
PUBLIC	??_C@_0L@NCJBPLPE@ContextPop?$AA@		; `string'
PUBLIC	??_C@_08JBEDGDCN@VDestroy?$AA@			; `string'
PUBLIC	??_C@_07OKDOHLDO@VFilter?$AA@			; `string'
PUBLIC	??_C@_0M@MEGKBOMN@Transaction?$AA@		; `string'
PUBLIC	??_C@_08NKJEFJJA@AbsValue?$AA@			; `string'
PUBLIC	??_C@_0O@GDDDBLCD@SetNumColumns?$AA@		; `string'
PUBLIC	??_C@_04NFKKIBGI@Pull?$AA@			; `string'
PUBLIC	??_C@_07NOMHFNIB@AggStep?$AA@			; `string'
PUBLIC	??_C@_0N@NKEHNBGM@VerifyCookie?$AA@		; `string'
PUBLIC	??_C@_06PGFEFDLP@MoveLt?$AA@			; `string'
PUBLIC	??_C@_05PFBFPBD@IdxGT?$AA@			; `string'
PUBLIC	??_C@_05MDNHABIA@Clear?$AA@			; `string'
PUBLIC	??_C@_08GMLBHKDC@FifoRead?$AA@			; `string'
PUBLIC	??_C@_09FDKNKOOK@TableLock?$AA@			; `string'
PUBLIC	??_C@_04BNGNMAK@Goto?$AA@			; `string'
PUBLIC	??_C@_03LHMIDMME@Dup?$AA@			; `string'
PUBLIC	??_C@_08FCKHNOBN@AggFinal?$AA@			; `string'
PUBLIC	??_C@_06JBKGCNBB@Delete?$AA@			; `string'
PUBLIC	??_C@_0L@PGPMFKDB@MakeRecord?$AA@		; `string'
PUBLIC	??_C@_09ELPHDPAO@DropTable?$AA@			; `string'
PUBLIC	??_C@_05DALJIPE@IfNot?$AA@			; `string'
PUBLIC	??_C@_07KGFHIBD@String8?$AA@			; `string'
PUBLIC	??_C@_06OBLNEDKN@BitNot?$AA@			; `string'
PUBLIC	??_C@_06KFINHAKP@MoveLe?$AA@			; `string'
PUBLIC	??_C@_08BIJOEGAJ@Negative?$AA@			; `string'
PUBLIC	??_C@_06OBCEMCJB@Vacuum?$AA@			; `string'
PUBLIC	??_C@_06ODAFHOMO@Concat?$AA@			; `string'
PUBLIC	??_C@_09DPOHBCHJ@Remainder?$AA@			; `string'
PUBLIC	??_C@_06JKMEHOIB@Divide?$AA@			; `string'
PUBLIC	??_C@_08EOBDLMOI@Multiply?$AA@			; `string'
PUBLIC	??_C@_08DLEJPBEP@Subtract?$AA@			; `string'
PUBLIC	??_C@_03LDFMNCOE@Add?$AA@			; `string'
PUBLIC	??_C@_0L@DHHFIOFJ@ShiftRight?$AA@		; `string'
PUBLIC	??_C@_09IIGOLNPP@ShiftLeft?$AA@			; `string'
PUBLIC	??_C@_05BKBNAGEF@BitOr?$AA@			; `string'
PUBLIC	??_C@_06PCNOCLJN@BitAnd?$AA@			; `string'
PUBLIC	??_C@_09PDNFOMPO@IdxDelete?$AA@			; `string'
PUBLIC	??_C@_02GNOBCCEK@Ge?$AA@			; `string'
PUBLIC	??_C@_02DCGNOOLL@Lt?$AA@			; `string'
PUBLIC	??_C@_02GBLEMNKL@Le?$AA@			; `string'
PUBLIC	??_C@_02DODIABFK@Gt?$AA@			; `string'
PUBLIC	??_C@_02EAMLCBHB@Eq?$AA@			; `string'
PUBLIC	??_C@_02GCDABJMF@Ne?$AA@			; `string'
PUBLIC	??_C@_07HICACDPL@NotNull?$AA@			; `string'
PUBLIC	??_C@_06NBBMPCN@IsNull?$AA@			; `string'
PUBLIC	??_C@_05FMIIHMAD@IdxGE?$AA@			; `string'
PUBLIC	??_C@_09KDDJLBNF@DropIndex?$AA@			; `string'
PUBLIC	??_C@_0M@JKNINGPB@DropTrigger?$AA@		; `string'
PUBLIC	??_C@_03LOMLFHDC@And?$AA@			; `string'
PUBLIC	??_C@_02GGHBPHGE@Or?$AA@			; `string'
PUBLIC	??_C@_0M@CKMEEPPD@ContextPush?$AA@		; `string'
PUBLIC	??_C@_08HNHIOOFI@Callback?$AA@			; `string'
PUBLIC	??_C@_09ILKOCOKG@FifoWrite?$AA@			; `string'
PUBLIC	??_C@_0L@NDDNCBN@ResetCount?$AA@		; `string'
PUBLIC	??_C@_0L@BLCAOEHN@MakeIdxRec?$AA@		; `string'
PUBLIC	??_C@_08KLKOBEJ@IdxRowid?$AA@			; `string'
PUBLIC	??_C@_0L@POHPJECG@IncrVacuum?$AA@		; `string'
PUBLIC	??_C@_04DKKAEHDH@Last?$AA@			; `string'
PUBLIC	??_C@_0M@BDPOJHGL@CreateTable?$AA@		; `string'
PUBLIC	??_C@_07DOIHNMAE@VColumn?$AA@			; `string'
PUBLIC	??_C@_04PHIBHIIF@Prev?$AA@			; `string'
PUBLIC	??_C@_06JBNCFEEC@MemInt?$AA@			; `string'
PUBLIC	??_C@_07EDADKEAH@Integer?$AA@			; `string'
PUBLIC	??_C@_05DLHJCIPI@Gosub?$AA@			; `string'
PUBLIC	??_C@_07JMCDFMGJ@MemIncr?$AA@			; `string'
PUBLIC	??_C@_09HMMGFEAA@NotExists?$AA@			; `string'
PUBLIC	??_C@_04KGLMKACB@Push?$AA@			; `string'
PUBLIC	??_C@_06LJFJMLCE@MemMax?$AA@			; `string'
PUBLIC	??_C@_07OHPACBNN@RowData?$AA@			; `string'
PUBLIC	??_C@_09NLAGBMPK@Statement?$AA@			; `string'
PUBLIC	??_C@_06JHIJIKD@AddImm?$AA@			; `string'
PUBLIC	??_C@_05DAELAPC@IdxLT?$AA@			; `string'
PUBLIC	??_C@_05KEGGNBBF@Rowid?$AA@			; `string'
PUBLIC	??_C@_04NIFKAFLK@Halt?$AA@			; `string'
PUBLIC	??_C@_09LLJOBHN@MustBeInt?$AA@			; `string'
PUBLIC	??_C@_05DPPJJBMK@Int64?$AA@			; `string'
PUBLIC	??_C@_08MDBAGECB@NotFound?$AA@			; `string'
PUBLIC	??_C@_08HBKIHNI@IsUnique?$AA@			; `string'
PUBLIC	??_C@_0M@PLDABJLA@CreateIndex?$AA@		; `string'
PUBLIC	??_C@_05LGELBCGM@Close?$AA@			; `string'
PUBLIC	??_C@_05JABEJFFA@VOpen?$AA@			; `string'
PUBLIC	??_C@_0M@IPJMJJPI@ParseSchema?$AA@		; `string'
PUBLIC	??_C@_0N@KGPEGHPK@RealAffinity?$AA@		; `string'
PUBLIC	??_C@_06ENNEIMBA@String?$AA@			; `string'
PUBLIC	??_C@_08DMMJCAML@Variable?$AA@			; `string'
PUBLIC	??_C@_08HOGPBFDI@IfMemNeg?$AA@			; `string'
PUBLIC	??_C@_08FEDJPMPH@NewRowid?$AA@			; `string'
PUBLIC	??_C@_06HCFIKKEA@Return?$AA@			; `string'
PUBLIC	??_C@_04NBOPPMHE@Noop?$AA@			; `string'
PUBLIC	??_C@_08PHKOHANG@Function?$AA@			; `string'
PUBLIC	??_C@_04DJANFKGA@Sort?$AA@			; `string'
PUBLIC	??_C@_0M@KCIGPGBI@IntegrityCk?$AA@		; `string'
PUBLIC	??_C@_0L@BPKAOEDK@AutoCommit?$AA@		; `string'
PUBLIC	??_C@_03KNKIDPAC@Not?$AA@			; `string'
PUBLIC	??_C@_06GDNCIOGJ@Expire?$AA@			; `string'
PUBLIC	??_C@_08FJFCCPFB@OpenRead?$AA@			; `string'
PUBLIC	??_C@_07MCEFGNMJ@CollSeq?$AA@			; `string'
PUBLIC	??_C@_06MIMNHDEF@VRowid?$AA@			; `string'
PUBLIC	??_C@_03HJACNKKK@Pop?$AA@			; `string'
PUBLIC	??_C@_02EMFCFMID@If?$AA@			; `string'
PUBLIC	??_C@_09FPCAPNBB@OpenWrite?$AA@			; `string'
PUBLIC	??_C@_06JIHNENAH@RowKey?$AA@			; `string'
PUBLIC	??_C@_06PKABLMFO@MoveGt?$AA@			; `string'
PUBLIC	??_C@_08DOCONEG@Sequence?$AA@			; `string'
PUBLIC	??_C@_08ONJAGHBH@IfMemPos?$AA@			; `string'
PUBLIC	??_C@_09FEDANMPL@SetCookie?$AA@			; `string'
PUBLIC	??_C@_06FFIACGFC@Column?$AA@			; `string'
PUBLIC	??_C@_05GOGANBLF@VNext?$AA@			; `string'
PUBLIC	??_C@_07PDGDNFMF@MemLoad?$AA@			; `string'
PUBLIC	??_C@_01OGPIMHDM@?$DP?$AA@			; `string'
PUBLIC	??_C@_0N@DJJJGBGD@current_date?$AA@		; `string'
PUBLIC	??_C@_0BC@DDICBCEN@current_timestamp?$AA@	; `string'
PUBLIC	??_C@_0N@IPDKEGPB@current_time?$AA@		; `string'
PUBLIC	??_C@_08EPGBJPHJ@strftime?$AA@			; `string'
PUBLIC	??_C@_08FGNPMIBK@datetime?$AA@			; `string'
PUBLIC	??_C@_04CLCEDBPF@time?$AA@			; `string'
PUBLIC	??_C@_04JNIHBGGH@date?$AA@			; `string'
PUBLIC	??_C@_09BPOICPEH@julianday?$AA@			; `string'
PUBLIC	_sqlite3_mallocHasFailed
PUBLIC	_sqlite3one
PUBLIC	_sqlite3UtfTrans1
PUBLIC	_sqlite3UpperToLower
PUBLIC	_sqlite3OpcodeNames
PUBLIC	_sqlite3_os_trace
PUBLIC	_sqlite3_os_type
PUBLIC	_sqlite3_apis
PUBLIC	_sqlite3IsIdChar
PUBLIC	_sqlite3_version
PUBLIC	_sqlite3_io_trace
PUBLIC	_sqlite3_temp_directory
_BSS	SEGMENT
_sqlite3_mallocHasFailed DD 01H DUP (?)
_sqlite3_os_trace DD 01H DUP (?)
_sqlite3_os_type DD 01H DUP (?)
_inMutex DD	01H DUP (?)
?keyInit@?1??sqlite3WinThreadSpecificData@@9@9 DD 01H DUP (?) ; `sqlite3WinThreadSpecificData'::`2'::keyInit
_nAutoExtension DD 01H DUP (?)
_aAutoExtension DD 01H DUP (?)
_sqlite3_io_trace DD 01H DUP (?)
_sqlite3_temp_directory DD 01H DUP (?)
_BSS	ENDS
;	COMDAT ??_C@_05JJGFHFCC@aaada?$AA@
CONST	SEGMENT
??_C@_05JJGFHFCC@aaada?$AA@ DB 'aaada', 00H		; `string'
CONST	ENDS
;	COMDAT ??_C@_0BA@HAFLJCI@CREATE?5TRIGGER?5?$AA@
CONST	SEGMENT
??_C@_0BA@HAFLJCI@CREATE?5TRIGGER?5?$AA@ DB 'CREATE TRIGGER ', 00H ; `string'
CONST	ENDS
;	COMDAT ??_C@_07DIDNFGDE@trigger?$AA@
CONST	SEGMENT
??_C@_07DIDNFGDE@trigger?$AA@ DB 'trigger', 00H		; `string'
CONST	ENDS
;	COMDAT ??_C@_05MNCHLHCA@UTF16?$AA@
CONST	SEGMENT
??_C@_05MNCHLHCA@UTF16?$AA@ DB 'UTF16', 00H		; `string'
CONST	ENDS
;	COMDAT ??_C@_06KNDPGIKI@UTF?916?$AA@
CONST	SEGMENT
??_C@_06KNDPGIKI@UTF?916?$AA@ DB 'UTF-16', 00H		; `string'
CONST	ENDS
;	COMDAT ??_C@_07JDFIEPAG@UTF16be?$AA@
CONST	SEGMENT
??_C@_07JDFIEPAG@UTF16be?$AA@ DB 'UTF16be', 00H		; `string'
CONST	ENDS
;	COMDAT ??_C@_08HGGOPCBI@UTF?916be?$AA@
CONST	SEGMENT
??_C@_08HGGOPCBI@UTF?916be?$AA@ DB 'UTF-16be', 00H	; `string'
CONST	ENDS
;	COMDAT ??_C@_07JJMGGCAM@UTF16le?$AA@
CONST	SEGMENT
??_C@_07JJMGGCAM@UTF16le?$AA@ DB 'UTF16le', 00H		; `string'
CONST	ENDS
;	COMDAT ??_C@_08HMPANPBC@UTF?916le?$AA@
CONST	SEGMENT
??_C@_08HMPANPBC@UTF?916le?$AA@ DB 'UTF-16le', 00H	; `string'
CONST	ENDS
;	COMDAT ??_C@_04OOMJJNCF@UTF8?$AA@
CONST	SEGMENT
??_C@_04OOMJJNCF@UTF8?$AA@ DB 'UTF8', 00H		; `string'
CONST	ENDS
;	COMDAT ??_C@_05EGJIMALK@UTF?98?$AA@
CONST	SEGMENT
??_C@_05EGJIMALK@UTF?98?$AA@ DB 'UTF-8', 00H		; `string'
CONST	ENDS
;	COMDAT ??_C@_0BN@JKHLHJNK@wrong?5?$CD?5of?5entries?5in?5index?5?$AA@
CONST	SEGMENT
??_C@_0BN@JKHLHJNK@wrong?5?$CD?5of?5entries?5in?5index?5?$AA@ DB 'wrong #'
	DB	' of entries in index ', 00H			; `string'
CONST	ENDS
;	COMDAT ??_C@_0BF@JGBLFHJL@?5missing?5from?5index?5?$AA@
CONST	SEGMENT
??_C@_0BF@JGBLFHJL@?5missing?5from?5index?5?$AA@ DB ' missing from index '
	DB	00H						; `string'
CONST	ENDS
;	COMDAT ??_C@_06DHEAJPAE@rowid?5?$AA@
CONST	SEGMENT
??_C@_06DHEAJPAE@rowid?5?$AA@ DB 'rowid ', 00H		; `string'
CONST	ENDS
;	COMDAT ??_C@_02MFDMBIJM@ok?$AA@
CONST	SEGMENT
??_C@_02MFDMBIJM@ok?$AA@ DB 'ok', 00H			; `string'
CONST	ENDS
;	COMDAT ??_C@_0BB@KLHJNGLH@read_uncommitted?$AA@
CONST	SEGMENT
??_C@_0BB@KLHJNGLH@read_uncommitted?$AA@ DB 'read_uncommitted', 00H ; `string'
CONST	ENDS
;	COMDAT ??_C@_0O@FCIFIHH@omit_readlock?$AA@
CONST	SEGMENT
??_C@_0O@FCIFIHH@omit_readlock?$AA@ DB 'omit_readlock', 00H ; `string'
CONST	ENDS
;	COMDAT ??_C@_0BA@OHBCLCAL@writable_schema?$AA@
CONST	SEGMENT
??_C@_0BA@OHBCLCAL@writable_schema?$AA@ DB 'writable_schema', 00H ; `string'
CONST	ENDS
;	COMDAT ??_C@_0BJ@KLIMENGM@ignore_check_constraints?$AA@
CONST	SEGMENT
??_C@_0BJ@KLIMENGM@ignore_check_constraints?$AA@ DB 'ignore_check_constra'
	DB	'ints', 00H					; `string'
CONST	ENDS
;	COMDAT ??_C@_09MLJLLBEB@fullfsync?$AA@
CONST	SEGMENT
??_C@_09MLJLLBEB@fullfsync?$AA@ DB 'fullfsync', 00H	; `string'
CONST	ENDS
;	COMDAT ??_C@_0BD@LEFOEGBK@legacy_file_format?$AA@
CONST	SEGMENT
??_C@_0BD@LEFOEGBK@legacy_file_format?$AA@ DB 'legacy_file_format', 00H ; `string'
CONST	ENDS
;	COMDAT ??_C@_0BH@CMLDBHJP@empty_result_callbacks?$AA@
CONST	SEGMENT
??_C@_0BH@CMLDBHJP@empty_result_callbacks?$AA@ DB 'empty_result_callbacks'
	DB	00H						; `string'
CONST	ENDS
;	COMDAT ??_C@_0O@PEBBJPHD@count_changes?$AA@
CONST	SEGMENT
??_C@_0O@PEBBJPHD@count_changes?$AA@ DB 'count_changes', 00H ; `string'
CONST	ENDS
;	COMDAT ??_C@_0BD@BFIEDLEP@short_column_names?$AA@
CONST	SEGMENT
??_C@_0BD@BFIEDLEP@short_column_names?$AA@ DB 'short_column_names', 00H ; `string'
CONST	ENDS
;	COMDAT ??_C@_0BC@CBBNFKC@full_column_names?$AA@
CONST	SEGMENT
??_C@_0BC@CBBNFKC@full_column_names?$AA@ DB 'full_column_names', 00H ; `string'
CONST	ENDS
;	COMDAT ??_C@_05IOMEMJEC@count?$AA@
CONST	SEGMENT
??_C@_05IOMEMJEC@count?$AA@ DB 'count', 00H		; `string'
CONST	ENDS
;	COMDAT ??_C@_03CHOBFJAH@avg?$AA@
CONST	SEGMENT
??_C@_03CHOBFJAH@avg?$AA@ DB 'avg', 00H			; `string'
CONST	ENDS
;	COMDAT ??_C@_05KBOMEDGA@total?$AA@
CONST	SEGMENT
??_C@_05KBOMEDGA@total?$AA@ DB 'total', 00H		; `string'
CONST	ENDS
;	COMDAT ??_C@_03CFFIJAMA@sum?$AA@
CONST	SEGMENT
??_C@_03CFFIJAMA@sum?$AA@ DB 'sum', 00H			; `string'
CONST	ENDS
;	COMDAT ??_C@_0P@BJKPICNH@load_extension?$AA@
CONST	SEGMENT
??_C@_0P@BJKPICNH@load_extension?$AA@ DB 'load_extension', 00H ; `string'
CONST	ENDS
;	COMDAT ??_C@_08OAGHJJOG@zeroblob?$AA@
CONST	SEGMENT
??_C@_08OAGHJJOG@zeroblob?$AA@ DB 'zeroblob', 00H	; `string'
CONST	ENDS
;	COMDAT ??_C@_04GDOMMDLP@trim?$AA@
CONST	SEGMENT
??_C@_04GDOMMDLP@trim?$AA@ DB 'trim', 00H		; `string'
CONST	ENDS
;	COMDAT ??_C@_05FCOGDJML@rtrim?$AA@
CONST	SEGMENT
??_C@_05FCOGDJML@rtrim?$AA@ DB 'rtrim', 00H		; `string'
CONST	ENDS
;	COMDAT ??_C@_05GLDKFKCA@ltrim?$AA@
CONST	SEGMENT
??_C@_05GLDKFKCA@ltrim?$AA@ DB 'ltrim', 00H		; `string'
CONST	ENDS
;	COMDAT ??_C@_07CLEHDIEJ@replace?$AA@
CONST	SEGMENT
??_C@_07CLEHDIEJ@replace?$AA@ DB 'replace', 00H		; `string'
CONST	ENDS
;	COMDAT ??_C@_0O@MLEKHAGK@total_changes?$AA@
CONST	SEGMENT
??_C@_0O@MLEKHAGK@total_changes?$AA@ DB 'total_changes', 00H ; `string'
CONST	ENDS
;	COMDAT ??_C@_07HFLFHMNL@changes?$AA@
CONST	SEGMENT
??_C@_07HFLFHMNL@changes?$AA@ DB 'changes', 00H		; `string'
CONST	ENDS
;	COMDAT ??_C@_0BC@EKKKCJJE@last_insert_rowid?$AA@
CONST	SEGMENT
??_C@_0BC@EKKKCJJE@last_insert_rowid?$AA@ DB 'last_insert_rowid', 00H ; `string'
CONST	ENDS
;	COMDAT ??_C@_05JHEGFHLM@quote?$AA@
CONST	SEGMENT
??_C@_05JHEGFHLM@quote?$AA@ DB 'quote', 00H		; `string'
CONST	ENDS
;	COMDAT ??_C@_0P@IPDPEBN@sqlite_version?$AA@
CONST	SEGMENT
??_C@_0P@IPDPEBN@sqlite_version?$AA@ DB 'sqlite_version', 00H ; `string'
CONST	ENDS
;	COMDAT ??_C@_06LLGGGFDC@nullif?$AA@
CONST	SEGMENT
??_C@_06LLGGGFDC@nullif?$AA@ DB 'nullif', 00H		; `string'
CONST	ENDS
;	COMDAT ??_C@_0L@IDMFPHDO@randomblob?$AA@
CONST	SEGMENT
??_C@_0L@IDMFPHDO@randomblob?$AA@ DB 'randomblob', 00H	; `string'
CONST	ENDS
;	COMDAT ??_C@_06NLFCANPD@random?$AA@
CONST	SEGMENT
??_C@_06NLFCANPD@random?$AA@ DB 'random', 00H		; `string'
CONST	ENDS
;	COMDAT ??_C@_06FAHGEKJN@ifnull?$AA@
CONST	SEGMENT
??_C@_06FAHGEKJN@ifnull?$AA@ DB 'ifnull', 00H		; `string'
CONST	ENDS
;	COMDAT ??_C@_03IJNDAFDK@hex?$AA@
CONST	SEGMENT
??_C@_03IJNDAFDK@hex?$AA@ DB 'hex', 00H			; `string'
CONST	ENDS
;	COMDAT ??_C@_08FNGHHBID@coalesce?$AA@
CONST	SEGMENT
??_C@_08FNGHHBID@coalesce?$AA@ DB 'coalesce', 00H	; `string'
CONST	ENDS
;	COMDAT ??_C@_05IPJEPLHL@lower?$AA@
CONST	SEGMENT
??_C@_05IPJEPLHL@lower?$AA@ DB 'lower', 00H		; `string'
CONST	ENDS
;	COMDAT ??_C@_05NECKJAMC@upper?$AA@
CONST	SEGMENT
??_C@_05NECKJAMC@upper?$AA@ DB 'upper', 00H		; `string'
CONST	ENDS
;	COMDAT ??_C@_05MIMAKCN@round?$AA@
CONST	SEGMENT
??_C@_05MIMAKCN@round?$AA@ DB 'round', 00H		; `string'
CONST	ENDS
;	COMDAT ??_C@_03BCGAIFPO@abs?$AA@
CONST	SEGMENT
??_C@_03BCGAIFPO@abs?$AA@ DB 'abs', 00H			; `string'
CONST	ENDS
;	COMDAT ??_C@_06DAHFIGOC@substr?$AA@
CONST	SEGMENT
??_C@_06DAHFIGOC@substr?$AA@ DB 'substr', 00H		; `string'
CONST	ENDS
;	COMDAT ??_C@_06IJDLPEM@length?$AA@
CONST	SEGMENT
??_C@_06IJDLPEM@length?$AA@ DB 'length', 00H		; `string'
CONST	ENDS
;	COMDAT ??_C@_06NDJPCPHC@typeof?$AA@
CONST	SEGMENT
??_C@_06NDJPCPHC@typeof?$AA@ DB 'typeof', 00H		; `string'
CONST	ENDS
;	COMDAT ??_C@_03LJAEFNNE@max?$AA@
CONST	SEGMENT
??_C@_03LJAEFNNE@max?$AA@ DB 'max', 00H			; `string'
CONST	ENDS
;	COMDAT ??_C@_03KLIPLJLL@min?$AA@
CONST	SEGMENT
??_C@_03KLIPLJLL@min?$AA@ DB 'min', 00H			; `string'
CONST	ENDS
;	COMDAT ??_C@_01CLKCMJKC@?5?$AA@
CONST	SEGMENT
??_C@_01CLKCMJKC@?5?$AA@ DB ' ', 00H			; `string'
CONST	ENDS
;	COMDAT ??_C@_0BG@DKJJOMDK@sqlite_rename_trigger?$AA@
CONST	SEGMENT
??_C@_0BG@DKJJOMDK@sqlite_rename_trigger?$AA@ DB 'sqlite_rename_trigger', 00H ; `string'
CONST	ENDS
;	COMDAT ??_C@_0BE@JHJAJICL@sqlite_rename_table?$AA@
CONST	SEGMENT
??_C@_0BE@JHJAJICL@sqlite_rename_table?$AA@ DB 'sqlite_rename_table', 00H ; `string'
CONST	ENDS
;	COMDAT ??_C@_01HIHLOKLC@1?$AA@
CONST	SEGMENT
??_C@_01HIHLOKLC@1?$AA@ DB '1', 00H			; `string'
CONST	ENDS
;	COMDAT ??_C@_00CNPNBAHC@?$AA@
CONST	SEGMENT
??_C@_00CNPNBAHC@?$AA@ DB 00H				; `string'
CONST	ENDS
_DATA	SEGMENT
?zChars@?1??sqlite3WinTempFileName@@9@9 DB 'abcdefghijklmnopqrstuvwxyzABC'
	DB	'DEFGHIJKLMNOPQRSTUVWXYZ0123456789', 00H	; `sqlite3WinTempFileName'::`2'::zChars
	ORG $+1
?azOne@?3??trimFunc@@9@9 DD FLAT:??_C@_01CLKCMJKC@?5?$AA@ ; `trimFunc'::`4'::azOne
_DATA	ENDS
;	COMDAT ??_C@_06ICNNEOIM@ToReal?$AA@
CONST	SEGMENT
??_C@_06ICNNEOIM@ToReal?$AA@ DB 'ToReal', 00H		; `string'
CONST	ENDS
;	COMDAT ??_C@_05CNEGLJEO@ToInt?$AA@
CONST	SEGMENT
??_C@_05CNEGLJEO@ToInt?$AA@ DB 'ToInt', 00H		; `string'
CONST	ENDS
;	COMDAT ??_C@_09IAEPJEPI@ToNumeric?$AA@
CONST	SEGMENT
??_C@_09IAEPJEPI@ToNumeric?$AA@ DB 'ToNumeric', 00H	; `string'
CONST	ENDS
;	COMDAT ??_C@_06LCIJGAA@ToBlob?$AA@
CONST	SEGMENT
??_C@_06LCIJGAA@ToBlob?$AA@ DB 'ToBlob', 00H		; `string'
CONST	ENDS
;	COMDAT ??_C@_06JMHBLLIK@ToText?$AA@
CONST	SEGMENT
??_C@_06JMHBLLIK@ToText?$AA@ DB 'ToText', 00H		; `string'
CONST	ENDS
;	COMDAT ??_C@_0M@HFPJJKAF@NotUsed_137?$AA@
CONST	SEGMENT
??_C@_0M@HFPJJKAF@NotUsed_137?$AA@ DB 'NotUsed_137', 00H ; `string'
CONST	ENDS
;	COMDAT ??_C@_0M@GMOCKLEE@NotUsed_136?$AA@
CONST	SEGMENT
??_C@_0M@GMOCKLEE@NotUsed_136?$AA@ DB 'NotUsed_136', 00H ; `string'
CONST	ENDS
;	COMDAT ??_C@_07HJJPPOKN@NullRow?$AA@
CONST	SEGMENT
??_C@_07HJJPPOKN@NullRow?$AA@ DB 'NullRow', 00H		; `string'
CONST	ENDS
;	COMDAT ??_C@_05JDGHEPJG@Found?$AA@
CONST	SEGMENT
??_C@_05JDGHEPJG@Found?$AA@ DB 'Found', 00H		; `string'
CONST	ENDS
;	COMDAT ??_C@_07HGAGCIAF@MemNull?$AA@
CONST	SEGMENT
??_C@_07HGAGCIAF@MemNull?$AA@ DB 'MemNull', 00H		; `string'
CONST	ENDS
;	COMDAT ??_C@_07MOHBHIMB@MemMove?$AA@
CONST	SEGMENT
??_C@_07MOHBHIMB@MemMove?$AA@ DB 'MemMove', 00H		; `string'
CONST	ENDS
;	COMDAT ??_C@_07KDKHCOMM@VCreate?$AA@
CONST	SEGMENT
??_C@_07KDKHCOMM@VCreate?$AA@ DB 'VCreate', 00H		; `string'
CONST	ENDS
;	COMDAT ??_C@_07NHABAPID@VUpdate?$AA@
CONST	SEGMENT
??_C@_07NHABAPID@VUpdate?$AA@ DB 'VUpdate', 00H		; `string'
CONST	ENDS
;	COMDAT ??_C@_06CLFNNGGK@VBegin?$AA@
CONST	SEGMENT
??_C@_06CLFNNGGK@VBegin?$AA@ DB 'VBegin', 00H		; `string'
CONST	ENDS
;	COMDAT ??_C@_06KJNIJPEO@MoveGe?$AA@
CONST	SEGMENT
??_C@_06KJNIJPEO@MoveGe?$AA@ DB 'MoveGe', 00H		; `string'
CONST	ENDS
;	COMDAT ??_C@_06MAOEIKCJ@Rewind?$AA@
CONST	SEGMENT
??_C@_06MAOEIKCJ@Rewind?$AA@ DB 'Rewind', 00H		; `string'
CONST	ENDS
;	COMDAT ??_C@_07BJNJNDIK@HexBlob?$AA@
CONST	SEGMENT
??_C@_07BJNJNDIK@HexBlob?$AA@ DB 'HexBlob', 00H		; `string'
CONST	ENDS
;	COMDAT ??_C@_04PHKLBGME@Real?$AA@
CONST	SEGMENT
??_C@_04PHKLBGME@Real?$AA@ DB 'Real', 00H		; `string'
CONST	ENDS
;	COMDAT ??_C@_08OOLDHECE@MemStore?$AA@
CONST	SEGMENT
??_C@_08OOLDHECE@MemStore?$AA@ DB 'MemStore', 00H	; `string'
CONST	ENDS
;	COMDAT ??_C@_04HOFOMOEI@Blob?$AA@
CONST	SEGMENT
??_C@_04HOFOMOEI@Blob?$AA@ DB 'Blob', 00H		; `string'
CONST	ENDS
;	COMDAT ??_C@_04KHKKIIL@Null?$AA@
CONST	SEGMENT
??_C@_04KHKKIIL@Null?$AA@ DB 'Null', 00H		; `string'
CONST	ENDS
;	COMDAT ??_C@_0O@MHKNMBPC@OpenEphemeral?$AA@
CONST	SEGMENT
??_C@_0O@MHKNMBPC@OpenEphemeral?$AA@ DB 'OpenEphemeral', 00H ; `string'
CONST	ENDS
;	COMDAT ??_C@_0L@PKPPHKBP@OpenPseudo?$AA@
CONST	SEGMENT
??_C@_0L@PKPPHKBP@OpenPseudo?$AA@ DB 'OpenPseudo', 00H	; `string'
CONST	ENDS
;	COMDAT ??_C@_09EFJEPADK@IfMemZero?$AA@
CONST	SEGMENT
??_C@_09EFJEPADK@IfMemZero?$AA@ DB 'IfMemZero', 00H	; `string'
CONST	ENDS
;	COMDAT ??_C@_07EMCFMDDO@Explain?$AA@
CONST	SEGMENT
??_C@_07EMCFMDDO@Explain?$AA@ DB 'Explain', 00H		; `string'
CONST	ENDS
;	COMDAT ??_C@_0N@FEAPPFEN@LoadAnalysis?$AA@
CONST	SEGMENT
??_C@_0N@FEAPPFEN@LoadAnalysis?$AA@ DB 'LoadAnalysis', 00H ; `string'
CONST	ENDS
;	COMDAT ??_C@_08PGPGCKGP@ForceInt?$AA@
CONST	SEGMENT
??_C@_08PGPGCKGP@ForceInt?$AA@ DB 'ForceInt', 00H	; `string'
CONST	ENDS
;	COMDAT ??_C@_0L@LIFFPDNM@ReadCookie?$AA@
CONST	SEGMENT
??_C@_0L@LIFFPDNM@ReadCookie?$AA@ DB 'ReadCookie', 00H	; `string'
CONST	ENDS
;	COMDAT ??_C@_07BDCAJABG@Destroy?$AA@
CONST	SEGMENT
??_C@_07BDCAJABG@Destroy?$AA@ DB 'Destroy', 00H		; `string'
CONST	ENDS
;	COMDAT ??_C@_06CPFCODOD@Insert?$AA@
CONST	SEGMENT
??_C@_06CPFCODOD@Insert?$AA@ DB 'Insert', 00H		; `string'
CONST	ENDS
;	COMDAT ??_C@_08FGAGNLCM@Distinct?$AA@
CONST	SEGMENT
??_C@_08FGAGNLCM@Distinct?$AA@ DB 'Distinct', 00H	; `string'
CONST	ENDS
;	COMDAT ??_C@_09ENCBCCAM@IdxInsert?$AA@
CONST	SEGMENT
??_C@_09ENCBCCAM@IdxInsert?$AA@ DB 'IdxInsert', 00H	; `string'
CONST	ENDS
;	COMDAT ??_C@_04MDFHGMOB@Next?$AA@
CONST	SEGMENT
??_C@_04MDFHGMOB@Next?$AA@ DB 'Next', 00H		; `string'
CONST	ENDS
;	COMDAT ??_C@_0L@NCJBPLPE@ContextPop?$AA@
CONST	SEGMENT
??_C@_0L@NCJBPLPE@ContextPop?$AA@ DB 'ContextPop', 00H	; `string'
CONST	ENDS
;	COMDAT ??_C@_08JBEDGDCN@VDestroy?$AA@
CONST	SEGMENT
??_C@_08JBEDGDCN@VDestroy?$AA@ DB 'VDestroy', 00H	; `string'
CONST	ENDS
;	COMDAT ??_C@_07OKDOHLDO@VFilter?$AA@
CONST	SEGMENT
??_C@_07OKDOHLDO@VFilter?$AA@ DB 'VFilter', 00H		; `string'
CONST	ENDS
;	COMDAT ??_C@_0M@MEGKBOMN@Transaction?$AA@
CONST	SEGMENT
??_C@_0M@MEGKBOMN@Transaction?$AA@ DB 'Transaction', 00H ; `string'
CONST	ENDS
;	COMDAT ??_C@_08NKJEFJJA@AbsValue?$AA@
CONST	SEGMENT
??_C@_08NKJEFJJA@AbsValue?$AA@ DB 'AbsValue', 00H	; `string'
CONST	ENDS
;	COMDAT ??_C@_0O@GDDDBLCD@SetNumColumns?$AA@
CONST	SEGMENT
??_C@_0O@GDDDBLCD@SetNumColumns?$AA@ DB 'SetNumColumns', 00H ; `string'
CONST	ENDS
;	COMDAT ??_C@_04NFKKIBGI@Pull?$AA@
CONST	SEGMENT
??_C@_04NFKKIBGI@Pull?$AA@ DB 'Pull', 00H		; `string'
CONST	ENDS
;	COMDAT ??_C@_07NOMHFNIB@AggStep?$AA@
CONST	SEGMENT
??_C@_07NOMHFNIB@AggStep?$AA@ DB 'AggStep', 00H		; `string'
CONST	ENDS
;	COMDAT ??_C@_0N@NKEHNBGM@VerifyCookie?$AA@
CONST	SEGMENT
??_C@_0N@NKEHNBGM@VerifyCookie?$AA@ DB 'VerifyCookie', 00H ; `string'
CONST	ENDS
;	COMDAT ??_C@_06PGFEFDLP@MoveLt?$AA@
CONST	SEGMENT
??_C@_06PGFEFDLP@MoveLt?$AA@ DB 'MoveLt', 00H		; `string'
CONST	ENDS
;	COMDAT ??_C@_05PFBFPBD@IdxGT?$AA@
CONST	SEGMENT
??_C@_05PFBFPBD@IdxGT?$AA@ DB 'IdxGT', 00H		; `string'
CONST	ENDS
;	COMDAT ??_C@_05MDNHABIA@Clear?$AA@
CONST	SEGMENT
??_C@_05MDNHABIA@Clear?$AA@ DB 'Clear', 00H		; `string'
CONST	ENDS
;	COMDAT ??_C@_08GMLBHKDC@FifoRead?$AA@
CONST	SEGMENT
??_C@_08GMLBHKDC@FifoRead?$AA@ DB 'FifoRead', 00H	; `string'
CONST	ENDS
;	COMDAT ??_C@_09FDKNKOOK@TableLock?$AA@
CONST	SEGMENT
??_C@_09FDKNKOOK@TableLock?$AA@ DB 'TableLock', 00H	; `string'
CONST	ENDS
;	COMDAT ??_C@_04BNGNMAK@Goto?$AA@
CONST	SEGMENT
??_C@_04BNGNMAK@Goto?$AA@ DB 'Goto', 00H		; `string'
CONST	ENDS
;	COMDAT ??_C@_03LHMIDMME@Dup?$AA@
CONST	SEGMENT
??_C@_03LHMIDMME@Dup?$AA@ DB 'Dup', 00H			; `string'
CONST	ENDS
;	COMDAT ??_C@_08FCKHNOBN@AggFinal?$AA@
CONST	SEGMENT
??_C@_08FCKHNOBN@AggFinal?$AA@ DB 'AggFinal', 00H	; `string'
CONST	ENDS
;	COMDAT ??_C@_06JBKGCNBB@Delete?$AA@
CONST	SEGMENT
??_C@_06JBKGCNBB@Delete?$AA@ DB 'Delete', 00H		; `string'
CONST	ENDS
;	COMDAT ??_C@_0L@PGPMFKDB@MakeRecord?$AA@
CONST	SEGMENT
??_C@_0L@PGPMFKDB@MakeRecord?$AA@ DB 'MakeRecord', 00H	; `string'
CONST	ENDS
;	COMDAT ??_C@_09ELPHDPAO@DropTable?$AA@
CONST	SEGMENT
??_C@_09ELPHDPAO@DropTable?$AA@ DB 'DropTable', 00H	; `string'
CONST	ENDS
;	COMDAT ??_C@_05DALJIPE@IfNot?$AA@
CONST	SEGMENT
??_C@_05DALJIPE@IfNot?$AA@ DB 'IfNot', 00H		; `string'
CONST	ENDS
;	COMDAT ??_C@_07KGFHIBD@String8?$AA@
CONST	SEGMENT
??_C@_07KGFHIBD@String8?$AA@ DB 'String8', 00H		; `string'
CONST	ENDS
;	COMDAT ??_C@_06OBLNEDKN@BitNot?$AA@
CONST	SEGMENT
??_C@_06OBLNEDKN@BitNot?$AA@ DB 'BitNot', 00H		; `string'
CONST	ENDS
;	COMDAT ??_C@_06KFINHAKP@MoveLe?$AA@
CONST	SEGMENT
??_C@_06KFINHAKP@MoveLe?$AA@ DB 'MoveLe', 00H		; `string'
CONST	ENDS
;	COMDAT ??_C@_08BIJOEGAJ@Negative?$AA@
CONST	SEGMENT
??_C@_08BIJOEGAJ@Negative?$AA@ DB 'Negative', 00H	; `string'
CONST	ENDS
;	COMDAT ??_C@_06OBCEMCJB@Vacuum?$AA@
CONST	SEGMENT
??_C@_06OBCEMCJB@Vacuum?$AA@ DB 'Vacuum', 00H		; `string'
CONST	ENDS
;	COMDAT ??_C@_06ODAFHOMO@Concat?$AA@
CONST	SEGMENT
??_C@_06ODAFHOMO@Concat?$AA@ DB 'Concat', 00H		; `string'
CONST	ENDS
;	COMDAT ??_C@_09DPOHBCHJ@Remainder?$AA@
CONST	SEGMENT
??_C@_09DPOHBCHJ@Remainder?$AA@ DB 'Remainder', 00H	; `string'
CONST	ENDS
;	COMDAT ??_C@_06JKMEHOIB@Divide?$AA@
CONST	SEGMENT
??_C@_06JKMEHOIB@Divide?$AA@ DB 'Divide', 00H		; `string'
CONST	ENDS
;	COMDAT ??_C@_08EOBDLMOI@Multiply?$AA@
CONST	SEGMENT
??_C@_08EOBDLMOI@Multiply?$AA@ DB 'Multiply', 00H	; `string'
CONST	ENDS
;	COMDAT ??_C@_08DLEJPBEP@Subtract?$AA@
CONST	SEGMENT
??_C@_08DLEJPBEP@Subtract?$AA@ DB 'Subtract', 00H	; `string'
CONST	ENDS
;	COMDAT ??_C@_03LDFMNCOE@Add?$AA@
CONST	SEGMENT
??_C@_03LDFMNCOE@Add?$AA@ DB 'Add', 00H			; `string'
CONST	ENDS
;	COMDAT ??_C@_0L@DHHFIOFJ@ShiftRight?$AA@
CONST	SEGMENT
??_C@_0L@DHHFIOFJ@ShiftRight?$AA@ DB 'ShiftRight', 00H	; `string'
CONST	ENDS
;	COMDAT ??_C@_09IIGOLNPP@ShiftLeft?$AA@
CONST	SEGMENT
??_C@_09IIGOLNPP@ShiftLeft?$AA@ DB 'ShiftLeft', 00H	; `string'
CONST	ENDS
;	COMDAT ??_C@_05BKBNAGEF@BitOr?$AA@
CONST	SEGMENT
??_C@_05BKBNAGEF@BitOr?$AA@ DB 'BitOr', 00H		; `string'
CONST	ENDS
;	COMDAT ??_C@_06PCNOCLJN@BitAnd?$AA@
CONST	SEGMENT
??_C@_06PCNOCLJN@BitAnd?$AA@ DB 'BitAnd', 00H		; `string'
CONST	ENDS
;	COMDAT ??_C@_09PDNFOMPO@IdxDelete?$AA@
CONST	SEGMENT
??_C@_09PDNFOMPO@IdxDelete?$AA@ DB 'IdxDelete', 00H	; `string'
CONST	ENDS
;	COMDAT ??_C@_02GNOBCCEK@Ge?$AA@
CONST	SEGMENT
??_C@_02GNOBCCEK@Ge?$AA@ DB 'Ge', 00H			; `string'
CONST	ENDS
;	COMDAT ??_C@_02DCGNOOLL@Lt?$AA@
CONST	SEGMENT
??_C@_02DCGNOOLL@Lt?$AA@ DB 'Lt', 00H			; `string'
CONST	ENDS
;	COMDAT ??_C@_02GBLEMNKL@Le?$AA@
CONST	SEGMENT
??_C@_02GBLEMNKL@Le?$AA@ DB 'Le', 00H			; `string'
CONST	ENDS
;	COMDAT ??_C@_02DODIABFK@Gt?$AA@
CONST	SEGMENT
??_C@_02DODIABFK@Gt?$AA@ DB 'Gt', 00H			; `string'
CONST	ENDS
;	COMDAT ??_C@_02EAMLCBHB@Eq?$AA@
CONST	SEGMENT
??_C@_02EAMLCBHB@Eq?$AA@ DB 'Eq', 00H			; `string'
CONST	ENDS
;	COMDAT ??_C@_02GCDABJMF@Ne?$AA@
CONST	SEGMENT
??_C@_02GCDABJMF@Ne?$AA@ DB 'Ne', 00H			; `string'
CONST	ENDS
;	COMDAT ??_C@_07HICACDPL@NotNull?$AA@
CONST	SEGMENT
??_C@_07HICACDPL@NotNull?$AA@ DB 'NotNull', 00H		; `string'
CONST	ENDS
;	COMDAT ??_C@_06NBBMPCN@IsNull?$AA@
CONST	SEGMENT
??_C@_06NBBMPCN@IsNull?$AA@ DB 'IsNull', 00H		; `string'
CONST	ENDS
;	COMDAT ??_C@_05FMIIHMAD@IdxGE?$AA@
CONST	SEGMENT
??_C@_05FMIIHMAD@IdxGE?$AA@ DB 'IdxGE', 00H		; `string'
CONST	ENDS
;	COMDAT ??_C@_09KDDJLBNF@DropIndex?$AA@
CONST	SEGMENT
??_C@_09KDDJLBNF@DropIndex?$AA@ DB 'DropIndex', 00H	; `string'
CONST	ENDS
;	COMDAT ??_C@_0M@JKNINGPB@DropTrigger?$AA@
CONST	SEGMENT
??_C@_0M@JKNINGPB@DropTrigger?$AA@ DB 'DropTrigger', 00H ; `string'
CONST	ENDS
;	COMDAT ??_C@_03LOMLFHDC@And?$AA@
CONST	SEGMENT
??_C@_03LOMLFHDC@And?$AA@ DB 'And', 00H			; `string'
CONST	ENDS
;	COMDAT ??_C@_02GGHBPHGE@Or?$AA@
CONST	SEGMENT
??_C@_02GGHBPHGE@Or?$AA@ DB 'Or', 00H			; `string'
CONST	ENDS
;	COMDAT ??_C@_0M@CKMEEPPD@ContextPush?$AA@
CONST	SEGMENT
??_C@_0M@CKMEEPPD@ContextPush?$AA@ DB 'ContextPush', 00H ; `string'
CONST	ENDS
;	COMDAT ??_C@_08HNHIOOFI@Callback?$AA@
CONST	SEGMENT
??_C@_08HNHIOOFI@Callback?$AA@ DB 'Callback', 00H	; `string'
CONST	ENDS
;	COMDAT ??_C@_09ILKOCOKG@FifoWrite?$AA@
CONST	SEGMENT
??_C@_09ILKOCOKG@FifoWrite?$AA@ DB 'FifoWrite', 00H	; `string'
CONST	ENDS
;	COMDAT ??_C@_0L@NDDNCBN@ResetCount?$AA@
CONST	SEGMENT
??_C@_0L@NDDNCBN@ResetCount?$AA@ DB 'ResetCount', 00H	; `string'
CONST	ENDS
;	COMDAT ??_C@_0L@BLCAOEHN@MakeIdxRec?$AA@
CONST	SEGMENT
??_C@_0L@BLCAOEHN@MakeIdxRec?$AA@ DB 'MakeIdxRec', 00H	; `string'
CONST	ENDS
;	COMDAT ??_C@_08KLKOBEJ@IdxRowid?$AA@
CONST	SEGMENT
??_C@_08KLKOBEJ@IdxRowid?$AA@ DB 'IdxRowid', 00H	; `string'
CONST	ENDS
;	COMDAT ??_C@_0L@POHPJECG@IncrVacuum?$AA@
CONST	SEGMENT
??_C@_0L@POHPJECG@IncrVacuum?$AA@ DB 'IncrVacuum', 00H	; `string'
CONST	ENDS
;	COMDAT ??_C@_04DKKAEHDH@Last?$AA@
CONST	SEGMENT
??_C@_04DKKAEHDH@Last?$AA@ DB 'Last', 00H		; `string'
CONST	ENDS
;	COMDAT ??_C@_0M@BDPOJHGL@CreateTable?$AA@
CONST	SEGMENT
??_C@_0M@BDPOJHGL@CreateTable?$AA@ DB 'CreateTable', 00H ; `string'
CONST	ENDS
;	COMDAT ??_C@_07DOIHNMAE@VColumn?$AA@
CONST	SEGMENT
??_C@_07DOIHNMAE@VColumn?$AA@ DB 'VColumn', 00H		; `string'
CONST	ENDS
;	COMDAT ??_C@_04PHIBHIIF@Prev?$AA@
CONST	SEGMENT
??_C@_04PHIBHIIF@Prev?$AA@ DB 'Prev', 00H		; `string'
CONST	ENDS
;	COMDAT ??_C@_06JBNCFEEC@MemInt?$AA@
CONST	SEGMENT
??_C@_06JBNCFEEC@MemInt?$AA@ DB 'MemInt', 00H		; `string'
CONST	ENDS
;	COMDAT ??_C@_07EDADKEAH@Integer?$AA@
CONST	SEGMENT
??_C@_07EDADKEAH@Integer?$AA@ DB 'Integer', 00H		; `string'
CONST	ENDS
;	COMDAT ??_C@_05DLHJCIPI@Gosub?$AA@
CONST	SEGMENT
??_C@_05DLHJCIPI@Gosub?$AA@ DB 'Gosub', 00H		; `string'
CONST	ENDS
;	COMDAT ??_C@_07JMCDFMGJ@MemIncr?$AA@
CONST	SEGMENT
??_C@_07JMCDFMGJ@MemIncr?$AA@ DB 'MemIncr', 00H		; `string'
CONST	ENDS
;	COMDAT ??_C@_09HMMGFEAA@NotExists?$AA@
CONST	SEGMENT
??_C@_09HMMGFEAA@NotExists?$AA@ DB 'NotExists', 00H	; `string'
CONST	ENDS
;	COMDAT ??_C@_04KGLMKACB@Push?$AA@
CONST	SEGMENT
??_C@_04KGLMKACB@Push?$AA@ DB 'Push', 00H		; `string'
CONST	ENDS
;	COMDAT ??_C@_06LJFJMLCE@MemMax?$AA@
CONST	SEGMENT
??_C@_06LJFJMLCE@MemMax?$AA@ DB 'MemMax', 00H		; `string'
CONST	ENDS
;	COMDAT ??_C@_07OHPACBNN@RowData?$AA@
CONST	SEGMENT
??_C@_07OHPACBNN@RowData?$AA@ DB 'RowData', 00H		; `string'
CONST	ENDS
;	COMDAT ??_C@_09NLAGBMPK@Statement?$AA@
CONST	SEGMENT
??_C@_09NLAGBMPK@Statement?$AA@ DB 'Statement', 00H	; `string'
CONST	ENDS
;	COMDAT ??_C@_06JHIJIKD@AddImm?$AA@
CONST	SEGMENT
??_C@_06JHIJIKD@AddImm?$AA@ DB 'AddImm', 00H		; `string'
CONST	ENDS
;	COMDAT ??_C@_05DAELAPC@IdxLT?$AA@
CONST	SEGMENT
??_C@_05DAELAPC@IdxLT?$AA@ DB 'IdxLT', 00H		; `string'
CONST	ENDS
;	COMDAT ??_C@_05KEGGNBBF@Rowid?$AA@
CONST	SEGMENT
??_C@_05KEGGNBBF@Rowid?$AA@ DB 'Rowid', 00H		; `string'
CONST	ENDS
;	COMDAT ??_C@_04NIFKAFLK@Halt?$AA@
CONST	SEGMENT
??_C@_04NIFKAFLK@Halt?$AA@ DB 'Halt', 00H		; `string'
CONST	ENDS
;	COMDAT ??_C@_09LLJOBHN@MustBeInt?$AA@
CONST	SEGMENT
??_C@_09LLJOBHN@MustBeInt?$AA@ DB 'MustBeInt', 00H	; `string'
CONST	ENDS
;	COMDAT ??_C@_05DPPJJBMK@Int64?$AA@
CONST	SEGMENT
??_C@_05DPPJJBMK@Int64?$AA@ DB 'Int64', 00H		; `string'
CONST	ENDS
;	COMDAT ??_C@_08MDBAGECB@NotFound?$AA@
CONST	SEGMENT
??_C@_08MDBAGECB@NotFound?$AA@ DB 'NotFound', 00H	; `string'
CONST	ENDS
;	COMDAT ??_C@_08HBKIHNI@IsUnique?$AA@
CONST	SEGMENT
??_C@_08HBKIHNI@IsUnique?$AA@ DB 'IsUnique', 00H	; `string'
CONST	ENDS
;	COMDAT ??_C@_0M@PLDABJLA@CreateIndex?$AA@
CONST	SEGMENT
??_C@_0M@PLDABJLA@CreateIndex?$AA@ DB 'CreateIndex', 00H ; `string'
CONST	ENDS
;	COMDAT ??_C@_05LGELBCGM@Close?$AA@
CONST	SEGMENT
??_C@_05LGELBCGM@Close?$AA@ DB 'Close', 00H		; `string'
CONST	ENDS
;	COMDAT ??_C@_05JABEJFFA@VOpen?$AA@
CONST	SEGMENT
??_C@_05JABEJFFA@VOpen?$AA@ DB 'VOpen', 00H		; `string'
CONST	ENDS
;	COMDAT ??_C@_0M@IPJMJJPI@ParseSchema?$AA@
CONST	SEGMENT
??_C@_0M@IPJMJJPI@ParseSchema?$AA@ DB 'ParseSchema', 00H ; `string'
CONST	ENDS
;	COMDAT ??_C@_0N@KGPEGHPK@RealAffinity?$AA@
CONST	SEGMENT
??_C@_0N@KGPEGHPK@RealAffinity?$AA@ DB 'RealAffinity', 00H ; `string'
CONST	ENDS
;	COMDAT ??_C@_06ENNEIMBA@String?$AA@
CONST	SEGMENT
??_C@_06ENNEIMBA@String?$AA@ DB 'String', 00H		; `string'
CONST	ENDS
;	COMDAT ??_C@_08DMMJCAML@Variable?$AA@
CONST	SEGMENT
??_C@_08DMMJCAML@Variable?$AA@ DB 'Variable', 00H	; `string'
CONST	ENDS
;	COMDAT ??_C@_08HOGPBFDI@IfMemNeg?$AA@
CONST	SEGMENT
??_C@_08HOGPBFDI@IfMemNeg?$AA@ DB 'IfMemNeg', 00H	; `string'
CONST	ENDS
;	COMDAT ??_C@_08FEDJPMPH@NewRowid?$AA@
CONST	SEGMENT
??_C@_08FEDJPMPH@NewRowid?$AA@ DB 'NewRowid', 00H	; `string'
CONST	ENDS
;	COMDAT ??_C@_06HCFIKKEA@Return?$AA@
CONST	SEGMENT
??_C@_06HCFIKKEA@Return?$AA@ DB 'Return', 00H		; `string'
CONST	ENDS
;	COMDAT ??_C@_04NBOPPMHE@Noop?$AA@
CONST	SEGMENT
??_C@_04NBOPPMHE@Noop?$AA@ DB 'Noop', 00H		; `string'
CONST	ENDS
;	COMDAT ??_C@_08PHKOHANG@Function?$AA@
CONST	SEGMENT
??_C@_08PHKOHANG@Function?$AA@ DB 'Function', 00H	; `string'
CONST	ENDS
;	COMDAT ??_C@_04DJANFKGA@Sort?$AA@
CONST	SEGMENT
??_C@_04DJANFKGA@Sort?$AA@ DB 'Sort', 00H		; `string'
CONST	ENDS
;	COMDAT ??_C@_0M@KCIGPGBI@IntegrityCk?$AA@
CONST	SEGMENT
??_C@_0M@KCIGPGBI@IntegrityCk?$AA@ DB 'IntegrityCk', 00H ; `string'
CONST	ENDS
;	COMDAT ??_C@_0L@BPKAOEDK@AutoCommit?$AA@
CONST	SEGMENT
??_C@_0L@BPKAOEDK@AutoCommit?$AA@ DB 'AutoCommit', 00H	; `string'
CONST	ENDS
;	COMDAT ??_C@_03KNKIDPAC@Not?$AA@
CONST	SEGMENT
??_C@_03KNKIDPAC@Not?$AA@ DB 'Not', 00H			; `string'
CONST	ENDS
;	COMDAT ??_C@_06GDNCIOGJ@Expire?$AA@
CONST	SEGMENT
??_C@_06GDNCIOGJ@Expire?$AA@ DB 'Expire', 00H		; `string'
CONST	ENDS
;	COMDAT ??_C@_08FJFCCPFB@OpenRead?$AA@
CONST	SEGMENT
??_C@_08FJFCCPFB@OpenRead?$AA@ DB 'OpenRead', 00H	; `string'
CONST	ENDS
;	COMDAT ??_C@_07MCEFGNMJ@CollSeq?$AA@
CONST	SEGMENT
??_C@_07MCEFGNMJ@CollSeq?$AA@ DB 'CollSeq', 00H		; `string'
CONST	ENDS
;	COMDAT ??_C@_06MIMNHDEF@VRowid?$AA@
CONST	SEGMENT
??_C@_06MIMNHDEF@VRowid?$AA@ DB 'VRowid', 00H		; `string'
CONST	ENDS
;	COMDAT ??_C@_03HJACNKKK@Pop?$AA@
CONST	SEGMENT
??_C@_03HJACNKKK@Pop?$AA@ DB 'Pop', 00H			; `string'
CONST	ENDS
;	COMDAT ??_C@_02EMFCFMID@If?$AA@
CONST	SEGMENT
??_C@_02EMFCFMID@If?$AA@ DB 'If', 00H			; `string'
CONST	ENDS
;	COMDAT ??_C@_09FPCAPNBB@OpenWrite?$AA@
CONST	SEGMENT
??_C@_09FPCAPNBB@OpenWrite?$AA@ DB 'OpenWrite', 00H	; `string'
CONST	ENDS
;	COMDAT ??_C@_06JIHNENAH@RowKey?$AA@
CONST	SEGMENT
??_C@_06JIHNENAH@RowKey?$AA@ DB 'RowKey', 00H		; `string'
CONST	ENDS
;	COMDAT ??_C@_06PKABLMFO@MoveGt?$AA@
CONST	SEGMENT
??_C@_06PKABLMFO@MoveGt?$AA@ DB 'MoveGt', 00H		; `string'
CONST	ENDS
;	COMDAT ??_C@_08DOCONEG@Sequence?$AA@
CONST	SEGMENT
??_C@_08DOCONEG@Sequence?$AA@ DB 'Sequence', 00H	; `string'
CONST	ENDS
;	COMDAT ??_C@_08ONJAGHBH@IfMemPos?$AA@
CONST	SEGMENT
??_C@_08ONJAGHBH@IfMemPos?$AA@ DB 'IfMemPos', 00H	; `string'
CONST	ENDS
;	COMDAT ??_C@_09FEDANMPL@SetCookie?$AA@
CONST	SEGMENT
??_C@_09FEDANMPL@SetCookie?$AA@ DB 'SetCookie', 00H	; `string'
CONST	ENDS
;	COMDAT ??_C@_06FFIACGFC@Column?$AA@
CONST	SEGMENT
??_C@_06FFIACGFC@Column?$AA@ DB 'Column', 00H		; `string'
CONST	ENDS
;	COMDAT ??_C@_05GOGANBLF@VNext?$AA@
CONST	SEGMENT
??_C@_05GOGANBLF@VNext?$AA@ DB 'VNext', 00H		; `string'
CONST	ENDS
;	COMDAT ??_C@_07PDGDNFMF@MemLoad?$AA@
CONST	SEGMENT
??_C@_07PDGDNFMF@MemLoad?$AA@ DB 'MemLoad', 00H		; `string'
CONST	ENDS
;	COMDAT ??_C@_01OGPIMHDM@?$DP?$AA@
CONST	SEGMENT
??_C@_01OGPIMHDM@?$DP?$AA@ DB '?', 00H			; `string'
CONST	ENDS
CONST	SEGMENT
?aFuncs@?1??sqlite3RegisterDateTimeFunctions@@9@9 DD FLAT:??_C@_09BPOICPEH@julianday?$AA@ ; `sqlite3RegisterDateTimeFunctions'::`2'::aFuncs
	DD	0ffffffffH
	DD	FLAT:_juliandayFunc
	DD	FLAT:??_C@_04JNIHBGGH@date?$AA@
	DD	0ffffffffH
	DD	FLAT:_dateFunc
	DD	FLAT:??_C@_04CLCEDBPF@time?$AA@
	DD	0ffffffffH
	DD	FLAT:_timeFunc
	DD	FLAT:??_C@_08FGNPMIBK@datetime?$AA@
	DD	0ffffffffH
	DD	FLAT:_datetimeFunc
	DD	FLAT:??_C@_08EPGBJPHJ@strftime?$AA@
	DD	0ffffffffH
	DD	FLAT:_strftimeFunc
	DD	FLAT:??_C@_0N@IPDKEGPB@current_time?$AA@
	DD	00H
	DD	FLAT:_ctimeFunc
	DD	FLAT:??_C@_0BC@DDICBCEN@current_timestamp?$AA@
	DD	00H
	DD	FLAT:_ctimestampFunc
	DD	FLAT:??_C@_0N@DJJJGBGD@current_date?$AA@
	DD	00H
	DD	FLAT:_cdateFunc
_aDigits DB	'0123456789ABCDEF0123456789abcdef', 00H
?lenOne@?3??trimFunc@@9@9 DB 01H			; `trimFunc'::`4'::lenOne
	ORG $+2
_aPrefix DB	'-x0', 00H, 'X0', 00H
	ORG $+5
_fmtinfo DB	064H
	DB	0aH
	DB	01H
	DB	01H
	DB	00H
	DB	00H
	DB	073H
	DB	00H
	DB	04H
	DB	06H
	DB	00H
	DB	00H
	DB	067H
	DB	00H
	DB	01H
	DB	04H
	DB	01eH
	DB	00H
	DB	07aH
	DB	00H
	DB	06H
	DB	07H
	DB	00H
	DB	00H
	DB	071H
	DB	00H
	DB	04H
	DB	0bH
	DB	00H
	DB	00H
	DB	051H
	DB	00H
	DB	04H
	DB	0cH
	DB	00H
	DB	00H
	DB	063H
	DB	00H
	DB	00H
	DB	09H
	DB	00H
	DB	00H
	DB	06fH
	DB	08H
	DB	00H
	DB	01H
	DB	00H
	DB	02H
	DB	075H
	DB	0aH
	DB	00H
	DB	01H
	DB	00H
	DB	00H
	DB	078H
	DB	010H
	DB	00H
	DB	01H
	DB	010H
	DB	01H
	DB	058H
	DB	010H
	DB	00H
	DB	01H
	DB	00H
	DB	04H
	DB	066H
	DB	00H
	DB	01H
	DB	02H
	DB	00H
	DB	00H
	DB	065H
	DB	00H
	DB	01H
	DB	03H
	DB	01eH
	DB	00H
	DB	045H
	DB	00H
	DB	01H
	DB	03H
	DB	0eH
	DB	00H
	DB	047H
	DB	00H
	DB	01H
	DB	04H
	DB	0eH
	DB	00H
	DB	069H
	DB	0aH
	DB	01H
	DB	01H
	DB	00H
	DB	00H
	DB	06eH
	DB	00H
	DB	00H
	DB	05H
	DB	00H
	DB	00H
	DB	025H
	DB	00H
	DB	00H
	DB	08H
	DB	00H
	DB	00H
	DB	070H
	DB	010H
	DB	00H
	DB	0fH
	DB	00H
	DB	01H
	DB	054H
	DB	00H
	DB	02H
	DB	0dH
	DB	00H
	DB	00H
	DB	053H
	DB	00H
	DB	02H
	DB	0eH
	DB	00H
	DB	00H
	ORG $+2
?spaces@?1??vxprintf@@9@9 DB '                                           '
	DB	'                              ', 00H	; `vxprintf'::`2'::spaces
	ORG $+2
_sqlite3one DD	01H
_sqlite3UtfTrans1 DB 00H
	DB	01H
	DB	02H
	DB	03H
	DB	04H
	DB	05H
	DB	06H
	DB	07H
	DB	08H
	DB	09H
	DB	0aH
	DB	0bH
	DB	0cH
	DB	0dH
	DB	0eH
	DB	0fH
	DB	010H
	DB	011H
	DB	012H
	DB	013H
	DB	014H
	DB	015H
	DB	016H
	DB	017H
	DB	018H
	DB	019H
	DB	01aH
	DB	01bH
	DB	01cH
	DB	01dH
	DB	01eH
	DB	01fH
	DB	00H
	DB	01H
	DB	02H
	DB	03H
	DB	04H
	DB	05H
	DB	06H
	DB	07H
	DB	08H
	DB	09H
	DB	0aH
	DB	0bH
	DB	0cH
	DB	0dH
	DB	0eH
	DB	0fH
	DB	00H
	DB	01H
	DB	02H
	DB	03H
	DB	04H
	DB	05H
	DB	06H
	DB	07H
	DB	00H
	DB	01H
	DB	02H
	DB	03H
	DB	00H
	DB	01H
	DB	00H
	DB	00H
_sqlite3UpperToLower DB 00H
	DB	01H
	DB	02H
	DB	03H
	DB	04H
	DB	05H
	DB	06H
	DB	07H
	DB	08H
	DB	09H
	DB	0aH
	DB	0bH
	DB	0cH
	DB	0dH
	DB	0eH
	DB	0fH
	DB	010H
	DB	011H
	DB	012H
	DB	013H
	DB	014H
	DB	015H
	DB	016H
	DB	017H
	DB	018H
	DB	019H
	DB	01aH
	DB	01bH
	DB	01cH
	DB	01dH
	DB	01eH
	DB	01fH
	DB	020H
	DB	021H
	DB	022H
	DB	023H
	DB	024H
	DB	025H
	DB	026H
	DB	027H
	DB	028H
	DB	029H
	DB	02aH
	DB	02bH
	DB	02cH
	DB	02dH
	DB	02eH
	DB	02fH
	DB	030H
	DB	031H
	DB	032H
	DB	033H
	DB	034H
	DB	035H
	DB	036H
	DB	037H
	DB	038H
	DB	039H
	DB	03aH
	DB	03bH
	DB	03cH
	DB	03dH
	DB	03eH
	DB	03fH
	DB	040H
	DB	061H
	DB	062H
	DB	063H
	DB	064H
	DB	065H
	DB	066H
	DB	067H
	DB	068H
	DB	069H
	DB	06aH
	DB	06bH
	DB	06cH
	DB	06dH
	DB	06eH
	DB	06fH
	DB	070H
	DB	071H
	DB	072H
	DB	073H
	DB	074H
	DB	075H
	DB	076H
	DB	077H
	DB	078H
	DB	079H
	DB	07aH
	DB	05bH
	DB	05cH
	DB	05dH
	DB	05eH
	DB	05fH
	DB	060H
	DB	061H
	DB	062H
	DB	063H
	DB	064H
	DB	065H
	DB	066H
	DB	067H
	DB	068H
	DB	069H
	DB	06aH
	DB	06bH
	DB	06cH
	DB	06dH
	DB	06eH
	DB	06fH
	DB	070H
	DB	071H
	DB	072H
	DB	073H
	DB	074H
	DB	075H
	DB	076H
	DB	077H
	DB	078H
	DB	079H
	DB	07aH
	DB	07bH
	DB	07cH
	DB	07dH
	DB	07eH
	DB	07fH
	DB	080H
	DB	081H
	DB	082H
	DB	083H
	DB	084H
	DB	085H
	DB	086H
	DB	087H
	DB	088H
	DB	089H
	DB	08aH
	DB	08bH
	DB	08cH
	DB	08dH
	DB	08eH
	DB	08fH
	DB	090H
	DB	091H
	DB	092H
	DB	093H
	DB	094H
	DB	095H
	DB	096H
	DB	097H
	DB	098H
	DB	099H
	DB	09aH
	DB	09bH
	DB	09cH
	DB	09dH
	DB	09eH
	DB	09fH
	DB	0a0H
	DB	0a1H
	DB	0a2H
	DB	0a3H
	DB	0a4H
	DB	0a5H
	DB	0a6H
	DB	0a7H
	DB	0a8H
	DB	0a9H
	DB	0aaH
	DB	0abH
	DB	0acH
	DB	0adH
	DB	0aeH
	DB	0afH
	DB	0b0H
	DB	0b1H
	DB	0b2H
	DB	0b3H
	DB	0b4H
	DB	0b5H
	DB	0b6H
	DB	0b7H
	DB	0b8H
	DB	0b9H
	DB	0baH
	DB	0bbH
	DB	0bcH
	DB	0bdH
	DB	0beH
	DB	0bfH
	DB	0c0H
	DB	0c1H
	DB	0c2H
	DB	0c3H
	DB	0c4H
	DB	0c5H
	DB	0c6H
	DB	0c7H
	DB	0c8H
	DB	0c9H
	DB	0caH
	DB	0cbH
	DB	0ccH
	DB	0cdH
	DB	0ceH
	DB	0cfH
	DB	0d0H
	DB	0d1H
	DB	0d2H
	DB	0d3H
	DB	0d4H
	DB	0d5H
	DB	0d6H
	DB	0d7H
	DB	0d8H
	DB	0d9H
	DB	0daH
	DB	0dbH
	DB	0dcH
	DB	0ddH
	DB	0deH
	DB	0dfH
	DB	0e0H
	DB	0e1H
	DB	0e2H
	DB	0e3H
	DB	0e4H
	DB	0e5H
	DB	0e6H
	DB	0e7H
	DB	0e8H
	DB	0e9H
	DB	0eaH
	DB	0ebH
	DB	0ecH
	DB	0edH
	DB	0eeH
	DB	0efH
	DB	0f0H
	DB	0f1H
	DB	0f2H
	DB	0f3H
	DB	0f4H
	DB	0f5H
	DB	0f6H
	DB	0f7H
	DB	0f8H
	DB	0f9H
	DB	0faH
	DB	0fbH
	DB	0fcH
	DB	0fdH
	DB	0feH
	DB	0ffH
?zeroData@?1??sqlite3ThreadDataReadOnly@@9@9 DD 00H	; `sqlite3ThreadDataReadOnly'::`2'::zeroData
	ORG $+8
_sqlite3WinIoMethod DD FLAT:_winClose
	DD	FLAT:_winOpenDirectory
	DD	FLAT:_winRead
	DD	FLAT:_winWrite
	DD	FLAT:_winSeek
	DD	FLAT:_winTruncate
	DD	FLAT:_winSync
	DD	FLAT:_winSetFullSync
	DD	FLAT:_winFileHandle
	DD	FLAT:_winFileSize
	DD	FLAT:_winLock
	DD	FLAT:_winUnlock
	DD	FLAT:_winLockState
	DD	FLAT:_winCheckReservedLock
	DD	FLAT:_winSectorSize
_sqlite3OpcodeNames DD FLAT:??_C@_01OGPIMHDM@?$DP?$AA@
	DD	FLAT:??_C@_07PDGDNFMF@MemLoad?$AA@
	DD	FLAT:??_C@_05GOGANBLF@VNext?$AA@
	DD	FLAT:??_C@_06FFIACGFC@Column?$AA@
	DD	FLAT:??_C@_09FEDANMPL@SetCookie?$AA@
	DD	FLAT:??_C@_08ONJAGHBH@IfMemPos?$AA@
	DD	FLAT:??_C@_08DOCONEG@Sequence?$AA@
	DD	FLAT:??_C@_06PKABLMFO@MoveGt?$AA@
	DD	FLAT:??_C@_06JIHNENAH@RowKey?$AA@
	DD	FLAT:??_C@_09FPCAPNBB@OpenWrite?$AA@
	DD	FLAT:??_C@_02EMFCFMID@If?$AA@
	DD	FLAT:??_C@_03HJACNKKK@Pop?$AA@
	DD	FLAT:??_C@_06MIMNHDEF@VRowid?$AA@
	DD	FLAT:??_C@_07MCEFGNMJ@CollSeq?$AA@
	DD	FLAT:??_C@_08FJFCCPFB@OpenRead?$AA@
	DD	FLAT:??_C@_06GDNCIOGJ@Expire?$AA@
	DD	FLAT:??_C@_03KNKIDPAC@Not?$AA@
	DD	FLAT:??_C@_0L@BPKAOEDK@AutoCommit?$AA@
	DD	FLAT:??_C@_0M@KCIGPGBI@IntegrityCk?$AA@
	DD	FLAT:??_C@_04DJANFKGA@Sort?$AA@
	DD	FLAT:??_C@_08PHKOHANG@Function?$AA@
	DD	FLAT:??_C@_04NBOPPMHE@Noop?$AA@
	DD	FLAT:??_C@_06HCFIKKEA@Return?$AA@
	DD	FLAT:??_C@_08FEDJPMPH@NewRowid?$AA@
	DD	FLAT:??_C@_08HOGPBFDI@IfMemNeg?$AA@
	DD	FLAT:??_C@_08DMMJCAML@Variable?$AA@
	DD	FLAT:??_C@_06ENNEIMBA@String?$AA@
	DD	FLAT:??_C@_0N@KGPEGHPK@RealAffinity?$AA@
	DD	FLAT:??_C@_0M@IPJMJJPI@ParseSchema?$AA@
	DD	FLAT:??_C@_05JABEJFFA@VOpen?$AA@
	DD	FLAT:??_C@_05LGELBCGM@Close?$AA@
	DD	FLAT:??_C@_0M@PLDABJLA@CreateIndex?$AA@
	DD	FLAT:??_C@_08HBKIHNI@IsUnique?$AA@
	DD	FLAT:??_C@_08MDBAGECB@NotFound?$AA@
	DD	FLAT:??_C@_05DPPJJBMK@Int64?$AA@
	DD	FLAT:??_C@_09LLJOBHN@MustBeInt?$AA@
	DD	FLAT:??_C@_04NIFKAFLK@Halt?$AA@
	DD	FLAT:??_C@_05KEGGNBBF@Rowid?$AA@
	DD	FLAT:??_C@_05DAELAPC@IdxLT?$AA@
	DD	FLAT:??_C@_06JHIJIKD@AddImm?$AA@
	DD	FLAT:??_C@_09NLAGBMPK@Statement?$AA@
	DD	FLAT:??_C@_07OHPACBNN@RowData?$AA@
	DD	FLAT:??_C@_06LJFJMLCE@MemMax?$AA@
	DD	FLAT:??_C@_04KGLMKACB@Push?$AA@
	DD	FLAT:??_C@_09HMMGFEAA@NotExists?$AA@
	DD	FLAT:??_C@_07JMCDFMGJ@MemIncr?$AA@
	DD	FLAT:??_C@_05DLHJCIPI@Gosub?$AA@
	DD	FLAT:??_C@_07EDADKEAH@Integer?$AA@
	DD	FLAT:??_C@_06JBNCFEEC@MemInt?$AA@
	DD	FLAT:??_C@_04PHIBHIIF@Prev?$AA@
	DD	FLAT:??_C@_07DOIHNMAE@VColumn?$AA@
	DD	FLAT:??_C@_0M@BDPOJHGL@CreateTable?$AA@
	DD	FLAT:??_C@_04DKKAEHDH@Last?$AA@
	DD	FLAT:??_C@_0L@POHPJECG@IncrVacuum?$AA@
	DD	FLAT:??_C@_08KLKOBEJ@IdxRowid?$AA@
	DD	FLAT:??_C@_0L@BLCAOEHN@MakeIdxRec?$AA@
	DD	FLAT:??_C@_0L@NDDNCBN@ResetCount?$AA@
	DD	FLAT:??_C@_09ILKOCOKG@FifoWrite?$AA@
	DD	FLAT:??_C@_08HNHIOOFI@Callback?$AA@
	DD	FLAT:??_C@_0M@CKMEEPPD@ContextPush?$AA@
	DD	FLAT:??_C@_02GGHBPHGE@Or?$AA@
	DD	FLAT:??_C@_03LOMLFHDC@And?$AA@
	DD	FLAT:??_C@_0M@JKNINGPB@DropTrigger?$AA@
	DD	FLAT:??_C@_09KDDJLBNF@DropIndex?$AA@
	DD	FLAT:??_C@_05FMIIHMAD@IdxGE?$AA@
	DD	FLAT:??_C@_06NBBMPCN@IsNull?$AA@
	DD	FLAT:??_C@_07HICACDPL@NotNull?$AA@
	DD	FLAT:??_C@_02GCDABJMF@Ne?$AA@
	DD	FLAT:??_C@_02EAMLCBHB@Eq?$AA@
	DD	FLAT:??_C@_02DODIABFK@Gt?$AA@
	DD	FLAT:??_C@_02GBLEMNKL@Le?$AA@
	DD	FLAT:??_C@_02DCGNOOLL@Lt?$AA@
	DD	FLAT:??_C@_02GNOBCCEK@Ge?$AA@
	DD	FLAT:??_C@_09PDNFOMPO@IdxDelete?$AA@
	DD	FLAT:??_C@_06PCNOCLJN@BitAnd?$AA@
	DD	FLAT:??_C@_05BKBNAGEF@BitOr?$AA@
	DD	FLAT:??_C@_09IIGOLNPP@ShiftLeft?$AA@
	DD	FLAT:??_C@_0L@DHHFIOFJ@ShiftRight?$AA@
	DD	FLAT:??_C@_03LDFMNCOE@Add?$AA@
	DD	FLAT:??_C@_08DLEJPBEP@Subtract?$AA@
	DD	FLAT:??_C@_08EOBDLMOI@Multiply?$AA@
	DD	FLAT:??_C@_06JKMEHOIB@Divide?$AA@
	DD	FLAT:??_C@_09DPOHBCHJ@Remainder?$AA@
	DD	FLAT:??_C@_06ODAFHOMO@Concat?$AA@
	DD	FLAT:??_C@_06OBCEMCJB@Vacuum?$AA@
	DD	FLAT:??_C@_08BIJOEGAJ@Negative?$AA@
	DD	FLAT:??_C@_06KFINHAKP@MoveLe?$AA@
	DD	FLAT:??_C@_06OBLNEDKN@BitNot?$AA@
	DD	FLAT:??_C@_07KGFHIBD@String8?$AA@
	DD	FLAT:??_C@_05DALJIPE@IfNot?$AA@
	DD	FLAT:??_C@_09ELPHDPAO@DropTable?$AA@
	DD	FLAT:??_C@_0L@PGPMFKDB@MakeRecord?$AA@
	DD	FLAT:??_C@_06JBKGCNBB@Delete?$AA@
	DD	FLAT:??_C@_08FCKHNOBN@AggFinal?$AA@
	DD	FLAT:??_C@_03LHMIDMME@Dup?$AA@
	DD	FLAT:??_C@_04BNGNMAK@Goto?$AA@
	DD	FLAT:??_C@_09FDKNKOOK@TableLock?$AA@
	DD	FLAT:??_C@_08GMLBHKDC@FifoRead?$AA@
	DD	FLAT:??_C@_05MDNHABIA@Clear?$AA@
	DD	FLAT:??_C@_05PFBFPBD@IdxGT?$AA@
	DD	FLAT:??_C@_06PGFEFDLP@MoveLt?$AA@
	DD	FLAT:??_C@_0N@NKEHNBGM@VerifyCookie?$AA@
	DD	FLAT:??_C@_07NOMHFNIB@AggStep?$AA@
	DD	FLAT:??_C@_04NFKKIBGI@Pull?$AA@
	DD	FLAT:??_C@_0O@GDDDBLCD@SetNumColumns?$AA@
	DD	FLAT:??_C@_08NKJEFJJA@AbsValue?$AA@
	DD	FLAT:??_C@_0M@MEGKBOMN@Transaction?$AA@
	DD	FLAT:??_C@_07OKDOHLDO@VFilter?$AA@
	DD	FLAT:??_C@_08JBEDGDCN@VDestroy?$AA@
	DD	FLAT:??_C@_0L@NCJBPLPE@ContextPop?$AA@
	DD	FLAT:??_C@_04MDFHGMOB@Next?$AA@
	DD	FLAT:??_C@_09ENCBCCAM@IdxInsert?$AA@
	DD	FLAT:??_C@_08FGAGNLCM@Distinct?$AA@
	DD	FLAT:??_C@_06CPFCODOD@Insert?$AA@
	DD	FLAT:??_C@_07BDCAJABG@Destroy?$AA@
	DD	FLAT:??_C@_0L@LIFFPDNM@ReadCookie?$AA@
	DD	FLAT:??_C@_08PGPGCKGP@ForceInt?$AA@
	DD	FLAT:??_C@_0N@FEAPPFEN@LoadAnalysis?$AA@
	DD	FLAT:??_C@_07EMCFMDDO@Explain?$AA@
	DD	FLAT:??_C@_09EFJEPADK@IfMemZero?$AA@
	DD	FLAT:??_C@_0L@PKPPHKBP@OpenPseudo?$AA@
	DD	FLAT:??_C@_0O@MHKNMBPC@OpenEphemeral?$AA@
	DD	FLAT:??_C@_04KHKKIIL@Null?$AA@
	DD	FLAT:??_C@_04HOFOMOEI@Blob?$AA@
	DD	FLAT:??_C@_08OOLDHECE@MemStore?$AA@
	DD	FLAT:??_C@_04PHKLBGME@Real?$AA@
	DD	FLAT:??_C@_07BJNJNDIK@HexBlob?$AA@
	DD	FLAT:??_C@_06MAOEIKCJ@Rewind?$AA@
	DD	FLAT:??_C@_06KJNIJPEO@MoveGe?$AA@
	DD	FLAT:??_C@_06CLFNNGGK@VBegin?$AA@
	DD	FLAT:??_C@_07NHABAPID@VUpdate?$AA@
	DD	FLAT:??_C@_07KDKHCOMM@VCreate?$AA@
	DD	FLAT:??_C@_07MOHBHIMB@MemMove?$AA@
	DD	FLAT:??_C@_07HGAGCIAF@MemNull?$AA@
	DD	FLAT:??_C@_05JDGHEPJG@Found?$AA@
	DD	FLAT:??_C@_07HJJPPOKN@NullRow?$AA@
	DD	FLAT:??_C@_0M@GMOCKLEE@NotUsed_136?$AA@
	DD	FLAT:??_C@_0M@HFPJJKAF@NotUsed_137?$AA@
	DD	FLAT:??_C@_06JMHBLLIK@ToText?$AA@
	DD	FLAT:??_C@_06LCIJGAA@ToBlob?$AA@
	DD	FLAT:??_C@_09IAEPJEPI@ToNumeric?$AA@
	DD	FLAT:??_C@_05CNEGLJEO@ToInt?$AA@
	DD	FLAT:??_C@_06ICNNEOIM@ToReal?$AA@
?zeroData@?1??sqlite3WinThreadSpecificData@@9@9 DD 00H	; `sqlite3WinThreadSpecificData'::`2'::zeroData
	ORG $+8
_aJournalMagic DB 0d9H
	DB	0d5H
	DB	05H
	DB	0f9H
	DB	020H
	DB	0a1H
	DB	063H
	DB	0d7H
_zMagicHeader DB 'SQLite format 3', 00H
?masks@?1??opcodeNoPush@@9@9 DD 0796beeb4H		; `opcodeNoPush'::`2'::masks
	DD	0ff327ddbH
	DD	0b6f7ffffH
	DD	093b3fdfdH
	DD	07ccfH
?aSize@?3??sqlite3VdbeSerialTypeLen@@9@9 DB 00H		; `sqlite3VdbeSerialTypeLen'::`4'::aSize
	DB	01H
	DB	02H
	DB	03H
	DB	04H
	DB	06H
	DB	08H
	DB	08H
	DB	00H
	DB	00H
	DB	00H
	DB	00H
?nullMem@?2??columnMem@@9@9 DQ 0000000000000000H	; `columnMem'::`3'::nullMem
	DQ	00000000000000000r		; 0
	DD	FLAT:??_C@_00CNPNBAHC@?$AA@
	DD	00H
	DW	01H
	DB	05H
	ORG $+37
?and_logic@?IE@??sqlite3VdbeExec@@9@9 DB 00H		; `sqlite3VdbeExec'[::E]::and_logic
	DB	01H
	DB	02H
	DB	01H
	DB	01H
	DB	01H
	DB	02H
	DB	01H
	DB	02H
	ORG $+3
?or_logic@?IF@??sqlite3VdbeExec@@9@9 DB 00H		; `sqlite3VdbeExec'[::F]::or_logic
	DB	00H
	DB	00H
	DB	00H
	DB	01H
	DB	02H
	DB	00H
	DB	02H
	DB	02H
	ORG $+3
?openBlob@?1??sqlite3_blob_open@@9@9 DB 06aH		; `sqlite3_blob_open'::`2'::openBlob
	DB	00H
	DW	00H
	DD	00H
	DB	065H
	DB	00H
	DW	00H
	DD	00H
	DB	02fH
	DB	00H
	DW	00H
	DD	00H
	DB	0eH
	DB	00H
	DW	00H
	DD	00H
	DB	09H
	DB	00H
	DW	00H
	DD	00H
	DB	068H
	DB	00H
	DW	00H
	DD	00H
	DB	019H
	DB	01H
	DW	00H
	DD	00H
	DB	02cH
	DB	00H
	DW	0aH
	DD	00H
	DB	03H
	DB	00H
	DW	00H
	DD	00H
	DB	03aH
	DB	00H
	DW	00H
	DD	00H
	DB	01eH
	DB	00H
	DW	00H
	DD	00H
	DB	024H
	DB	00H
	DW	00H
	DD	00H
?one@?N@??sqlite3CodeSubselect@@9@9 DD FLAT:??_C@_01HIHLOKLC@1?$AA@ ; `sqlite3CodeSubselect'::`13'::one
	DD	02H
?aFuncs@?1??sqlite3AlterFunctions@@9@9 DD FLAT:??_C@_0BE@JHJAJICL@sqlite_rename_table?$AA@ ; `sqlite3AlterFunctions'::`2'::aFuncs
	DB	02H
	ORG $+3
	DD	FLAT:_renameTableFunc
	DD	FLAT:??_C@_0BG@DKJJOMDK@sqlite_rename_trigger?$AA@
	DB	02H
	ORG $+3
	DD	FLAT:_renameTriggerFunc
?enc@?1??sqlite3AttachFunctions@@9@9 DD 01H		; `sqlite3AttachFunctions'::`2'::enc
?aEnc@?1??synthCollSeq@@9@9 DB 03H			; `synthCollSeq'::`2'::aEnc
	DB	02H
	DB	01H
	ORG $+1
?trans@?1??sqlite3_complete@@9@9 DB 00H			; `sqlite3_complete'::`2'::trans
	DB	00H
	DB	01H
	DB	02H
	DB	03H
	DB	01H
	DB	01H
	DB	01H
	DB	00H
	DB	01H
	DB	01H
	DB	01H
	DB	01H
	DB	01H
	DB	01H
	DB	01H
	DB	00H
	DB	02H
	DB	01H
	DB	01H
	DB	03H
	DB	01H
	DB	01H
	DB	01H
	DB	00H
	DB	03H
	DB	01H
	DB	01H
	DB	01H
	DB	03H
	DB	04H
	DB	01H
	DB	05H
	DB	04H
	DB	04H
	DB	04H
	DB	04H
	DB	04H
	DB	04H
	DB	04H
	DB	05H
	DB	05H
	DB	04H
	DB	04H
	DB	04H
	DB	04H
	DB	04H
	DB	06H
	DB	00H
	DB	06H
	DB	04H
	DB	04H
	DB	04H
	DB	04H
	DB	04H
	DB	04H
_globInfo DB	02aH
	DB	03fH
	DB	05bH
	DB	00H
_likeInfoNorm DB 025H
	DB	05fH
	DB	00H
	DB	01H
_likeInfoAlt DB	025H
	DB	05fH
	DB	00H
	DB	00H
_hexdigits DB	030H
	DB	031H
	DB	032H
	DB	033H
	DB	034H
	DB	035H
	DB	036H
	DB	037H
	DB	038H
	DB	039H
	DB	041H
	DB	042H
	DB	043H
	DB	044H
	DB	045H
	DB	046H
?ops@?N@??exprAnalyze@@9@9 DB 048H			; `exprAnalyze'::`13'::ops
	DB	046H
	ORG $+2
?aFuncs@?1??sqlite3RegisterBuiltinFunctions@@9@9 DD FLAT:??_C@_03KLIPLJLL@min?$AA@ ; `sqlite3RegisterBuiltinFunctions'::`2'::aFuncs
	DB	0ffH
	DB	00H
	DB	01H
	DB	01H
	DD	FLAT:_minmaxFunc
	DD	FLAT:??_C@_03KLIPLJLL@min?$AA@
	DB	00H
	DB	00H
	DB	01H
	DB	01H
	DD	00H
	DD	FLAT:??_C@_03LJAEFNNE@max?$AA@
	DB	0ffH
	DB	01H
	DB	01H
	DB	01H
	DD	FLAT:_minmaxFunc
	DD	FLAT:??_C@_03LJAEFNNE@max?$AA@
	DB	00H
	DB	01H
	DB	01H
	DB	01H
	DD	00H
	DD	FLAT:??_C@_06NDJPCPHC@typeof?$AA@
	DB	01H
	DB	00H
	DB	01H
	DB	00H
	DD	FLAT:_typeofFunc
	DD	FLAT:??_C@_06IJDLPEM@length?$AA@
	DB	01H
	DB	00H
	DB	01H
	DB	00H
	DD	FLAT:_lengthFunc
	DD	FLAT:??_C@_06DAHFIGOC@substr?$AA@
	DB	03H
	DB	00H
	DB	01H
	DB	00H
	DD	FLAT:_substrFunc
	DD	FLAT:??_C@_03BCGAIFPO@abs?$AA@
	DB	01H
	DB	00H
	DB	01H
	DB	00H
	DD	FLAT:_absFunc
	DD	FLAT:??_C@_05MIMAKCN@round?$AA@
	DB	01H
	DB	00H
	DB	01H
	DB	00H
	DD	FLAT:_roundFunc
	DD	FLAT:??_C@_05MIMAKCN@round?$AA@
	DB	02H
	DB	00H
	DB	01H
	DB	00H
	DD	FLAT:_roundFunc
	DD	FLAT:??_C@_05NECKJAMC@upper?$AA@
	DB	01H
	DB	00H
	DB	01H
	DB	00H
	DD	FLAT:_upperFunc
	DD	FLAT:??_C@_05IPJEPLHL@lower?$AA@
	DB	01H
	DB	00H
	DB	01H
	DB	00H
	DD	FLAT:_lowerFunc
	DD	FLAT:??_C@_08FNGHHBID@coalesce?$AA@
	DB	0ffH
	DB	00H
	DB	01H
	DB	00H
	DD	FLAT:_ifnullFunc
	DD	FLAT:??_C@_08FNGHHBID@coalesce?$AA@
	DB	00H
	DB	00H
	DB	01H
	DB	00H
	DD	00H
	DD	FLAT:??_C@_08FNGHHBID@coalesce?$AA@
	DB	01H
	DB	00H
	DB	01H
	DB	00H
	DD	00H
	DD	FLAT:??_C@_03IJNDAFDK@hex?$AA@
	DB	01H
	DB	00H
	DB	01H
	DB	00H
	DD	FLAT:_hexFunc
	DD	FLAT:??_C@_06FAHGEKJN@ifnull?$AA@
	DB	02H
	DB	00H
	DB	01H
	DB	01H
	DD	FLAT:_ifnullFunc
	DD	FLAT:??_C@_06NLFCANPD@random?$AA@
	DB	0ffH
	DB	00H
	DB	01H
	DB	00H
	DD	FLAT:_randomFunc
	DD	FLAT:??_C@_0L@IDMFPHDO@randomblob?$AA@
	DB	01H
	DB	00H
	DB	01H
	DB	00H
	DD	FLAT:_randomBlob
	DD	FLAT:??_C@_06LLGGGFDC@nullif?$AA@
	DB	02H
	DB	00H
	DB	01H
	DB	01H
	DD	FLAT:_nullifFunc
	DD	FLAT:??_C@_0P@IPDPEBN@sqlite_version?$AA@
	DB	00H
	DB	00H
	DB	01H
	DB	00H
	DD	FLAT:_versionFunc
	DD	FLAT:??_C@_05JHEGFHLM@quote?$AA@
	DB	01H
	DB	00H
	DB	01H
	DB	00H
	DD	FLAT:_quoteFunc
	DD	FLAT:??_C@_0BC@EKKKCJJE@last_insert_rowid?$AA@
	DB	00H
	DB	0ffH
	DB	01H
	DB	00H
	DD	FLAT:_last_insert_rowid
	DD	FLAT:??_C@_07HFLFHMNL@changes?$AA@
	DB	00H
	DB	0ffH
	DB	01H
	DB	00H
	DD	FLAT:_changes
	DD	FLAT:??_C@_0O@MLEKHAGK@total_changes?$AA@
	DB	00H
	DB	0ffH
	DB	01H
	DB	00H
	DD	FLAT:_total_changes
	DD	FLAT:??_C@_07CLEHDIEJ@replace?$AA@
	DB	03H
	DB	00H
	DB	01H
	DB	00H
	DD	FLAT:_replaceFunc
	DD	FLAT:??_C@_05GLDKFKCA@ltrim?$AA@
	DB	01H
	DB	01H
	DB	01H
	DB	00H
	DD	FLAT:_trimFunc
	DD	FLAT:??_C@_05GLDKFKCA@ltrim?$AA@
	DB	02H
	DB	01H
	DB	01H
	DB	00H
	DD	FLAT:_trimFunc
	DD	FLAT:??_C@_05FCOGDJML@rtrim?$AA@
	DB	01H
	DB	02H
	DB	01H
	DB	00H
	DD	FLAT:_trimFunc
	DD	FLAT:??_C@_05FCOGDJML@rtrim?$AA@
	DB	02H
	DB	02H
	DB	01H
	DB	00H
	DD	FLAT:_trimFunc
	DD	FLAT:??_C@_04GDOMMDLP@trim?$AA@
	DB	01H
	DB	03H
	DB	01H
	DB	00H
	DD	FLAT:_trimFunc
	DD	FLAT:??_C@_04GDOMMDLP@trim?$AA@
	DB	02H
	DB	03H
	DB	01H
	DB	00H
	DD	FLAT:_trimFunc
	DD	FLAT:??_C@_08OAGHJJOG@zeroblob?$AA@
	DB	01H
	DB	00H
	DB	01H
	DB	00H
	DD	FLAT:_zeroblobFunc
	DD	FLAT:??_C@_0P@BJKPICNH@load_extension?$AA@
	DB	01H
	DB	0ffH
	DB	01H
	DB	00H
	DD	FLAT:_loadExt
	DD	FLAT:??_C@_0P@BJKPICNH@load_extension?$AA@
	DB	02H
	DB	0ffH
	DB	01H
	DB	00H
	DD	FLAT:_loadExt
?delays@?1??sqliteDefaultBusyCallback@@9@9 DB 01H	; `sqliteDefaultBusyCallback'::`2'::delays
	DB	02H
	DB	05H
	DB	0aH
	DB	0fH
	DB	014H
	DB	019H
	DB	019H
	DB	019H
	DB	032H
	DB	032H
	DB	064H
?aAggs@?1??sqlite3RegisterBuiltinFunctions@@9@9 DD FLAT:??_C@_03KLIPLJLL@min?$AA@ ; `sqlite3RegisterBuiltinFunctions'::`2'::aAggs
	DB	01H
	DB	00H
	DB	01H
	ORG $+1
	DD	FLAT:_minmaxStep
	DD	FLAT:_minMaxFinalize
	DD	FLAT:??_C@_03LJAEFNNE@max?$AA@
	DB	01H
	DB	01H
	DB	01H
	ORG $+1
	DD	FLAT:_minmaxStep
	DD	FLAT:_minMaxFinalize
	DD	FLAT:??_C@_03CFFIJAMA@sum?$AA@
	DB	01H
	DB	00H
	DB	00H
	ORG $+1
	DD	FLAT:_sumStep
	DD	FLAT:_sumFinalize
	DD	FLAT:??_C@_05KBOMEDGA@total?$AA@
	DB	01H
	DB	00H
	DB	00H
	ORG $+1
	DD	FLAT:_sumStep
	DD	FLAT:_totalFinalize
	DD	FLAT:??_C@_03CHOBFJAH@avg?$AA@
	DB	01H
	DB	00H
	DB	00H
	ORG $+1
	DD	FLAT:_sumStep
	DD	FLAT:_avgFinalize
	DD	FLAT:??_C@_05IOMEMJEC@count?$AA@
	DB	00H
	DB	00H
	DB	00H
	ORG $+1
	DD	FLAT:_countStep
	DD	FLAT:_countFinalize
	DD	FLAT:??_C@_05IOMEMJEC@count?$AA@
	DB	01H
	DB	00H
	DB	00H
	ORG $+1
	DD	FLAT:_countStep
	DD	FLAT:_countFinalize
_sqlite3_apis DD FLAT:_sqlite3_aggregate_context
	DD	FLAT:_sqlite3_aggregate_count
	DD	FLAT:_sqlite3_bind_blob
	DD	FLAT:_sqlite3_bind_double
	DD	FLAT:_sqlite3_bind_int
	DD	FLAT:_sqlite3_bind_int64
	DD	FLAT:_sqlite3_bind_null
	DD	FLAT:_sqlite3_bind_parameter_count
	DD	FLAT:_sqlite3_bind_parameter_index
	DD	FLAT:_sqlite3_bind_parameter_name
	DD	FLAT:_sqlite3_bind_text
	DD	FLAT:_sqlite3_bind_text16
	DD	FLAT:_sqlite3_bind_value
	DD	FLAT:_sqlite3_busy_handler
	DD	FLAT:_sqlite3_busy_timeout
	DD	FLAT:_sqlite3_changes
	DD	FLAT:_sqlite3_close
	DD	FLAT:_sqlite3_collation_needed
	DD	FLAT:_sqlite3_collation_needed16
	DD	FLAT:_sqlite3_column_blob
	DD	FLAT:_sqlite3_column_bytes
	DD	FLAT:_sqlite3_column_bytes16
	DD	FLAT:_sqlite3_column_count
	DD	00H
	DD	00H
	DD	FLAT:_sqlite3_column_decltype
	DD	FLAT:_sqlite3_column_decltype16
	DD	FLAT:_sqlite3_column_double
	DD	FLAT:_sqlite3_column_int
	DD	FLAT:_sqlite3_column_int64
	DD	FLAT:_sqlite3_column_name
	DD	FLAT:_sqlite3_column_name16
	DD	00H
	DD	00H
	DD	00H
	DD	00H
	DD	FLAT:_sqlite3_column_text
	DD	FLAT:_sqlite3_column_text16
	DD	FLAT:_sqlite3_column_type
	DD	FLAT:_sqlite3_column_value
	DD	FLAT:_sqlite3_commit_hook
	DD	FLAT:_sqlite3_complete
	DD	FLAT:_sqlite3_complete16
	DD	FLAT:_sqlite3_create_collation
	DD	FLAT:_sqlite3_create_collation16
	DD	FLAT:_sqlite3_create_function
	DD	FLAT:_sqlite3_create_function16
	DD	FLAT:_sqlite3_create_module
	DD	FLAT:_sqlite3_data_count
	DD	FLAT:_sqlite3_db_handle
	DD	FLAT:_sqlite3_declare_vtab
	DD	FLAT:_sqlite3_enable_shared_cache
	DD	FLAT:_sqlite3_errcode
	DD	FLAT:_sqlite3_errmsg
	DD	FLAT:_sqlite3_errmsg16
	DD	FLAT:_sqlite3_exec
	DD	FLAT:_sqlite3_expired
	DD	FLAT:_sqlite3_finalize
	DD	FLAT:_sqlite3_free
	DD	FLAT:_sqlite3_free_table
	DD	FLAT:_sqlite3_get_autocommit
	DD	FLAT:_sqlite3_get_auxdata
	DD	FLAT:_sqlite3_get_table
	DD	00H
	DD	FLAT:_sqlite3_interrupt
	DD	FLAT:_sqlite3_last_insert_rowid
	DD	FLAT:_sqlite3_libversion
	DD	FLAT:_sqlite3_libversion_number
	DD	FLAT:_sqlite3_malloc
	DD	FLAT:_sqlite3_mprintf
	DD	FLAT:_sqlite3_open
	DD	FLAT:_sqlite3_open16
	DD	FLAT:_sqlite3_prepare
	DD	FLAT:_sqlite3_prepare16
	DD	FLAT:_sqlite3_profile
	DD	FLAT:_sqlite3_progress_handler
	DD	FLAT:_sqlite3_realloc
	DD	FLAT:_sqlite3_reset
	DD	FLAT:_sqlite3_result_blob
	DD	FLAT:_sqlite3_result_double
	DD	FLAT:_sqlite3_result_error
	DD	FLAT:_sqlite3_result_error16
	DD	FLAT:_sqlite3_result_int
	DD	FLAT:_sqlite3_result_int64
	DD	FLAT:_sqlite3_result_null
	DD	FLAT:_sqlite3_result_text
	DD	FLAT:_sqlite3_result_text16
	DD	FLAT:_sqlite3_result_text16be
	DD	FLAT:_sqlite3_result_text16le
	DD	FLAT:_sqlite3_result_value
	DD	FLAT:_sqlite3_rollback_hook
	DD	FLAT:_sqlite3_set_authorizer
	DD	FLAT:_sqlite3_set_auxdata
	DD	FLAT:_sqlite3_snprintf
	DD	FLAT:_sqlite3_step
	DD	00H
	DD	FLAT:_sqlite3_thread_cleanup
	DD	FLAT:_sqlite3_total_changes
	DD	FLAT:_sqlite3_trace
	DD	FLAT:_sqlite3_transfer_bindings
	DD	FLAT:_sqlite3_update_hook
	DD	FLAT:_sqlite3_user_data
	DD	FLAT:_sqlite3_value_blob
	DD	FLAT:_sqlite3_value_bytes
	DD	FLAT:_sqlite3_value_bytes16
	DD	FLAT:_sqlite3_value_double
	DD	FLAT:_sqlite3_value_int
	DD	FLAT:_sqlite3_value_int64
	DD	FLAT:_sqlite3_value_numeric_type
	DD	FLAT:_sqlite3_value_text
	DD	FLAT:_sqlite3_value_text16
	DD	FLAT:_sqlite3_value_text16be
	DD	FLAT:_sqlite3_value_text16le
	DD	FLAT:_sqlite3_value_type
	DD	FLAT:_sqlite3_vmprintf
	DD	FLAT:_sqlite3_overload_function
	DD	FLAT:_sqlite3_prepare_v2
	DD	FLAT:_sqlite3_prepare16_v2
	DD	FLAT:_sqlite3_clear_bindings
?zText@?1??getSafetyLevel@@9@9 DB 'onoffalseyestruefull', 00H ; `getSafetyLevel'::`2'::zText
	ORG $+3
?iOffset@?1??getSafetyLevel@@9@9 DB 00H			; `getSafetyLevel'::`2'::iOffset
	DB	01H
	DB	02H
	DB	04H
	DB	09H
	DB	0cH
	DB	010H
	ORG $+1
?iLength@?1??getSafetyLevel@@9@9 DB 02H			; `getSafetyLevel'::`2'::iLength
	DB	02H
	DB	03H
	DB	05H
	DB	03H
	DB	04H
	DB	04H
	ORG $+1
?iValue@?1??getSafetyLevel@@9@9 DB 01H			; `getSafetyLevel'::`2'::iValue
	DB	00H
	DB	00H
	DB	00H
	DB	01H
	DB	01H
	DB	02H
	ORG $+5
?aPragma@?1??flagPragma@@9@9 DD FLAT:??_C@_0BC@CBBNFKC@full_column_names?$AA@ ; `flagPragma'::`2'::aPragma
	DD	020H
	DD	FLAT:??_C@_0BD@BFIEDLEP@short_column_names?$AA@
	DD	040H
	DD	FLAT:??_C@_0O@PEBBJPHD@count_changes?$AA@
	DD	080H
	DD	FLAT:??_C@_0BH@CMLDBHJP@empty_result_callbacks?$AA@
	DD	0100H
	DD	FLAT:??_C@_0BD@LEFOEGBK@legacy_file_format?$AA@
	DD	08000H
	DD	FLAT:??_C@_09MLJLLBEB@fullfsync?$AA@
	DD	010000H
	DD	FLAT:??_C@_0BJ@KLIMENGM@ignore_check_constraints?$AA@
	DD	02000H
	DD	FLAT:??_C@_0BA@OHBCLCAL@writable_schema?$AA@
	DD	040800H
	DD	FLAT:??_C@_0O@FCIFIHH@omit_readlock?$AA@
	DD	01000H
	DD	FLAT:??_C@_0BB@KLHJNGLH@read_uncommitted?$AA@
	DD	04000H
?getCacheSize@?6??sqlite3Pragma@@9@9 DB 073H		; `sqlite3Pragma'::`7'::getCacheSize
	DB	00H
	DW	02H
	DD	00H
	DB	069H
	DB	00H
	DW	00H
	DD	00H
	DB	05eH
	DB	00H
	DW	00H
	DD	00H
	DB	02fH
	DB	00H
	DW	00H
	DD	00H
	DB	043H
	DB	00H
	DW	06H
	DD	00H
	DB	02fH
	DB	00H
	DW	00H
	DD	00H
	DB	03aH
	DB	01H
	DW	00H
	DD	00H
?endCode@?EI@??sqlite3Pragma@@9@9 DB 01H		; `sqlite3Pragma'::`72'::endCode
	DB	00H
	DW	00H
	DD	00H
	DB	02fH
	DB	00H
	DW	00H
	DD	00H
	DB	043H
	DB	00H
	DW	00H
	DD	00H
	DB	058H
	DB	00H
	DW	00H
	DD	FLAT:??_C@_02MFDMBIJM@ok?$AA@
	DB	03aH
	DB	01H
	DW	00H
	DD	00H
?idxErr@?EP@??sqlite3Pragma@@9@9 DB 02dH		; `sqlite3Pragma'::`79'::idxErr
	DB	0ffH
	DW	00H
	DD	00H
	DB	058H
	DB	00H
	DW	00H
	DD	FLAT:??_C@_06DHEAJPAE@rowid?5?$AA@
	DB	025H
	DB	01H
	DW	00H
	DD	00H
	DB	058H
	DB	00H
	DW	00H
	DD	FLAT:??_C@_0BF@JGBLFHJL@?5missing?5from?5index?5?$AA@
	DB	058H
	DB	00H
	DW	00H
	DD	00H
	DB	053H
	DB	02H
	DW	00H
	DD	00H
	DB	03aH
	DB	01H
	DW	00H
	DD	00H
?cntIdx@?FA@??sqlite3Pragma@@9@9 DB 030H		; `sqlite3Pragma'::`80'::cntIdx
	DB	00H
	DW	02H
	DD	00H
	DB	07fH
	DB	00H
	DW	00H
	DD	00H
	DB	02dH
	DB	01H
	DW	02H
	DD	00H
	DB	06eH
	DB	00H
	DW	00H
	DD	00H
	DB	01H
	DB	01H
	DW	00H
	DD	00H
	DB	01H
	DB	02H
	DW	00H
	DD	00H
	DB	044H
	DB	00H
	DW	00H
	DD	00H
	DB	02dH
	DB	0ffH
	DW	00H
	DD	00H
	DB	058H
	DB	00H
	DW	00H
	DD	FLAT:??_C@_0BN@JKHLHJNK@wrong?5?$CD?5of?5entries?5in?5index?5?$AA@
	DB	058H
	DB	00H
	DW	00H
	DD	00H
	DB	053H
	DB	00H
	DW	00H
	DD	00H
	DB	03aH
	DB	01H
	DW	00H
	DD	00H
?encnames@?FB@??sqlite3Pragma@@9@9 DD FLAT:??_C@_05EGJIMALK@UTF?98?$AA@ ; `sqlite3Pragma'::`81'::encnames
	DB	01H
	ORG $+3
	DD	FLAT:??_C@_04OOMJJNCF@UTF8?$AA@
	DB	01H
	ORG $+3
	DD	FLAT:??_C@_08HMPANPBC@UTF?916le?$AA@
	DB	02H
	ORG $+3
	DD	FLAT:??_C@_07JJMGGCAM@UTF16le?$AA@
	DB	02H
	ORG $+3
	DD	FLAT:??_C@_08HGGOPCBI@UTF?916be?$AA@
	DB	03H
	ORG $+3
	DD	FLAT:??_C@_07JDFIEPAG@UTF16be?$AA@
	DB	03H
	ORG $+3
	DD	FLAT:??_C@_06KNDPGIKI@UTF?916?$AA@
	DB	00H
	ORG $+3
	DD	FLAT:??_C@_05MNCHLHCA@UTF16?$AA@
	DB	00H
	ORG $+3
	DD	00H
	DB	00H
	ORG $+3
?setCookie@?FN@??sqlite3Pragma@@9@9 DB 06aH		; `sqlite3Pragma'::`93'::setCookie
	DB	00H
	DW	01H
	DD	00H
	DB	02fH
	DB	00H
	DW	00H
	DD	00H
	DB	04H
	DB	00H
	DW	00H
	DD	00H
?readCookie@?FO@??sqlite3Pragma@@9@9 DB 073H		; `sqlite3Pragma'::`94'::readCookie
	DB	00H
	DW	00H
	DD	00H
	DB	03aH
	DB	01H
	DW	00H
	DD	00H
?master_schema@?1??sqlite3InitOne@@9@9 DB 'CREATE TABLE sqlite_master(', 0aH
	DB	'  type text,', 0aH, '  name text,', 0aH, '  tbl_name text,', 0aH
	DB	'  rootpage integer,', 0aH, '  sql text', 0aH, ')', 00H ; `sqlite3InitOne'::`2'::master_schema
?temp_master_schema@?1??sqlite3InitOne@@9@9 DB 'CREATE TEMP TABLE sqlite_'
	DB	'temp_master(', 0aH, '  type text,', 0aH, '  name text,', 0aH, ' '
	DB	' tbl_name text,', 0aH, '  rootpage integer,', 0aH, '  sql tex'
	DB	't', 0aH, ')', 00H				; `sqlite3InitOne'::`2'::temp_master_schema
	ORG $+6
?keywords@?1??sqlite3JoinType@@9@9 DB 'natural', 00H	; `sqlite3JoinType'::`2'::keywords
	DB	07H
	DB	04H
	DB	'left', 00H
	ORG $+3
	DB	04H
	DB	028H
	DB	'right', 00H
	ORG $+2
	DB	05H
	DB	030H
	DB	'full', 00H
	ORG $+3
	DB	04H
	DB	038H
	DB	'outer', 00H
	ORG $+2
	DB	05H
	DB	020H
	DB	'inner', 00H
	ORG $+2
	DB	05H
	DB	01H
	DB	'cross', 00H
	ORG $+2
	DB	05H
	DB	03H
	ORG $+2
?insertTrig@?4??sqlite3FinishTrigger@@9@9 DB 017H	; `sqlite3FinishTrigger'::`5'::insertTrig
	DB	00H
	DW	00H
	DD	00H
	DB	058H
	DB	00H
	DW	00H
	DD	FLAT:??_C@_07DIDNFGDE@trigger?$AA@
	DB	058H
	DB	00H
	DW	00H
	DD	00H
	DB	058H
	DB	00H
	DW	00H
	DD	00H
	DB	02fH
	DB	00H
	DW	00H
	DD	00H
	DB	058H
	DB	00H
	DW	00H
	DD	FLAT:??_C@_0BA@HAFLJCI@CREATE?5TRIGGER?5?$AA@
	DB	058H
	DB	00H
	DW	00H
	DD	00H
	DB	053H
	DB	00H
	DW	00H
	DD	00H
	DB	05bH
	DB	05H
	DW	00H
	DD	FLAT:??_C@_05JJGFHFCC@aaada?$AA@
	DB	071H
	DB	00H
	DW	00H
	DD	00H
?dropTrigger@?4??sqlite3DropTriggerPtr@@9@9 DB 07fH	; `sqlite3DropTriggerPtr'::`5'::dropTrigger
	DB	00H
	DW	0fff6H
	DD	00H
	DB	058H
	DB	00H
	DW	00H
	DD	00H
	DB	03H
	DB	00H
	DW	01H
	DD	00H
	DB	043H
	DB	00H
	DW	0fff7H
	DD	00H
	DB	058H
	DB	00H
	DW	00H
	DD	FLAT:??_C@_07DIDNFGDE@trigger?$AA@
	DB	03H
	DB	00H
	DW	00H
	DD	00H
	DB	043H
	DB	00H
	DW	0fff7H
	DD	00H
	DB	05cH
	DB	00H
	DW	00H
	DD	00H
	DB	06eH
	DB	00H
	DW	0fffeH
	DD	00H
?aCopy@?5??sqlite3RunVacuum@@9@9 DB 01H			; `sqlite3RunVacuum'::`6'::aCopy
	DB	01H
	DB	03H
	DB	00H
	DB	05H
	DB	00H
	DB	06H
	DB	00H
_yy_action DW	0121H
	DW	0382H
	DW	079H
	DW	0249H
	DW	0195H
	DW	0a9H
	DW	02H
	DW	01b3H
	DW	03dH
	DW	03dH
	DW	03dH
	DW	03dH
	DW	0205H
	DW	03fH
	DW	03fH
	DW	03fH
	DW	03fH
	DW	040H
	DW	040H
	DW	041H
	DW	041H
	DW	041H
	DW	042H
	DW	0e6H
	DW	0183H
	DW	0180H
	DW	01a4H
	DW	01aaH
	DW	044H
	DW	03fH
	DW	03fH
	DW	03fH
	DW	03fH
	DW	040H
	DW	040H
	DW	041H
	DW	041H
	DW	041H
	DW	042H
	DW	0e6H
	DW	01bbH
	DW	0d0H
	DW	0188H
	DW	01bfH
	DW	03cH
	DW	03bH
	DW	0126H
	DW	01aeH
	DW	01afH
	DW	01abH
	DW	01abH
	DW	03eH
	DW	03eH
	DW	03dH
	DW	03dH
	DW	03dH
	DW	03dH
	DW	0cdH
	DW	03fH
	DW	03fH
	DW	03fH
	DW	03fH
	DW	040H
	DW	040H
	DW	041H
	DW	041H
	DW	041H
	DW	042H
	DW	0e6H
	DW	0121H
	DW	0170H
	DW	013cH
	DW	01b3H
	DW	01e7H
	DW	0cdH
	DW	050H
	DW	043H
	DW	019fH
	DW	045H
	DW	097H
	DW	03fH
	DW	03fH
	DW	03fH
	DW	03fH
	DW	040H
	DW	040H
	DW	041H
	DW	041H
	DW	041H
	DW	042H
	DW	0e6H
	DW	0203H
	DW	0a2H
	DW	019aH
	DW	023H
	DW	01a4H
	DW	01aaH
	DW	01bbH
	DW	023bH
	DW	03aH
	DW	040H
	DW	040H
	DW	041H
	DW	041H
	DW	041H
	DW	042H
	DW	0e6H
	DW	0189H
	DW	018aH
	DW	01a1H
	DW	01a1H
	DW	01a1H
	DW	0121H
	DW	03cH
	DW	03bH
	DW	0126H
	DW	01aeH
	DW	01afH
	DW	01abH
	DW	01abH
	DW	03eH
	DW	03eH
	DW	03dH
	DW	03dH
	DW	03dH
	DW	03dH
	DW	012eH
	DW	03fH
	DW	03fH
	DW	03fH
	DW	03fH
	DW	040H
	DW	040H
	DW	041H
	DW	041H
	DW	041H
	DW	042H
	DW	0e6H
	DW	01a4H
	DW	01aaH
	DW	05cH
	DW	041H
	DW	041H
	DW	041H
	DW	042H
	DW	0e6H
	DW	0188H
	DW	01c8H
	DW	01d8H
	DW	043H
	DW	038H
	DW	045H
	DW	097H
	DW	0a9H
	DW	0196H
	DW	01b3H
	DW	03cH
	DW	03bH
	DW	0126H
	DW	01aeH
	DW	01afH
	DW	01abH
	DW	01abH
	DW	03eH
	DW	03eH
	DW	03dH
	DW	03dH
	DW	03dH
	DW	03dH
	DW	0f7H
	DW	03fH
	DW	03fH
	DW	03fH
	DW	03fH
	DW	040H
	DW	040H
	DW	041H
	DW	041H
	DW	041H
	DW	042H
	DW	0e6H
	DW	0121H
	DW	0239H
	DW	020aH
	DW	0124H
	DW	026cH
	DW	06fH
	DW	01deH
	DW	0203H
	DW	01bfH
	DW	0e6H
	DW	013cH
	DW	0193H
	DW	015H
	DW	043H
	DW	01ccH
	DW	045H
	DW	097H
	DW	042H
	DW	0e6H
	DW	0238H
	DW	01bbH
	DW	0d0H
	DW	043H
	DW	0e0H
	DW	045H
	DW	097H
	DW	01a4H
	DW	01aaH
	DW	092H
	DW	093H
	DW	0189H
	DW	018aH
	DW	019aH
	DW	029H
	DW	0182H
	DW	094H
	DW	0213H
	DW	02H
	DW	01e7H
	DW	01b3H
	DW	0236H
	DW	0e8H
	DW	019fH
	DW	0121H
	DW	03cH
	DW	03bH
	DW	0126H
	DW	01aeH
	DW	01afH
	DW	01abH
	DW	01abH
	DW	03eH
	DW	03eH
	DW	03dH
	DW	03dH
	DW	03dH
	DW	03dH
	DW	013cH
	DW	03fH
	DW	03fH
	DW	03fH
	DW	03fH
	DW	040H
	DW	040H
	DW	041H
	DW	041H
	DW	041H
	DW	042H
	DW	0e6H
	DW	01a4H
	DW	01aaH
	DW	01e6H
	DW	014aH
	DW	0d3H
	DW	01a1H
	DW	01a1H
	DW	01a1H
	DW	0167H
	DW	010eH
	DW	019aH
	DW	029H
	DW	017aH
	DW	0cfH
	DW	016aH
	DW	021eH
	DW	0f5H
	DW	0121H
	DW	03cH
	DW	03bH
	DW	0126H
	DW	01aeH
	DW	01afH
	DW	01abH
	DW	01abH
	DW	03eH
	DW	03eH
	DW	03dH
	DW	03dH
	DW	03dH
	DW	03dH
	DW	0188H
	DW	03fH
	DW	03fH
	DW	03fH
	DW	03fH
	DW	040H
	DW	040H
	DW	041H
	DW	041H
	DW	041H
	DW	042H
	DW	0e6H
	DW	01a4H
	DW	01aaH
	DW	0104H
	DW	012bH
	DW	0111H
	DW	020aH
	DW	010fH
	DW	020aH
	DW	0d2H
	DW	0172H
	DW	013fH
	DW	0dfH
	DW	01b1H
	DW	01b1H
	DW	0214H
	DW	015H
	DW	0240H
	DW	015H
	DW	03cH
	DW	03bH
	DW	0126H
	DW	01aeH
	DW	01afH
	DW	01abH
	DW	01abH
	DW	03eH
	DW	03eH
	DW	03dH
	DW	03dH
	DW	03dH
	DW	03dH
	DW	0bfH
	DW	03fH
	DW	03fH
	DW	03fH
	DW	03fH
	DW	040H
	DW	040H
	DW	041H
	DW	041H
	DW	041H
	DW	042H
	DW	0e6H
	DW	0105H
	DW	013cH
	DW	0efH
	DW	04cH
	DW	0121H
	DW	0220H
	DW	012bH
	DW	095H
	DW	01e2H
	DW	096H
	DW	0189H
	DW	018aH
	DW	0b2H
	DW	0f0H
	DW	0239H
	DW	0155H
	DW	0158H
	DW	0159H
	DW	0194H
	DW	0208H
	DW	01bdH
	DW	0142H
	DW	0a5H
	DW	019aH
	DW	01cH
	DW	021cH
	DW	015aH
	DW	0205H
	DW	0f8H
	DW	021bH
	DW	01a4H
	DW	01aaH
	DW	0238H
	DW	0237H
	DW	0a1H
	DW	073H
	DW	0eeH
	DW	0153H
	DW	0f3H
	DW	0154H
	DW	0adH
	DW	0166H
	DW	0110H
	DW	019bH
	DW	0335H
	DW	01e8H
	DW	04fH
	DW	0f9H
	DW	03cH
	DW	03bH
	DW	0126H
	DW	01aeH
	DW	01afH
	DW	01abH
	DW	01abH
	DW	03eH
	DW	03eH
	DW	03dH
	DW	03dH
	DW	03dH
	DW	03dH
	DW	0212H
	DW	03fH
	DW	03fH
	DW	03fH
	DW	03fH
	DW	040H
	DW	040H
	DW	041H
	DW	041H
	DW	041H
	DW	042H
	DW	0e6H
	DW	0121H
	DW	0f8H
	DW	0b2H
	DW	01d1H
	DW	01e5H
	DW	0155H
	DW	0158H
	DW	0159H
	DW	073H
	DW	0eeH
	DW	0153H
	DW	0f3H
	DW	0154H
	DW	0adH
	DW	052H
	DW	013cH
	DW	015aH
	DW	013cH
	DW	01ebH
	DW	01ecH
	DW	0f9H
	DW	0235H
	DW	0cfH
	DW	098H
	DW	020bH
	DW	01e9H
	DW	01a4H
	DW	01aaH
	DW	0b2H
	DW	0211H
	DW	01f7H
	DW	0155H
	DW	0158H
	DW	0159H
	DW	0197H
	DW	01d8H
	DW	0210H
	DW	019aH
	DW	023H
	DW	019aH
	DW	023H
	DW	0abH
	DW	015aH
	DW	0c6H
	DW	03cH
	DW	03bH
	DW	0126H
	DW	01aeH
	DW	01afH
	DW	01abH
	DW	01abH
	DW	03eH
	DW	03eH
	DW	03dH
	DW	03dH
	DW	03dH
	DW	03dH
	DW	019bH
	DW	03fH
	DW	03fH
	DW	03fH
	DW	03fH
	DW	040H
	DW	040H
	DW	041H
	DW	041H
	DW	041H
	DW	042H
	DW	0e6H
	DW	0121H
	DW	0224H
	DW	0243H
	DW	0120H
	DW	01f6H
	DW	0eaH
	DW	019bH
	DW	013cH
	DW	019bH
	DW	013cH
	DW	0128H
	DW	011bH
	DW	012aH
	DW	013cH
	DW	01bdH
	DW	0209H
	DW	0a5H
	DW	01dcH
	DW	0acH
	DW	09dH
	DW	01a5H
	DW	01a6H
	DW	01c9H
	DW	014fH
	DW	01c9H
	DW	090H
	DW	01a4H
	DW	01aaH
	DW	016eH
	DW	019aH
	DW	023H
	DW	019aH
	DW	024H
	DW	01b3H
	DW	01H
	DW	019aH
	DW	031H
	DW	0147H
	DW	0188H
	DW	0223H
	DW	0c1H
	DW	01a8H
	DW	01a9H
	DW	09cH
	DW	03cH
	DW	03bH
	DW	0126H
	DW	01aeH
	DW	01afH
	DW	01abH
	DW	01abH
	DW	03eH
	DW	03eH
	DW	03dH
	DW	03dH
	DW	03dH
	DW	03dH
	DW	014dH
	DW	03fH
	DW	03fH
	DW	03fH
	DW	03fH
	DW	040H
	DW	040H
	DW	041H
	DW	041H
	DW	041H
	DW	042H
	DW	0e6H
	DW	0121H
	DW	01a7H
	DW	014cH
	DW	01c4H
	DW	0fcH
	DW	019bH
	DW	0127H
	DW	01b6H
	DW	01b7H
	DW	0129H
	DW	013cH
	DW	015dH
	DW	0133H
	DW	0e7H
	DW	01c9H
	DW	01c5H
	DW	0141H
	DW	01b6H
	DW	01b7H
	DW	0188H
	DW	0171H
	DW	010aH
	DW	0109H
	DW	0bdH
	DW	0d9H
	DW	0188H
	DW	01a4H
	DW	01aaH
	DW	01c6H
	DW	01b3H
	DW	01edH
	DW	0cdH
	DW	019aH
	DW	031H
	DW	0189H
	DW	018aH
	DW	0247H
	DW	0379H
	DW	0aeH
	DW	0379H
	DW	01eeH
	DW	0221H
	DW	01ecH
	DW	0188H
	DW	03cH
	DW	03bH
	DW	0126H
	DW	01aeH
	DW	01afH
	DW	01abH
	DW	01abH
	DW	03eH
	DW	03eH
	DW	03dH
	DW	03dH
	DW	03dH
	DW	03dH
	DW	019bH
	DW	03fH
	DW	03fH
	DW	03fH
	DW	03fH
	DW	040H
	DW	040H
	DW	041H
	DW	041H
	DW	041H
	DW	042H
	DW	0e6H
	DW	0121H
	DW	0cfH
	DW	024aH
	DW	0183H
	DW	0180H
	DW	05bH
	DW	0aH
	DW	0244H
	DW	0150H
	DW	0134H
	DW	0188H
	DW	0cfH
	DW	016fH
	DW	01e0H
	DW	013cH
	DW	0189H
	DW	018aH
	DW	0247H
	DW	0378H
	DW	0dbH
	DW	0378H
	DW	0189H
	DW	018aH
	DW	01dcH
	DW	0123H
	DW	0e9H
	DW	01a4H
	DW	01aaH
	DW	01e1H
	DW	0f9H
	DW	019aH
	DW	03H
	DW	01b2H
	DW	0104H
	DW	013dH
	DW	016bH
	DW	019aH
	DW	01dH
	DW	01c0H
	DW	0189H
	DW	018aH
	DW	01d4H
	DW	0104H
	DW	0121H
	DW	03cH
	DW	03bH
	DW	0126H
	DW	01aeH
	DW	01afH
	DW	01abH
	DW	01abH
	DW	03eH
	DW	03eH
	DW	03dH
	DW	03dH
	DW	03dH
	DW	03dH
	DW	0244H
	DW	03fH
	DW	03fH
	DW	03fH
	DW	03fH
	DW	040H
	DW	040H
	DW	041H
	DW	041H
	DW	041H
	DW	042H
	DW	0e6H
	DW	01a4H
	DW	01aaH
	DW	0187H
	DW	0138H
	DW	0184H
	DW	022bH
	DW	0189H
	DW	018aH
	DW	04bH
	DW	0ccH
	DW	04dH
	DW	018bH
	DW	018cH
	DW	018dH
	DW	022dH
	DW	0165H
	DW	0c5H
	DW	0121H
	DW	03cH
	DW	03bH
	DW	0126H
	DW	01aeH
	DW	01afH
	DW	01abH
	DW	01abH
	DW	03eH
	DW	03eH
	DW	03dH
	DW	03dH
	DW	03dH
	DW	03dH
	DW	013cH
	DW	03fH
	DW	03fH
	DW	03fH
	DW	03fH
	DW	040H
	DW	040H
	DW	041H
	DW	041H
	DW	041H
	DW	042H
	DW	0e6H
	DW	01a4H
	DW	01aaH
	DW	013fH
	DW	074H
	DW	01b1H
	DW	01b1H
	DW	013fH
	DW	019bH
	DW	01b1H
	DW	01b1H
	DW	019aH
	DW	018H
	DW	013fH
	DW	0203H
	DW	01b1H
	DW	01b1H
	DW	0203H
	DW	0121H
	DW	03cH
	DW	046H
	DW	0126H
	DW	01aeH
	DW	01afH
	DW	01abH
	DW	01abH
	DW	03eH
	DW	03eH
	DW	03dH
	DW	03dH
	DW	03dH
	DW	03dH
	DW	0177H
	DW	03fH
	DW	03fH
	DW	03fH
	DW	03fH
	DW	040H
	DW	040H
	DW	041H
	DW	041H
	DW	041H
	DW	042H
	DW	0e6H
	DW	01a4H
	DW	01aaH
	DW	021aH
	DW	0164H
	DW	021aH
	DW	0d8H
	DW	0104H
	DW	01d8H
	DW	012fH
	DW	0afH
	DW	0b0H
	DW	0b1H
	DW	0feH
	DW	01dcH
	DW	0203H
	DW	0104H
	DW	017fH
	DW	0121H
	DW	05H
	DW	03bH
	DW	0126H
	DW	01aeH
	DW	01afH
	DW	01abH
	DW	01abH
	DW	03eH
	DW	03eH
	DW	03dH
	DW	03dH
	DW	03dH
	DW	03dH
	DW	013cH
	DW	03fH
	DW	03fH
	DW	03fH
	DW	03fH
	DW	040H
	DW	040H
	DW	041H
	DW	041H
	DW	041H
	DW	042H
	DW	0e6H
	DW	01a4H
	DW	01aaH
	DW	0188H
	DW	0ecH
	DW	017cH
	DW	0f7H
	DW	0130H
	DW	0102H
	DW	0f7H
	DW	0100H
	DW	019aH
	DW	021H
	DW	0104H
	DW	022eH
	DW	07dH
	DW	01d3H
	DW	0203H
	DW	01a0H
	DW	0a8H
	DW	09dH
	DW	0126H
	DW	01aeH
	DW	01afH
	DW	01abH
	DW	01abH
	DW	03eH
	DW	03eH
	DW	03dH
	DW	03dH
	DW	03dH
	DW	03dH
	DW	0132H
	DW	03fH
	DW	03fH
	DW	03fH
	DW	03fH
	DW	040H
	DW	040H
	DW	041H
	DW	041H
	DW	041H
	DW	042H
	DW	0e6H
	DW	048H
	DW	0143H
	DW	01c4H
	DW	04H
	DW	099H
	DW	016H
	DW	0f7H
	DW	0125H
	DW	0131H
	DW	01b3H
	DW	022fH
	DW	013cH
	DW	017eH
	DW	013cH
	DW	01c5H
	DW	0140H
	DW	048H
	DW	0143H
	DW	013cH
	DW	04H
	DW	016eH
	DW	013cH
	DW	0b4H
	DW	0125H
	DW	0189H
	DW	018aH
	DW	014H
	DW	01c6H
	DW	08dH
	DW	0146H
	DW	013cH
	DW	0140H
	DW	0145H
	DW	019aH
	DW	035H
	DW	019aH
	DW	034H
	DW	013cH
	DW	019bH
	DW	09bH
	DW	019aH
	DW	060H
	DW	01bfH
	DW	019aH
	DW	05eH
	DW	013cH
	DW	01f4H
	DW	013cH
	DW	0145H
	DW	0148H
	DW	01d5H
	DW	0f7H
	DW	019aH
	DW	063H
	DW	01bcH
	DW	0104H
	DW	019bH
	DW	013eH
	DW	01bfH
	DW	019aH
	DW	064H
	DW	013cH
	DW	04aH
	DW	049H
	DW	01d3H
	DW	0b7H
	DW	0104H
	DW	019aH
	DW	06eH
	DW	019aH
	DW	070H
	DW	048H
	DW	013aH
	DW	013bH
	DW	01b3H
	DW	0151H
	DW	019fH
	DW	01caH
	DW	04aH
	DW	049H
	DW	01dfH
	DW	013cH
	DW	0179H
	DW	019aH
	DW	011H
	DW	0daH
	DW	013H
	DW	048H
	DW	013aH
	DW	013bH
	DW	048H
	DW	0143H
	DW	019fH
	DW	04H
	DW	0cdH
	DW	013cH
	DW	0112H
	DW	0125H
	DW	013cH
	DW	019bH
	DW	01d2H
	DW	0cdH
	DW	0199H
	DW	019aH
	DW	061H
	DW	0140H
	DW	0198H
	DW	0176H
	DW	01a1H
	DW	01a1H
	DW	01a1H
	DW	01a2H
	DW	01a3H
	DW	0cH
	DW	0178H
	DW	013cH
	DW	0ceH
	DW	019aH
	DW	022H
	DW	0aeH
	DW	019aH
	DW	05fH
	DW	0145H
	DW	037H
	DW	01a1H
	DW	01a1H
	DW	01a1H
	DW	01a2H
	DW	01a3H
	DW	0cH
	DW	0136H
	DW	078H
	DW	01bfH
	DW	01acH
	DW	09fH
	DW	09H
	DW	0104H
	DW	019aH
	DW	019H
	DW	0dcH
	DW	0ddH
	DW	0deH
	DW	066H
	DW	01b9H
	DW	01b9H
	DW	013cH
	DW	01d7H
	DW	0199H
	DW	013cH
	DW	01dbH
	DW	013cH
	DW	0198H
	DW	04aH
	DW	049H
	DW	01b4H
	DW	0caH
	DW	017H
	DW	0116H
	DW	01c7H
	DW	0f4H
	DW	0dH
	DW	048H
	DW	013aH
	DW	013bH
	DW	0117H
	DW	013cH
	DW	019fH
	DW	019aH
	DW	036H
	DW	013cH
	DW	019aH
	DW	071H
	DW	019aH
	DW	072H
	DW	0123H
	DW	0245H
	DW	0c8H
	DW	0114H
	DW	0223H
	DW	01ceH
	DW	01f1H
	DW	01f2H
	DW	0c7H
	DW	013cH
	DW	01f8H
	DW	0c9H
	DW	01cfH
	DW	019aH
	DW	01aH
	DW	013cH
	DW	020cH
	DW	019aH
	DW	025H
	DW	013cH
	DW	01daH
	DW	013cH
	DW	0aaH
	DW	0fdH
	DW	01a1H
	DW	01a1H
	DW	01a1H
	DW	01a2H
	DW	01a3H
	DW	0cH
	DW	01f9H
	DW	019aH
	DW	026H
	DW	01feH
	DW	01e3H
	DW	013cH
	DW	0dH
	DW	019aH
	DW	01bH
	DW	01fcH
	DW	0246H
	DW	019aH
	DW	027H
	DW	019aH
	DW	028H
	DW	013cH
	DW	0ffH
	DW	01fbH
	DW	01faH
	DW	0200H
	DW	013cH
	DW	07dH
	DW	013cH
	DW	01ffH
	DW	0175H
	DW	0113H
	DW	0109H
	DW	019aH
	DW	02aH
	DW	01fdH
	DW	0122H
	DW	013cH
	DW	0fbH
	DW	013cH
	DW	07dH
	DW	0cdH
	DW	0101H
	DW	019aH
	DW	02bH
	DW	013cH
	DW	0103H
	DW	013cH
	DW	019aH
	DW	02cH
	DW	019aH
	DW	01eH
	DW	015cH
	DW	013cH
	DW	07dH
	DW	013cH
	DW	0161H
	DW	0baH
	DW	013cH
	DW	019aH
	DW	01fH
	DW	019aH
	DW	02dH
	DW	013cH
	DW	021fH
	DW	017bH
	DW	07dH
	DW	019aH
	DW	02eH
	DW	019aH
	DW	02fH
	DW	013cH
	DW	0227H
	DW	0108H
	DW	0aaH
	DW	019aH
	DW	030H
	DW	019aH
	DW	020H
	DW	0191H
	DW	019aH
	DW	0bH
	DW	0228H
	DW	01b8H
	DW	059H
	DW	019aH
	DW	032H
	DW	012dH
	DW	0232H
	DW	0242H
	DW	059H
	DW	011fH
	DW	0169H
	DW	019aH
	DW	033H
	DW	016cH
	DW	016dH
	DW	010bH
	DW	010cH
	DW	010dH
	DW	022aH
	DW	08fH
	DW	0234H
	DW	0115H
	DW	0144H
	DW	0118H
	DW	0119H
	DW	023fH
	DW	0e1H
	DW	01baH
	DW	01cdH
	DW	01d0H
	DW	01f7H
	DW	0f1H
	DW	0201H
	DW	0204H
	DW	0226H
	DW	0157H
	DW	0a0H
	DW	0231H
	DW	0186H
	DW	08H
	DW	0139H
	DW	018eH
	DW	018fH
	DW	0190H
	DW	019cH
	DW	052H
	DW	0e2H
	DW	014bH
	DW	0149H
	DW	051H
	DW	0196H
	DW	039H
	DW	04eH
	DW	0d1H
	DW	0a7H
	DW	053H
	DW	01cbH
	DW	07aH
	DW	019eH
	DW	0e3H
	DW	014eH
	DW	0e4H
	DW	0152H
	DW	012cH
	DW	01f4H
	DW	067H
	DW	01f0H
	DW	0f6H
	DW	0207H
	DW	0202H
	DW	01eaH
	DW	01efH
	DW	0f2H
	DW	0d6H
	DW	0206H
	DW	01f3H
	DW	0e5H
	DW	01f5H
	DW	019dH
	DW	015eH
	DW	0215H
	DW	011cH
	DW	020dH
	DW	020eH
	DW	020fH
	DW	0ebH
	DW	0b5H
	DW	01d9H
	DW	0edH
	DW	011dH
	DW	01ddH
	DW	0b6H
	DW	0162H
	DW	0160H
	DW	0b8H
	DW	056H
	DW	0b9H
	DW	076H
	DW	0217H
	DW	0bbH
	DW	0222H
	DW	0168H
	DW	0beH
	DW	081H
	DW	0229H
	DW	08bH
	DW	0173H
	DW	0174H
	DW	082H
	DW	0d7H
	DW	0135H
	DW	0230H
	DW	083H
	DW	084H
	DW	085H
	DW	023cH
	DW	0241H
	DW	087H
	DW	023dH
	DW	062H
	DW	023eH
	DW	0185H
	DW	0106H
	DW	0192H
	DW	026dH
	DW	0218H
	DW	0d5H
	DW	065H
	DW	026eH
	DW	01b0H
	DW	0a3H
	DW	0a4H
	DW	01adH
	DW	08aH
	DW	047H
	DW	01c1H
	DW	01b5H
	DW	01beH
	DW	08cH
	DW	01d6H
	DW	09aH
	DW	06H
	DW	01c2H
	DW	07H
	DW	09eH
	DW	0a6H
	DW	01c3H
	DW	0eH
	DW	07bH
	DW	0dH
	DW	07cH
	DW	01e4H
	DW	0d4H
	DW	054H
	DW	0156H
	DW	068H
	DW	069H
	DW	05aH
	DW	0faH
	DW	055H
	DW	075H
	DW	06aH
	DW	015bH
	DW	0b3H
	DW	0f0H
	DW	015fH
	DW	08eH
	DW	0216H
	DW	07eH
	DW	012H
	DW	0aaH
	DW	05dH
	DW	0107H
	DW	0bcH
	DW	06bH
	DW	0163H
	DW	011eH
	DW	06dH
	DW	07fH
	DW	0225H
	DW	021dH
	DW	080H
	DW	077H
	DW	0219H
	DW	0c0H
	DW	0fH
	DW	0c2H
	DW	0c3H
	DW	088H
	DW	0c4H
	DW	086H
	DW	022cH
	DW	0233H
	DW	0137H
	DW	089H
	DW	010H
	DW	06cH
	DW	023aH
	DW	0cbH
	DW	091H
	DW	0181H
	DW	017dH
	DW	011aH
	DW	0248H
	DW	0383H
	DW	0383H
	DW	0383H
	DW	0383H
	DW	0383H
	DW	057H
	DW	0383H
	DW	058H
	ORG $+6
_yy_lookahead DB 010H
	DB	08bH
	DB	08cH
	DB	08dH
	DB	0a8H
	DB	015H
	DB	090H
	DB	017H
	DB	045H
	DB	046H
	DB	047H
	DB	048H
	DB	0b0H
	DB	04aH
	DB	04bH
	DB	04cH
	DB	04dH
	DB	04eH
	DB	04fH
	DB	050H
	DB	051H
	DB	052H
	DB	053H
	DB	054H
	DB	01H
	DB	02H
	DB	02aH
	DB	02bH
	DB	049H
	DB	04aH
	DB	04bH
	DB	04cH
	DB	04dH
	DB	04eH
	DB	04fH
	DB	050H
	DB	051H
	DB	052H
	DB	053H
	DB	054H
	DB	04eH
	DB	04fH
	DB	017H
	DB	03aH
	DB	03cH
	DB	03dH
	DB	03eH
	DB	03fH
	DB	040H
	DB	041H
	DB	042H
	DB	043H
	DB	044H
	DB	045H
	DB	046H
	DB	047H
	DB	048H
	DB	06eH
	DB	04aH
	DB	04bH
	DB	04cH
	DB	04dH
	DB	04eH
	DB	04fH
	DB	050H
	DB	051H
	DB	052H
	DB	053H
	DB	054H
	DB	010H
	DB	07bH
	DB	093H
	DB	058H
	DB	058H
	DB	06eH
	DB	016H
	DB	0d8H
	DB	05cH
	DB	0daH
	DB	0dbH
	DB	04aH
	DB	04bH
	DB	04cH
	DB	04dH
	DB	04eH
	DB	04fH
	DB	050H
	DB	051H
	DB	052H
	DB	053H
	DB	054H
	DB	093H
	DB	013H
	DB	0a9H
	DB	0aaH
	DB	02aH
	DB	02bH
	DB	04eH
	DB	0eeH
	DB	02eH
	DB	04eH
	DB	04fH
	DB	050H
	DB	051H
	DB	052H
	DB	053H
	DB	054H
	DB	058H
	DB	059H
	DB	07cH
	DB	07dH
	DB	07eH
	DB	010H
	DB	03cH
	DB	03dH
	DB	03eH
	DB	03fH
	DB	040H
	DB	041H
	DB	042H
	DB	043H
	DB	044H
	DB	045H
	DB	046H
	DB	047H
	DB	048H
	DB	0b6H
	DB	04aH
	DB	04bH
	DB	04cH
	DB	04dH
	DB	04eH
	DB	04fH
	DB	050H
	DB	051H
	DB	052H
	DB	053H
	DB	054H
	DB	02aH
	DB	02bH
	DB	02cH
	DB	050H
	DB	051H
	DB	052H
	DB	053H
	DB	054H
	DB	017H
	DB	0dfH
	DB	0a1H
	DB	0d8H
	DB	013H
	DB	0daH
	DB	0dbH
	DB	015H
	DB	017H
	DB	017H
	DB	03cH
	DB	03dH
	DB	03eH
	DB	03fH
	DB	040H
	DB	041H
	DB	042H
	DB	043H
	DB	044H
	DB	045H
	DB	046H
	DB	047H
	DB	048H
	DB	0e1H
	DB	04aH
	DB	04bH
	DB	04cH
	DB	04dH
	DB	04eH
	DB	04fH
	DB	050H
	DB	051H
	DB	052H
	DB	053H
	DB	054H
	DB	010H
	DB	093H
	DB	093H
	DB	096H
	DB	070H
	DB	015H
	DB	0c8H
	DB	093H
	DB	03aH
	DB	054H
	DB	093H
	DB	09cH
	DB	09dH
	DB	0d8H
	DB	0d9H
	DB	0daH
	DB	0dbH
	DB	053H
	DB	054H
	DB	0a5H
	DB	04eH
	DB	04fH
	DB	0d8H
	DB	0beH
	DB	0daH
	DB	0dbH
	DB	02aH
	DB	02bH
	DB	04eH
	DB	04fH
	DB	058H
	DB	059H
	DB	0a9H
	DB	0aaH
	DB	08dH
	DB	0b4H
	DB	0b5H
	DB	090H
	DB	058H
	DB	058H
	DB	062H
	DB	093H
	DB	05cH
	DB	010H
	DB	03cH
	DB	03dH
	DB	03eH
	DB	03fH
	DB	040H
	DB	041H
	DB	042H
	DB	043H
	DB	044H
	DB	045H
	DB	046H
	DB	047H
	DB	048H
	DB	093H
	DB	04aH
	DB	04bH
	DB	04cH
	DB	04dH
	DB	04eH
	DB	04fH
	DB	050H
	DB	051H
	DB	052H
	DB	053H
	DB	054H
	DB	02aH
	DB	02bH
	DB	0a9H
	DB	0d1H
	DB	0d2H
	DB	07cH
	DB	07dH
	DB	07eH
	DB	0e0H
	DB	0eH
	DB	0a9H
	DB	0aaH
	DB	0e3H
	DB	0e4H
	DB	0e6H
	DB	012H
	DB	0e1H
	DB	010H
	DB	03cH
	DB	03dH
	DB	03eH
	DB	03fH
	DB	040H
	DB	041H
	DB	042H
	DB	043H
	DB	044H
	DB	045H
	DB	046H
	DB	047H
	DB	048H
	DB	017H
	DB	04aH
	DB	04bH
	DB	04cH
	DB	04dH
	DB	04eH
	DB	04fH
	DB	050H
	DB	051H
	DB	052H
	DB	053H
	DB	054H
	DB	02aH
	DB	02bH
	DB	093H
	DB	010H
	DB	034H
	DB	093H
	DB	036H
	DB	093H
	DB	0d2H
	DB	037H
	DB	06aH
	DB	099H
	DB	06cH
	DB	06dH
	DB	09cH
	DB	09dH
	DB	09cH
	DB	09dH
	DB	03cH
	DB	03dH
	DB	03eH
	DB	03fH
	DB	040H
	DB	041H
	DB	042H
	DB	043H
	DB	044H
	DB	045H
	DB	046H
	DB	047H
	DB	048H
	DB	016H
	DB	04aH
	DB	04bH
	DB	04cH
	DB	04dH
	DB	04eH
	DB	04fH
	DB	050H
	DB	051H
	DB	052H
	DB	053H
	DB	054H
	DB	0bcH
	DB	093H
	DB	05cH
	DB	083H
	DB	010H
	DB	05eH
	DB	010H
	DB	016H
	DB	014H
	DB	09bH
	DB	058H
	DB	059H
	DB	05aH
	DB	067H
	DB	093H
	DB	05dH
	DB	05eH
	DB	05fH
	DB	0a7H
	DB	0a8H
	DB	0a1H
	DB	0a2H
	DB	0a3H
	DB	0a9H
	DB	0aaH
	DB	019H
	DB	068H
	DB	0b0H
	DB	054H
	DB	01dH
	DB	02aH
	DB	02bH
	DB	0a5H
	DB	0a6H
	DB	05aH
	DB	05bH
	DB	05cH
	DB	05dH
	DB	05eH
	DB	05fH
	DB	060H
	DB	029H
	DB	085H
	DB	0bdH
	DB	085H
	DB	0a9H
	DB	083H
	DB	067H
	DB	03cH
	DB	03dH
	DB	03eH
	DB	03fH
	DB	040H
	DB	041H
	DB	042H
	DB	043H
	DB	044H
	DB	045H
	DB	046H
	DB	047H
	DB	048H
	DB	0b5H
	DB	04aH
	DB	04bH
	DB	04cH
	DB	04dH
	DB	04eH
	DB	04fH
	DB	050H
	DB	051H
	DB	052H
	DB	053H
	DB	054H
	DB	010H
	DB	054H
	DB	05aH
	DB	016H
	DB	014H
	DB	05dH
	DB	05eH
	DB	05fH
	DB	05bH
	DB	05cH
	DB	05dH
	DB	05eH
	DB	05fH
	DB	060H
	DB	079H
	DB	093H
	DB	068H
	DB	093H
	DB	0b9H
	DB	0baH
	DB	067H
	DB	0e3H
	DB	0e4H
	DB	09bH
	DB	0b5H
	DB	0a0H
	DB	02aH
	DB	02bH
	DB	05aH
	DB	0b0H
	DB	0b1H
	DB	05dH
	DB	05eH
	DB	05fH
	DB	0a9H
	DB	0a1H
	DB	0b7H
	DB	0a9H
	DB	0aaH
	DB	0a9H
	DB	0aaH
	DB	09bH
	DB	068H
	DB	09bH
	DB	03cH
	DB	03dH
	DB	03eH
	DB	03fH
	DB	040H
	DB	041H
	DB	042H
	DB	043H
	DB	044H
	DB	045H
	DB	046H
	DB	047H
	DB	048H
	DB	0bdH
	DB	04aH
	DB	04bH
	DB	04cH
	DB	04dH
	DB	04eH
	DB	04fH
	DB	050H
	DB	051H
	DB	052H
	DB	053H
	DB	054H
	DB	010H
	DB	0bH
	DB	0f4H
	DB	0f5H
	DB	014H
	DB	0c8H
	DB	0bdH
	DB	093H
	DB	0bdH
	DB	093H
	DB	0d3H
	DB	09eH
	DB	0d3H
	DB	093H
	DB	0a1H
	DB	0a2H
	DB	0a3H
	DB	093H
	DB	0c9H
	DB	0caH
	DB	02aH
	DB	02bH
	DB	0dfH
	DB	0ceH
	DB	0dfH
	DB	071H
	DB	02aH
	DB	02bH
	DB	093H
	DB	0a9H
	DB	0aaH
	DB	0a9H
	DB	0aaH
	DB	017H
	DB	013H
	DB	0a9H
	DB	0aaH
	DB	0baH
	DB	017H
	DB	031H
	DB	09bH
	DB	03fH
	DB	040H
	DB	093H
	DB	03cH
	DB	03dH
	DB	03eH
	DB	03fH
	DB	040H
	DB	041H
	DB	042H
	DB	043H
	DB	044H
	DB	045H
	DB	046H
	DB	047H
	DB	048H
	DB	093H
	DB	04aH
	DB	04bH
	DB	04cH
	DB	04dH
	DB	04eH
	DB	04fH
	DB	050H
	DB	051H
	DB	052H
	DB	053H
	DB	054H
	DB	010H
	DB	05cH
	DB	0d3H
	DB	0cH
	DB	014H
	DB	0bdH
	DB	0a4H
	DB	0a5H
	DB	0a6H
	DB	0d0H
	DB	093H
	DB	010H
	DB	0d7H
	DB	0dcH
	DB	0dfH
	DB	018H
	DB	0a4H
	DB	0a5H
	DB	0a6H
	DB	017H
	DB	063H
	DB	064H
	DB	065H
	DB	09bH
	DB	0d4H
	DB	017H
	DB	02aH
	DB	02bH
	DB	025H
	DB	058H
	DB	027H
	DB	06eH
	DB	0a9H
	DB	0aaH
	DB	058H
	DB	059H
	DB	013H
	DB	014H
	DB	02bH
	DB	016H
	DB	031H
	DB	0b9H
	DB	0baH
	DB	017H
	DB	03cH
	DB	03dH
	DB	03eH
	DB	03fH
	DB	040H
	DB	041H
	DB	042H
	DB	043H
	DB	044H
	DB	045H
	DB	046H
	DB	047H
	DB	048H
	DB	0bdH
	DB	04aH
	DB	04bH
	DB	04cH
	DB	04dH
	DB	04eH
	DB	04fH
	DB	050H
	DB	051H
	DB	052H
	DB	053H
	DB	054H
	DB	010H
	DB	0e4H
	DB	00H
	DB	01H
	DB	02H
	DB	015H
	DB	013H
	DB	03bH
	DB	093H
	DB	0d7H
	DB	017H
	DB	0e4H
	DB	0d5H
	DB	050H
	DB	093H
	DB	058H
	DB	059H
	DB	013H
	DB	014H
	DB	091H
	DB	016H
	DB	058H
	DB	059H
	DB	093H
	DB	062H
	DB	093H
	DB	02aH
	DB	02bH
	DB	014H
	DB	067H
	DB	0a9H
	DB	0aaH
	DB	014H
	DB	093H
	DB	093H
	DB	0ecH
	DB	0a9H
	DB	0aaH
	DB	014H
	DB	058H
	DB	059H
	DB	072H
	DB	093H
	DB	010H
	DB	03cH
	DB	03dH
	DB	03eH
	DB	03fH
	DB	040H
	DB	041H
	DB	042H
	DB	043H
	DB	044H
	DB	045H
	DB	046H
	DB	047H
	DB	048H
	DB	03bH
	DB	04aH
	DB	04bH
	DB	04cH
	DB	04dH
	DB	04eH
	DB	04fH
	DB	050H
	DB	051H
	DB	052H
	DB	053H
	DB	054H
	DB	02aH
	DB	02bH
	DB	093H
	DB	08eH
	DB	08fH
	DB	0bcH
	DB	058H
	DB	059H
	DB	082H
	DB	094H
	DB	084H
	DB	07H
	DB	08H
	DB	09H
	DB	0bcH
	DB	0d0H
	DB	09bH
	DB	010H
	DB	03cH
	DB	03dH
	DB	03eH
	DB	03fH
	DB	040H
	DB	041H
	DB	042H
	DB	043H
	DB	044H
	DB	045H
	DB	046H
	DB	047H
	DB	048H
	DB	093H
	DB	04aH
	DB	04bH
	DB	04cH
	DB	04dH
	DB	04eH
	DB	04fH
	DB	050H
	DB	051H
	DB	052H
	DB	053H
	DB	054H
	DB	02aH
	DB	02bH
	DB	06aH
	DB	093H
	DB	06cH
	DB	06dH
	DB	06aH
	DB	0bdH
	DB	06cH
	DB	06dH
	DB	0a9H
	DB	0aaH
	DB	06aH
	DB	093H
	DB	06cH
	DB	06dH
	DB	093H
	DB	010H
	DB	03cH
	DB	03dH
	DB	03eH
	DB	03fH
	DB	040H
	DB	041H
	DB	042H
	DB	043H
	DB	044H
	DB	045H
	DB	046H
	DB	047H
	DB	048H
	DB	0d5H
	DB	04aH
	DB	04bH
	DB	04cH
	DB	04dH
	DB	04eH
	DB	04fH
	DB	050H
	DB	051H
	DB	052H
	DB	053H
	DB	054H
	DB	02aH
	DB	02bH
	DB	063H
	DB	064H
	DB	065H
	DB	0b6H
	DB	093H
	DB	0a1H
	DB	0b6H
	DB	063H
	DB	064H
	DB	065H
	DB	0eH
	DB	093H
	DB	093H
	DB	093H
	DB	0f1H
	DB	010H
	DB	0bfH
	DB	03dH
	DB	03eH
	DB	03fH
	DB	040H
	DB	041H
	DB	042H
	DB	043H
	DB	044H
	DB	045H
	DB	046H
	DB	047H
	DB	048H
	DB	093H
	DB	04aH
	DB	04bH
	DB	04cH
	DB	04dH
	DB	04eH
	DB	04fH
	DB	050H
	DB	051H
	DB	052H
	DB	053H
	DB	054H
	DB	02aH
	DB	02bH
	DB	017H
	DB	0c8H
	DB	0bcH
	DB	0e1H
	DB	0b6H
	DB	034H
	DB	0e1H
	DB	036H
	DB	0a9H
	DB	0aaH
	DB	093H
	DB	0bcH
	DB	016H
	DB	016H
	DB	093H
	DB	093H
	DB	0c9H
	DB	0caH
	DB	03eH
	DB	03fH
	DB	040H
	DB	041H
	DB	042H
	DB	043H
	DB	044H
	DB	045H
	DB	046H
	DB	047H
	DB	048H
	DB	0d0H
	DB	04aH
	DB	04bH
	DB	04cH
	DB	04dH
	DB	04eH
	DB	04fH
	DB	050H
	DB	051H
	DB	052H
	DB	053H
	DB	054H
	DB	010H
	DB	011H
	DB	0cH
	DB	013H
	DB	09bH
	DB	013H
	DB	0e1H
	DB	017H
	DB	0b6H
	DB	017H
	DB	0bcH
	DB	093H
	DB	0efH
	DB	093H
	DB	018H
	DB	01fH
	DB	010H
	DB	011H
	DB	093H
	DB	013H
	DB	093H
	DB	093H
	DB	09bH
	DB	017H
	DB	058H
	DB	059H
	DB	013H
	DB	025H
	DB	015H
	DB	027H
	DB	093H
	DB	01fH
	DB	030H
	DB	0a9H
	DB	0aaH
	DB	0a9H
	DB	0aaH
	DB	093H
	DB	0bdH
	DB	059H
	DB	0a9H
	DB	0aaH
	DB	03aH
	DB	0a9H
	DB	0aaH
	DB	093H
	DB	061H
	DB	093H
	DB	030H
	DB	093H
	DB	072H
	DB	0e1H
	DB	0a9H
	DB	0aaH
	DB	0a1H
	DB	093H
	DB	0bdH
	DB	010H
	DB	03aH
	DB	0a9H
	DB	0aaH
	DB	093H
	DB	04eH
	DB	04fH
	DB	072H
	DB	09bH
	DB	093H
	DB	0a9H
	DB	0aaH
	DB	0a9H
	DB	0aaH
	DB	057H
	DB	058H
	DB	059H
	DB	058H
	DB	050H
	DB	05cH
	DB	093H
	DB	04eH
	DB	04fH
	DB	050H
	DB	093H
	DB	05bH
	DB	0a9H
	DB	0aaH
	DB	0d4H
	DB	013H
	DB	057H
	DB	058H
	DB	059H
	DB	010H
	DB	011H
	DB	05cH
	DB	013H
	DB	06eH
	DB	093H
	DB	0bcH
	DB	017H
	DB	093H
	DB	0bdH
	DB	0cbH
	DB	06eH
	DB	06bH
	DB	0a9H
	DB	0aaH
	DB	01fH
	DB	06fH
	DB	0bcH
	DB	07cH
	DB	07dH
	DB	07eH
	DB	07fH
	DB	080H
	DB	081H
	DB	07bH
	DB	093H
	DB	0c0H
	DB	0a9H
	DB	0aaH
	DB	02bH
	DB	0a9H
	DB	0aaH
	DB	030H
	DB	0c7H
	DB	07cH
	DB	07dH
	DB	07eH
	DB	07fH
	DB	080H
	DB	081H
	DB	0f2H
	DB	0f3H
	DB	03aH
	DB	05cH
	DB	05H
	DB	044H
	DB	093H
	DB	0a9H
	DB	0aaH
	DB	0aH
	DB	0bH
	DB	0cH
	DB	0dH
	DB	07cH
	DB	07dH
	DB	093H
	DB	093H
	DB	06bH
	DB	093H
	DB	093H
	DB	093H
	DB	06fH
	DB	04eH
	DB	04fH
	DB	014H
	DB	01aH
	DB	016H
	DB	01cH
	DB	014H
	DB	093H
	DB	016H
	DB	057H
	DB	058H
	DB	059H
	DB	023H
	DB	093H
	DB	05cH
	DB	0a9H
	DB	0aaH
	DB	093H
	DB	0a9H
	DB	0aaH
	DB	0a9H
	DB	0aaH
	DB	062H
	DB	014H
	DB	02fH
	DB	0bcH
	DB	031H
	DB	01bH
	DB	07H
	DB	08H
	DB	035H
	DB	093H
	DB	093H
	DB	038H
	DB	022H
	DB	0a9H
	DB	0aaH
	DB	093H
	DB	093H
	DB	0a9H
	DB	0aaH
	DB	093H
	DB	014H
	DB	093H
	DB	016H
	DB	093H
	DB	07cH
	DB	07dH
	DB	07eH
	DB	07fH
	DB	080H
	DB	081H
	DB	0b2H
	DB	0a9H
	DB	0aaH
	DB	0b2H
	DB	014H
	DB	093H
	DB	016H
	DB	0a9H
	DB	0aaH
	DB	01eH
	DB	03bH
	DB	0a9H
	DB	0aaH
	DB	0a9H
	DB	0aaH
	DB	093H
	DB	093H
	DB	05bH
	DB	05cH
	DB	014H
	DB	093H
	DB	016H
	DB	093H
	DB	0b2H
	DB	063H
	DB	064H
	DB	065H
	DB	0a9H
	DB	0aaH
	DB	032H
	DB	069H
	DB	093H
	DB	014H
	DB	093H
	DB	016H
	DB	06eH
	DB	093H
	DB	0a9H
	DB	0aaH
	DB	093H
	DB	093H
	DB	093H
	DB	0a9H
	DB	0aaH
	DB	0a9H
	DB	0aaH
	DB	014H
	DB	093H
	DB	016H
	DB	093H
	DB	0e9H
	DB	0e8H
	DB	093H
	DB	0a9H
	DB	0aaH
	DB	0a9H
	DB	0aaH
	DB	093H
	DB	014H
	DB	086H
	DB	016H
	DB	0a9H
	DB	0aaH
	DB	0a9H
	DB	0aaH
	DB	093H
	DB	014H
	DB	093H
	DB	016H
	DB	0a9H
	DB	0aaH
	DB	0a9H
	DB	0aaH
	DB	095H
	DB	0a9H
	DB	0aaH
	DB	014H
	DB	0e5H
	DB	016H
	DB	0a9H
	DB	0aaH
	DB	066H
	DB	014H
	DB	014H
	DB	016H
	DB	016H
	DB	093H
	DB	0a9H
	DB	0aaH
	DB	093H
	DB	093H
	DB	093H
	DB	093H
	DB	093H
	DB	093H
	DB	0bfH
	DB	093H
	DB	093H
	DB	0deH
	DB	093H
	DB	093H
	DB	093H
	DB	0c1H
	DB	0e5H
	DB	0acH
	DB	0acH
	DB	0b1H
	DB	0acH
	DB	0acH
	DB	0acH
	DB	0c2H
	DB	0adH
	DB	06H
	DB	0c2H
	DB	092H
	DB	016H
	DB	09aH
	DB	092H
	DB	092H
	DB	092H
	DB	0bdH
	DB	079H
	DB	0c2H
	DB	076H
	DB	074H
	DB	077H
	DB	017H
	DB	078H
	DB	082H
	DB	0ddH
	DB	070H
	DB	062H
	DB	098H
	DB	098H
	DB	0a0H
	DB	0c3H
	DB	073H
	DB	0c4H
	DB	062H
	DB	028H
	DB	061H
	DB	013H
	DB	0b3H
	DB	054H
	DB	0b3H
	DB	0a0H
	DB	0abH
	DB	0abH
	DB	0abH
	DB	0e2H
	DB	0a0H
	DB	0adH
	DB	0c5H
	DB	0abH
	DB	0c6H
	DB	0fH
	DB	098H
	DB	0aeH
	DB	0abH
	DB	0abH
	DB	0abH
	DB	0ccH
	DB	097H
	DB	0cdH
	DB	0ccH
	DB	0aeH
	DB	0cdH
	DB	097H
	DB	026H
	DB	098H
	DB	097H
	DB	082H
	DB	098H
	DB	03cH
	DB	098H
	DB	097H
	DB	0b8H
	DB	098H
	DB	0b8H
	DB	013H
	DB	0c2H
	DB	0d6H
	DB	098H
	DB	0fH
	DB	0bbH
	DB	0e2H
	DB	098H
	DB	0c2H
	DB	0bbH
	DB	0bbH
	DB	0bbH
	DB	021H
	DB	089H
	DB	0b8H
	DB	098H
	DB	09fH
	DB	098H
	DB	01H
	DB	0eaH
	DB	014H
	DB	070H
	DB	0ebH
	DB	0afH
	DB	0afH
	DB	070H
	DB	06bH
	DB	070H
	DB	070H
	DB	05cH
	DB	0d6H
	DB	013H
	DB	0bH
	DB	014H
	DB	014H
	DB	013H
	DB	072H
	DB	013H
	DB	075H
	DB	014H
	DB	075H
	DB	070H
	DB	016H
	DB	014H
	DB	016H
	DB	013H
	DB	016H
	DB	014H
	DB	014H
	DB	02cH
	DB	013H
	DB	02cH
	DB	013H
	DB	013H
	DB	0edH
	DB	014H
	DB	013H
	DB	020H
	DB	013H
	DB	02cH
	DB	060H
	DB	067H
	DB	010H
	DB	015H
	DB	011H
	DB	062H
	DB	0e7H
	DB	016H
	DB	0edH
	DB	085H
	DB	062H
	DB	013H
	DB	024H
	DB	05H
	DB	0f0H
	DB	02dH
	DB	01H
	DB	02dH
	DB	066H
	DB	0f3H
	DB	033H
	DB	07aH
	DB	013H
	DB	071H
	DB	0eH
	DB	066H
	DB	073H
	DB	071H
	DB	011H
	DB	07bH
	DB	0f6H
	DB	07aH
	DB	013H
	DB	0eH
	DB	014H
	DB	087H
	DB	013H
	DB	03H
	DB	039H
	DB	088H
	DB	04H
	DB	0f7H
	DB	0f7H
	DB	0f7H
	DB	0f7H
	DB	0f7H
	DB	044H
	DB	0f7H
	DB	044H
	ORG $+3
_yy_shift_ofst DW 017H
	DW	0349H
	DW	03daH
	DW	0fff0H
	DW	0349H
	DW	03a3H
	DW	03a3H
	DW	03a3H
	DW	0102H
	DW	07bH
	DW	0ffdcH
	DW	060H
	DW	03a3H
	DW	03a3H
	DW	03a3H
	DW	03a3H
	DW	03a3H
	DW	0ffd3H
	DW	01d4H
	DW	013H
	DW	0237H
	DW	01e8H
	DW	0ffdaH
	DW	0ffdaH
	DW	035H
	DW	0a5H
	DW	0d0H
	DW	0fbH
	DW	0144H
	DW	0189H
	DW	01ceH
	DW	0213H
	DW	0258H
	DW	0283H
	DW	02aeH
	DW	0283H
	DW	0283H
	DW	0283H
	DW	0283H
	DW	0283H
	DW	0283H
	DW	0283H
	DW	0283H
	DW	0283H
	DW	0283H
	DW	0283H
	DW	0283H
	DW	0283H
	DW	0283H
	DW	0283H
	DW	0283H
	DW	0283H
	DW	02d9H
	DW	0304H
	DW	0304H
	DW	0359H
	DW	03a3H
	DW	03a3H
	DW	03a3H
	DW	03a3H
	DW	03a3H
	DW	03a3H
	DW	03a3H
	DW	03a3H
	DW	03a3H
	DW	03a3H
	DW	03a3H
	DW	03a3H
	DW	03a3H
	DW	03a3H
	DW	03a3H
	DW	03a3H
	DW	03a3H
	DW	03a3H
	DW	03a3H
	DW	03a3H
	DW	03a3H
	DW	03a3H
	DW	03a3H
	DW	03a3H
	DW	03a3H
	DW	03a3H
	DW	03a3H
	DW	03a3H
	DW	03a3H
	DW	03a3H
	DW	03a3H
	DW	03a3H
	DW	03a3H
	DW	03a3H
	DW	03a3H
	DW	03a3H
	DW	03a3H
	DW	03a3H
	DW	0ffc3H
	DW	0ffc3H
	DW	06H
	DW	06H
	DW	0118H
	DW	016H
	DW	03dH
	DW	021eH
	DW	0f7H
	DW	0237H
	DW	0237H
	DW	0237H
	DW	0237H
	DW	0237H
	DW	0237H
	DW	0237H
	DW	073H
	DW	01e8H
	DW	06aH
	DW	0ffc2H
	DW	0ffc2H
	DW	083H
	DW	0146H
	DW	021aH
	DW	021aH
	DW	0234H
	DW	0266H
	DW	026aH
	DW	084H
	DW	0237H
	DW	084H
	DW	0237H
	DW	0237H
	DW	0237H
	DW	0237H
	DW	0237H
	DW	0237H
	DW	0237H
	DW	0237H
	DW	0237H
	DW	0237H
	DW	0237H
	DW	0237H
	DW	0237H
	DW	0350H
	DW	0ffcbH
	DW	0ffdcH
	DW	0ffdcH
	DW	0ffdcH
	DW	0ffc2H
	DW	0ffc2H
	DW	0ffc2H
	DW	0fff1H
	DW	0fff1H
	DW	0141H
	DW	015bH
	DW	0270H
	DW	01edH
	DW	0274H
	DW	027aH
	DW	034fH
	DW	021fH
	DW	0319H
	DW	025bH
	DW	0225H
	DW	02b1H
	DW	0237H
	DW	0237H
	DW	0354H
	DW	0237H
	DW	0237H
	DW	034bH
	DW	0237H
	DW	0237H
	DW	0327H
	DW	0237H
	DW	0237H
	DW	0c5H
	DW	0327H
	DW	0237H
	DW	0237H
	DW	0410H
	DW	0410H
	DW	0410H
	DW	0237H
	DW	0237H
	DW	0c5H
	DW	0237H
	DW	0237H
	DW	0c5H
	DW	0237H
	DW	0150H
	DW	02a2H
	DW	0237H
	DW	0237H
	DW	0c5H
	DW	0237H
	DW	0237H
	DW	0237H
	DW	0c5H
	DW	0237H
	DW	0237H
	DW	0237H
	DW	0c5H
	DW	0c5H
	DW	0237H
	DW	0237H
	DW	0237H
	DW	0237H
	DW	0237H
	DW	0360H
	DW	0381H
	DW	0186H
	DW	036cH
	DW	036cH
	DW	0233H
	DW	03f1H
	DW	03f1H
	DW	03f1H
	DW	03a5H
	DW	03f1H
	DW	03f1H
	DW	0326H
	DW	012eH
	DW	012eH
	DW	048fH
	DW	048fH
	DW	048fH
	DW	048fH
	DW	0482H
	DW	0ffdcH
	DW	0425H
	DW	042aH
	DW	042bH
	DW	042dH
	DW	042cH
	DW	048cH
	DW	0423H
	DW	0437H
	DW	0437H
	DW	0446H
	DW	043aH
	DW	0446H
	DW	043aH
	DW	044dH
	DW	044dH
	DW	0488H
	DW	044dH
	DW	0450H
	DW	044dH
	DW	049fH
	DW	0460H
	DW	048cH
	DW	0460H
	DW	048cH
	DW	0488H
	DW	044dH
	DW	044dH
	DW	044dH
	DW	049fH
	DW	04b1H
	DW	0437H
	DW	04b1H
	DW	0437H
	DW	04b1H
	DW	0437H
	DW	0437H
	DW	04a7H
	DW	044eH
	DW	04b1H
	DW	0437H
	DW	0496H
	DW	0496H
	DW	04c5H
	DW	0425H
	DW	0437H
	DW	04cdH
	DW	04cdH
	DW	04cdH
	DW	04cdH
	DW	0425H
	DW	0496H
	DW	04c5H
	DW	0437H
	DW	04c3H
	DW	04c3H
	DW	0437H
	DW	0437H
	DW	045cH
	DW	0ffc2H
	DW	0ffc2H
	DW	0ffc2H
	DW	0ffc2H
	DW	0ffc2H
	DW	0ffc2H
	DW	01c8H
	DW	0f5H
	DW	02a9H
	DW	0301H
	DW	049H
	DW	0382H
	DW	03dfH
	DW	03e3H
	DW	0407H
	DW	0415H
	DW	0f6H
	DW	0406H
	DW	03dbH
	DW	0424H
	DW	0431H
	DW	043fH
	DW	044bH
	DW	0453H
	DW	045dH
	DW	0463H
	DW	039cH
	DW	0464H
	DW	03f4H
	DW	04e9H
	DW	04d8H
	DW	047dH
	DW	0481H
	DW	0483H
	DW	0484H
	DW	0499H
	DW	0487H
	DW	04e4H
	DW	04e5H
	DW	04e6H
	DW	04e8H
	DW	04edH
	DW	04eaH
	DW	04ebH
	DW	04ecH
	DW	04efH
	DW	0489H
	DW	04eeH
	DW	048bH
	DW	04f0H
	DW	048aH
	DW	04f2H
	DW	04f3H
	DW	0491H
	DW	04f4H
	DW	04f1H
	DW	04ddH
	DW	04f7H
	DW	04dfH
	DW	04f9H
	DW	04fbH
	DW	04faH
	DW	04fdH
	DW	04e7H
	DW	04ffH
	DW	04b4H
	DW	04aeH
	DW	0506H
	DW	0507H
	DW	0502H
	DW	04b7H
	DW	04fcH
	DW	04f5H
	DW	04f6H
	DW	0505H
	DW	04f8H
	DW	0498H
	DW	04bcH
	DW	050cH
	DW	051cH
	DW	0523H
	DW	04c0H
	DW	04feH
	DW	0500H
	DW	04afH
	DW	0517H
	DW	04baH
	DW	051eH
	DW	04bbH
	DW	051fH
	DW	04beH
	DW	04c7H
	DW	04b9H
	DW	0521H
	DW	04b6H
	DW	0522H
	DW	0527H
	DW	0501H
	DW	04b0H
	DW	04b3H
	DW	0525H
	DW	0536H
	DW	0538H
	ORG $+4
_yy_reduce_ofst DW 0ff76H
	DW	0115H
	DW	0222H
	DW	0fff3H
	DW	0beH
	DW	0117H
	DW	02cH
	DW	0152H
	DW	024H
	DW	0cbH
	DW	0127H
	DW	0ff74H
	DW	0154H
	DW	0ffb4H
	DW	05bH
	DW	0158H
	DW	019aH
	DW	0ffeaH
	DW	019fH
	DW	023H
	DW	097H
	DW	014bH
	DW	0185H
	DW	018fH
	DW	0ffbdH
	DW	0ffbdH
	DW	0ffbdH
	DW	0ffbdH
	DW	0ffbdH
	DW	0ffbdH
	DW	0ffbdH
	DW	0ffbdH
	DW	0ffbdH
	DW	0ffbdH
	DW	0ffbdH
	DW	0ffbdH
	DW	0ffbdH
	DW	0ffbdH
	DW	0ffbdH
	DW	0ffbdH
	DW	0ffbdH
	DW	0ffbdH
	DW	0ffbdH
	DW	0ffbdH
	DW	0ffbdH
	DW	0ffbdH
	DW	0ffbdH
	DW	0ffbdH
	DW	0ffbdH
	DW	0ffbdH
	DW	0ffbdH
	DW	0ffbdH
	DW	0ffbdH
	DW	0ffbdH
	DW	0ffbdH
	DW	01ddH
	DW	01e3H
	DW	0239H
	DW	028fH
	DW	02d1H
	DW	02d3H
	DW	02d8H
	DW	02dbH
	DW	02e4H
	DW	02ebH
	DW	02f3H
	DW	02f5H
	DW	0303H
	DW	0317H
	DW	0325H
	DW	0328H
	DW	0339H
	DW	0357H
	DW	035aH
	DW	035cH
	DW	036bH
	DW	036fH
	DW	037dH
	DW	0383H
	DW	0387H
	DW	0389H
	DW	0397H
	DW	03a1H
	DW	03a6H
	DW	03a8H
	DW	03b1H
	DW	03b3H
	DW	03b9H
	DW	03bbH
	DW	03c1H
	DW	03c3H
	DW	03c6H
	DW	03cbH
	DW	03d3H
	DW	0ffbdH
	DW	0ffbdH
	DW	0ffbdH
	DW	0ffbdH
	DW	0bbH
	DW	0ffbdH
	DW	0ffbdH
	DW	0106H
	DW	022H
	DW	0ffc8H
	DW	0252H
	DW	0255H
	DW	027eH
	DW	02abH
	DW	0276H
	DW	099H
	DW	0ffbdH
	DW	0c3H
	DW	0ffbdH
	DW	0ffbdH
	DW	0ffbdH
	DW	0112H
	DW	0ff5cH
	DW	0f2H
	DW	0193H
	DW	0ecH
	DW	0ecH
	DW	04aH
	DW	011bH
	DW	015cH
	DW	0269H
	DW	029H
	DW	094H
	DW	01ecH
	DW	0167H
	DW	027dH
	DW	01f6H
	DW	01ffH
	DW	027fH
	DW	02a7H
	DW	02fdH
	DW	0308H
	DW	02daH
	DW	034eH
	DW	0129H
	DW	016bH
	DW	02c2H
	DW	02d4H
	DW	02ffH
	DW	030dH
	DW	0277H
	DW	02e9H
	DW	053H
	DW	0d4H
	DW	0d8H
	DW	0fcH
	DW	0eH
	DW	04bH
	DW	0eH
	DW	0eH
	DW	0149H
	DW	0176H
	DW	0184H
	DW	01eeH
	DW	01f7H
	DW	01eaH
	DW	021cH
	DW	0248H
	DW	0256H
	DW	01f7H
	DW	02acH
	DW	02eeH
	DW	02f7H
	DW	0313H
	DW	02f2H
	DW	0358H
	DW	035bH
	DW	0eH
	DW	02f2H
	DW	0365H
	DW	037eH
	DW	0373H
	DW	0376H
	DW	038aH
	DW	0384H
	DW	038bH
	DW	0eH
	DW	03a2H
	DW	03b6H
	DW	0eH
	DW	03baH
	DW	0370H
	DW	036eH
	DW	03d5H
	DW	03e8H
	DW	0eH
	DW	03ebH
	DW	03ecH
	DW	03edH
	DW	0eH
	DW	03eeH
	DW	03efH
	DW	03f0H
	DW	0eH
	DW	0eH
	DW	03f2H
	DW	03f3H
	DW	03f5H
	DW	03f6H
	DW	03f7H
	DW	03d9H
	DW	03c5H
	DW	03caH
	DW	038dH
	DW	03a7H
	DW	03a9H
	DW	03e1H
	DW	03e2H
	DW	03e4H
	DW	03deH
	DW	03e5H
	DW	03e6H
	DW	03e7H
	DW	03d1H
	DW	03d4H
	DW	0405H
	DW	0408H
	DW	0409H
	DW	040aH
	DW	03ffH
	DW	03e0H
	DW	03ddH
	DW	03e9H
	DW	03eaH
	DW	03f8H
	DW	03f9H
	DW	040bH
	DW	03c9H
	DW	0411H
	DW	0412H
	DW	03faH
	DW	03fbH
	DW	03fdH
	DW	03feH
	DW	040cH
	DW	040dH
	DW	0400H
	DW	040eH
	DW	040fH
	DW	0413H
	DW	0414H
	DW	03d8H
	DW	0416H
	DW	03fcH
	DW	041bH
	DW	0402H
	DW	0418H
	DW	0419H
	DW	041aH
	DW	041cH
	DW	0430H
	DW	0429H
	DW	0435H
	DW	0436H
	DW	0438H
	DW	0439H
	DW	043bH
	DW	0401H
	DW	0403H
	DW	043dH
	DW	043eH
	DW	041dH
	DW	041fH
	DW	0404H
	DW	0417H
	DW	0443H
	DW	0422H
	DW	0426H
	DW	0427H
	DW	0428H
	DW	041eH
	DW	042eH
	DW	0420H
	DW	0447H
	DW	0421H
	DW	042fH
	DW	044fH
	DW	0451H
	DW	0432H
	DW	0449H
	DW	0440H
	DW	0441H
	DW	0433H
	DW	0434H
	DW	043cH
	ORG $+6
_yy_default DW	0250H
	DW	0332H
	DW	0381H
	DW	02c3H
	DW	0381H
	DW	0332H
	DW	0381H
	DW	0332H
	DW	0381H
	DW	034bH
	DW	02c7H
	DW	0368H
	DW	032eH
	DW	0332H
	DW	0381H
	DW	0381H
	DW	0381H
	DW	0315H
	DW	0381H
	DW	034bH
	DW	0381H
	DW	026fH
	DW	034bH
	DW	034bH
	DW	02e4H
	DW	0381H
	DW	0381H
	DW	0381H
	DW	0381H
	DW	0381H
	DW	0381H
	DW	0381H
	DW	0381H
	DW	02e5H
	DW	0381H
	DW	0331H
	DW	032dH
	DW	0329H
	DW	032bH
	DW	032aH
	DW	02e6H
	DW	02dbH
	DW	02e2H
	DW	02e9H
	DW	02d3H
	DW	0358H
	DW	02ebH
	DW	02ecH
	DW	02f2H
	DW	02f3H
	DW	0369H
	DW	0367H
	DW	0309H
	DW	0308H
	DW	031bH
	DW	0381H
	DW	0381H
	DW	0381H
	DW	0381H
	DW	0381H
	DW	0381H
	DW	0381H
	DW	0381H
	DW	0381H
	DW	0381H
	DW	0381H
	DW	0381H
	DW	0381H
	DW	0381H
	DW	0381H
	DW	0381H
	DW	0381H
	DW	0381H
	DW	0381H
	DW	0381H
	DW	0381H
	DW	0381H
	DW	0381H
	DW	0381H
	DW	0381H
	DW	0381H
	DW	0381H
	DW	0381H
	DW	0381H
	DW	0381H
	DW	0381H
	DW	0381H
	DW	0381H
	DW	0381H
	DW	0381H
	DW	0381H
	DW	0381H
	DW	0381H
	DW	0381H
	DW	030bH
	DW	0320H
	DW	030aH
	DW	0314H
	DW	0268H
	DW	030cH
	DW	030dH
	DW	02a4H
	DW	0263H
	DW	0381H
	DW	0381H
	DW	0381H
	DW	0381H
	DW	0381H
	DW	0381H
	DW	0381H
	DW	030eH
	DW	0381H
	DW	030fH
	DW	031cH
	DW	031dH
	DW	0381H
	DW	0381H
	DW	0381H
	DW	0381H
	DW	0381H
	DW	0381H
	DW	0250H
	DW	02c3H
	DW	0381H
	DW	02c3H
	DW	0381H
	DW	0381H
	DW	0381H
	DW	0381H
	DW	0381H
	DW	0381H
	DW	0381H
	DW	0381H
	DW	0381H
	DW	0381H
	DW	0381H
	DW	0381H
	DW	0381H
	DW	0381H
	DW	0381H
	DW	0381H
	DW	0381H
	DW	0381H
	DW	02bdH
	DW	02c7H
	DW	037aH
	DW	0381H
	DW	0381H
	DW	029bH
	DW	0381H
	DW	0381H
	DW	0381H
	DW	0381H
	DW	0381H
	DW	0381H
	DW	0381H
	DW	0381H
	DW	0381H
	DW	0381H
	DW	0257H
	DW	0255H
	DW	0381H
	DW	02bbH
	DW	0381H
	DW	0381H
	DW	0271H
	DW	0381H
	DW	0381H
	DW	02c5H
	DW	0381H
	DW	0381H
	DW	02caH
	DW	02cbH
	DW	0381H
	DW	0381H
	DW	0381H
	DW	0381H
	DW	0381H
	DW	0381H
	DW	0381H
	DW	0265H
	DW	0381H
	DW	0381H
	DW	02b0H
	DW	0381H
	DW	0351H
	DW	0381H
	DW	0381H
	DW	0381H
	DW	035fH
	DW	0381H
	DW	0381H
	DW	0381H
	DW	035dH
	DW	0381H
	DW	0381H
	DW	0381H
	DW	02b2H
	DW	02eeH
	DW	033eH
	DW	0381H
	DW	036cH
	DW	036eH
	DW	0381H
	DW	0381H
	DW	02bbH
	DW	02c4H
	DW	0381H
	DW	0381H
	DW	032cH
	DW	02deH
	DW	02deH
	DW	02deH
	DW	0286H
	DW	02deH
	DW	02deH
	DW	0289H
	DW	02e8H
	DW	02e8H
	DW	0254H
	DW	0254H
	DW	0254H
	DW	0254H
	DW	029aH
	DW	0381H
	DW	02e8H
	DW	02dfH
	DW	02e1H
	DW	02d7H
	DW	02e3H
	DW	0381H
	DW	0381H
	DW	02ccH
	DW	02ccH
	DW	02d4H
	DW	02d6H
	DW	02d4H
	DW	02d6H
	DW	02a6H
	DW	02a6H
	DW	0297H
	DW	02a6H
	DW	0289H
	DW	02a6H
	DW	0336H
	DW	033bH
	DW	0381H
	DW	033bH
	DW	0381H
	DW	0297H
	DW	02a6H
	DW	02a6H
	DW	02a6H
	DW	0336H
	DW	0260H
	DW	02ccH
	DW	0260H
	DW	02ccH
	DW	0260H
	DW	02ccH
	DW	02ccH
	DW	0355H
	DW	0357H
	DW	0260H
	DW	02ccH
	DW	02a8H
	DW	02a8H
	DW	02f4H
	DW	02e8H
	DW	02ccH
	DW	02afH
	DW	02afH
	DW	02afH
	DW	02afH
	DW	02e8H
	DW	02a8H
	DW	02f4H
	DW	02ccH
	DW	036bH
	DW	036bH
	DW	02ccH
	DW	02ccH
	DW	0373H
	DW	0279H
	DW	028bH
	DW	028bH
	DW	035aH
	DW	037aH
	DW	037fH
	DW	0381H
	DW	0381H
	DW	0381H
	DW	0381H
	DW	02fbH
	DW	0381H
	DW	0381H
	DW	0381H
	DW	0381H
	DW	0381H
	DW	0381H
	DW	0381H
	DW	0381H
	DW	0381H
	DW	0381H
	DW	0381H
	DW	0381H
	DW	0381H
	DW	0381H
	DW	0381H
	DW	0344H
	DW	0381H
	DW	0381H
	DW	0381H
	DW	0381H
	DW	0300H
	DW	02fcH
	DW	0381H
	DW	02fdH
	DW	0381H
	DW	02b5H
	DW	0381H
	DW	0381H
	DW	0381H
	DW	0381H
	DW	0381H
	DW	0381H
	DW	0381H
	DW	0381H
	DW	0381H
	DW	0381H
	DW	02d8H
	DW	0381H
	DW	02e0H
	DW	0381H
	DW	0381H
	DW	0381H
	DW	0381H
	DW	0381H
	DW	0381H
	DW	0381H
	DW	0381H
	DW	0381H
	DW	0381H
	DW	0381H
	DW	0381H
	DW	0381H
	DW	0381H
	DW	0381H
	DW	0381H
	DW	0381H
	DW	0381H
	DW	0381H
	DW	0381H
	DW	0381H
	DW	0381H
	DW	0381H
	DW	0353H
	DW	0354H
	DW	0381H
	DW	0381H
	DW	0381H
	DW	0381H
	DW	0381H
	DW	0381H
	DW	0381H
	DW	0381H
	DW	0381H
	DW	0381H
	DW	0381H
	DW	0381H
	DW	0381H
	DW	0381H
	DW	0381H
	DW	0381H
	DW	0381H
	DW	0381H
	DW	0381H
	DW	0381H
	DW	0381H
	DW	0381H
	DW	0372H
	DW	0381H
	DW	0381H
	DW	0375H
	DW	0251H
	DW	0381H
	DW	024bH
	DW	024eH
	DW	024dH
	DW	024fH
	DW	0253H
	DW	0256H
	DW	026cH
	DW	026dH
	DW	026eH
	DW	0258H
	DW	0259H
	DW	025aH
	DW	025bH
	DW	025cH
	DW	025dH
	DW	025eH
	DW	0264H
	DW	0266H
	DW	0278H
	DW	027aH
	DW	026aH
	DW	027cH
	DW	02b9H
	DW	02baH
	DW	02f8H
	DW	02b3H
	DW	02b4H
	DW	02b8H
	DW	0303H
	DW	02faH
	DW	02feH
	DW	02ffH
	DW	0301H
	DW	0302H
	DW	0310H
	DW	0311H
	DW	0313H
	DW	0319H
	DW	031fH
	DW	0322H
	DW	0312H
	DW	0317H
	DW	0318H
	DW	031aH
	DW	031eH
	DW	0321H
	DW	02b6H
	DW	02b7H
	DW	0325H
	DW	026bH
	DW	0272H
	DW	0273H
	DW	0276H
	DW	0277H
	DW	0347H
	DW	0349H
	DW	0348H
	DW	034aH
	DW	0275H
	DW	0274H
	DW	0304H
	DW	0307H
	DW	0327H
	DW	0328H
	DW	0360H
	DW	0361H
	DW	0362H
	DW	0363H
	DW	0364H
	DW	0323H
	DW	032fH
	DW	0330H
	DW	02cdH
	DW	0326H
	DW	0316H
	DW	02d9H
	DW	02dcH
	DW	02ddH
	DW	02daH
	DW	02bcH
	DW	02c6H
	DW	02cfH
	DW	02d0H
	DW	02d1H
	DW	02d2H
	DW	02c1H
	DW	02c2H
	DW	02c8H
	DW	02d5H
	DW	02f6H
	DW	02f7H
	DW	02c9H
	DW	02beH
	DW	02bfH
	DW	02c0H
	DW	0324H
	DW	02f9H
	DW	0305H
	DW	0306H
	DW	027dH
	DW	027eH
	DW	0300H
	DW	027fH
	DW	0280H
	DW	0281H
	DW	02a7H
	DW	02aaH
	DW	02abH
	DW	02acH
	DW	0282H
	DW	0295H
	DW	0298H
	DW	0299H
	DW	0283H
	DW	028aH
	DW	0284H
	DW	0285H
	DW	028cH
	DW	028dH
	DW	028eH
	DW	0291H
	DW	0292H
	DW	0293H
	DW	0294H
	DW	028fH
	DW	0290H
	DW	0337H
	DW	0338H
	DW	033cH
	DW	033aH
	DW	0339H
	DW	0287H
	DW	0288H
	DW	0296H
	DW	027bH
	DW	0270H
	DW	0269H
	DW	029cH
	DW	029fH
	DW	02a0H
	DW	02a1H
	DW	02a2H
	DW	02a3H
	DW	02a5H
	DW	029dH
	DW	029eH
	DW	0267H
	DW	025fH
	DW	0261H
	DW	02ceH
	DW	034dH
	DW	0356H
	DW	0352H
	DW	034eH
	DW	034fH
	DW	0350H
	DW	0262H
	DW	0333H
	DW	0334H
	DW	02a9H
	DW	02f0H
	DW	02f1H
	DW	034cH
	DW	0359H
	DW	035bH
	DW	02f5H
	DW	035cH
	DW	035eH
	DW	0377H
	DW	02adH
	DW	02aeH
	DW	02b1H
	DW	033dH
	DW	0365H
	DW	02e7H
	DW	02eaH
	DW	02edH
	DW	02efH
	DW	033fH
	DW	0340H
	DW	0341H
	DW	0342H
	DW	0345H
	DW	0346H
	DW	0343H
	DW	0366H
	DW	036aH
	DW	036dH
	DW	036fH
	DW	0370H
	DW	0371H
	DW	0374H
	DW	0376H
	DW	037bH
	DW	037cH
	DW	037dH
	DW	0380H
	DW	037eH
	DW	0252H
	DW	024cH
	ORG $+4
_yyFallback DB	00H
	DB	00H
	DB	017H
	DB	017H
	DB	017H
	DB	017H
	DB	00H
	DB	017H
	DB	017H
	DB	017H
	DB	00H
	DB	017H
	DB	00H
	DB	00H
	DB	00H
	DB	017H
	DB	00H
	DB	00H
	DB	017H
	DB	00H
	DB	00H
	DB	00H
	DB	00H
	DB	00H
	DB	017H
	DB	017H
	DB	017H
	DB	017H
	DB	017H
	DB	017H
	DB	017H
	DB	017H
	DB	017H
	DB	017H
	DB	017H
	DB	017H
	DB	017H
	DB	017H
	DB	017H
	DB	017H
	DB	017H
	DB	017H
	DB	017H
	DB	017H
	DB	017H
	DB	017H
	DB	017H
	DB	017H
	DB	017H
	DB	017H
	DB	017H
	DB	017H
	DB	017H
	DB	017H
	DB	017H
	DB	017H
	DB	017H
	DB	017H
	DB	017H
	DB	00H
	DB	00H
	DB	00H
	DB	00H
	DB	00H
	DB	00H
	DB	00H
	DB	00H
	DB	00H
	DB	00H
	DB	00H
	DB	00H
	DB	00H
	DB	00H
	DB	00H
	DB	00H
	DB	00H
	DB	00H
	DB	00H
	DB	00H
	DB	00H
	DB	00H
	DB	00H
	DB	00H
	DB	00H
	DB	00H
	DB	00H
	DB	00H
	DB	00H
	DB	00H
	DB	00H
	DB	00H
	DB	00H
	DB	00H
	DB	00H
	DB	00H
	DB	00H
	DB	00H
	DB	00H
	DB	00H
	DB	00H
	DB	00H
	DB	00H
	DB	00H
	DB	00H
	DB	00H
	DB	00H
	DB	00H
	DB	00H
	DB	00H
	DB	00H
	DB	00H
	DB	00H
	DB	00H
	DB	00H
	DB	00H
	DB	00H
	DB	00H
	DB	00H
	DB	00H
	DB	00H
	DB	00H
	DB	00H
	DB	00H
	DB	00H
	DB	00H
	DB	00H
	DB	00H
	DB	00H
	DB	00H
	DB	00H
	DB	00H
	DB	00H
	DB	00H
	DB	00H
	DB	00H
	DB	00H
	DB	00H
	DB	00H
	ORG $+6
_yyRuleInfo DB	08bH
	DB	01H
	DB	08cH
	DB	02H
	DB	08cH
	DB	01H
	DB	08eH
	DB	01H
	DB	08dH
	DB	01H
	DB	08dH
	DB	03H
	DB	090H
	DB	00H
	DB	090H
	DB	01H
	DB	090H
	DB	03H
	DB	08fH
	DB	03H
	DB	092H
	DB	00H
	DB	092H
	DB	01H
	DB	092H
	DB	02H
	DB	091H
	DB	00H
	DB	091H
	DB	01H
	DB	091H
	DB	01H
	DB	091H
	DB	01H
	DB	08fH
	DB	02H
	DB	08fH
	DB	02H
	DB	08fH
	DB	02H
	DB	08fH
	DB	02H
	DB	094H
	DB	06H
	DB	097H
	DB	00H
	DB	097H
	DB	03H
	DB	096H
	DB	01H
	DB	096H
	DB	00H
	DB	095H
	DB	04H
	DB	095H
	DB	02H
	DB	099H
	DB	03H
	DB	099H
	DB	01H
	DB	09cH
	DB	03H
	DB	09dH
	DB	01H
	DB	0a0H
	DB	01H
	DB	0a1H
	DB	01H
	DB	093H
	DB	01H
	DB	093H
	DB	01H
	DB	093H
	DB	01H
	DB	09eH
	DB	00H
	DB	09eH
	DB	01H
	DB	0a2H
	DB	01H
	DB	0a2H
	DB	04H
	DB	0a2H
	DB	06H
	DB	0a3H
	DB	01H
	DB	0a3H
	DB	02H
	DB	0a4H
	DB	01H
	DB	0a4H
	DB	01H
	DB	09fH
	DB	02H
	DB	09fH
	DB	00H
	DB	0a7H
	DB	03H
	DB	0a7H
	DB	01H
	DB	0a8H
	DB	02H
	DB	0a8H
	DB	04H
	DB	0a8H
	DB	03H
	DB	0a8H
	DB	03H
	DB	0a8H
	DB	02H
	DB	0a8H
	DB	02H
	DB	0a8H
	DB	03H
	DB	0a8H
	DB	05H
	DB	0a8H
	DB	02H
	DB	0a8H
	DB	04H
	DB	0a8H
	DB	04H
	DB	0a8H
	DB	01H
	DB	0a8H
	DB	02H
	DB	0adH
	DB	00H
	DB	0adH
	DB	01H
	DB	0afH
	DB	00H
	DB	0afH
	DB	02H
	DB	0b1H
	DB	02H
	DB	0b1H
	DB	03H
	DB	0b1H
	DB	03H
	DB	0b1H
	DB	03H
	DB	0b2H
	DB	02H
	DB	0b2H
	DB	02H
	DB	0b2H
	DB	01H
	DB	0b2H
	DB	01H
	DB	0b0H
	DB	03H
	DB	0b0H
	DB	02H
	DB	0b3H
	DB	00H
	DB	0b3H
	DB	02H
	DB	0b3H
	DB	02H
	DB	09aH
	DB	00H
	DB	09aH
	DB	02H
	DB	0b4H
	DB	03H
	DB	0b4H
	DB	02H
	DB	0b4H
	DB	01H
	DB	0b5H
	DB	02H
	DB	0b5H
	DB	07H
	DB	0b5H
	DB	05H
	DB	0b5H
	DB	05H
	DB	0b5H
	DB	0aH
	DB	0b7H
	DB	00H
	DB	0b7H
	DB	01H
	DB	0abH
	DB	00H
	DB	0abH
	DB	03H
	DB	0b8H
	DB	00H
	DB	0b8H
	DB	02H
	DB	0b9H
	DB	01H
	DB	0b9H
	DB	01H
	DB	0b9H
	DB	01H
	DB	08fH
	DB	04H
	DB	0bbH
	DB	02H
	DB	0bbH
	DB	00H
	DB	08fH
	DB	08H
	DB	08fH
	DB	04H
	DB	08fH
	DB	01H
	DB	09bH
	DB	01H
	DB	09bH
	DB	03H
	DB	0beH
	DB	01H
	DB	0beH
	DB	02H
	DB	0beH
	DB	01H
	DB	0bdH
	DB	09H
	DB	0bfH
	DB	01H
	DB	0bfH
	DB	01H
	DB	0bfH
	DB	00H
	DB	0c7H
	DB	02H
	DB	0c7H
	DB	00H
	DB	0c0H
	DB	03H
	DB	0c0H
	DB	02H
	DB	0c0H
	DB	04H
	DB	0c8H
	DB	02H
	DB	0c8H
	DB	01H
	DB	0c8H
	DB	00H
	DB	0c1H
	DB	00H
	DB	0c1H
	DB	02H
	DB	0caH
	DB	02H
	DB	0caH
	DB	00H
	DB	0c9H
	DB	06H
	DB	0c9H
	DB	07H
	DB	0ceH
	DB	01H
	DB	0ceH
	DB	01H
	DB	098H
	DB	00H
	DB	098H
	DB	02H
	DB	0bcH
	DB	02H
	DB	0cbH
	DB	01H
	DB	0cbH
	DB	02H
	DB	0cbH
	DB	03H
	DB	0cbH
	DB	04H
	DB	0ccH
	DB	02H
	DB	0ccH
	DB	00H
	DB	0cdH
	DB	04H
	DB	0cdH
	DB	00H
	DB	0c5H
	DB	00H
	DB	0c5H
	DB	03H
	DB	0d1H
	DB	04H
	DB	0d1H
	DB	02H
	DB	0d2H
	DB	01H
	DB	0acH
	DB	01H
	DB	0acH
	DB	01H
	DB	0acH
	DB	00H
	DB	0c3H
	DB	00H
	DB	0c3H
	DB	03H
	DB	0c4H
	DB	00H
	DB	0c4H
	DB	02H
	DB	0c6H
	DB	00H
	DB	0c6H
	DB	02H
	DB	0c6H
	DB	04H
	DB	0c6H
	DB	04H
	DB	08fH
	DB	04H
	DB	0c2H
	DB	00H
	DB	0c2H
	DB	02H
	DB	08fH
	DB	06H
	DB	0d4H
	DB	05H
	DB	0d4H
	DB	03H
	DB	08fH
	DB	08H
	DB	08fH
	DB	05H
	DB	08fH
	DB	06H
	DB	0d5H
	DB	02H
	DB	0d5H
	DB	01H
	DB	0d7H
	DB	03H
	DB	0d7H
	DB	01H
	DB	0d6H
	DB	00H
	DB	0d6H
	DB	03H
	DB	0d0H
	DB	03H
	DB	0d0H
	DB	01H
	DB	0aaH
	DB	01H
	DB	0aaH
	DB	03H
	DB	0a9H
	DB	01H
	DB	0aaH
	DB	01H
	DB	0aaH
	DB	01H
	DB	0aaH
	DB	03H
	DB	0aaH
	DB	05H
	DB	0a9H
	DB	01H
	DB	0a9H
	DB	01H
	DB	0aaH
	DB	01H
	DB	0aaH
	DB	01H
	DB	0aaH
	DB	03H
	DB	0aaH
	DB	06H
	DB	0aaH
	DB	05H
	DB	0aaH
	DB	04H
	DB	0a9H
	DB	01H
	DB	0aaH
	DB	03H
	DB	0aaH
	DB	03H
	DB	0aaH
	DB	03H
	DB	0aaH
	DB	03H
	DB	0aaH
	DB	03H
	DB	0aaH
	DB	03H
	DB	0aaH
	DB	03H
	DB	0aaH
	DB	03H
	DB	0d8H
	DB	01H
	DB	0d8H
	DB	02H
	DB	0d8H
	DB	01H
	DB	0d8H
	DB	02H
	DB	0d9H
	DB	02H
	DB	0d9H
	DB	00H
	DB	0aaH
	DB	04H
	DB	0aaH
	DB	02H
	DB	0aaH
	DB	03H
	DB	0aaH
	DB	03H
	DB	0aaH
	DB	04H
	DB	0aaH
	DB	02H
	DB	0aaH
	DB	02H
	DB	0aaH
	DB	02H
	DB	0daH
	DB	01H
	DB	0daH
	DB	02H
	DB	0aaH
	DB	05H
	DB	0dbH
	DB	01H
	DB	0dbH
	DB	02H
	DB	0aaH
	DB	05H
	DB	0aaH
	DB	03H
	DB	0aaH
	DB	05H
	DB	0aaH
	DB	04H
	DB	0aaH
	DB	04H
	DB	0aaH
	DB	05H
	DB	0ddH
	DB	05H
	DB	0ddH
	DB	04H
	DB	0deH
	DB	02H
	DB	0deH
	DB	00H
	DB	0dcH
	DB	01H
	DB	0dcH
	DB	00H
	DB	0d3H
	DB	03H
	DB	0d3H
	DB	01H
	DB	0dfH
	DB	01H
	DB	0dfH
	DB	00H
	DB	08fH
	DB	0bH
	DB	0e0H
	DB	01H
	DB	0e0H
	DB	00H
	DB	0aeH
	DB	00H
	DB	0aeH
	DB	03H
	DB	0b6H
	DB	05H
	DB	0b6H
	DB	03H
	DB	0e1H
	DB	01H
	DB	0e2H
	DB	00H
	DB	0e2H
	DB	02H
	DB	08fH
	DB	04H
	DB	08fH
	DB	01H
	DB	08fH
	DB	02H
	DB	08fH
	DB	05H
	DB	08fH
	DB	05H
	DB	08fH
	DB	05H
	DB	08fH
	DB	06H
	DB	08fH
	DB	03H
	DB	0e3H
	DB	01H
	DB	0e3H
	DB	01H
	DB	0a5H
	DB	02H
	DB	0a6H
	DB	02H
	DB	0e5H
	DB	01H
	DB	0e4H
	DB	01H
	DB	0e4H
	DB	00H
	DB	08fH
	DB	05H
	DB	0e6H
	DB	0bH
	DB	0e8H
	DB	01H
	DB	0e8H
	DB	01H
	DB	0e8H
	DB	02H
	DB	0e8H
	DB	00H
	DB	0e9H
	DB	01H
	DB	0e9H
	DB	01H
	DB	0e9H
	DB	03H
	DB	0eaH
	DB	00H
	DB	0eaH
	DB	03H
	DB	0ebH
	DB	00H
	DB	0ebH
	DB	02H
	DB	0e7H
	DB	03H
	DB	0e7H
	DB	00H
	DB	0ecH
	DB	06H
	DB	0ecH
	DB	08H
	DB	0ecH
	DB	05H
	DB	0ecH
	DB	04H
	DB	0ecH
	DB	01H
	DB	0aaH
	DB	04H
	DB	0aaH
	DB	06H
	DB	0baH
	DB	01H
	DB	0baH
	DB	01H
	DB	0baH
	DB	01H
	DB	08fH
	DB	04H
	DB	08fH
	DB	06H
	DB	08fH
	DB	03H
	DB	0eeH
	DB	00H
	DB	0eeH
	DB	02H
	DB	0edH
	DB	01H
	DB	0edH
	DB	00H
	DB	08fH
	DB	01H
	DB	08fH
	DB	03H
	DB	08fH
	DB	01H
	DB	08fH
	DB	03H
	DB	08fH
	DB	06H
	DB	08fH
	DB	06H
	DB	0efH
	DB	01H
	DB	0f0H
	DB	00H
	DB	0f0H
	DB	01H
	DB	08fH
	DB	01H
	DB	08fH
	DB	04H
	DB	0f1H
	DB	07H
	DB	0f2H
	DB	01H
	DB	0f2H
	DB	03H
	DB	0f3H
	DB	00H
	DB	0f3H
	DB	02H
	DB	0f4H
	DB	01H
	DB	0f4H
	DB	03H
	DB	0f5H
	DB	01H
	DB	0f6H
	DB	00H
	DB	0f6H
	DB	02H
	ORG $+2
?zText@?1??keywordCode@@9@9 DB 'BEFOREIGNOREGEXPLAINSTEADDESCAPEACHECKEYC'
	DB	'ONSTRAINTERSECTABLEFTHENDATABASELECTRANSACTIONATURALTERAISELS'
	DB	'EXCEPTRIGGEREFERENCESUNIQUERYATTACHAVINGROUPDATEMPORARYBEGINN'
	DB	'EREINDEXCLUSIVEXISTSBETWEENOTNULLIKECASCADEFERRABLECASECOLLAT'
	DB	'ECREATECURRENT_DATEDELETEDETACHIMMEDIATEJOINSERTMATCHPLANALYZ'
	DB	'EPRAGMABORTVALUESVIRTUALIMITWHENWHERENAMEAFTEREPLACEANDEFAULT'
	DB	'AUTOINCREMENTCASTCOLUMNCOMMITCONFLICTCROSSCURRENT_TIMESTAMPRI'
	DB	'MARYDEFERREDISTINCTDROPFAILFROMFULLGLOBYIFINTOFFSETISNULLORDE'
	DB	'RESTRICTOUTERIGHTROLLBACKROWUNIONUSINGVACUUMVIEWINITIALLY', 00H ; `keywordCode'::`2'::zText
	ORG $+2
?aHash@?1??keywordCode@@9@9 DB 03fH			; `keywordCode'::`2'::aHash
	DB	05cH
	DB	06dH
	DB	03dH
	DB	00H
	DB	026H
	DB	00H
	DB	00H
	DB	045H
	DB	00H
	DB	040H
	DB	00H
	DB	00H
	DB	066H
	DB	04H
	DB	041H
	DB	07H
	DB	00H
	DB	06cH
	DB	048H
	DB	067H
	DB	063H
	DB	00H
	DB	016H
	DB	00H
	DB	00H
	DB	071H
	DB	00H
	DB	06fH
	DB	06aH
	DB	00H
	DB	012H
	DB	050H
	DB	00H
	DB	01H
	DB	00H
	DB	00H
	DB	038H
	DB	039H
	DB	00H
	DB	037H
	DB	0bH
	DB	00H
	DB	021H
	DB	04dH
	DB	059H
	DB	00H
	DB	06eH
	DB	058H
	DB	00H
	DB	00H
	DB	02dH
	DB	00H
	DB	05aH
	DB	036H
	DB	00H
	DB	014H
	DB	00H
	DB	072H
	DB	022H
	DB	013H
	DB	00H
	DB	0aH
	DB	061H
	DB	01cH
	DB	053H
	DB	00H
	DB	00H
	DB	074H
	DB	05dH
	DB	02fH
	DB	073H
	DB	029H
	DB	0cH
	DB	02cH
	DB	00H
	DB	04eH
	DB	00H
	DB	057H
	DB	01dH
	DB	00H
	DB	056H
	DB	00H
	DB	00H
	DB	00H
	DB	052H
	DB	04fH
	DB	054H
	DB	04bH
	DB	060H
	DB	06H
	DB	0eH
	DB	05fH
	DB	00H
	DB	044H
	DB	00H
	DB	015H
	DB	04cH
	DB	062H
	DB	01bH
	DB	00H
	DB	070H
	DB	043H
	DB	068H
	DB	031H
	DB	028H
	DB	047H
	DB	00H
	DB	00H
	DB	051H
	DB	064H
	DB	00H
	DB	06bH
	DB	00H
	DB	0fH
	DB	00H
	DB	00H
	DB	018H
	DB	00H
	DB	049H
	DB	02aH
	DB	032H
	DB	00H
	DB	010H
	DB	030H
	DB	00H
	DB	025H
	ORG $+1
?aNext@?1??keywordCode@@9@9 DB 00H			; `keywordCode'::`2'::aNext
	DB	00H
	DB	00H
	DB	00H
	DB	00H
	DB	00H
	DB	00H
	DB	00H
	DB	00H
	DB	09H
	DB	00H
	DB	00H
	DB	00H
	DB	00H
	DB	00H
	DB	00H
	DB	00H
	DB	05H
	DB	00H
	DB	00H
	DB	00H
	DB	00H
	DB	00H
	DB	00H
	DB	00H
	DB	00H
	DB	00H
	DB	00H
	DB	00H
	DB	00H
	DB	00H
	DB	00H
	DB	00H
	DB	00H
	DB	00H
	DB	00H
	DB	020H
	DB	00H
	DB	00H
	DB	011H
	DB	00H
	DB	00H
	DB	00H
	DB	024H
	DB	027H
	DB	00H
	DB	00H
	DB	019H
	DB	00H
	DB	00H
	DB	01fH
	DB	00H
	DB	00H
	DB	00H
	DB	02bH
	DB	034H
	DB	00H
	DB	00H
	DB	00H
	DB	035H
	DB	00H
	DB	00H
	DB	00H
	DB	00H
	DB	00H
	DB	00H
	DB	00H
	DB	00H
	DB	00H
	DB	033H
	DB	00H
	DB	00H
	DB	00H
	DB	00H
	DB	01aH
	DB	00H
	DB	08H
	DB	02eH
	DB	02H
	DB	00H
	DB	00H
	DB	00H
	DB	00H
	DB	00H
	DB	00H
	DB	00H
	DB	03H
	DB	03aH
	DB	042H
	DB	00H
	DB	0dH
	DB	00H
	DB	05bH
	DB	055H
	DB	00H
	DB	05eH
	DB	00H
	DB	04aH
	DB	00H
	DB	00H
	DB	03eH
	DB	00H
	DB	023H
	DB	065H
	DB	00H
	DB	00H
	DB	069H
	DB	017H
	DB	01eH
	DB	03cH
	DB	046H
	DB	00H
	DB	00H
	DB	03bH
	DB	00H
	DB	00H
	ORG $+4
?aLen@?1??keywordCode@@9@9 DB 06H			; `keywordCode'::`2'::aLen
	DB	07H
	DB	03H
	DB	06H
	DB	06H
	DB	07H
	DB	07H
	DB	03H
	DB	04H
	DB	06H
	DB	04H
	DB	05H
	DB	03H
	DB	0aH
	DB	09H
	DB	05H
	DB	04H
	DB	04H
	DB	03H
	DB	08H
	DB	02H
	DB	06H
	DB	0bH
	DB	02H
	DB	07H
	DB	05H
	DB	05H
	DB	04H
	DB	06H
	DB	07H
	DB	0aH
	DB	06H
	DB	05H
	DB	06H
	DB	06H
	DB	05H
	DB	06H
	DB	04H
	DB	09H
	DB	02H
	DB	05H
	DB	05H
	DB	07H
	DB	05H
	DB	09H
	DB	06H
	DB	07H
	DB	07H
	DB	03H
	DB	04H
	DB	04H
	DB	07H
	DB	03H
	DB	0aH
	DB	04H
	DB	07H
	DB	06H
	DB	0cH
	DB	06H
	DB	06H
	DB	09H
	DB	04H
	DB	06H
	DB	05H
	DB	04H
	DB	07H
	DB	06H
	DB	05H
	DB	06H
	DB	07H
	DB	05H
	DB	04H
	DB	05H
	DB	06H
	DB	05H
	DB	07H
	DB	03H
	DB	07H
	DB	0dH
	DB	02H
	DB	02H
	DB	04H
	DB	06H
	DB	06H
	DB	08H
	DB	05H
	DB	011H
	DB	0cH
	DB	07H
	DB	08H
	DB	08H
	DB	02H
	DB	04H
	DB	04H
	DB	04H
	DB	04H
	DB	04H
	DB	02H
	DB	02H
	DB	04H
	DB	06H
	DB	02H
	DB	03H
	DB	06H
	DB	05H
	DB	08H
	DB	05H
	DB	05H
	DB	08H
	DB	03H
	DB	05H
	DB	05H
	DB	06H
	DB	04H
	DB	09H
	DB	03H
	ORG $+4
?aOffset@?1??keywordCode@@9@9 DW 00H			; `keywordCode'::`2'::aOffset
	DW	02H
	DW	02H
	DW	06H
	DW	0aH
	DW	0dH
	DW	012H
	DW	017H
	DW	019H
	DW	01aH
	DW	01fH
	DW	021H
	DW	025H
	DW	028H
	DW	02fH
	DW	037H
	DW	03aH
	DW	03dH
	DW	03fH
	DW	041H
	DW	046H
	DW	047H
	DW	04cH
	DW	055H
	DW	056H
	DW	05bH
	DW	05fH
	DW	063H
	DW	066H
	DW	06bH
	DW	071H
	DW	07bH
	DW	07eH
	DW	083H
	DW	088H
	DW	08dH
	DW	090H
	DW	094H
	DW	094H
	DW	098H
	DW	09dH
	DW	0a0H
	DW	0a4H
	DW	0a6H
	DW	0a9H
	DW	0b1H
	DW	0b7H
	DW	0bdH
	DW	0bdH
	DW	0c0H
	DW	0c3H
	DW	0c7H
	DW	0c8H
	DW	0ccH
	DW	0d6H
	DW	0daH
	DW	0e1H
	DW	0e7H
	DW	0f3H
	DW	0f9H
	DW	0ffH
	DW	0108H
	DW	010aH
	DW	0110H
	DW	0115H
	DW	0117H
	DW	011eH
	DW	0123H
	DW	0128H
	DW	012eH
	DW	0134H
	DW	0139H
	DW	013dH
	DW	0140H
	DW	0146H
	DW	014aH
	DW	0151H
	DW	0153H
	DW	015aH
	DW	015cH
	DW	015eH
	DW	0167H
	DW	016bH
	DW	0171H
	DW	0177H
	DW	017fH
	DW	0184H
	DW	0184H
	DW	0194H
	DW	019bH
	DW	01a2H
	DW	01a3H
	DW	01aaH
	DW	01aeH
	DW	01b2H
	DW	01b6H
	DW	01baH
	DW	01bdH
	DW	01bfH
	DW	01c1H
	DW	01c4H
	DW	01c4H
	DW	01c7H
	DW	01caH
	DW	01d0H
	DW	01d4H
	DW	01dcH
	DW	01e0H
	DW	01e5H
	DW	01edH
	DW	01f0H
	DW	01f5H
	DW	01faH
	DW	0200H
	DW	0204H
	DW	0209H
?aCode@?1??keywordCode@@9@9 DB 01dH			; `keywordCode'::`2'::aCode
	DB	068H
	DB	026H
	DB	027H
	DB	02aH
	DB	02H
	DB	029H
	DB	088H
	DB	022H
	DB	049H
	DB	024H
	DB	05fH
	DB	02cH
	DB	05aH
	DB	06dH
	DB	0eH
	DB	059H
	DB	083H
	DB	0bH
	DB	021H
	DB	015H
	DB	06eH
	DB	06H
	DB	062H
	DB	059H
	DB	086H
	DB	030H
	DB	084H
	DB	06cH
	DB	034H
	DB	060H
	DB	05eH
	DB	03H
	DB	01cH
	DB	077H
	DB	076H
	DB	064H
	DB	012H
	DB	012H
	DB	03cH
	DB	05H
	DB	059H
	DB	038H
	DB	085H
	DB	09H
	DB	011H
	DB	03fH
	DB	042H
	DB	010H
	DB	05cH
	DB	02aH
	DB	01eH
	DB	01bH
	DB	067H
	DB	081H
	DB	054H
	DB	0dH
	DB	03aH
	DB	063H
	DB	023H
	DB	08H
	DB	072H
	DB	065H
	DB	02bH
	DB	04H
	DB	01aH
	DB	02fH
	DB	018H
	DB	07bH
	DB	037H
	DB	078H
	DB	082H
	DB	079H
	DB	039H
	DB	019H
	DB	031H
	DB	03dH
	DB	05bH
	DB	061H
	DB	087H
	DB	040H
	DB	01fH
	DB	089H
	DB	0aH
	DB	020H
	DB	059H
	DB	03aH
	DB	03aH
	DB	05dH
	DB	07H
	DB	06fH
	DB	03eH
	DB	069H
	DB	025H
	DB	071H
	DB	059H
	DB	02aH
	DB	075H
	DB	0fH
	DB	07aH
	DB	02eH
	DB	02dH
	DB	066H
	DB	041H
	DB	074H
	DB	032H
	DB	059H
	DB	059H
	DB	0cH
	DB	033H
	DB	06aH
	DB	073H
	DB	035H
	DB	036H
	DB	028H
	DB	06bH
	ORG $+4
_sqlite3IsIdChar DB 00H
	DB	00H
	DB	00H
	DB	00H
	DB	01H
	DB	00H
	DB	00H
	DB	00H
	DB	00H
	DB	00H
	DB	00H
	DB	00H
	DB	00H
	DB	00H
	DB	00H
	DB	00H
	DB	01H
	DB	01H
	DB	01H
	DB	01H
	DB	01H
	DB	01H
	DB	01H
	DB	01H
	DB	01H
	DB	01H
	DB	00H
	DB	00H
	DB	00H
	DB	00H
	DB	00H
	DB	00H
	DB	00H
	DB	01H
	DB	01H
	DB	01H
	DB	01H
	DB	01H
	DB	01H
	DB	01H
	DB	01H
	DB	01H
	DB	01H
	DB	01H
	DB	01H
	DB	01H
	DB	01H
	DB	01H
	DB	01H
	DB	01H
	DB	01H
	DB	01H
	DB	01H
	DB	01H
	DB	01H
	DB	01H
	DB	01H
	DB	01H
	DB	01H
	DB	00H
	DB	00H
	DB	00H
	DB	00H
	DB	01H
	DB	00H
	DB	01H
	DB	01H
	DB	01H
	DB	01H
	DB	01H
	DB	01H
	DB	01H
	DB	01H
	DB	01H
	DB	01H
	DB	01H
	DB	01H
	DB	01H
	DB	01H
	DB	01H
	DB	01H
	DB	01H
	DB	01H
	DB	01H
	DB	01H
	DB	01H
	DB	01H
	DB	01H
	DB	01H
	DB	01H
	DB	01H
	DB	00H
	DB	00H
	DB	00H
	DB	00H
	DB	00H
_sqlite3_version DB '3.4.0', 00H
	ORG $+2
?totals@?1??sqliteDefaultBusyCallback@@9@9 DB 00H	; `sqliteDefaultBusyCallback'::`2'::totals
	DB	01H
	DB	03H
	DB	08H
	DB	012H
	DB	021H
	DB	035H
	DB	04eH
	DB	067H
	DB	080H
	DB	0b2H
	DB	0e4H
?outOfMemBe@?1??sqlite3_errmsg16@@9@9 DB 00H		; `sqlite3_errmsg16'::`2'::outOfMemBe
	DB	06fH
	DB	00H
	DB	075H
	DB	00H
	DB	074H
	DB	00H
	DB	020H
	DB	00H
	DB	06fH
	DB	00H
	DB	066H
	DB	00H
	DB	020H
	DB	00H
	DB	06dH
	DB	00H
	DB	065H
	DB	00H
	DB	06dH
	DB	00H
	DB	06fH
	DB	00H
	DB	072H
	DB	00H
	DB	079H
	DB	00H
	DB	00H
	DB	00H
	ORG $+7
?misuseBe@?1??sqlite3_errmsg16@@9@9 DB 00H		; `sqlite3_errmsg16'::`2'::misuseBe
	DB	06cH
	DB	00H
	DB	069H
	DB	00H
	DB	062H
	DB	00H
	DB	072H
	DB	00H
	DB	061H
	DB	00H
	DB	072H
	DB	00H
	DB	079H
	DB	00H
	DB	020H
	DB	00H
	DB	072H
	DB	00H
	DB	06fH
	DB	00H
	DB	075H
	DB	00H
	DB	074H
	DB	00H
	DB	069H
	DB	00H
	DB	06eH
	DB	00H
	DB	065H
	DB	00H
	DB	020H
	DB	00H
	DB	063H
	DB	00H
	DB	061H
	DB	00H
	DB	06cH
	DB	00H
	DB	06cH
	DB	00H
	DB	065H
	DB	00H
	DB	064H
	DB	00H
	DB	020H
	DB	00H
	DB	06fH
	DB	00H
	DB	075H
	DB	00H
	DB	074H
	DB	00H
	DB	020H
	DB	00H
	DB	06fH
	DB	00H
	DB	066H
	DB	00H
	DB	020H
	DB	00H
	DB	073H
	DB	00H
	DB	065H
	DB	00H
	DB	071H
	DB	00H
	DB	075H
	DB	00H
	DB	065H
	DB	00H
	DB	06eH
	DB	00H
	DB	063H
	DB	00H
	DB	065H
	DB	00H
	DB	00H
	DB	00H
CONST	ENDS
;	COMDAT ??_C@_0N@DJJJGBGD@current_date?$AA@
CONST	SEGMENT
??_C@_0N@DJJJGBGD@current_date?$AA@ DB 'current_date', 00H ; `string'
CONST	ENDS
;	COMDAT ??_C@_0BC@DDICBCEN@current_timestamp?$AA@
CONST	SEGMENT
??_C@_0BC@DDICBCEN@current_timestamp?$AA@ DB 'current_timestamp', 00H ; `string'
CONST	ENDS
;	COMDAT ??_C@_0N@IPDKEGPB@current_time?$AA@
CONST	SEGMENT
??_C@_0N@IPDKEGPB@current_time?$AA@ DB 'current_time', 00H ; `string'
CONST	ENDS
;	COMDAT ??_C@_08EPGBJPHJ@strftime?$AA@
CONST	SEGMENT
??_C@_08EPGBJPHJ@strftime?$AA@ DB 'strftime', 00H	; `string'
CONST	ENDS
;	COMDAT ??_C@_08FGNPMIBK@datetime?$AA@
CONST	SEGMENT
??_C@_08FGNPMIBK@datetime?$AA@ DB 'datetime', 00H	; `string'
CONST	ENDS
;	COMDAT ??_C@_04CLCEDBPF@time?$AA@
CONST	SEGMENT
??_C@_04CLCEDBPF@time?$AA@ DB 'time', 00H		; `string'
CONST	ENDS
;	COMDAT ??_C@_04JNIHBGGH@date?$AA@
CONST	SEGMENT
??_C@_04JNIHBGGH@date?$AA@ DB 'date', 00H		; `string'
CONST	ENDS
;	COMDAT ??_C@_09BPOICPEH@julianday?$AA@
CONST	SEGMENT
??_C@_09BPOICPEH@julianday?$AA@ DB 'julianday', 00H	; `string'
CONST	ENDS
EXTRN	__localtime64:PROC
; Function compile flags: /Ogtpy
;	COMDAT _localtime
_TEXT	SEGMENT
_localtime PROC						; COMDAT
; __Time$ = eax
; File c:\lang\ms8\include\time.inl
; Line 118
	push	eax
	call	__localtime64
	add	esp, 4
; Line 120
	ret	0
_localtime ENDP
_TEXT	ENDS
EXTRN	_isdigit:PROC
; Function compile flags: /Ogtpy
;	COMDAT _getDigits
_TEXT	SEGMENT
_cnt$ = -20						; size = 4
_nextC$ = -16						; size = 4
_min$ = -12						; size = 4
_max$ = -8						; size = 4
_pVal$ = -4						; size = 4
_zDate$ = 8						; size = 4
_getDigits PROC						; COMDAT
; File c:\quirt\comps\exe\dgate\sqlite3.c
; Line 6373
	sub	esp, 20					; 00000014H
	push	ebx
	push	ebp
	mov	ebp, DWORD PTR _zDate$[esp+24]
	push	esi
; Line 6381
	xor	eax, eax
	push	edi
	mov	DWORD PTR _cnt$[esp+36], eax
	lea	esi, DWORD PTR _zDate$[esp+32]
$LL8@getDigits:
; Line 6384
	mov	ebx, DWORD PTR [esi+4]
	add	esi, 4
; Line 6385
	mov	ecx, DWORD PTR [esi+4]
	add	esi, 4
; Line 6386
	mov	edx, DWORD PTR [esi+4]
	add	esi, 4
; Line 6387
	add	esi, 4
	mov	DWORD PTR _min$[esp+36], ecx
	mov	ecx, DWORD PTR [esi]
; Line 6388
	add	esi, 4
	mov	DWORD PTR _max$[esp+36], edx
	mov	edx, DWORD PTR [esi]
; Line 6389
	xor	edi, edi
; Line 6390
	test	ebx, ebx
	mov	DWORD PTR _nextC$[esp+36], ecx
	mov	DWORD PTR _pVal$[esp+36], edx
	je	SHORT $LN16@getDigits
$LL5@getDigits:
; Line 6391
	movzx	eax, BYTE PTR [ebp]
	push	eax
	sub	ebx, 1
	call	_isdigit
	add	esp, 4
	test	eax, eax
	je	SHORT $LN21@getDigits
; Line 6394
	movsx	edx, BYTE PTR [ebp]
	lea	ecx, DWORD PTR [edi+edi*4]
; Line 6395
	add	ebp, 1
	test	ebx, ebx
	lea	edi, DWORD PTR [edx+ecx*2-48]
	jne	SHORT $LL5@getDigits
	mov	eax, DWORD PTR _cnt$[esp+36]
	mov	ecx, DWORD PTR _nextC$[esp+36]
$LN16@getDigits:
; Line 6397
	cmp	edi, DWORD PTR _min$[esp+36]
	jl	SHORT $end_getDigits$81083
	cmp	edi, DWORD PTR _max$[esp+36]
	jg	SHORT $end_getDigits$81083
	test	ecx, ecx
	je	SHORT $LN2@getDigits
	movsx	edx, BYTE PTR [ebp]
	cmp	ecx, edx
	jne	SHORT $end_getDigits$81083
$LN2@getDigits:
; Line 6400
	mov	edx, DWORD PTR _pVal$[esp+36]
; Line 6401
	add	ebp, 1
; Line 6402
	add	eax, 1
; Line 6403
	test	ecx, ecx
	mov	DWORD PTR [edx], edi
	mov	DWORD PTR _zDate$[esp+32], ebp
	mov	DWORD PTR _cnt$[esp+36], eax
	jne	$LL8@getDigits
	pop	edi
	pop	esi
	pop	ebp
	pop	ebx
; Line 6407
	add	esp, 20					; 00000014H
	ret	0
$LN21@getDigits:
; Line 6406
	mov	eax, DWORD PTR _cnt$[esp+36]
$end_getDigits$81083:
	pop	edi
	pop	esi
	pop	ebp
	pop	ebx
; Line 6407
	add	esp, 20					; 00000014H
	ret	0
_getDigits ENDP
_TEXT	ENDS
EXTRN	_isspace:PROC
; Function compile flags: /Ogtpy
;	COMDAT _parseTimezone
_TEXT	SEGMENT
_nHr$ = -8						; size = 4
_nMn$ = -4						; size = 4
_parseTimezone PROC					; COMDAT
; _zDate$ = eax
; _p$ = ebx
; Line 6427
	sub	esp, 8
	push	esi
	mov	esi, eax
; Line 6430
	movzx	eax, BYTE PTR [esi]
	push	edi
	push	eax
	call	_isspace
	add	esp, 4
	test	eax, eax
	je	SHORT $LN8@parseTimez
$LL9@parseTimez:
	movzx	ecx, BYTE PTR [esi+1]
	add	esi, 1
	push	ecx
	call	_isspace
	add	esp, 4
	test	eax, eax
	jne	SHORT $LL9@parseTimez
$LN8@parseTimez:
; Line 6431
	mov	DWORD PTR [ebx+28], 0
; Line 6432
	mov	al, BYTE PTR [esi]
	cmp	al, 45					; 0000002dH
	jne	SHORT $LN7@parseTimez
; Line 6433
	or	edi, -1
	jmp	SHORT $LN4@parseTimez
$LN7@parseTimez:
; Line 6434
	cmp	al, 43					; 0000002bH
	jne	$LN5@parseTimez
; Line 6435
	mov	edi, 1
$LN4@parseTimez:
; Line 6440
	lea	edx, DWORD PTR _nMn$[esp+16]
	push	edx
	push	0
	push	59					; 0000003bH
	push	0
	push	2
	lea	eax, DWORD PTR _nHr$[esp+36]
	push	eax
	push	58					; 0000003aH
	push	14					; 0000000eH
	push	0
	add	esi, 1
	push	2
	push	esi
	call	_getDigits
	add	esp, 44					; 0000002cH
	cmp	eax, 2
	je	SHORT $LN3@parseTimez
	pop	edi
; Line 6441
	mov	eax, 1
	pop	esi
; Line 6447
	add	esp, 8
	ret	0
$LN3@parseTimez:
; Line 6444
	mov	eax, DWORD PTR _nHr$[esp+16]
	mov	edx, DWORD PTR _nMn$[esp+16]
	mov	ecx, eax
	shl	ecx, 4
	sub	ecx, eax
	lea	eax, DWORD PTR [edx+ecx*4]
	imul	eax, edi
	add	esi, 5
	mov	DWORD PTR [ebx+28], eax
; Line 6445
	movzx	ecx, BYTE PTR [esi]
	push	ecx
	call	_isspace
	add	esp, 4
	test	eax, eax
	je	SHORT $LN1@parseTimez
	npad	5
$LL2@parseTimez:
	movzx	edx, BYTE PTR [esi+1]
	add	esi, 1
	push	edx
	call	_isspace
	add	esp, 4
	test	eax, eax
	jne	SHORT $LL2@parseTimez
$LN1@parseTimez:
; Line 6446
	xor	eax, eax
	cmp	BYTE PTR [esi], al
	pop	edi
	setne	al
	pop	esi
; Line 6447
	add	esp, 8
	ret	0
$LN5@parseTimez:
; Line 6437
	xor	ecx, ecx
	test	al, al
	setne	cl
	pop	edi
	pop	esi
	mov	eax, ecx
; Line 6447
	add	esp, 8
	ret	0
_parseTimezone ENDP
_TEXT	ENDS
PUBLIC	__real@4048000000000000
PUBLIC	__real@4024000000000000
PUBLIC	__real@3ff0000000000000
PUBLIC	__real@0000000000000000
EXTRN	__fltused:DWORD
;	COMDAT __real@4048000000000000
CONST	SEGMENT
__real@4048000000000000 DQ 04048000000000000r	; 48
CONST	ENDS
;	COMDAT __real@4024000000000000
CONST	SEGMENT
__real@4024000000000000 DQ 04024000000000000r	; 10
CONST	ENDS
;	COMDAT __real@3ff0000000000000
CONST	SEGMENT
__real@3ff0000000000000 DQ 03ff0000000000000r	; 1
CONST	ENDS
;	COMDAT __real@0000000000000000
CONST	SEGMENT
__real@0000000000000000 DQ 00000000000000000r	; 0
; Function compile flags: /Ogtpy
CONST	ENDS
;	COMDAT _parseHhMmSs
_TEXT	SEGMENT
_s$ = -28						; size = 4
tv240 = -24						; size = 4
_ms$ = -24						; size = 8
_h$ = -16						; size = 4
_m$ = -12						; size = 4
_rScale$81124 = -8					; size = 8
_parseHhMmSs PROC					; COMDAT
; _zDate$ = eax
; _p$ = edi
; Line 6456
	push	ebp
	mov	ebp, esp
	and	esp, -8					; fffffff8H
	sub	esp, 32					; 00000020H
	push	ebx
; Line 6458
	fldz
	push	esi
	fstp	QWORD PTR _ms$[esp+40]
	mov	esi, eax
; Line 6459
	lea	eax, DWORD PTR _m$[esp+40]
	push	eax
	xor	ebx, ebx
	push	ebx
	push	59					; 0000003bH
	push	ebx
	push	2
	lea	ecx, DWORD PTR _h$[esp+60]
	push	ecx
	push	58					; 0000003aH
	push	24					; 00000018H
	push	ebx
	push	2
	push	esi
	call	_getDigits
	add	esp, 44					; 0000002cH
	cmp	eax, 2
	je	SHORT $LN8@parseHhMmS
$LN16@parseHhMmS:
; Line 6460
	mov	eax, 1
; Line 6490
	pop	esi
	pop	ebx
	mov	esp, ebp
	pop	ebp
	ret	0
$LN8@parseHhMmS:
; Line 6462
	add	esi, 5
; Line 6463
	cmp	BYTE PTR [esi], 58			; 0000003aH
	jne	$LN7@parseHhMmS
; Line 6465
	lea	edx, DWORD PTR _s$[esp+40]
	push	edx
	push	ebx
	push	59					; 0000003bH
	push	ebx
	add	esi, 1
	push	2
	push	esi
	call	_getDigits
	add	esp, 24					; 00000018H
	cmp	eax, 1
; Line 6466
	jne	SHORT $LN16@parseHhMmS
; Line 6468
	add	esi, 2
; Line 6469
	cmp	BYTE PTR [esi], 46			; 0000002eH
	jne	$LN2@parseHhMmS
	movzx	eax, BYTE PTR [esi+1]
	push	eax
	call	_isdigit
	add	esp, 4
	test	eax, eax
	je	SHORT $LN2@parseHhMmS
; Line 6472
	movzx	ecx, BYTE PTR [esi+1]
	fld1
	add	esi, 1
	fstp	QWORD PTR _rScale$81124[esp+40]
	push	ecx
	call	_isdigit
	add	esp, 4
	test	eax, eax
	je	SHORT $LN3@parseHhMmS
	npad	12
$LL13@parseHhMmS:
; Line 6473
	movsx	edx, BYTE PTR [esi]
	fld	QWORD PTR __real@4024000000000000
	fld	QWORD PTR _ms$[esp+40]
	movzx	eax, BYTE PTR [esi+1]
	fmul	ST(0), ST(1)
	mov	DWORD PTR tv240[esp+40], edx
; Line 6475
	add	esi, 1
	push	eax
	fild	DWORD PTR tv240[esp+44]
	faddp	ST(1), ST(0)
	fsub	QWORD PTR __real@4048000000000000
	fstp	QWORD PTR _ms$[esp+44]
	fmul	QWORD PTR _rScale$81124[esp+44]
	fstp	QWORD PTR _rScale$81124[esp+44]
	call	_isdigit
	add	esp, 4
	test	eax, eax
	jne	SHORT $LL13@parseHhMmS
$LN3@parseHhMmS:
; Line 6477
	fld	QWORD PTR _ms$[esp+40]
	fdiv	QWORD PTR _rScale$81124[esp+40]
	fstp	QWORD PTR _ms$[esp+40]
; Line 6479
	jmp	SHORT $LN2@parseHhMmS
$LN7@parseHhMmS:
; Line 6480
	mov	DWORD PTR _s$[esp+40], ebx
$LN2@parseHhMmS:
; Line 6486
	fild	DWORD PTR _s$[esp+40]
	mov	ecx, DWORD PTR _h$[esp+40]
	mov	edx, DWORD PTR _m$[esp+40]
	mov	BYTE PTR [edi+42], bl
	fadd	QWORD PTR _ms$[esp+40]
; Line 6487
	mov	ebx, edi
	mov	eax, esi
	mov	BYTE PTR [edi+41], 1
	fstp	QWORD PTR [edi+32]
	mov	DWORD PTR [edi+20], ecx
	mov	DWORD PTR [edi+24], edx
	call	_parseTimezone
	test	eax, eax
	jne	$LN16@parseHhMmS
; Line 6488
	cmp	DWORD PTR [edi+28], eax
; Line 6490
	pop	esi
	setne	al
	mov	BYTE PTR [edi+43], al
	xor	eax, eax
	pop	ebx
	mov	esp, ebp
	pop	ebp
	ret	0
_parseHhMmSs ENDP
_TEXT	ENDS
PUBLIC	__real@40f5180000000000
PUBLIC	__real@40ac200000000000
PUBLIC	__real@404e000000000000
PUBLIC	__real@4097d20000000000
PUBLIC	__real@4076d40000000000
PUBLIC	__real@c03e99a027525461
EXTRN	__ftol2_sse:PROC
;	COMDAT __real@40f5180000000000
CONST	SEGMENT
__real@40f5180000000000 DQ 040f5180000000000r	; 86400
CONST	ENDS
;	COMDAT __real@40ac200000000000
CONST	SEGMENT
__real@40ac200000000000 DQ 040ac200000000000r	; 3600
CONST	ENDS
;	COMDAT __real@404e000000000000
CONST	SEGMENT
__real@404e000000000000 DQ 0404e000000000000r	; 60
CONST	ENDS
;	COMDAT __real@4097d20000000000
CONST	SEGMENT
__real@4097d20000000000 DQ 04097d20000000000r	; 1524.5
CONST	ENDS
;	COMDAT __real@4076d40000000000
CONST	SEGMENT
__real@4076d40000000000 DQ 04076d40000000000r	; 365.25
CONST	ENDS
;	COMDAT __real@c03e99a027525461
CONST	SEGMENT
__real@c03e99a027525461 DQ 0c03e99a027525461r	; -30.6001
; Function compile flags: /Ogtpy
CONST	ENDS
;	COMDAT _computeJD
_TEXT	SEGMENT
tv262 = -4						; size = 4
tv258 = -4						; size = 4
tv247 = -4						; size = 4
tv239 = -4						; size = 4
tv237 = -4						; size = 4
_computeJD PROC						; COMDAT
; _p$ = esi
; Line 6498
	push	ecx
; Line 6501
	cmp	BYTE PTR [esi+42], 0
	jne	$LN1@computeJD
; Line 6502
	cmp	BYTE PTR [esi+40], 0
	push	ebx
	push	ebp
	push	edi
	je	$LN5@computeJD
; Line 6504
	mov	ecx, DWORD PTR [esi+12]
; Line 6511
	cmp	ecx, 2
	mov	ebp, DWORD PTR [esi+8]
	mov	ebx, DWORD PTR [esi+16]
	jg	SHORT $LN3@computeJD
$LN9@computeJD:
; Line 6512
	sub	ebp, 1
; Line 6513
	add	ecx, 12					; 0000000cH
$LN3@computeJD:
; Line 6515
	mov	eax, 1374389535				; 51eb851fH
	imul	ebp
; Line 6518
	add	ecx, 1
; Line 6519
	mov	DWORD PTR tv262[esp+16], ecx
	sar	edx, 5
	mov	edi, edx
	fild	DWORD PTR tv262[esp+16]
	shr	edi, 31					; 0000001fH
	add	edi, edx
	fmul	QWORD PTR __real@c03e99a027525461
	call	__ftol2_sse
	add	ebp, 4716				; 0000126cH
	mov	DWORD PTR tv258[esp+16], ebp
	fild	DWORD PTR tv258[esp+16]
	mov	DWORD PTR tv237[esp+16], eax
	fmul	QWORD PTR __real@4076d40000000000
	call	__ftol2_sse
	mov	ecx, eax
	mov	eax, DWORD PTR tv237[esp+16]
	sub	ecx, eax
	mov	eax, edi
	cdq
	and	edx, 3
	add	eax, edx
	sar	eax, 2
	add	ecx, eax
	sub	ecx, edi
; Line 6521
	cmp	BYTE PTR [esi+41], 0
	lea	edx, DWORD PTR [ecx+ebx+2]
	mov	DWORD PTR tv247[esp+16], edx
	pop	edi
	fild	DWORD PTR tv247[esp+12]
	pop	ebp
	mov	BYTE PTR [esi+42], 1
	pop	ebx
	fsub	QWORD PTR __real@4097d20000000000
	fst	QWORD PTR [esi]
	je	SHORT $LN11@computeJD
; Line 6523
	cmp	BYTE PTR [esi+43], 0
	fild	DWORD PTR [esi+24]
	fmul	QWORD PTR __real@404e000000000000
	fild	DWORD PTR [esi+20]
	fmul	QWORD PTR __real@40ac200000000000
	faddp	ST(1), ST(0)
	fadd	QWORD PTR [esi+32]
	fld	QWORD PTR __real@40f5180000000000
	fdiv	ST(1), ST(0)
	fxch	ST(1)
	faddp	ST(2), ST(0)
	fxch	ST(1)
	fst	QWORD PTR [esi]
	je	SHORT $LN14@computeJD
; Line 6524
	mov	eax, DWORD PTR [esi+28]
	mov	ecx, eax
	shl	ecx, 4
	sub	ecx, eax
	add	ecx, ecx
	add	ecx, ecx
	mov	DWORD PTR tv239[esp+4], ecx
	fild	DWORD PTR tv239[esp+4]
; Line 6525
	mov	BYTE PTR [esi+40], 0
; Line 6526
	mov	BYTE PTR [esi+41], 0
; Line 6527
	mov	BYTE PTR [esi+43], 0
	fdivrp	ST(2), ST(0)
	fsubrp	ST(1), ST(0)
	fstp	QWORD PTR [esi]
; Line 6530
	pop	ecx
	ret	0
$LN5@computeJD:
; Line 6508
	mov	ecx, 1
	mov	ebp, 2000				; 000007d0H
; Line 6509
	mov	ebx, ecx
; Line 6511
	jmp	$LN9@computeJD
$LN14@computeJD:
; Line 6523
	fstp	ST(0)
$LN11@computeJD:
	fstp	ST(0)
$LN1@computeJD:
; Line 6530
	pop	ecx
	ret	0
_computeJD ENDP
; Function compile flags: /Ogtpy
_TEXT	ENDS
;	COMDAT _parseYyyyMmDd
_TEXT	SEGMENT
_M$ = -8						; size = 4
_D$ = -4						; size = 4
_Y$ = 8							; size = 4
_zDate$ = 8						; size = 4
_parseYyyyMmDd PROC					; COMDAT
; _p$ = eax
; Line 6544
	sub	esp, 8
	push	ebx
	push	ebp
	mov	ebp, DWORD PTR _zDate$[esp+12]
; Line 6547
	cmp	BYTE PTR [ebp], 45			; 0000002dH
	push	esi
	mov	esi, eax
	jne	SHORT $LN11@parseYyyyM
; Line 6548
	add	ebp, 1
; Line 6549
	mov	ebx, 1
; Line 6550
	jmp	SHORT $LN10@parseYyyyM
$LN11@parseYyyyM:
; Line 6551
	xor	ebx, ebx
$LN10@parseYyyyM:
; Line 6553
	lea	eax, DWORD PTR _D$[esp+20]
	push	eax
	push	0
	push	31					; 0000001fH
	push	1
	push	2
	lea	ecx, DWORD PTR _M$[esp+40]
	push	ecx
	push	45					; 0000002dH
	push	12					; 0000000cH
	push	1
	push	2
	lea	edx, DWORD PTR _Y$[esp+56]
	push	edx
	push	45					; 0000002dH
	push	9999					; 0000270fH
	push	0
	push	4
	push	ebp
	call	_getDigits
	add	esp, 64					; 00000040H
	cmp	eax, 3
; Line 6554
	jne	SHORT $LN3@parseYyyyM
; Line 6556
	add	ebp, 10					; 0000000aH
	npad	7
$LL8@parseYyyyM:
; Line 6557
	movzx	eax, BYTE PTR [ebp]
	push	eax
	call	_isspace
	add	esp, 4
	test	eax, eax
	jne	SHORT $LN6@parseYyyyM
	cmp	BYTE PTR [ebp], 84			; 00000054H
	jne	SHORT $LN7@parseYyyyM
$LN6@parseYyyyM:
	add	ebp, 1
	jmp	SHORT $LL8@parseYyyyM
$LN7@parseYyyyM:
	push	edi
; Line 6558
	mov	edi, esi
	mov	eax, ebp
	call	_parseHhMmSs
	test	eax, eax
	pop	edi
	je	SHORT $LN2@parseYyyyM
; Line 6560
	cmp	BYTE PTR [ebp], 0
	jne	SHORT $LN3@parseYyyyM
; Line 6561
	mov	BYTE PTR [esi+41], 0
$LN2@parseYyyyM:
; Line 6567
	test	ebx, ebx
	mov	eax, DWORD PTR _Y$[esp+16]
	mov	BYTE PTR [esi+42], 0
	mov	BYTE PTR [esi+40], 1
	je	SHORT $LN15@parseYyyyM
	neg	eax
$LN15@parseYyyyM:
; Line 6570
	cmp	BYTE PTR [esi+43], 0
	mov	ecx, DWORD PTR _M$[esp+20]
	mov	edx, DWORD PTR _D$[esp+20]
	mov	DWORD PTR [esi+8], eax
	mov	DWORD PTR [esi+12], ecx
	mov	DWORD PTR [esi+16], edx
	je	SHORT $LN1@parseYyyyM
; Line 6571
	call	_computeJD
$LN1@parseYyyyM:
	pop	esi
	pop	ebp
; Line 6573
	xor	eax, eax
	pop	ebx
; Line 6574
	add	esp, 8
	ret	0
$LN3@parseYyyyM:
	pop	esi
	pop	ebp
; Line 6563
	mov	eax, 1
	pop	ebx
; Line 6574
	add	esp, 8
	ret	0
_parseYyyyMmDd ENDP
_TEXT	ENDS
PUBLIC	__real@403e99a027525461
PUBLIC	__real@405e866666666666
PUBLIC	__real@40e1d58800000000
PUBLIC	__real@413c7dd040000000
PUBLIC	__real@3fe0000000000000
;	COMDAT __real@403e99a027525461
CONST	SEGMENT
__real@403e99a027525461 DQ 0403e99a027525461r	; 30.6001
CONST	ENDS
;	COMDAT __real@405e866666666666
CONST	SEGMENT
__real@405e866666666666 DQ 0405e866666666666r	; 122.1
CONST	ENDS
;	COMDAT __real@40e1d58800000000
CONST	SEGMENT
__real@40e1d58800000000 DQ 040e1d58800000000r	; 36524.3
CONST	ENDS
;	COMDAT __real@413c7dd040000000
CONST	SEGMENT
__real@413c7dd040000000 DQ 0413c7dd040000000r	; 1.86722e+006
CONST	ENDS
;	COMDAT __real@3fe0000000000000
CONST	SEGMENT
__real@3fe0000000000000 DQ 03fe0000000000000r	; 0.5
; Function compile flags: /Ogtpy
CONST	ENDS
;	COMDAT _computeYMD
_TEXT	SEGMENT
_C$ = -8						; size = 4
_B$ = -8						; size = 4
_Z$ = -8						; size = 4
tv232 = -4						; size = 4
_E$ = -4						; size = 4
_computeYMD PROC					; COMDAT
; _p$ = edi
; Line 6615
	sub	esp, 8
; Line 6617
	cmp	BYTE PTR [edi+40], 0
	jne	$LN4@computeYMD
; Line 6618
	cmp	BYTE PTR [edi+42], 0
	jne	SHORT $LN2@computeYMD
; Line 6620
	mov	eax, 1
	mov	DWORD PTR [edi+8], 2000			; 000007d0H
	mov	DWORD PTR [edi+12], eax
; Line 6621
	mov	DWORD PTR [edi+16], eax
; Line 6635
	mov	BYTE PTR [edi+40], al
; Line 6636
	add	esp, 8
	ret	0
$LN2@computeYMD:
; Line 6623
	fld	QWORD PTR [edi]
	push	ebx
	fadd	QWORD PTR __real@3fe0000000000000
	push	ebp
	push	esi
	call	__ftol2_sse
	mov	esi, eax
	mov	DWORD PTR _Z$[esp+20], esi
; Line 6624
	fild	DWORD PTR _Z$[esp+20]
	fsub	QWORD PTR __real@413c7dd040000000
	fdiv	QWORD PTR __real@40e1d58800000000
	call	__ftol2_sse
	mov	ecx, eax
; Line 6625
	cdq
	and	edx, 3
	add	eax, edx
	sar	eax, 2
; Line 6626
	sub	ecx, eax
	lea	esi, DWORD PTR [ecx+esi+1525]
	mov	DWORD PTR _B$[esp+20], esi
; Line 6627
	fild	DWORD PTR _B$[esp+20]
	fsub	QWORD PTR __real@405e866666666666
	fld	QWORD PTR __real@4076d40000000000
	fdiv	ST(1), ST(0)
	fxch	ST(1)
	call	__ftol2_sse
	mov	DWORD PTR _C$[esp+20], eax
; Line 6628
	fimul	DWORD PTR _C$[esp+20]
	call	__ftol2_sse
	mov	ebp, eax
; Line 6629
	mov	eax, esi
	sub	eax, ebp
	mov	DWORD PTR tv232[esp+20], eax
	fild	DWORD PTR tv232[esp+20]
	fld	QWORD PTR __real@403e99a027525461
	fdiv	ST(1), ST(0)
	fxch	ST(1)
	call	__ftol2_sse
	mov	ebx, eax
	mov	DWORD PTR _E$[esp+20], ebx
; Line 6631
	fimul	DWORD PTR _E$[esp+20]
	call	__ftol2_sse
	sub	esi, eax
	sub	esi, ebp
; Line 6632
	cmp	ebx, 14					; 0000000eH
	mov	DWORD PTR [edi+16], esi
	lea	eax, DWORD PTR [ebx-1]
	jl	SHORT $LN7@computeYMD
	lea	eax, DWORD PTR [ebx-13]
$LN7@computeYMD:
	pop	esi
	pop	ebp
	mov	DWORD PTR [edi+12], eax
; Line 6633
	cmp	eax, 2
	mov	eax, DWORD PTR _C$[esp+12]
	pop	ebx
	jle	SHORT $LN8@computeYMD
	add	eax, -4716				; ffffed94H
	mov	DWORD PTR [edi+8], eax
; Line 6635
	mov	BYTE PTR [edi+40], 1
; Line 6636
	add	esp, 8
	ret	0
$LN8@computeYMD:
; Line 6633
	add	eax, -4715				; ffffed95H
	mov	DWORD PTR [edi+8], eax
; Line 6635
	mov	BYTE PTR [edi+40], 1
$LN4@computeYMD:
; Line 6636
	add	esp, 8
	ret	0
_computeYMD ENDP
_TEXT	ENDS
PUBLIC	__real@3f50624dd2f1a9fc
PUBLIC	__real@4194997000000000
;	COMDAT __real@3f50624dd2f1a9fc
CONST	SEGMENT
__real@3f50624dd2f1a9fc DQ 03f50624dd2f1a9fcr	; 0.001
CONST	ENDS
;	COMDAT __real@4194997000000000
CONST	SEGMENT
__real@4194997000000000 DQ 04194997000000000r	; 8.64e+007
; Function compile flags: /Ogtpy
CONST	ENDS
;	COMDAT _computeHMS
_TEXT	SEGMENT
tv202 = -4						; size = 4
tv196 = -4						; size = 4
tv178 = -4						; size = 4
_s$ = -4						; size = 4
_computeHMS PROC					; COMDAT
; _p$ = eax
; Line 6641
	push	ecx
	push	esi
	mov	esi, eax
; Line 6643
	cmp	BYTE PTR [esi+41], 0
	jne	$LN2@computeHMS
; Line 6644
	call	_computeJD
; Line 6645
	fld	QWORD PTR [esi]
	fld	QWORD PTR __real@3fe0000000000000
	fadd	ST(1), ST(0)
; Line 6647
	fld	ST(1)
	call	__ftol2_sse
	mov	DWORD PTR tv202[esp+8], eax
	fild	DWORD PTR tv202[esp+8]
	fsubp	ST(2), ST(0)
	fxch	ST(1)
	fmul	QWORD PTR __real@4194997000000000
	faddp	ST(1), ST(0)
	call	__ftol2_sse
	mov	DWORD PTR tv196[esp+8], eax
	fild	DWORD PTR tv196[esp+8]
	fmul	QWORD PTR __real@3f50624dd2f1a9fc
; Line 6648
	fld	ST(0)
	call	__ftol2_sse
	mov	ecx, eax
; Line 6650
	mov	eax, -1851608123			; 91a2b3c5H
	imul	ecx
	add	edx, ecx
	sar	edx, 11					; 0000000bH
	mov	eax, edx
	shr	eax, 31					; 0000001fH
	add	eax, edx
	mov	DWORD PTR [esi+20], eax
; Line 6651
	imul	eax, -3600				; fffff1f0H
	mov	DWORD PTR _s$[esp+8], ecx
	add	ecx, eax
; Line 6652
	mov	eax, -2004318071			; 88888889H
	fisub	DWORD PTR _s$[esp+8]
	imul	ecx
	fstp	QWORD PTR [esi+32]
	add	edx, ecx
	sar	edx, 5
	mov	eax, edx
	shr	eax, 31					; 0000001fH
	add	eax, edx
; Line 6653
	mov	edx, eax
	shl	edx, 4
	sub	edx, eax
	add	edx, edx
	add	edx, edx
	sub	ecx, edx
	mov	DWORD PTR tv178[esp+8], ecx
	mov	DWORD PTR [esi+24], eax
; Line 6654
	mov	BYTE PTR [esi+41], 1
	fild	DWORD PTR tv178[esp+8]
	fadd	QWORD PTR [esi+32]
	fstp	QWORD PTR [esi+32]
$LN2@computeHMS:
	pop	esi
; Line 6655
	pop	ecx
	ret	0
_computeHMS ENDP
; Function compile flags: /Ogtpy
_TEXT	ENDS
;	COMDAT _computeYMD_HMS
_TEXT	SEGMENT
_computeYMD_HMS PROC					; COMDAT
; _p$ = eax
; Line 6660
	push	edi
	mov	edi, eax
; Line 6661
	call	_computeYMD
; Line 6662
	mov	eax, edi
	pop	edi
	jmp	_computeHMS
_computeYMD_HMS ENDP
; Function compile flags: /Ogtpy
_TEXT	ENDS
;	COMDAT _clearYMD_HMS_TZ
_TEXT	SEGMENT
_clearYMD_HMS_TZ PROC					; COMDAT
; _p$ = eax
; Line 6669
	xor	cl, cl
	mov	BYTE PTR [eax+40], cl
; Line 6670
	mov	BYTE PTR [eax+41], cl
; Line 6671
	mov	BYTE PTR [eax+43], cl
; Line 6672
	ret	0
_clearYMD_HMS_TZ ENDP
; Function compile flags: /Ogtpy
_TEXT	ENDS
;	COMDAT _sqlite3OsClose
_TEXT	SEGMENT
_sqlite3OsClose PROC					; COMDAT
; _pId$ = ecx
; Line 7352
	test	ecx, ecx
	je	SHORT $LN2@sqlite3OsC
	mov	eax, DWORD PTR [ecx]
	test	eax, eax
	je	SHORT $LN2@sqlite3OsC
; Line 7353
	mov	eax, DWORD PTR [eax]
	push	ecx
	mov	ecx, DWORD PTR [eax]
	call	ecx
	add	esp, 4
; Line 7357
	ret	0
$LN2@sqlite3OsC:
; Line 7355
	xor	eax, eax
; Line 7357
	ret	0
_sqlite3OsClose ENDP
; Function compile flags: /Ogtpy
_TEXT	ENDS
;	COMDAT _sqlite3OsOpenDirectory
_TEXT	SEGMENT
_sqlite3OsOpenDirectory PROC				; COMDAT
; _id$ = eax
; _zName$ = edx
; Line 7359
	mov	ecx, DWORD PTR [eax]
	push	edx
	push	eax
	mov	eax, DWORD PTR [ecx+4]
	call	eax
	add	esp, 8
; Line 7360
	ret	0
_sqlite3OsOpenDirectory ENDP
; Function compile flags: /Ogtpy
_TEXT	ENDS
;	COMDAT _sqlite3OsRead
_TEXT	SEGMENT
_pBuf$ = 8						; size = 4
_sqlite3OsRead PROC					; COMDAT
; _id$ = eax
; _amt$ = edx
; Line 7362
	mov	ecx, DWORD PTR [eax]
	push	edx
	mov	edx, DWORD PTR _pBuf$[esp]
	push	edx
	push	eax
	mov	eax, DWORD PTR [ecx+8]
	call	eax
	add	esp, 12					; 0000000cH
; Line 7363
	ret	0
_sqlite3OsRead ENDP
; Function compile flags: /Ogtpy
_TEXT	ENDS
;	COMDAT _sqlite3OsWrite
_TEXT	SEGMENT
_pBuf$ = 8						; size = 4
_sqlite3OsWrite PROC					; COMDAT
; _id$ = eax
; _amt$ = edx
; Line 7365
	mov	ecx, DWORD PTR [eax]
	push	edx
	mov	edx, DWORD PTR _pBuf$[esp]
	push	edx
	push	eax
	mov	eax, DWORD PTR [ecx+12]
	call	eax
	add	esp, 12					; 0000000cH
; Line 7366
	ret	0
_sqlite3OsWrite ENDP
; Function compile flags: /Ogtpy
_TEXT	ENDS
;	COMDAT _sqlite3OsSeek
_TEXT	SEGMENT
_offset$ = 8						; size = 8
_sqlite3OsSeek PROC					; COMDAT
; _id$ = eax
; Line 7368
	mov	edx, DWORD PTR _offset$[esp]
	mov	ecx, DWORD PTR [eax]
	push	edx
	mov	edx, DWORD PTR _offset$[esp]
	push	edx
	push	eax
	mov	eax, DWORD PTR [ecx+16]
	call	eax
	add	esp, 12					; 0000000cH
; Line 7369
	ret	0
_sqlite3OsSeek ENDP
; Function compile flags: /Ogtpy
_TEXT	ENDS
;	COMDAT _sqlite3OsTruncate
_TEXT	SEGMENT
_size$ = 8						; size = 8
_sqlite3OsTruncate PROC					; COMDAT
; _id$ = eax
; Line 7371
	mov	edx, DWORD PTR _size$[esp]
	mov	ecx, DWORD PTR [eax]
	push	edx
	mov	edx, DWORD PTR _size$[esp]
	push	edx
	push	eax
	mov	eax, DWORD PTR [ecx+20]
	call	eax
	add	esp, 12					; 0000000cH
; Line 7372
	ret	0
_sqlite3OsTruncate ENDP
; Function compile flags: /Ogtpy
_TEXT	ENDS
;	COMDAT _sqlite3OsSync
_TEXT	SEGMENT
_sqlite3OsSync PROC					; COMDAT
; _id$ = eax
; _fullsync$ = edx
; Line 7374
	mov	ecx, DWORD PTR [eax]
	push	edx
	push	eax
	mov	eax, DWORD PTR [ecx+24]
	call	eax
	add	esp, 8
; Line 7375
	ret	0
_sqlite3OsSync ENDP
; Function compile flags: /Ogtpy
_TEXT	ENDS
;	COMDAT _sqlite3OsSetFullSync
_TEXT	SEGMENT
_sqlite3OsSetFullSync PROC				; COMDAT
; _id$ = eax
; _value$ = edx
; Line 7377
	mov	ecx, DWORD PTR [eax]
	push	edx
	push	eax
	mov	eax, DWORD PTR [ecx+28]
	call	eax
	add	esp, 8
; Line 7378
	ret	0
_sqlite3OsSetFullSync ENDP
; Function compile flags: /Ogtpy
_TEXT	ENDS
;	COMDAT _sqlite3OsFileSize
_TEXT	SEGMENT
_sqlite3OsFileSize PROC					; COMDAT
; _id$ = eax
; _pSize$ = edx
; Line 7380
	mov	ecx, DWORD PTR [eax]
	push	edx
	push	eax
	mov	eax, DWORD PTR [ecx+36]
	call	eax
	add	esp, 8
; Line 7381
	ret	0
_sqlite3OsFileSize ENDP
; Function compile flags: /Ogtpy
_TEXT	ENDS
;	COMDAT _sqlite3OsLock
_TEXT	SEGMENT
_sqlite3OsLock PROC					; COMDAT
; _id$ = eax
; _lockType$ = edx
; Line 7383
	mov	ecx, DWORD PTR [eax]
	push	edx
	push	eax
	mov	eax, DWORD PTR [ecx+40]
	call	eax
	add	esp, 8
; Line 7384
	ret	0
_sqlite3OsLock ENDP
; Function compile flags: /Ogtpy
_TEXT	ENDS
;	COMDAT _sqlite3OsUnlock
_TEXT	SEGMENT
_sqlite3OsUnlock PROC					; COMDAT
; _id$ = eax
; _lockType$ = edx
; Line 7386
	mov	ecx, DWORD PTR [eax]
	push	edx
	push	eax
	mov	eax, DWORD PTR [ecx+44]
	call	eax
	add	esp, 8
; Line 7387
	ret	0
_sqlite3OsUnlock ENDP
; Function compile flags: /Ogtpy
_TEXT	ENDS
;	COMDAT _sqlite3OsCheckReservedLock
_TEXT	SEGMENT
_sqlite3OsCheckReservedLock PROC			; COMDAT
; _id$ = eax
; Line 7389
	mov	ecx, DWORD PTR [eax]
	mov	edx, DWORD PTR [ecx+52]
	push	eax
	call	edx
	add	esp, 4
; Line 7390
	ret	0
_sqlite3OsCheckReservedLock ENDP
; Function compile flags: /Ogtpy
_TEXT	ENDS
;	COMDAT _sqlite3OsSectorSize
_TEXT	SEGMENT
_sqlite3OsSectorSize PROC				; COMDAT
; _id$ = ecx
; Line 7392
	mov	eax, DWORD PTR [ecx]
	mov	eax, DWORD PTR [eax+56]
; Line 7393
	test	eax, eax
	je	SHORT $LN3@sqlite3OsS
	push	ecx
	call	eax
	add	esp, 4
; Line 7394
	ret	0
$LN3@sqlite3OsS:
; Line 7393
	mov	eax, 512				; 00000200H
; Line 7394
	ret	0
_sqlite3OsSectorSize ENDP
; Function compile flags: /Ogtpy
_TEXT	ENDS
;	COMDAT _et_getdigit
_TEXT	SEGMENT
_digit$ = -4						; size = 4
_et_getdigit PROC					; COMDAT
; _val$ = esi
; _cnt$ = ecx
; Line 8410
	push	ecx
; Line 8413
	mov	eax, DWORD PTR [ecx]
	cmp	eax, 16					; 00000010H
	lea	edx, DWORD PTR [eax+1]
	mov	DWORD PTR [ecx], edx
	jl	SHORT $LN1@et_getdigi
	mov	eax, 48					; 00000030H
; Line 8419
	pop	ecx
	ret	0
$LN1@et_getdigi:
; Line 8414
	fld	QWORD PTR [esi]
	call	__ftol2_sse
	mov	DWORD PTR _digit$[esp+4], eax
; Line 8417
	fild	DWORD PTR _digit$[esp+4]
	add	eax, 48					; 00000030H
	fsubr	QWORD PTR [esi]
	fmul	QWORD PTR __real@4024000000000000
	fstp	QWORD PTR [esi]
; Line 8419
	pop	ecx
	ret	0
_et_getdigit ENDP
_TEXT	ENDS
EXTRN	_memcpy:PROC
; Function compile flags: /Ogtpy
;	COMDAT _mout
_TEXT	SEGMENT
_arg$ = 8						; size = 4
_zNewText$ = 12						; size = 4
_nNewChar$ = 16						; size = 4
_mout	PROC						; COMDAT
; Line 8979
	push	ebx
; Line 8981
	mov	ebx, DWORD PTR _nNewChar$[esp]
	push	esi
	mov	esi, DWORD PTR _arg$[esp+4]
; Line 8982
	mov	ecx, DWORD PTR [esi+8]
	mov	eax, DWORD PTR [esi+16]
	add	DWORD PTR [esi+12], ebx
	lea	edx, DWORD PTR [ecx+ebx+1]
	cmp	edx, eax
	push	edi
	jle	SHORT $LN13@mout
; Line 8983
	mov	edx, DWORD PTR [esi+20]
	test	edx, edx
	jne	SHORT $LN9@mout
; Line 8984
	sub	eax, ecx
	sub	eax, 1
	mov	ebx, eax
; Line 8985
	jmp	SHORT $LN13@mout
$LN9@mout:
; Line 8987
	mov	eax, DWORD PTR [esi+4]
	cmp	eax, DWORD PTR [esi]
	lea	edi, DWORD PTR [ecx+ebx*2+1]
; Line 8988
	push	edi
	jne	SHORT $LN7@mout
	push	0
	call	edx
	add	esp, 8
; Line 8989
	test	eax, eax
	mov	DWORD PTR [esi+4], eax
	je	SHORT $LN3@mout
	mov	ecx, DWORD PTR [esi+8]
	test	ecx, ecx
	je	SHORT $LN3@mout
; Line 8990
	push	ecx
	mov	ecx, DWORD PTR [esi]
	push	ecx
	push	eax
	call	_memcpy
	add	esp, 12					; 0000000cH
; Line 8992
	jmp	SHORT $LN3@mout
$LN7@mout:
; Line 8994
	push	eax
	call	edx
	add	esp, 8
; Line 8995
	test	eax, eax
	je	SHORT $LN2@mout
; Line 8996
	mov	DWORD PTR [esi+4], eax
$LN3@mout:
; Line 9001
	mov	DWORD PTR [esi+16], edi
$LN13@mout:
; Line 9004
	mov	eax, DWORD PTR [esi+4]
	test	eax, eax
	je	SHORT $LN2@mout
; Line 9005
	test	ebx, ebx
	jle	SHORT $LN1@mout
; Line 9006
	mov	edx, DWORD PTR _zNewText$[esp+8]
	mov	ecx, DWORD PTR [esi+8]
	push	ebx
	push	edx
	add	ecx, eax
	push	ecx
	call	_memcpy
	add	esp, 12					; 0000000cH
; Line 9007
	add	DWORD PTR [esi+8], ebx
$LN1@mout:
; Line 9009
	mov	edx, DWORD PTR [esi+8]
	mov	eax, DWORD PTR [esi+4]
	mov	BYTE PTR [edx+eax], 0
$LN2@mout:
	pop	edi
	pop	esi
	pop	ebx
; Line 9011
	ret	0
_mout	ENDP
; Function compile flags: /Ogtpy
_TEXT	ENDS
;	COMDAT _sqlite3VdbeMemHandleBom
_TEXT	SEGMENT
_bom$ = -4						; size = 1
_sqlite3VdbeMemHandleBom PROC				; COMDAT
; _pMem$ = ecx
; Line 10021
	push	ecx
; Line 10025
	mov	edx, DWORD PTR [ecx+20]
	push	edi
	xor	edi, edi
	test	edx, edx
	jl	SHORT $LN6@sqlite3Vdb
	cmp	edx, 1
	jle	SHORT $LN95@sqlite3Vdb
$LN6@sqlite3Vdb:
	push	ebx
	push	esi
; Line 10026
	mov	esi, DWORD PTR [ecx+16]
	mov	al, BYTE PTR [esi]
; Line 10028
	cmp	al, 254					; 000000feH
	mov	bl, BYTE PTR [esi+1]
	jne	SHORT $LN5@sqlite3Vdb
	cmp	bl, 255					; 000000ffH
	jne	SHORT $LN98@sqlite3Vdb
; Line 10029
	mov	BYTE PTR _bom$[esp+16], 3
; Line 10031
	jmp	SHORT $LN94@sqlite3Vdb
$LN5@sqlite3Vdb:
	cmp	al, 255					; 000000ffH
	jne	SHORT $LN98@sqlite3Vdb
	cmp	bl, 254					; 000000feH
	jne	SHORT $LN98@sqlite3Vdb
; Line 10032
	mov	BYTE PTR _bom$[esp+16], 2
$LN94@sqlite3Vdb:
; Line 10049
	mov	eax, DWORD PTR _bom$[esp+16]
	push	-1
	add	edx, -2					; fffffffeH
	test	BYTE PTR [ecx+24], 64			; 00000040H
	push	eax
	push	edx
	je	SHORT $LN2@sqlite3Vdb
	mov	edi, DWORD PTR [ecx+28]
	lea	edx, DWORD PTR [esi+2]
	push	edx
	push	ecx
	mov	DWORD PTR [ecx+16], 0
	mov	DWORD PTR [ecx+28], 0
	call	_sqlite3VdbeMemSetStr
; Line 10050
	push	esi
	mov	ebx, eax
	call	edi
	add	esp, 24					; 00000018H
	pop	esi
; Line 10056
	mov	eax, ebx
	pop	ebx
	pop	edi
; Line 10057
	pop	ecx
	ret	0
$LN2@sqlite3Vdb:
; Line 10053
	add	esi, 2
	push	esi
	push	ecx
	call	_sqlite3VdbeMemSetStr
	add	esp, 20					; 00000014H
	pop	esi
	pop	ebx
	pop	edi
; Line 10057
	pop	ecx
	ret	0
$LN95@sqlite3Vdb:
; Line 10056
	mov	eax, edi
	pop	edi
; Line 10057
	pop	ecx
	ret	0
$LN98@sqlite3Vdb:
	pop	esi
	pop	ebx
; Line 10056
	mov	eax, edi
	pop	edi
; Line 10057
	pop	ecx
	ret	0
_sqlite3VdbeMemHandleBom ENDP
; Function compile flags: /Ogtpy
_TEXT	ENDS
;	COMDAT _sqlite3Utf8CharLen
_TEXT	SEGMENT
_sqlite3Utf8CharLen PROC				; COMDAT
; _zIn$ = ecx
; _nByte$ = edx
; Line 10068
	xor	eax, eax
; Line 10071
	test	edx, edx
	push	esi
	jl	SHORT $LN7@sqlite3Utf
; Line 10072
	lea	esi, DWORD PTR [ecx+edx]
; Line 10073
	jmp	SHORT $LN10@sqlite3Utf
$LN7@sqlite3Utf:
; Line 10074
	or	esi, -1
$LN10@sqlite3Utf:
; Line 10077
	cmp	BYTE PTR [ecx], al
	je	SHORT $LN4@sqlite3Utf
$LL5@sqlite3Utf:
	cmp	ecx, esi
	jae	SHORT $LN4@sqlite3Utf
; Line 10078
	mov	dl, BYTE PTR [ecx]
	add	ecx, 1
	cmp	dl, 192					; 000000c0H
	jb	SHORT $LN1@sqlite3Utf
	mov	dl, BYTE PTR [ecx]
	and	dl, 192					; 000000c0H
	cmp	dl, 128					; 00000080H
	jne	SHORT $LN1@sqlite3Utf
	npad	5
$LL2@sqlite3Utf:
	mov	dl, BYTE PTR [ecx+1]
	add	ecx, 1
	and	dl, 192					; 000000c0H
	cmp	dl, 128					; 00000080H
	je	SHORT $LL2@sqlite3Utf
$LN1@sqlite3Utf:
; Line 10079
	add	eax, 1
	cmp	BYTE PTR [ecx], 0
	jne	SHORT $LL5@sqlite3Utf
$LN4@sqlite3Utf:
	pop	esi
; Line 10082
	ret	0
_sqlite3Utf8CharLen ENDP
; Function compile flags: /Ogtpy
_TEXT	ENDS
;	COMDAT _sqlite3Utf16ByteLen
_TEXT	SEGMENT
_sqlite3Utf16ByteLen PROC				; COMDAT
; _zIn$ = ebx
; _nChar$ = edi
; Line 10109
	push	ebp
	push	esi
; Line 10110
	mov	ecx, 1
; Line 10111
	mov	eax, ebx
; Line 10112
	xor	esi, esi
	npad	5
$LL5@sqlite3Utf@2:
; Line 10128
	test	edi, edi
	jl	SHORT $LN3@sqlite3Utf@2
	cmp	esi, edi
	jge	SHORT $LN4@sqlite3Utf@2
$LN3@sqlite3Utf@2:
; Line 10129
	movsx	ecx, BYTE PTR [eax]
	movsx	edx, BYTE PTR [eax+1]
	add	eax, 1
	shl	edx, 8
	add	ecx, edx
	lea	edx, DWORD PTR [ecx-55296]
	add	eax, 1
	cmp	edx, 2047				; 000007ffH
	ja	SHORT $LN17@sqlite3Utf@2
	movsx	edx, BYTE PTR [eax]
	movsx	ebp, BYTE PTR [eax+1]
	add	eax, 1
	shl	ebp, 8
	add	edx, ebp
	mov	ebp, ecx
	and	ecx, 63					; 0000003fH
	and	ebp, 960				; 000003c0H
	lea	ecx, DWORD PTR [ecx+ebp+64]
	shl	ecx, 10					; 0000000aH
	and	edx, 1023				; 000003ffH
	add	ecx, edx
	add	eax, 1
	test	ecx, -65536				; ffff0000H
	jne	SHORT $LN17@sqlite3Utf@2
	mov	ecx, 65533				; 0000fffdH
$LN17@sqlite3Utf@2:
; Line 10130
	add	esi, 1
	test	ecx, ecx
	jne	SHORT $LL5@sqlite3Utf@2
$LN4@sqlite3Utf@2:
; Line 10133
	neg	ecx
	sbb	ecx, ecx
	and	ecx, -2					; fffffffeH
	add	ecx, 2
	sub	eax, ecx
	pop	esi
	sub	eax, ebx
	pop	ebp
; Line 10134
	ret	0
_sqlite3Utf16ByteLen ENDP
; Function compile flags: /Ogtpy
_TEXT	ENDS
;	COMDAT _sqlite3Dequote
_TEXT	SEGMENT
_quote$ = -4						; size = 4
_sqlite3Dequote PROC					; COMDAT
; _z$ = esi
; Line 10322
	push	ecx
; Line 10325
	test	esi, esi
	je	SHORT $LN8@sqlite3Deq
	push	ebx
; Line 10326
	movsx	ebx, BYTE PTR [esi]
; Line 10327
	lea	eax, DWORD PTR [ebx-34]
	cmp	eax, 62					; 0000003eH
	mov	DWORD PTR _quote$[esp+8], ebx
	ja	SHORT $LN21@sqlite3Deq
	movzx	eax, BYTE PTR $LN20@sqlite3Deq[eax]
	jmp	DWORD PTR $LN24@sqlite3Deq[eax*4]
$LN9@sqlite3Deq:
; Line 10331
	mov	ebx, 93					; 0000005dH
	mov	DWORD PTR _quote$[esp+8], ebx
$LN13@sqlite3Deq:
; Line 10334
	xor	eax, eax
	cmp	BYTE PTR [esi+1], al
	lea	ecx, DWORD PTR [esi+1]
	je	SHORT $LN21@sqlite3Deq
	push	edi
	lea	edi, DWORD PTR [esi+2]
	push	ebp
	npad	5
$LL7@sqlite3Deq:
; Line 10335
	mov	dl, BYTE PTR [ecx]
	movsx	ebp, dl
	cmp	ebp, ebx
; Line 10336
	mov	ebx, DWORD PTR _quote$[esp+16]
	jne	SHORT $LN4@sqlite3Deq
	movsx	edx, BYTE PTR [edi]
	cmp	edx, ebx
	jne	SHORT $LN3@sqlite3Deq
; Line 10337
	mov	BYTE PTR [eax+esi], bl
	add	eax, 1
; Line 10338
	add	edi, 1
	add	ecx, 1
; Line 10343
	jmp	SHORT $LN6@sqlite3Deq
$LN4@sqlite3Deq:
; Line 10344
	mov	BYTE PTR [eax+esi], dl
	add	eax, 1
$LN6@sqlite3Deq:
	add	ecx, 1
	add	edi, 1
	cmp	BYTE PTR [ecx], 0
	jne	SHORT $LL7@sqlite3Deq
	pop	ebp
	pop	edi
	pop	ebx
; Line 10347
	pop	ecx
	ret	0
$LN3@sqlite3Deq:
	pop	ebp
; Line 10340
	mov	BYTE PTR [eax+esi], 0
	pop	edi
$LN21@sqlite3Deq:
	pop	ebx
$LN8@sqlite3Deq:
; Line 10347
	pop	ecx
	ret	0
	npad	3
$LN24@sqlite3Deq:
	DD	$LN13@sqlite3Deq
	DD	$LN9@sqlite3Deq
	DD	$LN21@sqlite3Deq
$LN20@sqlite3Deq:
	DB	0
	DB	2
	DB	2
	DB	2
	DB	2
	DB	0
	DB	2
	DB	2
	DB	2
	DB	2
	DB	2
	DB	2
	DB	2
	DB	2
	DB	2
	DB	2
	DB	2
	DB	2
	DB	2
	DB	2
	DB	2
	DB	2
	DB	2
	DB	2
	DB	2
	DB	2
	DB	2
	DB	2
	DB	2
	DB	2
	DB	2
	DB	2
	DB	2
	DB	2
	DB	2
	DB	2
	DB	2
	DB	2
	DB	2
	DB	2
	DB	2
	DB	2
	DB	2
	DB	2
	DB	2
	DB	2
	DB	2
	DB	2
	DB	2
	DB	2
	DB	2
	DB	2
	DB	2
	DB	2
	DB	2
	DB	2
	DB	2
	DB	1
	DB	2
	DB	2
	DB	2
	DB	2
	DB	0
_sqlite3Dequote ENDP
; Function compile flags: /Ogtpy
_TEXT	ENDS
;	COMDAT _sqlite3StrICmp
_TEXT	SEGMENT
_sqlite3StrICmp PROC					; COMDAT
; _zLeft$ = ecx
; _zRight$ = edx
; Line 10399
	mov	al, BYTE PTR [ecx]
	test	al, al
	je	SHORT $LN1@sqlite3Str
	push	esi
	npad	9
$LL2@sqlite3Str:
	movzx	esi, BYTE PTR [edx]
	movzx	eax, al
	mov	al, BYTE PTR _sqlite3UpperToLower[eax]
	cmp	al, BYTE PTR _sqlite3UpperToLower[esi]
	jne	SHORT $LN7@sqlite3Str
	mov	al, BYTE PTR [ecx+1]
	add	ecx, 1
	add	edx, 1
	test	al, al
	jne	SHORT $LL2@sqlite3Str
$LN7@sqlite3Str:
	pop	esi
$LN1@sqlite3Str:
; Line 10400
	movzx	edx, BYTE PTR [edx]
	movzx	eax, BYTE PTR [ecx]
	movzx	edx, BYTE PTR _sqlite3UpperToLower[edx]
	movzx	eax, BYTE PTR _sqlite3UpperToLower[eax]
	sub	eax, edx
; Line 10401
	ret	0
_sqlite3StrICmp ENDP
; Function compile flags: /Ogtpy
_TEXT	ENDS
;	COMDAT _sqlite3StrNICmp
_TEXT	SEGMENT
_sqlite3StrNICmp PROC					; COMDAT
; _zLeft$ = ecx
; _zRight$ = edx
; _N$ = eax
; Line 10406
	test	eax, eax
	push	esi
	push	edi
	mov	esi, edx
	jle	SHORT $LN8@sqlite3Str@2
$LL2@sqlite3Str@2:
	mov	dl, BYTE PTR [ecx]
	sub	eax, 1
	test	dl, dl
	je	SHORT $LN1@sqlite3Str@2
	movzx	edi, BYTE PTR [esi]
	movzx	edx, dl
	mov	dl, BYTE PTR _sqlite3UpperToLower[edx]
	cmp	dl, BYTE PTR _sqlite3UpperToLower[edi]
	jne	SHORT $LN1@sqlite3Str@2
	add	ecx, 1
	add	esi, 1
	test	eax, eax
	jg	SHORT $LL2@sqlite3Str@2
$LN8@sqlite3Str@2:
	sub	eax, 1
$LN1@sqlite3Str@2:
; Line 10407
	test	eax, eax
	jge	SHORT $LN5@sqlite3Str@2
	pop	edi
	xor	eax, eax
	pop	esi
; Line 10408
	ret	0
$LN5@sqlite3Str@2:
; Line 10407
	movzx	eax, BYTE PTR [esi]
	movzx	edx, BYTE PTR _sqlite3UpperToLower[eax]
	movzx	eax, BYTE PTR [ecx]
	movzx	eax, BYTE PTR _sqlite3UpperToLower[eax]
	pop	edi
	sub	eax, edx
	pop	esi
; Line 10408
	ret	0
_sqlite3StrNICmp ENDP
; Function compile flags: /Ogtpy
_TEXT	ENDS
;	COMDAT _sqlite3IsNumber
_TEXT	SEGMENT
_sqlite3IsNumber PROC					; COMDAT
; _z$ = ecx
; _realnum$ = ebx
; _enc$ = eax
; Line 10418
	push	esi
	mov	esi, ecx
; Line 10419
	xor	ecx, ecx
	cmp	al, 1
	setne	cl
	push	edi
	add	ecx, 1
; Line 10420
	cmp	al, 3
	mov	edi, ecx
	jne	SHORT $LN29@sqlite3IsN
	add	esi, 1
$LN29@sqlite3IsN:
; Line 10421
	mov	al, BYTE PTR [esi]
	cmp	al, 45					; 0000002dH
	je	SHORT $LN18@sqlite3IsN
	cmp	al, 43					; 0000002bH
	jne	SHORT $LN19@sqlite3IsN
$LN18@sqlite3IsN:
	add	esi, edi
$LN19@sqlite3IsN:
; Line 10422
	movzx	edx, BYTE PTR [esi]
	push	edx
	call	_isdigit
	add	esp, 4
	test	eax, eax
	jne	SHORT $LN17@sqlite3IsN
$LN31@sqlite3IsN:
	pop	edi
; Line 10423
	xor	eax, eax
	pop	esi
; Line 10442
	ret	0
$LN17@sqlite3IsN:
; Line 10425
	add	esi, edi
; Line 10426
	test	ebx, ebx
	je	SHORT $LN23@sqlite3IsN
	mov	DWORD PTR [ebx], 0
$LN23@sqlite3IsN:
; Line 10427
	movzx	eax, BYTE PTR [esi]
	push	eax
	call	_isdigit
	add	esp, 4
	test	eax, eax
	je	SHORT $LN14@sqlite3IsN
$LL15@sqlite3IsN:
	movzx	ecx, BYTE PTR [esi+edi]
	add	esi, edi
	push	ecx
	call	_isdigit
	add	esp, 4
	test	eax, eax
	jne	SHORT $LL15@sqlite3IsN
$LN14@sqlite3IsN:
; Line 10428
	cmp	BYTE PTR [esi], 46			; 0000002eH
	jne	SHORT $LN30@sqlite3IsN
; Line 10430
	movzx	edx, BYTE PTR [esi+edi]
	add	esi, edi
	push	edx
	call	_isdigit
	add	esp, 4
	test	eax, eax
	je	SHORT $LN31@sqlite3IsN
; Line 10431
	movzx	eax, BYTE PTR [esi]
	push	eax
	call	_isdigit
	add	esp, 4
	test	eax, eax
	je	SHORT $LN10@sqlite3IsN
	npad	1
$LL11@sqlite3IsN:
	movzx	ecx, BYTE PTR [esi+edi]
	add	esi, edi
	push	ecx
	call	_isdigit
	add	esp, 4
	test	eax, eax
	jne	SHORT $LL11@sqlite3IsN
$LN10@sqlite3IsN:
; Line 10432
	test	ebx, ebx
	je	SHORT $LN30@sqlite3IsN
	mov	DWORD PTR [ebx], 1
$LN30@sqlite3IsN:
; Line 10434
	mov	al, BYTE PTR [esi]
	cmp	al, 101					; 00000065H
	je	SHORT $LN7@sqlite3IsN
	cmp	al, 69					; 00000045H
	jne	SHORT $LN1@sqlite3IsN
$LN7@sqlite3IsN:
; Line 10436
	mov	al, BYTE PTR [esi+edi]
	add	esi, edi
	cmp	al, 43					; 0000002bH
	je	SHORT $LN5@sqlite3IsN
	cmp	al, 45					; 0000002dH
	jne	SHORT $LN6@sqlite3IsN
$LN5@sqlite3IsN:
	add	esi, edi
$LN6@sqlite3IsN:
; Line 10437
	movzx	edx, BYTE PTR [esi]
	push	edx
	call	_isdigit
	add	esp, 4
	test	eax, eax
	je	$LN31@sqlite3IsN
; Line 10438
	movzx	eax, BYTE PTR [esi]
	push	eax
	call	_isdigit
	add	esp, 4
	test	eax, eax
	je	SHORT $LN2@sqlite3IsN
	npad	6
$LL3@sqlite3IsN:
	movzx	ecx, BYTE PTR [esi+edi]
	add	esi, edi
	push	ecx
	call	_isdigit
	add	esp, 4
	test	eax, eax
	jne	SHORT $LL3@sqlite3IsN
$LN2@sqlite3IsN:
; Line 10439
	test	ebx, ebx
	je	SHORT $LN1@sqlite3IsN
	mov	DWORD PTR [ebx], 1
$LN1@sqlite3IsN:
; Line 10441
	xor	eax, eax
	cmp	BYTE PTR [esi], al
	pop	edi
	sete	al
	pop	esi
; Line 10442
	ret	0
_sqlite3IsNumber ENDP
_TEXT	ENDS
PUBLIC	__real@40c3880000000000
PUBLIC	__real@4341c37937e08000
PUBLIC	__real@4d384f03e93ff9f5
;	COMDAT __real@40c3880000000000
CONST	SEGMENT
__real@40c3880000000000 DQ 040c3880000000000r	; 10000
CONST	ENDS
;	COMDAT __real@4341c37937e08000
CONST	SEGMENT
__real@4341c37937e08000 DQ 04341c37937e08000r	; 1e+016
CONST	ENDS
;	COMDAT __real@4d384f03e93ff9f5
CONST	SEGMENT
__real@4d384f03e93ff9f5 DQ 04d384f03e93ff9f5r	; 1e+064
; Function compile flags: /Ogtpy
CONST	ENDS
;	COMDAT _sqlite3AtoF
_TEXT	SEGMENT
_sign$ = -28						; size = 4
tv416 = -24						; size = 4
tv411 = -24						; size = 4
_zBegin$ = -20						; size = 4
_v1$ = -16						; size = 8
_scale$83032 = -8					; size = 8
_divisor$83023 = -8					; size = 8
_pResult$ = 8						; size = 4
_sqlite3AtoF PROC					; COMDAT
; _z$ = eax
; Line 10456
	push	ebp
	mov	ebp, esp
	and	esp, -8					; fffffff8H
	sub	esp, 28					; 0000001cH
; Line 10460
	fldz
	push	ebx
	push	esi
	fstp	QWORD PTR _v1$[esp+36]
	mov	esi, eax
; Line 10461
	movzx	eax, BYTE PTR [esi]
	push	edi
	mov	ebx, 1
	push	eax
	mov	DWORD PTR _sign$[esp+44], ebx
	mov	DWORD PTR _zBegin$[esp+44], esi
	call	_isspace
	add	esp, 4
	test	eax, eax
	je	SHORT $LN26@sqlite3Ato
$LL27@sqlite3Ato:
	movzx	ecx, BYTE PTR [esi+ebx]
	add	esi, ebx
	push	ecx
	call	_isspace
	add	esp, 4
	test	eax, eax
	jne	SHORT $LL27@sqlite3Ato
$LN26@sqlite3Ato:
; Line 10462
	mov	al, BYTE PTR [esi]
	cmp	al, 45					; 0000002dH
	jne	SHORT $LN25@sqlite3Ato
; Line 10463
	mov	DWORD PTR _sign$[esp+40], -1
; Line 10464
	jmp	SHORT $LN98@sqlite3Ato
$LN25@sqlite3Ato:
; Line 10465
	cmp	al, 43					; 0000002bH
	jne	SHORT $LN33@sqlite3Ato
$LN98@sqlite3Ato:
; Line 10466
	add	esi, ebx
$LN33@sqlite3Ato:
; Line 10468
	movzx	edx, BYTE PTR [esi]
	push	edx
	call	_isdigit
	add	esp, 4
	test	eax, eax
	je	SHORT $LN21@sqlite3Ato
$LN22@sqlite3Ato:
; Line 10469
	movsx	eax, BYTE PTR [esi]
	movzx	ecx, BYTE PTR [esi+ebx]
	sub	eax, 48					; 00000030H
	mov	DWORD PTR tv416[esp+40], eax
; Line 10470
	add	esi, ebx
	push	ecx
	fild	DWORD PTR tv416[esp+44]
	fld	QWORD PTR _v1$[esp+44]
	fmul	QWORD PTR __real@4024000000000000
	faddp	ST(1), ST(0)
	fstp	QWORD PTR _v1$[esp+44]
	call	_isdigit
	add	esp, 4
	test	eax, eax
	jne	SHORT $LN22@sqlite3Ato
$LN21@sqlite3Ato:
; Line 10472
	cmp	BYTE PTR [esi], 46			; 0000002eH
	jne	SHORT $LN52@sqlite3Ato
; Line 10475
	movzx	edx, BYTE PTR [esi+ebx]
	fld1
	add	esi, ebx
	fstp	QWORD PTR _divisor$83023[esp+40]
	push	edx
	call	_isdigit
	add	esp, 4
	test	eax, eax
	je	SHORT $LN18@sqlite3Ato
	npad	7
$LL19@sqlite3Ato:
; Line 10476
	movsx	eax, BYTE PTR [esi]
	movzx	ecx, BYTE PTR [esi+ebx]
	sub	eax, 48					; 00000030H
	mov	DWORD PTR tv411[esp+40], eax
; Line 10478
	add	esi, ebx
	push	ecx
	fild	DWORD PTR tv411[esp+44]
	fld	QWORD PTR _v1$[esp+44]
	fld	QWORD PTR __real@4024000000000000
	fmul	ST(1), ST(0)
	fxch	ST(2)
	faddp	ST(1), ST(0)
	fstp	QWORD PTR _v1$[esp+44]
	fmul	QWORD PTR _divisor$83023[esp+44]
	fstp	QWORD PTR _divisor$83023[esp+44]
	call	_isdigit
	add	esp, 4
	test	eax, eax
	jne	SHORT $LL19@sqlite3Ato
$LN18@sqlite3Ato:
; Line 10480
	fld	QWORD PTR _v1$[esp+40]
	fdiv	QWORD PTR _divisor$83023[esp+40]
	fst	QWORD PTR _v1$[esp+40]
	jmp	SHORT $LN20@sqlite3Ato
$LN52@sqlite3Ato:
	fld	QWORD PTR _v1$[esp+40]
$LN20@sqlite3Ato:
; Line 10482
	mov	al, BYTE PTR [esi]
	cmp	al, 101					; 00000065H
	je	SHORT $LN61@sqlite3Ato
	cmp	al, 69					; 00000045H
	jne	$LN1@sqlite3Ato
$LN61@sqlite3Ato:
; Line 10487
	mov	al, BYTE PTR [esi+ebx]
	fstp	ST(0)
	fld1
	add	esi, ebx
	xor	edi, edi
	fstp	QWORD PTR _scale$83032[esp+40]
	cmp	al, 45					; 0000002dH
	jne	SHORT $LN15@sqlite3Ato
; Line 10488
	or	ebx, -1
; Line 10489
	add	esi, 1
	jmp	SHORT $LN35@sqlite3Ato
$LN15@sqlite3Ato:
; Line 10490
	cmp	al, 43					; 0000002bH
	jne	SHORT $LN35@sqlite3Ato
; Line 10491
	add	esi, ebx
$LN35@sqlite3Ato:
; Line 10493
	movzx	edx, BYTE PTR [esi]
	push	edx
	call	_isdigit
	add	esp, 4
	test	eax, eax
	je	$LN55@sqlite3Ato
$LL12@sqlite3Ato:
; Line 10494
	movsx	ecx, BYTE PTR [esi]
	movzx	edx, BYTE PTR [esi+1]
; Line 10495
	add	esi, 1
	lea	eax, DWORD PTR [edi+edi*4]
	push	edx
	lea	edi, DWORD PTR [ecx+eax*2-48]
	call	_isdigit
	add	esp, 4
	test	eax, eax
	jne	SHORT $LL12@sqlite3Ato
; Line 10497
	cmp	edi, 64					; 00000040H
	jl	SHORT $LN53@sqlite3Ato
	fld	QWORD PTR __real@4d384f03e93ff9f5
	mov	eax, edi
	fld	QWORD PTR _scale$83032[esp+40]
	shr	eax, 6
	mov	ecx, eax
	neg	ecx
	shl	ecx, 6
	add	edi, ecx
$LN10@sqlite3Ato:
	sub	eax, 1
	fmul	ST(0), ST(1)
	jne	SHORT $LN10@sqlite3Ato
	fstp	ST(1)
	jmp	SHORT $LN37@sqlite3Ato
$LN53@sqlite3Ato:
	fld	QWORD PTR _scale$83032[esp+40]
$LN37@sqlite3Ato:
; Line 10498
	cmp	edi, 16					; 00000010H
	jl	SHORT $LN38@sqlite3Ato
	fld	QWORD PTR __real@4341c37937e08000
	mov	eax, edi
	shr	eax, 4
	mov	edx, eax
	neg	edx
	shl	edx, 4
	add	edi, edx
$LN8@sqlite3Ato:
	sub	eax, 1
	fmul	ST(1), ST(0)
	jne	SHORT $LN8@sqlite3Ato
	fstp	ST(0)
$LN38@sqlite3Ato:
; Line 10499
	cmp	edi, 4
	jl	SHORT $LN39@sqlite3Ato
	fld	QWORD PTR __real@40c3880000000000
	mov	eax, edi
	shr	eax, 2
	mov	ecx, eax
	neg	ecx
	lea	edi, DWORD PTR [edi+ecx*4]
$LN6@sqlite3Ato:
	sub	eax, 1
	fmul	ST(1), ST(0)
	jne	SHORT $LN6@sqlite3Ato
	fstp	ST(0)
$LN39@sqlite3Ato:
; Line 10500
	cmp	edi, 8
	fld	QWORD PTR __real@4024000000000000
	jl	SHORT $LC49@sqlite3Ato
	mov	eax, edi
	shr	eax, 3
	mov	edx, eax
	neg	edx
	lea	edi, DWORD PTR [edi+edx*8]
$LN50@sqlite3Ato:
	sub	eax, 1
	fmul	ST(1), ST(0)
	fmul	ST(1), ST(0)
	fmul	ST(1), ST(0)
	fmul	ST(1), ST(0)
	fmul	ST(1), ST(0)
	fmul	ST(1), ST(0)
	fmul	ST(1), ST(0)
	fmul	ST(1), ST(0)
	jne	SHORT $LN50@sqlite3Ato
$LC49@sqlite3Ato:
	cmp	edi, 1
	jl	SHORT $LN90@sqlite3Ato
$LC4@sqlite3Ato:
	sub	edi, 1
	fmul	ST(1), ST(0)
	jne	SHORT $LC4@sqlite3Ato
$LN90@sqlite3Ato:
	fstp	ST(0)
$LN48@sqlite3Ato:
; Line 10501
	test	ebx, ebx
	jge	SHORT $LN2@sqlite3Ato
; Line 10502
	fdivr	QWORD PTR _v1$[esp+40]
; Line 10503
	jmp	SHORT $LN1@sqlite3Ato
$LN55@sqlite3Ato:
; Line 10500
	fld	QWORD PTR _scale$83032[esp+40]
	jmp	SHORT $LN48@sqlite3Ato
$LN2@sqlite3Ato:
; Line 10504
	fmul	QWORD PTR _v1$[esp+40]
$LN1@sqlite3Ato:
; Line 10507
	cmp	DWORD PTR _sign$[esp+40], 0
	jge	SHORT $LN31@sqlite3Ato
	fchs
$LN31@sqlite3Ato:
	mov	eax, DWORD PTR _pResult$[ebp]
	fstp	QWORD PTR [eax]
; Line 10512
	pop	edi
	mov	eax, esi
	sub	eax, DWORD PTR _zBegin$[esp+36]
	pop	esi
	pop	ebx
	mov	esp, ebp
	pop	ebp
	ret	0
_sqlite3AtoF ENDP
_TEXT	ENDS
PUBLIC	??_C@_0BE@EMNEAFKL@9223372036854775807?$AA@	; `string'
EXTRN	__allmul:PROC
;	COMDAT ??_C@_0BE@EMNEAFKL@9223372036854775807?$AA@
CONST	SEGMENT
??_C@_0BE@EMNEAFKL@9223372036854775807?$AA@ DB '9223372036854775807', 00H ; `string'
; Function compile flags: /Ogtpy
CONST	ENDS
;	COMDAT _sqlite3Atoi64
_TEXT	SEGMENT
_neg$ = -4						; size = 4
_zNum$ = 8						; size = 4
_pNum$ = 12						; size = 4
_sqlite3Atoi64 PROC					; COMDAT
; Line 10525
	push	ecx
	push	ebx
	push	ebp
	push	esi
; Line 10529
	mov	esi, DWORD PTR _zNum$[esp+12]
	movzx	eax, BYTE PTR [esi]
	push	edi
	push	eax
	xor	edi, edi
	xor	ebx, ebx
	call	_isspace
	add	esp, 4
	test	eax, eax
	je	SHORT $LN8@sqlite3Ato@2
	npad	3
$LL9@sqlite3Ato@2:
	movzx	ecx, BYTE PTR [esi+1]
	add	esi, 1
	push	ecx
	call	_isspace
	add	esp, 4
	test	eax, eax
	jne	SHORT $LL9@sqlite3Ato@2
	mov	DWORD PTR _zNum$[esp+16], esi
$LN8@sqlite3Ato@2:
; Line 10530
	mov	al, BYTE PTR [esi]
	cmp	al, 45					; 0000002dH
	jne	SHORT $LN7@sqlite3Ato@2
; Line 10531
	mov	DWORD PTR _neg$[esp+20], 1
; Line 10532
	jmp	SHORT $LN36@sqlite3Ato@2
$LN7@sqlite3Ato@2:
; Line 10533
	cmp	al, 43					; 0000002bH
; Line 10534
	mov	DWORD PTR _neg$[esp+20], edi
	jne	SHORT $LN4@sqlite3Ato@2
$LN36@sqlite3Ato@2:
; Line 10535
	add	esi, 1
	mov	DWORD PTR _zNum$[esp+16], esi
$LN4@sqlite3Ato@2:
; Line 10539
	movsx	esi, BYTE PTR [esi]
	xor	ebp, ebp
	cmp	esi, 48					; 00000030H
	jl	SHORT $LN1@sqlite3Ato@2
$LL32@sqlite3Ato@2:
	cmp	esi, 57					; 00000039H
	jg	SHORT $LN1@sqlite3Ato@2
; Line 10540
	push	0
	push	10					; 0000000aH
	push	edi
	push	ebx
	call	__allmul
	mov	ecx, eax
	mov	edi, edx
	mov	eax, esi
	cdq
	add	ecx, eax
	adc	edi, edx
	mov	edx, DWORD PTR _zNum$[esp+16]
	movsx	esi, BYTE PTR [edx+ebp+1]
	sub	ecx, 48					; 00000030H
	sbb	edi, 0
	add	ebp, 1
	cmp	esi, 48					; 00000030H
	mov	ebx, ecx
	jge	SHORT $LL32@sqlite3Ato@2
$LN1@sqlite3Ato@2:
; Line 10542
	cmp	DWORD PTR _neg$[esp+20], 0
	je	SHORT $LN12@sqlite3Ato@2
	neg	ebx
	adc	edi, 0
	neg	edi
$LN12@sqlite3Ato@2:
; Line 10544
	test	esi, esi
	mov	eax, DWORD PTR _pNum$[esp+16]
	mov	DWORD PTR [eax], ebx
	mov	DWORD PTR [eax+4], edi
	jne	$LN35@sqlite3Ato@2
	test	ebp, ebp
	jle	$LN35@sqlite3Ato@2
	cmp	ebp, 19					; 00000013H
	jl	$LN16@sqlite3Ato@2
	jne	$LN35@sqlite3Ato@2
	mov	edx, DWORD PTR _zNum$[esp+16]
	lea	eax, DWORD PTR [esi+19]
	mov	ecx, OFFSET ??_C@_0BE@EMNEAFKL@9223372036854775807?$AA@
$LL19@sqlite3Ato@2:
	mov	esi, DWORD PTR [edx]
	cmp	esi, DWORD PTR [ecx]
	jne	SHORT $LN33@sqlite3Ato@2
	sub	eax, 4
	add	ecx, 4
	add	edx, 4
	cmp	eax, 4
	jae	SHORT $LL19@sqlite3Ato@2
	test	eax, eax
	je	SHORT $LN21@sqlite3Ato@2
$LN33@sqlite3Ato@2:
	movzx	edi, BYTE PTR [ecx]
	movzx	esi, BYTE PTR [edx]
	sub	esi, edi
	jne	SHORT $LN34@sqlite3Ato@2
	sub	eax, 1
	add	ecx, 1
	add	edx, 1
	test	eax, eax
	je	SHORT $LN21@sqlite3Ato@2
	movzx	edi, BYTE PTR [ecx]
	movzx	esi, BYTE PTR [edx]
	sub	esi, edi
	jne	SHORT $LN34@sqlite3Ato@2
	sub	eax, 1
	add	ecx, 1
	add	edx, 1
	test	eax, eax
	je	SHORT $LN21@sqlite3Ato@2
	movzx	edi, BYTE PTR [ecx]
	movzx	esi, BYTE PTR [edx]
	sub	esi, edi
	jne	SHORT $LN34@sqlite3Ato@2
	sub	eax, 1
	add	ecx, 1
	add	edx, 1
	test	eax, eax
	je	SHORT $LN21@sqlite3Ato@2
	movzx	eax, BYTE PTR [ecx]
	movzx	esi, BYTE PTR [edx]
	sub	esi, eax
	je	SHORT $LN21@sqlite3Ato@2
$LN34@sqlite3Ato@2:
	test	esi, esi
	mov	eax, 1
	jg	SHORT $LN23@sqlite3Ato@2
	or	eax, -1
	jmp	SHORT $LN23@sqlite3Ato@2
$LN21@sqlite3Ato@2:
	xor	eax, eax
$LN23@sqlite3Ato@2:
	test	eax, eax
	jg	SHORT $LN35@sqlite3Ato@2
$LN16@sqlite3Ato@2:
	pop	edi
	pop	esi
	pop	ebp
	mov	eax, 1
	pop	ebx
; Line 10545
	pop	ecx
	ret	0
$LN35@sqlite3Ato@2:
	pop	edi
	pop	esi
	pop	ebp
; Line 10544
	xor	eax, eax
	pop	ebx
; Line 10545
	pop	ecx
	ret	0
_sqlite3Atoi64 ENDP
_TEXT	ENDS
PUBLIC	??_C@_0L@KLDLBCKA@2147483647?$AA@		; `string'
;	COMDAT ??_C@_0L@KLDLBCKA@2147483647?$AA@
CONST	SEGMENT
??_C@_0L@KLDLBCKA@2147483647?$AA@ DB '2147483647', 00H	; `string'
; Function compile flags: /Ogtpy
CONST	ENDS
;	COMDAT _sqlite3FitsIn32Bits
_TEXT	SEGMENT
_sqlite3FitsIn32Bits PROC				; COMDAT
; _zNum$ = edx
; Line 10560
	mov	al, BYTE PTR [edx]
	cmp	al, 45					; 0000002dH
	je	SHORT $LN4@sqlite3Fit
	cmp	al, 43					; 0000002bH
	jne	SHORT $LN5@sqlite3Fit
$LN4@sqlite3Fit:
	add	edx, 1
$LN5@sqlite3Fit:
; Line 10561
	movsx	eax, BYTE PTR [edx]
	xor	ecx, ecx
	cmp	eax, 48					; 00000030H
	jl	$LN9@sqlite3Fit
	npad	5
$LL3@sqlite3Fit:
	cmp	eax, 57					; 00000039H
	jg	SHORT $LN1@sqlite3Fit
	movsx	eax, BYTE PTR [ecx+edx+1]
	add	ecx, 1
	cmp	eax, 48					; 00000030H
	jge	SHORT $LL3@sqlite3Fit
$LN1@sqlite3Fit:
; Line 10562
	cmp	ecx, 10					; 0000000aH
	jl	$LN9@sqlite3Fit
	jne	$LN8@sqlite3Fit
	push	esi
	mov	eax, 10					; 0000000aH
	mov	ecx, OFFSET ??_C@_0L@KLDLBCKA@2147483647?$AA@
	push	edi
	npad	3
$LL12@sqlite3Fit:
	mov	esi, DWORD PTR [edx]
	cmp	esi, DWORD PTR [ecx]
	jne	SHORT $LN13@sqlite3Fit
	sub	eax, 4
	add	ecx, 4
	add	edx, 4
	cmp	eax, 4
	jae	SHORT $LL12@sqlite3Fit
	test	eax, eax
	je	SHORT $LN14@sqlite3Fit
$LN13@sqlite3Fit:
	movzx	esi, BYTE PTR [edx]
	movzx	edi, BYTE PTR [ecx]
	sub	esi, edi
	jne	SHORT $LN15@sqlite3Fit
	sub	eax, 1
	add	ecx, 1
	add	edx, 1
	test	eax, eax
	je	SHORT $LN14@sqlite3Fit
	movzx	esi, BYTE PTR [edx]
	movzx	edi, BYTE PTR [ecx]
	sub	esi, edi
	jne	SHORT $LN15@sqlite3Fit
	sub	eax, 1
	add	ecx, 1
	add	edx, 1
	test	eax, eax
	je	SHORT $LN14@sqlite3Fit
	movzx	esi, BYTE PTR [edx]
	movzx	edi, BYTE PTR [ecx]
	sub	esi, edi
	jne	SHORT $LN15@sqlite3Fit
	sub	eax, 1
	add	ecx, 1
	add	edx, 1
	test	eax, eax
	je	SHORT $LN14@sqlite3Fit
	movzx	esi, BYTE PTR [edx]
	movzx	eax, BYTE PTR [ecx]
	sub	esi, eax
	je	SHORT $LN14@sqlite3Fit
$LN15@sqlite3Fit:
	test	esi, esi
	mov	eax, 1
	jg	SHORT $LN16@sqlite3Fit
	or	eax, -1
	jmp	SHORT $LN16@sqlite3Fit
$LN14@sqlite3Fit:
	xor	eax, eax
$LN16@sqlite3Fit:
	test	eax, eax
	pop	edi
	pop	esi
	jle	SHORT $LN9@sqlite3Fit
$LN8@sqlite3Fit:
	xor	eax, eax
; Line 10563
	ret	0
$LN9@sqlite3Fit:
; Line 10562
	mov	eax, 1
; Line 10563
	ret	0
_sqlite3FitsIn32Bits ENDP
_TEXT	ENDS
EXTRN	_atoi:PROC
; Function compile flags: /Ogtpy
;	COMDAT _sqlite3GetInt32
_TEXT	SEGMENT
_pValue$ = 8						; size = 4
_sqlite3GetInt32 PROC					; COMDAT
; _zNum$ = esi
; Line 10570
	mov	edx, esi
	call	_sqlite3FitsIn32Bits
	test	eax, eax
	je	SHORT $LN1@sqlite3Get
; Line 10571
	push	esi
	call	_atoi
	mov	ecx, DWORD PTR _pValue$[esp]
	mov	DWORD PTR [ecx], eax
	add	esp, 4
; Line 10572
	mov	eax, 1
; Line 10575
	ret	0
$LN1@sqlite3Get:
; Line 10574
	xor	eax, eax
; Line 10575
	ret	0
_sqlite3GetInt32 ENDP
; Function compile flags: /Ogtpy
_TEXT	ENDS
;	COMDAT _sqlite3FitsIn64Bits
_TEXT	SEGMENT
_sqlite3FitsIn64Bits PROC				; COMDAT
; _zNum$ = edx
; Line 10590
	mov	al, BYTE PTR [edx]
	cmp	al, 45					; 0000002dH
	je	SHORT $LN4@sqlite3Fit@2
	cmp	al, 43					; 0000002bH
	jne	SHORT $LN5@sqlite3Fit@2
$LN4@sqlite3Fit@2:
	add	edx, 1
$LN5@sqlite3Fit@2:
; Line 10591
	movsx	eax, BYTE PTR [edx]
	xor	ecx, ecx
	cmp	eax, 48					; 00000030H
	jl	$LN9@sqlite3Fit@2
	npad	5
$LL3@sqlite3Fit@2:
	cmp	eax, 57					; 00000039H
	jg	SHORT $LN1@sqlite3Fit@2
	movsx	eax, BYTE PTR [ecx+edx+1]
	add	ecx, 1
	cmp	eax, 48					; 00000030H
	jge	SHORT $LL3@sqlite3Fit@2
$LN1@sqlite3Fit@2:
; Line 10592
	cmp	ecx, 19					; 00000013H
	jl	$LN9@sqlite3Fit@2
	jne	$LN8@sqlite3Fit@2
	push	esi
	mov	eax, 19					; 00000013H
	mov	ecx, OFFSET ??_C@_0BE@EMNEAFKL@9223372036854775807?$AA@
	push	edi
	npad	3
$LL12@sqlite3Fit@2:
	mov	esi, DWORD PTR [edx]
	cmp	esi, DWORD PTR [ecx]
	jne	SHORT $LN13@sqlite3Fit@2
	sub	eax, 4
	add	ecx, 4
	add	edx, 4
	cmp	eax, 4
	jae	SHORT $LL12@sqlite3Fit@2
	test	eax, eax
	je	SHORT $LN14@sqlite3Fit@2
$LN13@sqlite3Fit@2:
	movzx	esi, BYTE PTR [edx]
	movzx	edi, BYTE PTR [ecx]
	sub	esi, edi
	jne	SHORT $LN15@sqlite3Fit@2
	sub	eax, 1
	add	ecx, 1
	add	edx, 1
	test	eax, eax
	je	SHORT $LN14@sqlite3Fit@2
	movzx	esi, BYTE PTR [edx]
	movzx	edi, BYTE PTR [ecx]
	sub	esi, edi
	jne	SHORT $LN15@sqlite3Fit@2
	sub	eax, 1
	add	ecx, 1
	add	edx, 1
	test	eax, eax
	je	SHORT $LN14@sqlite3Fit@2
	movzx	esi, BYTE PTR [edx]
	movzx	edi, BYTE PTR [ecx]
	sub	esi, edi
	jne	SHORT $LN15@sqlite3Fit@2
	sub	eax, 1
	add	ecx, 1
	add	edx, 1
	test	eax, eax
	je	SHORT $LN14@sqlite3Fit@2
	movzx	esi, BYTE PTR [edx]
	movzx	eax, BYTE PTR [ecx]
	sub	esi, eax
	je	SHORT $LN14@sqlite3Fit@2
$LN15@sqlite3Fit@2:
	test	esi, esi
	mov	eax, 1
	jg	SHORT $LN16@sqlite3Fit@2
	or	eax, -1
	jmp	SHORT $LN16@sqlite3Fit@2
$LN14@sqlite3Fit@2:
	xor	eax, eax
$LN16@sqlite3Fit@2:
	test	eax, eax
	pop	edi
	pop	esi
	jle	SHORT $LN9@sqlite3Fit@2
$LN8@sqlite3Fit@2:
	xor	eax, eax
; Line 10593
	ret	0
$LN9@sqlite3Fit@2:
; Line 10592
	mov	eax, 1
; Line 10593
	ret	0
_sqlite3FitsIn64Bits ENDP
; Function compile flags: /Ogtpy
_TEXT	ENDS
;	COMDAT _sqlite3SafetyCheck
_TEXT	SEGMENT
_sqlite3SafetyCheck PROC				; COMDAT
; _db$ = eax
; Line 10607
	test	eax, eax
	jne	SHORT $LN2@sqlite3Saf
$LN5@sqlite3Saf:
	mov	eax, 1
; Line 10613
	ret	0
$LN2@sqlite3Saf:
; Line 10608
	mov	eax, DWORD PTR [eax+48]
; Line 10611
	cmp	eax, -1623446221			; 9f3c2d33H
	je	SHORT $LN1@sqlite3Saf
	cmp	eax, -1607883113			; a029a697H
	je	SHORT $LN1@sqlite3Saf
	cmp	eax, -264537850				; f03b7906H
	jne	SHORT $LN5@sqlite3Saf
$LN1@sqlite3Saf:
; Line 10612
	xor	eax, eax
; Line 10613
	ret	0
_sqlite3SafetyCheck ENDP
_TEXT	ENDS
PUBLIC	__$ArrayPad$
EXTRN	___security_cookie:DWORD
EXTRN	@__security_check_cookie@4:PROC
; Function compile flags: /Ogtpy
;	COMDAT _sqlite3PutVarint
_TEXT	SEGMENT
_buf$ = -16						; size = 10
__$ArrayPad$ = -4					; size = 4
_v$ = 8							; size = 8
_sqlite3PutVarint PROC					; COMDAT
; _p$ = ecx
; Line 10644
	sub	esp, 16					; 00000010H
	mov	eax, DWORD PTR ___security_cookie
	xor	eax, esp
	mov	DWORD PTR __$ArrayPad$[esp+16], eax
; Line 10647
	mov	edx, DWORD PTR _v$[esp+16]
	push	ebx
	push	esi
	mov	esi, edx
	xor	eax, eax
	and	esi, -16777216				; ff000000H
	or	eax, esi
; Line 10648
	mov	eax, DWORD PTR _v$[esp+20]
	je	$LN10@sqlite3Put
	mov	BYTE PTR [ecx+8], al
; Line 10649
	shrd	eax, edx, 8
; Line 10651
	mov	bl, al
	or	bl, 128					; 00000080H
	shr	edx, 8
; Line 10652
	shrd	eax, edx, 7
	mov	BYTE PTR [ecx+7], bl
	mov	bl, al
	or	bl, 128					; 00000080H
	shr	edx, 7
	shrd	eax, edx, 7
	mov	BYTE PTR [ecx+6], bl
	mov	bl, al
	shr	edx, 7
	shrd	eax, edx, 7
	or	bl, 128					; 00000080H
	mov	BYTE PTR [ecx+5], bl
	mov	bl, al
	shr	edx, 7
	shrd	eax, edx, 7
	or	bl, 128					; 00000080H
	mov	BYTE PTR [ecx+4], bl
	mov	bl, al
	shr	edx, 7
	shrd	eax, edx, 7
	or	bl, 128					; 00000080H
	mov	BYTE PTR [ecx+3], bl
	mov	bl, al
	shr	edx, 7
	shrd	eax, edx, 7
	or	bl, 128					; 00000080H
	mov	BYTE PTR [ecx+2], bl
	mov	bl, al
	shr	edx, 7
	shrd	eax, edx, 7
	or	bl, 128					; 00000080H
	shr	edx, 7
	or	al, 128					; 00000080H
	pop	esi
	mov	BYTE PTR [ecx+1], bl
	mov	BYTE PTR [ecx], al
; Line 10654
	mov	eax, 9
	pop	ebx
; Line 10667
	mov	ecx, DWORD PTR __$ArrayPad$[esp+16]
	xor	ecx, esp
	call	@__security_check_cookie@4
	add	esp, 16					; 00000010H
	ret	0
$LN10@sqlite3Put:
; Line 10656
	xor	esi, esi
	push	edi
	npad	6
$LL6@sqlite3Put:
; Line 10658
	mov	bl, al
; Line 10659
	shrd	eax, edx, 7
	or	bl, 128					; 00000080H
	mov	BYTE PTR _buf$[esp+esi+28], bl
	shr	edx, 7
; Line 10660
	mov	edi, eax
	add	esi, 1
	or	edi, edx
	jne	SHORT $LL6@sqlite3Put
; Line 10661
	and	BYTE PTR _buf$[esp+28], 127		; 0000007fH
; Line 10663
	lea	eax, DWORD PTR [esi-1]
	test	eax, eax
	pop	edi
	jl	SHORT $LN1@sqlite3Put
$LL3@sqlite3Put:
; Line 10664
	mov	dl, BYTE PTR _buf$[esp+eax+24]
	mov	BYTE PTR [ecx], dl
	sub	eax, 1
	add	ecx, 1
	test	eax, eax
	jge	SHORT $LL3@sqlite3Put
$LN1@sqlite3Put:
; Line 10667
	mov	ecx, DWORD PTR __$ArrayPad$[esp+24]
	mov	eax, esi
	pop	esi
	pop	ebx
	xor	ecx, esp
	call	@__security_check_cookie@4
	add	esp, 16					; 00000010H
	ret	0
_sqlite3PutVarint ENDP
; Function compile flags: /Ogtpy
_TEXT	ENDS
;	COMDAT _sqlite3GetVarint
_TEXT	SEGMENT
_p$ = 8							; size = 4
_v$ = 12						; size = 4
_sqlite3GetVarint PROC					; COMDAT
; Line 10673
	push	ebp
	mov	ebp, DWORD PTR _p$[esp]
; Line 10678
	mov	cl, BYTE PTR [ebp]
	test	cl, cl
	js	SHORT $LN8@sqlite3Get@2
; Line 10679
	movzx	eax, cl
	mov	ecx, DWORD PTR _v$[esp]
	cdq
	mov	DWORD PTR [ecx], eax
	mov	DWORD PTR [ecx+4], edx
; Line 10680
	mov	eax, 1
	pop	ebp
; Line 10709
	ret	0
$LN8@sqlite3Get@2:
; Line 10683
	mov	al, BYTE PTR [ebp+1]
	and	ecx, 127				; 0000007fH
; Line 10684
	shl	ecx, 7
	test	al, al
	js	SHORT $LN7@sqlite3Get@2
	movzx	eax, al
	or	ecx, eax
	mov	eax, DWORD PTR _v$[esp]
	mov	DWORD PTR [eax], ecx
	mov	DWORD PTR [eax+4], 0
; Line 10685
	mov	eax, 2
	pop	ebp
; Line 10709
	ret	0
$LN7@sqlite3Get@2:
; Line 10687
	and	eax, 127				; 0000007fH
	or	eax, ecx
	mov	ecx, eax
; Line 10688
	mov	al, BYTE PTR [ebp+2]
; Line 10689
	shl	ecx, 7
	test	al, al
	js	SHORT $LN6@sqlite3Get@2
	movzx	edx, al
	mov	eax, DWORD PTR _v$[esp]
	or	ecx, edx
	mov	DWORD PTR [eax], ecx
	mov	DWORD PTR [eax+4], 0
; Line 10690
	mov	eax, 3
	pop	ebp
; Line 10709
	ret	0
$LN6@sqlite3Get@2:
; Line 10692
	and	eax, 127				; 0000007fH
	or	eax, ecx
; Line 10693
	mov	cl, BYTE PTR [ebp+3]
; Line 10694
	shl	eax, 7
	test	cl, cl
	js	SHORT $LN5@sqlite3Get@2
	movzx	ecx, cl
	or	eax, ecx
	mov	ecx, DWORD PTR _v$[esp]
	mov	DWORD PTR [ecx], eax
	mov	DWORD PTR [ecx+4], 0
; Line 10695
	mov	eax, 4
	pop	ebp
; Line 10709
	ret	0
$LN5@sqlite3Get@2:
	push	ebx
	push	esi
; Line 10697
	and	ecx, 127				; 0000007fH
	push	edi
	or	ecx, eax
	xor	edi, edi
; Line 10698
	mov	esi, 4
$LL4@sqlite3Get@2:
; Line 10700
	mov	bl, BYTE PTR [esi+ebp]
	add	esi, 1
; Line 10701
	cmp	esi, 9
	je	SHORT $LN12@sqlite3Get@2
; Line 10705
	mov	dl, bl
	and	dl, 127					; 0000007fH
	shld	edi, ecx, 7
	movzx	eax, dl
	cdq
	shl	ecx, 7
	or	eax, ecx
	or	edx, edi
; Line 10706
	test	bl, bl
	mov	ecx, eax
	mov	edi, edx
	js	SHORT $LL4@sqlite3Get@2
; Line 10707
	mov	eax, DWORD PTR _v$[esp+12]
	mov	DWORD PTR [eax+4], edi
	pop	edi
	mov	DWORD PTR [eax], ecx
; Line 10708
	mov	eax, esi
	pop	esi
	pop	ebx
	pop	ebp
; Line 10709
	ret	0
$LN12@sqlite3Get@2:
; Line 10702
	shld	edi, ecx, 8
	movzx	eax, bl
	cdq
	shl	ecx, 8
	or	ecx, eax
; Line 10707
	mov	eax, DWORD PTR _v$[esp+12]
	or	edi, edx
	mov	DWORD PTR [eax+4], edi
	pop	edi
	mov	DWORD PTR [eax], ecx
; Line 10708
	mov	eax, esi
	pop	esi
	pop	ebx
	pop	ebp
; Line 10709
	ret	0
_sqlite3GetVarint ENDP
; Function compile flags: /Ogtpy
_TEXT	ENDS
;	COMDAT _sqlite3GetVarint32
_TEXT	SEGMENT
_v$ = 8							; size = 4
_sqlite3GetVarint32 PROC				; COMDAT
; _p$ = edi
; Line 10719
	mov	cl, BYTE PTR [edi]
	test	cl, cl
	push	ebp
	mov	ebp, DWORD PTR _v$[esp]
	jl	SHORT $LN6@sqlite3Get@3
; Line 10720
	movzx	eax, cl
	mov	DWORD PTR [ebp], eax
; Line 10721
	mov	eax, 1
	pop	ebp
; Line 10735
	ret	0
$LN6@sqlite3Get@3:
; Line 10724
	mov	al, BYTE PTR [edi+1]
	and	ecx, 127				; 0000007fH
; Line 10725
	shl	ecx, 7
	test	al, al
	jl	SHORT $LN5@sqlite3Get@3
	movzx	edx, al
	or	ecx, edx
	mov	DWORD PTR [ebp], ecx
; Line 10726
	mov	eax, 2
	pop	ebp
; Line 10735
	ret	0
$LN5@sqlite3Get@3:
; Line 10728
	and	eax, 127				; 0000007fH
	or	eax, ecx
	push	esi
	mov	esi, eax
; Line 10729
	mov	eax, 2
$LL4@sqlite3Get@3:
; Line 10731
	mov	cl, BYTE PTR [eax+edi]
	movzx	edx, cl
	and	edx, 127				; 0000007fH
	shl	esi, 7
	or	esi, edx
	add	eax, 1
; Line 10732
	test	cl, cl
	jns	SHORT $LN1@sqlite3Get@3
	cmp	eax, 9
	jl	SHORT $LL4@sqlite3Get@3
$LN1@sqlite3Get@3:
; Line 10733
	mov	DWORD PTR [ebp], esi
	pop	esi
	pop	ebp
; Line 10735
	ret	0
_sqlite3GetVarint32 ENDP
; Function compile flags: /Ogtpy
_TEXT	ENDS
;	COMDAT _sqlite3VarintLen
_TEXT	SEGMENT
_v$ = 8							; size = 8
_sqlite3VarintLen PROC					; COMDAT
; Line 10742
	mov	edx, DWORD PTR _v$[esp]
	mov	ecx, DWORD PTR _v$[esp-4]
	xor	eax, eax
	push	esi
	npad	5
$LL4@sqlite3Var:
; Line 10745
	shrd	ecx, edx, 7
	shr	edx, 7
; Line 10746
	mov	esi, ecx
	add	eax, 1
	or	esi, edx
	je	SHORT $LN1@sqlite3Var
	cmp	eax, 9
	jl	SHORT $LL4@sqlite3Var
$LN1@sqlite3Var:
	pop	esi
; Line 10748
	ret	0
_sqlite3VarintLen ENDP
; Function compile flags: /Ogtpy
_TEXT	ENDS
;	COMDAT _sqlite3Get4byte
_TEXT	SEGMENT
_sqlite3Get4byte PROC					; COMDAT
; _p$ = eax
; Line 10755
	movzx	edx, BYTE PTR [eax+2]
	xor	ecx, ecx
	mov	ch, BYTE PTR [eax]
	mov	cl, BYTE PTR [eax+1]
	movzx	eax, BYTE PTR [eax+3]
	shl	ecx, 8
	or	ecx, edx
	shl	ecx, 8
	or	eax, ecx
; Line 10756
	ret	0
_sqlite3Get4byte ENDP
; Function compile flags: /Ogtpy
_TEXT	ENDS
;	COMDAT _sqlite3Put4byte
_TEXT	SEGMENT
_sqlite3Put4byte PROC					; COMDAT
; _p$ = ecx
; _v$ = eax
; Line 10758
	mov	edx, eax
	shr	edx, 24					; 00000018H
	mov	BYTE PTR [ecx], dl
; Line 10759
	mov	edx, eax
	shr	edx, 16					; 00000010H
	mov	BYTE PTR [ecx+1], dl
; Line 10760
	mov	edx, eax
	shr	edx, 8
	mov	BYTE PTR [ecx+2], dl
; Line 10761
	mov	BYTE PTR [ecx+3], al
; Line 10762
	ret	0
_sqlite3Put4byte ENDP
; Function compile flags: /Ogtpy
_TEXT	ENDS
;	COMDAT _hexToInt
_TEXT	SEGMENT
_hexToInt PROC						; COMDAT
; _h$ = eax
; Line 10772
	lea	ecx, DWORD PTR [eax-48]
	cmp	ecx, 9
	ja	SHORT $LN4@hexToInt
; Line 10773
	add	eax, -48				; ffffffd0H
; Line 10780
	ret	0
$LN4@hexToInt:
; Line 10774
	lea	edx, DWORD PTR [eax-97]
	cmp	edx, 5
	ja	SHORT $LN2@hexToInt
; Line 10775
	add	eax, -87				; ffffffa9H
; Line 10780
	ret	0
$LN2@hexToInt:
; Line 10778
	add	eax, -55				; ffffffc9H
; Line 10780
	ret	0
_hexToInt ENDP
; Function compile flags: /Ogtpy
_TEXT	ENDS
;	COMDAT _sqlite3SafetyOn
_TEXT	SEGMENT
_sqlite3SafetyOn PROC					; COMDAT
; _db$ = eax
; Line 10833
	mov	ecx, DWORD PTR [eax+48]
	cmp	ecx, -1607883113			; a029a697H
	jne	SHORT $LN3@sqlite3Saf@2
; Line 10834
	mov	DWORD PTR [eax+48], -264537850		; f03b7906H
; Line 10835
	xor	eax, eax
; Line 10841
	ret	0
$LN3@sqlite3Saf@2:
; Line 10836
	cmp	ecx, -264537850				; f03b7906H
	jne	SHORT $LN1@sqlite3Saf@2
; Line 10837
	mov	DWORD PTR [eax+48], -1254786768		; b5357930H
; Line 10838
	mov	DWORD PTR [eax+152], 1
$LN1@sqlite3Saf@2:
; Line 10840
	mov	eax, 1
; Line 10841
	ret	0
_sqlite3SafetyOn ENDP
; Function compile flags: /Ogtpy
_TEXT	ENDS
;	COMDAT _sqlite3SafetyOff
_TEXT	SEGMENT
_sqlite3SafetyOff PROC					; COMDAT
; _db$ = eax
; Line 10849
	cmp	DWORD PTR [eax+48], -264537850		; f03b7906H
	jne	SHORT $LN2@sqlite3Saf@3
; Line 10850
	mov	DWORD PTR [eax+48], -1607883113		; a029a697H
; Line 10851
	xor	eax, eax
; Line 10857
	ret	0
$LN2@sqlite3Saf@3:
; Line 10853
	mov	DWORD PTR [eax+48], -1254786768		; b5357930H
; Line 10854
	mov	DWORD PTR [eax+152], 1
; Line 10855
	mov	eax, 1
; Line 10857
	ret	0
_sqlite3SafetyOff ENDP
; Function compile flags: /Ogtpy
_TEXT	ENDS
;	COMDAT _sqlite3HashClear
_TEXT	SEGMENT
_sqlite3HashClear PROC					; COMDAT
; _pH$ = esi
; Line 10947
	mov	eax, DWORD PTR [esi+24]
	push	ebx
	xor	ebx, ebx
	cmp	eax, ebx
	push	edi
	mov	edi, DWORD PTR [esi+8]
	mov	DWORD PTR [esi+8], ebx
	je	SHORT $LN4@sqlite3Has
	push	eax
	mov	eax, DWORD PTR [esi+16]
	call	eax
	add	esp, 4
$LN4@sqlite3Has:
; Line 10950
	cmp	edi, ebx
	mov	DWORD PTR [esi+24], ebx
	mov	DWORD PTR [esi+20], ebx
	je	SHORT $LN9@sqlite3Has
	push	ebp
$LL3@sqlite3Has:
; Line 10952
	cmp	BYTE PTR [esi+1], bl
	mov	ebp, DWORD PTR [edi]
	je	SHORT $LN1@sqlite3Has
	mov	eax, DWORD PTR [edi+12]
	cmp	eax, ebx
	je	SHORT $LN1@sqlite3Has
; Line 10953
	mov	ecx, DWORD PTR [esi+16]
	push	eax
	call	ecx
	add	esp, 4
$LN1@sqlite3Has:
; Line 10955
	mov	edx, DWORD PTR [esi+16]
	push	edi
	call	edx
	add	esp, 4
	cmp	ebp, ebx
; Line 10956
	mov	edi, ebp
	jne	SHORT $LL3@sqlite3Has
	pop	ebp
$LN9@sqlite3Has:
	pop	edi
; Line 10958
	mov	DWORD PTR [esi+4], ebx
	pop	ebx
; Line 10959
	ret	0
_sqlite3HashClear ENDP
; Function compile flags: /Ogtpy
_TEXT	ENDS
;	COMDAT _strHash
_TEXT	SEGMENT
_pKey$ = 8						; size = 4
_nKey$ = 12						; size = 4
_strHash PROC						; COMDAT
; Line 10994
	mov	ecx, DWORD PTR _nKey$[esp-4]
	push	esi
	mov	esi, DWORD PTR _pKey$[esp]
	xor	eax, eax
	test	ecx, ecx
	push	edi
	jg	SHORT $LL2@strHash
	mov	ecx, esi
	lea	edi, DWORD PTR [ecx+1]
$LL10@strHash:
	mov	dl, BYTE PTR [ecx]
	add	ecx, 1
	test	dl, dl
	jne	SHORT $LL10@strHash
	sub	ecx, edi
; Line 10995
	test	ecx, ecx
	jle	SHORT $LN1@strHash
$LL2@strHash:
; Line 10996
	movzx	edx, BYTE PTR [esi]
	movzx	edx, BYTE PTR _sqlite3UpperToLower[edx]
	lea	edi, DWORD PTR [eax*8]
	xor	edx, edi
; Line 10997
	sub	ecx, 1
	xor	eax, edx
	add	esi, 1
	test	ecx, ecx
	jg	SHORT $LL2@strHash
$LN1@strHash:
	pop	edi
; Line 10999
	and	eax, 2147483647				; 7fffffffH
	pop	esi
; Line 11000
	ret	0
_strHash ENDP
; Function compile flags: /Ogtpy
_TEXT	ENDS
;	COMDAT _strCompare
_TEXT	SEGMENT
_pKey1$ = 8						; size = 4
_n1$ = 12						; size = 4
_pKey2$ = 16						; size = 4
_n2$ = 20						; size = 4
_strCompare PROC					; COMDAT
; Line 11002
	mov	eax, DWORD PTR _n1$[esp-4]
	cmp	eax, DWORD PTR _n2$[esp-4]
	je	SHORT $LN1@strCompare
	mov	eax, 1
; Line 11004
	ret	0
$LN1@strCompare:
; Line 11003
	mov	edx, DWORD PTR _pKey2$[esp-4]
	mov	ecx, DWORD PTR _pKey1$[esp-4]
	jmp	_sqlite3StrNICmp
_strCompare ENDP
; Function compile flags: /Ogtpy
_TEXT	ENDS
;	COMDAT _binHash
_TEXT	SEGMENT
_pKey$ = 8						; size = 4
_nKey$ = 12						; size = 4
_binHash PROC						; COMDAT
; Line 11012
	mov	ecx, DWORD PTR _nKey$[esp-4]
	mov	edx, DWORD PTR _pKey$[esp-4]
	xor	eax, eax
	test	ecx, ecx
	jle	SHORT $LN6@binHash
	push	esi
	push	edi
$LL2@binHash:
; Line 11013
	movsx	edi, BYTE PTR [edx]
	lea	esi, DWORD PTR [eax*8]
	xor	esi, edi
	sub	ecx, 1
	xor	eax, esi
	add	edx, 1
	test	ecx, ecx
	jg	SHORT $LL2@binHash
	pop	edi
	pop	esi
$LN6@binHash:
; Line 11015
	and	eax, 2147483647				; 7fffffffH
; Line 11016
	ret	0
_binHash ENDP
; Function compile flags: /Ogtpy
_TEXT	ENDS
;	COMDAT _binCompare
_TEXT	SEGMENT
_pKey1$ = 8						; size = 4
_n1$ = 12						; size = 4
_pKey2$ = 16						; size = 4
_n2$ = 20						; size = 4
_binCompare PROC					; COMDAT
; Line 11018
	mov	eax, DWORD PTR _n1$[esp-4]
	cmp	eax, DWORD PTR _n2$[esp-4]
	je	SHORT $LN1@binCompare
	mov	eax, 1
; Line 11020
	ret	0
$LN1@binCompare:
; Line 11019
	cmp	eax, 4
	mov	ecx, DWORD PTR _pKey2$[esp-4]
	mov	edx, DWORD PTR _pKey1$[esp-4]
	push	esi
	push	edi
	jb	SHORT $LN12@binCompare
	npad	1
$LL5@binCompare:
	mov	esi, DWORD PTR [edx]
	cmp	esi, DWORD PTR [ecx]
	jne	SHORT $LN6@binCompare
	sub	eax, 4
	add	ecx, 4
	add	edx, 4
	cmp	eax, 4
	jae	SHORT $LL5@binCompare
$LN12@binCompare:
	test	eax, eax
	je	SHORT $LN7@binCompare
$LN6@binCompare:
	movzx	edi, BYTE PTR [ecx]
	movzx	esi, BYTE PTR [edx]
	sub	esi, edi
	jne	SHORT $LN8@binCompare
	sub	eax, 1
	add	ecx, 1
	add	edx, 1
	test	eax, eax
	je	SHORT $LN7@binCompare
	movzx	edi, BYTE PTR [ecx]
	movzx	esi, BYTE PTR [edx]
	sub	esi, edi
	jne	SHORT $LN8@binCompare
	sub	eax, 1
	add	ecx, 1
	add	edx, 1
	test	eax, eax
	je	SHORT $LN7@binCompare
	movzx	edi, BYTE PTR [ecx]
	movzx	esi, BYTE PTR [edx]
	sub	esi, edi
	jne	SHORT $LN8@binCompare
	sub	eax, 1
	add	ecx, 1
	add	edx, 1
	test	eax, eax
	je	SHORT $LN7@binCompare
	movzx	eax, BYTE PTR [ecx]
	movzx	esi, BYTE PTR [edx]
	sub	esi, eax
	je	SHORT $LN7@binCompare
$LN8@binCompare:
	test	esi, esi
	mov	eax, 1
	jg	SHORT $LN9@binCompare
	pop	edi
	or	eax, -1
	pop	esi
; Line 11020
	ret	0
$LN7@binCompare:
; Line 11019
	xor	eax, eax
$LN9@binCompare:
	pop	edi
	pop	esi
; Line 11020
	ret	0
_binCompare ENDP
; Function compile flags: /Ogtpy
_TEXT	ENDS
;	COMDAT _hashFunction
_TEXT	SEGMENT
_keyClass$ = 8						; size = 4
_hashFunction PROC					; COMDAT
; Line 11045
	cmp	DWORD PTR _keyClass$[esp-4], 3
; Line 11046
	mov	eax, OFFSET _strHash
	je	SHORT $LN1@hashFuncti
; Line 11049
	mov	eax, OFFSET _binHash
$LN1@hashFuncti:
; Line 11052
	ret	0
_hashFunction ENDP
; Function compile flags: /Ogtpy
_TEXT	ENDS
;	COMDAT _compareFunction
_TEXT	SEGMENT
_keyClass$ = 8						; size = 4
_compareFunction PROC					; COMDAT
; Line 11071
	cmp	DWORD PTR _keyClass$[esp-4], 3
; Line 11072
	mov	eax, OFFSET _strCompare
	je	SHORT $LN1@compareFun
; Line 11075
	mov	eax, OFFSET _binCompare
$LN1@compareFun:
; Line 11078
	ret	0
_compareFunction ENDP
; Function compile flags: /Ogtpy
_TEXT	ENDS
;	COMDAT _insertElement
_TEXT	SEGMENT
_insertElement PROC					; COMDAT
; _pH$ = esi
; _pEntry$ = edx
; _pNew$ = eax
; Line 11088
	mov	ecx, DWORD PTR [edx+4]
; Line 11089
	test	ecx, ecx
	je	SHORT $LN5@insertElem
	push	edi
; Line 11090
	mov	DWORD PTR [eax], ecx
; Line 11091
	mov	edi, DWORD PTR [ecx+4]
	mov	DWORD PTR [eax+4], edi
; Line 11092
	mov	edi, DWORD PTR [ecx+4]
	test	edi, edi
	je	SHORT $LN4@insertElem
	mov	DWORD PTR [edi], eax
; Line 11094
	mov	DWORD PTR [ecx+4], eax
; Line 11101
	add	DWORD PTR [edx], 1
	pop	edi
; Line 11102
	mov	DWORD PTR [edx+4], eax
; Line 11103
	ret	0
$LN4@insertElem:
; Line 11093
	mov	DWORD PTR [esi+8], eax
; Line 11094
	mov	DWORD PTR [ecx+4], eax
; Line 11101
	add	DWORD PTR [edx], 1
	pop	edi
; Line 11102
	mov	DWORD PTR [edx+4], eax
; Line 11103
	ret	0
$LN5@insertElem:
; Line 11096
	mov	ecx, DWORD PTR [esi+8]
	mov	DWORD PTR [eax], ecx
; Line 11097
	mov	ecx, DWORD PTR [esi+8]
	test	ecx, ecx
	je	SHORT $LN1@insertElem
	mov	DWORD PTR [ecx+4], eax
$LN1@insertElem:
; Line 11098
	mov	DWORD PTR [eax+4], 0
; Line 11099
	mov	DWORD PTR [esi+8], eax
; Line 11101
	add	DWORD PTR [edx], 1
; Line 11102
	mov	DWORD PTR [edx+4], eax
; Line 11103
	ret	0
_insertElement ENDP
; Function compile flags: /Ogtpy
_TEXT	ENDS
;	COMDAT _rehash
_TEXT	SEGMENT
_xHash$ = -8						; size = 4
tv187 = -4						; size = 4
_pH$ = 8						; size = 4
_rehash	PROC						; COMDAT
; _new_size$ = eax
; Line 11110
	sub	esp, 8
	push	ebx
	push	ebp
	mov	ebp, DWORD PTR _pH$[esp+12]
; Line 11116
	mov	ecx, DWORD PTR [ebp+12]
	mov	ebx, eax
	lea	eax, DWORD PTR [ebx*8]
	push	edi
	push	eax
	call	ecx
	mov	edi, eax
	add	esp, 4
; Line 11117
	test	edi, edi
	je	$LN1@rehash
; Line 11118
	mov	eax, DWORD PTR [ebp+24]
	test	eax, eax
	je	SHORT $LN4@rehash
	mov	edx, DWORD PTR [ebp+16]
	push	eax
	call	edx
	add	esp, 4
$LN4@rehash:
; Line 11121
	cmp	BYTE PTR [ebp], 3
	mov	DWORD PTR [ebp+24], edi
	mov	DWORD PTR [ebp+20], ebx
	mov	DWORD PTR _xHash$[esp+20], OFFSET _strHash
	je	SHORT $LN8@rehash
	mov	DWORD PTR _xHash$[esp+20], OFFSET _binHash
$LN8@rehash:
	push	esi
; Line 11122
	mov	esi, DWORD PTR [ebp+8]
	test	esi, esi
	mov	DWORD PTR [ebp+8], 0
	je	SHORT $LN22@rehash
	add	ebx, -1
	mov	DWORD PTR tv187[esp+24], ebx
$LL21@rehash:
; Line 11123
	mov	eax, DWORD PTR [esi+16]
	mov	ecx, DWORD PTR [esi+12]
	push	eax
	push	ecx
	call	DWORD PTR _xHash$[esp+32]
	and	eax, DWORD PTR tv187[esp+32]
; Line 11125
	mov	ecx, DWORD PTR [edi+eax*8+4]
	mov	ebx, DWORD PTR [esi]
	lea	edx, DWORD PTR [edi+eax*8+4]
	add	esp, 8
	test	ecx, ecx
	je	SHORT $LN16@rehash
	mov	DWORD PTR [esi], ecx
	mov	ebp, DWORD PTR [ecx+4]
	mov	DWORD PTR [esi+4], ebp
	mov	ebp, DWORD PTR [ecx+4]
	test	ebp, ebp
	je	SHORT $LN15@rehash
	mov	DWORD PTR [ebp], esi
	mov	ebp, DWORD PTR _pH$[esp+20]
	mov	DWORD PTR [ecx+4], esi
	jmp	SHORT $LN13@rehash
$LN15@rehash:
	mov	ebp, DWORD PTR _pH$[esp+20]
	mov	DWORD PTR [ebp+8], esi
	mov	DWORD PTR [ecx+4], esi
	jmp	SHORT $LN13@rehash
$LN16@rehash:
	mov	ecx, DWORD PTR [ebp+8]
	mov	DWORD PTR [esi], ecx
	mov	ecx, DWORD PTR [ebp+8]
	test	ecx, ecx
	je	SHORT $LN12@rehash
	mov	DWORD PTR [ecx+4], esi
$LN12@rehash:
	mov	DWORD PTR [esi+4], 0
	mov	DWORD PTR [ebp+8], esi
$LN13@rehash:
	add	DWORD PTR [edi+eax*8], 1
	test	ebx, ebx
	mov	DWORD PTR [edx], esi
	mov	esi, ebx
	jne	SHORT $LL21@rehash
$LN22@rehash:
	pop	esi
$LN1@rehash:
	pop	edi
	pop	ebp
	pop	ebx
; Line 11127
	add	esp, 8
	ret	0
_rehash	ENDP
; Function compile flags: /Ogtpy
_TEXT	ENDS
;	COMDAT _findElementGivenHash
_TEXT	SEGMENT
_pKey$ = 8						; size = 4
_nKey$ = 12						; size = 4
_findElementGivenHash PROC				; COMDAT
; _pH$ = ecx
; _h$ = edx
; Line 11143
	mov	eax, DWORD PTR [ecx+24]
	test	eax, eax
	push	ebx
	push	ebp
	mov	ebp, DWORD PTR _nKey$[esp+4]
	push	esi
	push	edi
	je	SHORT $LN13@findElemen
; Line 11147
	cmp	BYTE PTR [ecx], 3
	mov	esi, DWORD PTR [eax+edx*8+4]
	mov	edi, DWORD PTR [eax+edx*8]
	mov	ebx, OFFSET _strCompare
	je	SHORT $LN11@findElemen
	mov	ebx, OFFSET _binCompare
$LN11@findElemen:
; Line 11148
	test	edi, edi
	je	SHORT $LN13@findElemen
	npad	7
$LL3@findElemen:
	sub	edi, 1
	test	esi, esi
	je	SHORT $LN13@findElemen
; Line 11149
	mov	eax, DWORD PTR _pKey$[esp+12]
	mov	ecx, DWORD PTR [esi+16]
	mov	edx, DWORD PTR [esi+12]
	push	ebp
	push	eax
	push	ecx
	push	edx
	call	ebx
	add	esp, 16					; 00000010H
	test	eax, eax
	je	SHORT $LN12@findElemen
	test	edi, edi
; Line 11152
	mov	esi, DWORD PTR [esi]
	jne	SHORT $LL3@findElemen
$LN13@findElemen:
	pop	edi
	pop	esi
	pop	ebp
; Line 11155
	xor	eax, eax
	pop	ebx
; Line 11156
	ret	0
$LN12@findElemen:
	pop	edi
; Line 11150
	mov	eax, esi
	pop	esi
	pop	ebp
	pop	ebx
; Line 11156
	ret	0
_findElementGivenHash ENDP
; Function compile flags: /Ogtpy
_TEXT	ENDS
;	COMDAT _removeElementGivenHash
_TEXT	SEGMENT
_h$ = 8							; size = 4
_removeElementGivenHash PROC				; COMDAT
; _pH$ = eax
; _elem$ = edi
; Line 11165
	push	esi
	mov	esi, eax
; Line 11167
	mov	eax, DWORD PTR [edi+4]
	test	eax, eax
	je	SHORT $LN7@removeElem
; Line 11168
	mov	ecx, DWORD PTR [edi]
	mov	DWORD PTR [eax], ecx
; Line 11169
	jmp	SHORT $LN6@removeElem
$LN7@removeElem:
; Line 11170
	mov	edx, DWORD PTR [edi]
	mov	DWORD PTR [esi+8], edx
$LN6@removeElem:
; Line 11172
	mov	eax, DWORD PTR [edi]
	test	eax, eax
	je	SHORT $LN5@removeElem
; Line 11173
	mov	ecx, DWORD PTR [edi+4]
	mov	DWORD PTR [eax+4], ecx
$LN5@removeElem:
; Line 11175
	mov	edx, DWORD PTR [esi+24]
	mov	eax, DWORD PTR _h$[esp]
; Line 11176
	cmp	DWORD PTR [edx+eax*8+4], edi
	lea	eax, DWORD PTR [edx+eax*8]
	jne	SHORT $LN4@removeElem
; Line 11177
	mov	ecx, DWORD PTR [edi]
	mov	DWORD PTR [eax+4], ecx
$LN4@removeElem:
; Line 11179
	add	DWORD PTR [eax], -1
; Line 11180
	cmp	DWORD PTR [eax], 0
	jg	SHORT $LN3@removeElem
; Line 11181
	mov	DWORD PTR [eax+4], 0
$LN3@removeElem:
; Line 11183
	cmp	BYTE PTR [esi+1], 0
	je	SHORT $LN2@removeElem
; Line 11184
	mov	edx, DWORD PTR [edi+12]
	mov	eax, DWORD PTR [esi+16]
	push	edx
	call	eax
	add	esp, 4
$LN2@removeElem:
; Line 11186
	mov	ecx, DWORD PTR [esi+16]
	push	edi
	call	ecx
; Line 11187
	add	DWORD PTR [esi+4], -1
	add	esp, 4
; Line 11188
	cmp	DWORD PTR [esi+4], 0
	jg	SHORT $LN1@removeElem
; Line 11191
	call	_sqlite3HashClear
$LN1@removeElem:
	pop	esi
; Line 11193
	ret	0
_removeElementGivenHash ENDP
; Function compile flags: /Ogtpy
_TEXT	ENDS
;	COMDAT _sqlite3HashFind
_TEXT	SEGMENT
_sqlite3HashFind PROC					; COMDAT
; _pH$ = esi
; _pKey$ = ebx
; _nKey$ = edi
; Line 11204
	test	esi, esi
	je	SHORT $LN1@sqlite3Has@2
	cmp	DWORD PTR [esi+24], 0
	je	SHORT $LN1@sqlite3Has@2
; Line 11205
	cmp	BYTE PTR [esi], 3
	mov	eax, OFFSET _strHash
	je	SHORT $LN7@sqlite3Has@2
	mov	eax, OFFSET _binHash
$LN7@sqlite3Has@2:
; Line 11207
	push	edi
	push	ebx
	call	eax
; Line 11209
	mov	edx, DWORD PTR [esi+20]
	sub	edx, 1
	push	edi
	and	edx, eax
	push	ebx
	mov	ecx, esi
	call	_findElementGivenHash
	add	esp, 16					; 00000010H
; Line 11210
	test	eax, eax
	je	SHORT $LN1@sqlite3Has@2
	mov	eax, DWORD PTR [eax+8]
; Line 11211
	ret	0
$LN1@sqlite3Has@2:
; Line 11204
	xor	eax, eax
; Line 11211
	ret	0
_sqlite3HashFind ENDP
; Function compile flags: /Ogtpy
_TEXT	ENDS
;	COMDAT _sqlite3HashInsert
_TEXT	SEGMENT
_hraw$ = -4						; size = 4
_pKey$ = 8						; size = 4
_nKey$ = 12						; size = 4
_data$ = 16						; size = 4
_sqlite3HashInsert PROC					; COMDAT
; _pH$ = eax
; Line 11228
	push	ecx
	push	ebx
	push	ebp
	mov	ebp, DWORD PTR _nKey$[esp+8]
	push	esi
	mov	esi, eax
; Line 11236
	cmp	BYTE PTR [esi], 3
	push	edi
	mov	eax, OFFSET _strHash
	je	SHORT $LN15@sqlite3Has@3
	mov	eax, OFFSET _binHash
$LN15@sqlite3Has@3:
; Line 11238
	mov	edi, DWORD PTR _pKey$[esp+16]
	push	ebp
	push	edi
	call	eax
; Line 11240
	mov	ebx, DWORD PTR [esi+20]
	sub	ebx, 1
	and	ebx, eax
; Line 11241
	push	ebp
	push	edi
	mov	edx, ebx
	mov	ecx, esi
	mov	DWORD PTR _hraw$[esp+36], eax
	call	_findElementGivenHash
	add	esp, 16					; 00000010H
; Line 11242
	test	eax, eax
	je	SHORT $LN12@sqlite3Has@3
; Line 11244
	mov	ecx, DWORD PTR _data$[esp+16]
	test	ecx, ecx
	mov	ebp, DWORD PTR [eax+8]
	jne	SHORT $LN11@sqlite3Has@3
; Line 11245
	mov	edi, eax
	push	ebx
	mov	eax, esi
	call	_removeElementGivenHash
	add	esp, 4
	pop	edi
	pop	esi
; Line 11249
	mov	eax, ebp
	pop	ebp
	pop	ebx
; Line 11286
	pop	ecx
	ret	0
$LN11@sqlite3Has@3:
	pop	edi
	pop	esi
; Line 11247
	mov	DWORD PTR [eax+8], ecx
; Line 11249
	mov	eax, ebp
	pop	ebp
	pop	ebx
; Line 11286
	pop	ecx
	ret	0
$LN12@sqlite3Has@3:
; Line 11251
	mov	ebx, DWORD PTR _data$[esp+16]
	test	ebx, ebx
	je	$LN20@sqlite3Has@3
; Line 11252
	mov	eax, DWORD PTR [esi+12]
	push	20					; 00000014H
	call	eax
	mov	edi, eax
	add	esp, 4
; Line 11253
	test	edi, edi
	jne	SHORT $LN8@sqlite3Has@3
	pop	edi
	pop	esi
	pop	ebp
	mov	eax, ebx
	pop	ebx
; Line 11286
	pop	ecx
	ret	0
$LN8@sqlite3Has@3:
; Line 11254
	cmp	BYTE PTR [esi+1], 0
	mov	ebx, DWORD PTR _pKey$[esp+16]
	je	SHORT $LN7@sqlite3Has@3
	test	ebx, ebx
	je	SHORT $LN7@sqlite3Has@3
; Line 11255
	mov	ecx, DWORD PTR [esi+12]
	push	ebp
	call	ecx
	add	esp, 4
; Line 11256
	test	eax, eax
	mov	DWORD PTR [edi+12], eax
; Line 11258
	je	SHORT $LN2@sqlite3Has@3
; Line 11260
	push	ebp
	push	ebx
	push	eax
	call	_memcpy
	add	esp, 12					; 0000000cH
; Line 11261
	jmp	SHORT $LN5@sqlite3Has@3
$LN7@sqlite3Has@3:
; Line 11262
	mov	DWORD PTR [edi+12], ebx
$LN5@sqlite3Has@3:
; Line 11264
	mov	DWORD PTR [edi+16], ebp
; Line 11266
	mov	eax, DWORD PTR [esi+20]
	add	DWORD PTR [esi+4], 1
	test	eax, eax
	jne	SHORT $LN3@sqlite3Has@3
; Line 11267
	push	esi
	mov	eax, 8
	call	_rehash
; Line 11268
	mov	eax, DWORD PTR [esi+20]
	add	esp, 4
	test	eax, eax
	jne	SHORT $LN3@sqlite3Has@3
; Line 11270
	cmp	BYTE PTR [esi+1], al
	mov	DWORD PTR [esi+4], eax
	je	SHORT $LN2@sqlite3Has@3
; Line 11271
	mov	eax, DWORD PTR [edi+12]
	mov	ecx, DWORD PTR [esi+16]
	push	eax
	call	ecx
	add	esp, 4
$LN2@sqlite3Has@3:
; Line 11273
	mov	edx, DWORD PTR [esi+16]
	push	edi
	call	edx
; Line 11274
	mov	eax, DWORD PTR _data$[esp+20]
	add	esp, 4
	pop	edi
	pop	esi
	pop	ebp
	pop	ebx
; Line 11286
	pop	ecx
	ret	0
$LN3@sqlite3Has@3:
; Line 11277
	cmp	DWORD PTR [esi+4], eax
	jle	SHORT $LN1@sqlite3Has@3
; Line 11278
	add	eax, eax
	push	esi
	call	_rehash
	add	esp, 4
$LN1@sqlite3Has@3:
; Line 11282
	mov	eax, DWORD PTR [esi+20]
; Line 11283
	mov	ecx, DWORD PTR [esi+24]
	sub	eax, 1
	and	eax, DWORD PTR _hraw$[esp+20]
	lea	edx, DWORD PTR [ecx+eax*8]
	mov	eax, edi
	call	_insertElement
; Line 11284
	mov	edx, DWORD PTR _data$[esp+16]
	mov	DWORD PTR [edi+8], edx
$LN20@sqlite3Has@3:
	pop	edi
	pop	esi
	pop	ebp
; Line 11285
	xor	eax, eax
	pop	ebx
; Line 11286
	pop	ecx
	ret	0
_sqlite3HashInsert ENDP
_TEXT	ENDS
EXTRN	_malloc:PROC
; Function compile flags: /Ogtpy
;	COMDAT _sqlite3GenericMalloc
_TEXT	SEGMENT
_sqlite3GenericMalloc PROC				; COMDAT
; _n$ = eax
; Line 16007
	push	eax
	call	_malloc
	add	esp, 4
; Line 16009
	ret	0
_sqlite3GenericMalloc ENDP
_TEXT	ENDS
EXTRN	_realloc:PROC
; Function compile flags: /Ogtpy
;	COMDAT _sqlite3GenericRealloc
_TEXT	SEGMENT
_sqlite3GenericRealloc PROC				; COMDAT
; _p$ = ecx
; _n$ = eax
; Line 16012
	push	eax
	push	ecx
	call	_realloc
	add	esp, 8
; Line 16014
	ret	0
_sqlite3GenericRealloc ENDP
_TEXT	ENDS
EXTRN	_free:PROC
; Function compile flags: /Ogtpy
;	COMDAT _sqlite3GenericFree
_TEXT	SEGMENT
_sqlite3GenericFree PROC				; COMDAT
; _p$ = eax
; Line 16017
	push	eax
	call	_free
	pop	ecx
; Line 16018
	ret	0
_sqlite3GenericFree ENDP
_TEXT	ENDS
PUBLIC	__$ArrayPad$
EXTRN	__imp__GetVersionExA@4:PROC
; Function compile flags: /Ogtpy
;	COMDAT _isNT
_TEXT	SEGMENT
_sInfo$83614 = -152					; size = 148
__$ArrayPad$ = -4					; size = 4
_isNT	PROC						; COMDAT
; Line 16112
	sub	esp, 152				; 00000098H
	mov	eax, DWORD PTR ___security_cookie
	xor	eax, esp
	mov	DWORD PTR __$ArrayPad$[esp+152], eax
; Line 16113
	mov	eax, DWORD PTR _sqlite3_os_type
	test	eax, eax
	jne	SHORT $LN1@isNT
; Line 16116
	lea	eax, DWORD PTR _sInfo$83614[esp+152]
	push	eax
	mov	DWORD PTR _sInfo$83614[esp+156], 148	; 00000094H
	call	DWORD PTR __imp__GetVersionExA@4
; Line 16117
	xor	eax, eax
	cmp	DWORD PTR _sInfo$83614[esp+168], 2
	sete	al
	add	eax, 1
	mov	DWORD PTR _sqlite3_os_type, eax
$LN1@isNT:
; Line 16119
	xor	ecx, ecx
	cmp	eax, 2
	sete	cl
	mov	eax, ecx
; Line 16120
	mov	ecx, DWORD PTR __$ArrayPad$[esp+152]
	xor	ecx, esp
	call	@__security_check_cookie@4
	add	esp, 152				; 00000098H
	ret	0
_isNT	ENDP
; Function compile flags: /Ogtpy
_TEXT	ENDS
;	COMDAT _winOpenDirectory
_TEXT	SEGMENT
_id$ = 8						; size = 4
_zDirname$ = 12						; size = 4
_winOpenDirectory PROC					; COMDAT
; Line 16899
	xor	eax, eax
; Line 16900
	ret	0
_winOpenDirectory ENDP
_TEXT	ENDS
EXTRN	__imp__ReadFile@20:PROC
EXTRN	_memset:PROC
; Function compile flags: /Ogtpy
;	COMDAT _winRead
_TEXT	SEGMENT
_got$ = 8						; size = 4
_id$ = 8						; size = 4
_pBuf$ = 12						; size = 4
_amt$ = 16						; size = 4
_winRead PROC						; COMDAT
; Line 16998
	mov	ecx, DWORD PTR _id$[esp-4]
	mov	edx, DWORD PTR [ecx+4]
	push	esi
	mov	esi, DWORD PTR _amt$[esp]
	push	edi
	mov	edi, DWORD PTR _pBuf$[esp+4]
	push	0
	lea	eax, DWORD PTR _got$[esp+8]
	push	eax
	push	esi
	push	edi
	push	edx
	call	DWORD PTR __imp__ReadFile@20
	test	eax, eax
	jne	SHORT $LN3@winRead
	pop	edi
; Line 16999
	mov	eax, 266				; 0000010aH
	pop	esi
; Line 17007
	ret	0
$LN3@winRead:
; Line 17001
	mov	eax, DWORD PTR _got$[esp+4]
	cmp	eax, esi
	jne	SHORT $LN2@winRead
	pop	edi
; Line 17002
	xor	eax, eax
	pop	esi
; Line 17007
	ret	0
$LN2@winRead:
; Line 17004
	sub	esi, eax
	push	esi
	add	eax, edi
	push	0
	push	eax
	call	_memset
	add	esp, 12					; 0000000cH
	pop	edi
; Line 17005
	mov	eax, 522				; 0000020aH
	pop	esi
; Line 17007
	ret	0
_winRead ENDP
_TEXT	ENDS
EXTRN	__imp__WriteFile@20:PROC
; Function compile flags: /Ogtpy
;	COMDAT _winWrite
_TEXT	SEGMENT
_id$ = 8						; size = 4
_pBuf$ = 12						; size = 4
_wrote$ = 16						; size = 4
_amt$ = 16						; size = 4
_winWrite PROC						; COMDAT
; Line 17013
	push	ebx
	push	ebp
	push	esi
; Line 17022
	mov	esi, DWORD PTR _amt$[esp+8]
	test	esi, esi
	push	edi
	jle	SHORT $LN1@winWrite
	mov	ebp, DWORD PTR _id$[esp+12]
	mov	ebx, DWORD PTR __imp__WriteFile@20
	mov	edi, DWORD PTR _pBuf$[esp+12]
	npad	6
$LL4@winWrite:
	mov	ecx, DWORD PTR [ebp+4]
	push	0
	lea	eax, DWORD PTR _wrote$[esp+16]
	push	eax
	push	esi
	push	edi
	push	ecx
	call	ebx
	test	eax, eax
	je	SHORT $LN1@winWrite
	mov	eax, DWORD PTR _wrote$[esp+12]
	test	eax, eax
	jbe	SHORT $LN3@winWrite
; Line 17023
	sub	esi, eax
; Line 17024
	add	edi, eax
	test	esi, esi
	jg	SHORT $LL4@winWrite
$LN3@winWrite:
; Line 17026
	cmp	esi, eax
	jg	SHORT $LN1@winWrite
	pop	edi
	pop	esi
	pop	ebp
; Line 17029
	xor	eax, eax
	pop	ebx
; Line 17030
	ret	0
$LN1@winWrite:
	pop	edi
	pop	esi
	pop	ebp
; Line 17027
	mov	eax, 13					; 0000000dH
	pop	ebx
; Line 17030
	ret	0
_winWrite ENDP
_TEXT	ENDS
EXTRN	__imp__GetLastError@0:PROC
EXTRN	__imp__SetFilePointer@16:PROC
; Function compile flags: /Ogtpy
;	COMDAT _winSeek
_TEXT	SEGMENT
_upperBits$ = -4					; size = 4
_id$ = 8						; size = 4
_offset$ = 12						; size = 8
_winSeek PROC						; COMDAT
; Line 17042
	push	ecx
; Line 17043
	mov	eax, DWORD PTR _offset$[esp+4]
	mov	ecx, eax
; Line 17050
	push	0
	lea	edx, DWORD PTR _upperBits$[esp+8]
	push	edx
	sar	ecx, 31					; 0000001fH
	mov	ecx, DWORD PTR _id$[esp+8]
	mov	edx, DWORD PTR [ecx+4]
	mov	DWORD PTR _upperBits$[esp+12], eax
	mov	eax, DWORD PTR _offset$[esp+8]
	push	eax
	push	edx
	call	DWORD PTR __imp__SetFilePointer@16
; Line 17052
	cmp	eax, -1
	jne	SHORT $LN1@winSeek
	call	DWORD PTR __imp__GetLastError@0
	test	eax, eax
	je	SHORT $LN1@winSeek
; Line 17053
	mov	eax, 13					; 0000000dH
; Line 17056
	pop	ecx
	ret	0
$LN1@winSeek:
; Line 17055
	xor	eax, eax
; Line 17056
	pop	ecx
	ret	0
_winSeek ENDP
_TEXT	ENDS
EXTRN	__imp__FlushFileBuffers@4:PROC
; Function compile flags: /Ogtpy
;	COMDAT _winSync
_TEXT	SEGMENT
_id$ = 8						; size = 4
_dataOnly$ = 12						; size = 4
_winSync PROC						; COMDAT
; Line 17064
	mov	eax, DWORD PTR _id$[esp-4]
	mov	ecx, DWORD PTR [eax+4]
	push	ecx
	call	DWORD PTR __imp__FlushFileBuffers@4
	neg	eax
	sbb	eax, eax
	and	eax, -10				; fffffff6H
	add	eax, 10					; 0000000aH
; Line 17069
	ret	0
_winSync ENDP
; Function compile flags: /Ogtpy
_TEXT	ENDS
;	COMDAT _sqlite3WinSyncDirectory
_TEXT	SEGMENT
_sqlite3WinSyncDirectory PROC				; COMDAT
; Line 17077
	xor	eax, eax
; Line 17078
	ret	0
_sqlite3WinSyncDirectory ENDP
_TEXT	ENDS
EXTRN	__imp__SetEndOfFile@4:PROC
; Function compile flags: /Ogtpy
;	COMDAT _winTruncate
_TEXT	SEGMENT
_upperBits$ = -4					; size = 4
_id$ = 8						; size = 4
_nByte$ = 12						; size = 8
_winTruncate PROC					; COMDAT
; Line 17083
	push	ecx
; Line 17084
	mov	eax, DWORD PTR _nByte$[esp+4]
	push	esi
; Line 17088
	mov	esi, DWORD PTR _id$[esp+4]
	push	0
	mov	ecx, eax
	lea	edx, DWORD PTR _upperBits$[esp+12]
	mov	DWORD PTR _upperBits$[esp+12], eax
	mov	eax, DWORD PTR _nByte$[esp+8]
	push	edx
	sar	ecx, 31					; 0000001fH
	mov	ecx, DWORD PTR [esi+4]
	push	eax
	push	ecx
	call	DWORD PTR __imp__SetFilePointer@16
; Line 17089
	mov	edx, DWORD PTR [esi+4]
	push	edx
	call	DWORD PTR __imp__SetEndOfFile@4
; Line 17090
	xor	eax, eax
	pop	esi
; Line 17091
	pop	ecx
	ret	0
_winTruncate ENDP
_TEXT	ENDS
EXTRN	__imp__GetFileSize@8:PROC
; Function compile flags: /Ogtpy
;	COMDAT _winFileSize
_TEXT	SEGMENT
_upperBits$ = 8						; size = 4
_id$ = 8						; size = 4
_pSize$ = 12						; size = 4
_winFileSize PROC					; COMDAT
; Line 17100
	mov	ecx, DWORD PTR _id$[esp-4]
	mov	edx, DWORD PTR [ecx+4]
	push	esi
	lea	eax, DWORD PTR _upperBits$[esp]
	push	eax
	push	edx
	call	DWORD PTR __imp__GetFileSize@8
; Line 17101
	push	1
	push	0
	mov	esi, eax
	mov	eax, DWORD PTR _upperBits$[esp+8]
	push	0
	push	eax
	call	__allmul
	mov	ecx, eax
	xor	eax, eax
	add	ecx, esi
	adc	edx, eax
	mov	eax, DWORD PTR _pSize$[esp]
	mov	DWORD PTR [eax], ecx
	mov	DWORD PTR [eax+4], edx
; Line 17102
	xor	eax, eax
	pop	esi
; Line 17103
	ret	0
_winFileSize ENDP
_TEXT	ENDS
EXTRN	__imp__UnlockFile@20:PROC
; Function compile flags: /Ogtpy
;	COMDAT _unlockReadLock
_TEXT	SEGMENT
_unlockReadLock PROC					; COMDAT
; _pFile$ = esi
; Line 17139
	call	_isNT
	test	eax, eax
; Line 17140
	push	0
	je	SHORT $LN2@unlockRead
	mov	eax, DWORD PTR [esi+4]
	push	510					; 000001feH
	push	0
	push	1073741826				; 40000002H
	push	eax
; Line 17142
	call	DWORD PTR __imp__UnlockFile@20
; Line 17145
	ret	0
$LN2@unlockRead:
; Line 17142
	movsx	ecx, WORD PTR [esi+10]
	mov	edx, DWORD PTR [esi+4]
	push	1
	push	0
	add	ecx, 1073741826				; 40000002H
	push	ecx
	push	edx
	call	DWORD PTR __imp__UnlockFile@20
; Line 17145
	ret	0
_unlockReadLock ENDP
_TEXT	ENDS
EXTRN	__imp__LockFile@20:PROC
; Function compile flags: /Ogtpy
;	COMDAT _winCheckReservedLock
_TEXT	SEGMENT
_id$ = 8						; size = 4
_winCheckReservedLock PROC				; COMDAT
; Line 17318
	push	edi
; Line 17322
	mov	edi, DWORD PTR _id$[esp]
	cmp	BYTE PTR [edi+8], 2
	jb	SHORT $LN3@winCheckRe
; Line 17323
	mov	eax, 1
	pop	edi
; Line 17334
	ret	0
$LN3@winCheckRe:
; Line 17326
	mov	eax, DWORD PTR [edi+4]
	push	esi
	push	0
	push	1
	push	0
	push	1073741825				; 40000001H
	push	eax
	call	DWORD PTR __imp__LockFile@20
	mov	esi, eax
; Line 17327
	test	esi, esi
	je	SHORT $LN1@winCheckRe
; Line 17328
	mov	ecx, DWORD PTR [edi+4]
	push	0
	push	1
	push	0
	push	1073741825				; 40000001H
	push	ecx
	call	DWORD PTR __imp__UnlockFile@20
$LN1@winCheckRe:
; Line 17330
	xor	eax, eax
	test	esi, esi
	pop	esi
	sete	al
	pop	edi
; Line 17334
	ret	0
_winCheckReservedLock ENDP
; Function compile flags: /Ogtpy
_TEXT	ENDS
;	COMDAT _winSetFullSync
_TEXT	SEGMENT
_id$ = 8						; size = 4
_v$ = 12						; size = 4
_winSetFullSync PROC					; COMDAT
; Line 17432
	ret	0
_winSetFullSync ENDP
; Function compile flags: /Ogtpy
_TEXT	ENDS
;	COMDAT _winFileHandle
_TEXT	SEGMENT
_id$ = 8						; size = 4
_winFileHandle PROC					; COMDAT
; Line 17438
	mov	eax, DWORD PTR _id$[esp-4]
	mov	eax, DWORD PTR [eax+4]
; Line 17439
	ret	0
_winFileHandle ENDP
; Function compile flags: /Ogtpy
_TEXT	ENDS
;	COMDAT _winLockState
_TEXT	SEGMENT
_id$ = 8						; size = 4
_winLockState PROC					; COMDAT
; Line 17446
	mov	eax, DWORD PTR _id$[esp-4]
	movzx	eax, BYTE PTR [eax+8]
; Line 17447
	ret	0
_winLockState ENDP
; Function compile flags: /Ogtpy
_TEXT	ENDS
;	COMDAT _winSectorSize
_TEXT	SEGMENT
_id$ = 8						; size = 4
_winSectorSize PROC					; COMDAT
; Line 17460
	mov	eax, 512				; 00000200H
; Line 17461
	ret	0
_winSectorSize ENDP
_TEXT	ENDS
EXTRN	__imp__GetProcAddress@8:PROC
; Function compile flags: /Ogtpy
;	COMDAT _sqlite3WinDlsym
_TEXT	SEGMENT
_sqlite3WinDlsym PROC					; COMDAT
; _pHandle$ = ecx
; _zSymbol$ = eax
; Line 17549
	push	eax
	push	ecx
	call	DWORD PTR __imp__GetProcAddress@8
; Line 17551
	ret	0
_sqlite3WinDlsym ENDP
_TEXT	ENDS
EXTRN	__imp__FreeLibrary@4:PROC
; Function compile flags: /Ogtpy
;	COMDAT _sqlite3WinDlclose
_TEXT	SEGMENT
_sqlite3WinDlclose PROC					; COMDAT
; _pHandle$ = eax
; Line 17553
	push	eax
	call	DWORD PTR __imp__FreeLibrary@4
; Line 17554
	ret	0
_sqlite3WinDlclose ENDP
_TEXT	ENDS
EXTRN	__imp__GetSystemTime@4:PROC
; Function compile flags: /Ogtpy
;	COMDAT _sqlite3WinRandomSeed
_TEXT	SEGMENT
_sqlite3WinRandomSeed PROC				; COMDAT
; _zBuf$ = esi
; Line 17575
	push	256					; 00000100H
	push	0
	push	esi
	call	_memset
	add	esp, 12					; 0000000cH
; Line 17576
	push	esi
	call	DWORD PTR __imp__GetSystemTime@4
; Line 17577
	xor	eax, eax
; Line 17578
	ret	0
_sqlite3WinRandomSeed ENDP
_TEXT	ENDS
EXTRN	__imp__Sleep@4:PROC
; Function compile flags: /Ogtpy
;	COMDAT _sqlite3WinSleep
_TEXT	SEGMENT
_sqlite3WinSleep PROC					; COMDAT
; _ms$ = esi
; Line 17584
	push	esi
	call	DWORD PTR __imp__Sleep@4
; Line 17585
	mov	eax, esi
; Line 17586
	ret	0
_sqlite3WinSleep ENDP
; Function compile flags: /Ogtpy
_TEXT	ENDS
;	COMDAT _sqlite3WinEnterMutex
_TEXT	SEGMENT
_sqlite3WinEnterMutex PROC				; COMDAT
; Line 17623
	add	DWORD PTR _inMutex, 1
; Line 17624
	ret	0
_sqlite3WinEnterMutex ENDP
; Function compile flags: /Ogtpy
_TEXT	ENDS
;	COMDAT _sqlite3WinLeaveMutex
_TEXT	SEGMENT
_sqlite3WinLeaveMutex PROC				; COMDAT
; Line 17627
	sub	DWORD PTR _inMutex, 1
; Line 17632
	ret	0
_sqlite3WinLeaveMutex ENDP
; Function compile flags: /Ogtpy
_TEXT	ENDS
;	COMDAT _sqlite3WinInMutex
_TEXT	SEGMENT
_sqlite3WinInMutex PROC					; COMDAT
; Line 17645
	xor	eax, eax
	cmp	DWORD PTR _inMutex, eax
	setg	al
; Line 17647
	ret	0
_sqlite3WinInMutex ENDP
_TEXT	ENDS
PUBLIC	__real@4141978ac0000000
PUBLIC	__real@4269254d38000000
PUBLIC	__real@41f0000000000000
EXTRN	__imp__GetSystemTimeAsFileTime@4:PROC
;	COMDAT __real@4141978ac0000000
CONST	SEGMENT
__real@4141978ac0000000 DQ 04141978ac0000000r	; 2.30581e+006
CONST	ENDS
;	COMDAT __real@4269254d38000000
CONST	SEGMENT
__real@4269254d38000000 DQ 04269254d38000000r	; 8.64e+011
CONST	ENDS
;	COMDAT __real@41f0000000000000
CONST	SEGMENT
__real@41f0000000000000 DQ 041f0000000000000r	; 4.29497e+009
; Function compile flags: /Ogtpy
CONST	ENDS
;	COMDAT _sqlite3WinCurrentTime
_TEXT	SEGMENT
tv137 = -12						; size = 4
tv132 = -12						; size = 4
_ft$ = -8						; size = 8
_prNow$ = 8						; size = 4
_sqlite3WinCurrentTime PROC				; COMDAT
; Line 17663
	sub	esp, 12					; 0000000cH
; Line 17674
	lea	eax, DWORD PTR _ft$[esp+12]
	push	eax
	call	DWORD PTR __imp__GetSystemTimeAsFileTime@4
; Line 17677
	fild	DWORD PTR _ft$[esp+16]
	mov	ecx, DWORD PTR _ft$[esp+16]
	test	ecx, ecx
	jge	SHORT $LN3@sqlite3Win
	fadd	QWORD PTR __real@41f0000000000000
$LN3@sqlite3Win:
	mov	edx, DWORD PTR _ft$[esp+12]
	fmul	QWORD PTR __real@41f0000000000000
	test	edx, edx
	fild	DWORD PTR _ft$[esp+12]
	jge	SHORT $LN4@sqlite3Win
	fadd	QWORD PTR __real@41f0000000000000
$LN4@sqlite3Win:
	faddp	ST(1), ST(0)
	mov	eax, DWORD PTR _prNow$[esp+8]
	fdiv	QWORD PTR __real@4269254d38000000
	fadd	QWORD PTR __real@4141978ac0000000
	fstp	QWORD PTR [eax]
; Line 17683
	xor	eax, eax
; Line 17684
	add	esp, 12					; 0000000cH
	ret	0
_sqlite3WinCurrentTime ENDP
_TEXT	ENDS
EXTRN	__imp__TlsSetValue@8:PROC
EXTRN	__imp__TlsGetValue@4:PROC
EXTRN	__imp__TlsAlloc@0:PROC
_BSS	SEGMENT
?key@?1??sqlite3WinThreadSpecificData@@9@9 DD 01H DUP (?) ; `sqlite3WinThreadSpecificData'::`2'::key
; Function compile flags: /Ogtpy
_BSS	ENDS
;	COMDAT _sqlite3WinThreadSpecificData
_TEXT	SEGMENT
_sqlite3WinThreadSpecificData PROC			; COMDAT
; _allocateFlag$ = eax
; Line 17722
	cmp	DWORD PTR ?keyInit@?1??sqlite3WinThreadSpecificData@@9@9, 0
	push	ebx
	push	esi
	mov	esi, eax
	mov	ebx, 1
	jne	SHORT $LN31@sqlite3Win@2
; Line 17723
	add	DWORD PTR _inMutex, ebx
; Line 17725
	call	DWORD PTR __imp__TlsAlloc@0
; Line 17727
	sub	DWORD PTR _inMutex, ebx
	cmp	eax, -1
	mov	DWORD PTR ?key@?1??sqlite3WinThreadSpecificData@@9@9, eax
	jne	SHORT $LN6@sqlite3Win@2
	pop	esi
; Line 17728
	xor	eax, eax
	pop	ebx
; Line 17752
	ret	0
$LN6@sqlite3Win@2:
; Line 17730
	mov	DWORD PTR ?keyInit@?1??sqlite3WinThreadSpecificData@@9@9, ebx
; Line 17732
	jmp	SHORT $LN21@sqlite3Win@2
$LN31@sqlite3Win@2:
	mov	eax, DWORD PTR ?key@?1??sqlite3WinThreadSpecificData@@9@9
$LN21@sqlite3Win@2:
	push	edi
; Line 17734
	push	eax
	call	DWORD PTR __imp__TlsGetValue@4
; Line 17735
	test	esi, esi
	mov	edi, eax
	jle	SHORT $LN5@sqlite3Win@2
; Line 17736
	test	edi, edi
	jne	$LN1@sqlite3Win@2
; Line 17737
	push	12					; 0000000cH
	call	_malloc
	mov	edi, eax
	add	esp, 4
; Line 17738
	test	edi, edi
	je	$LN1@sqlite3Win@2
; Line 17739
	mov	eax, DWORD PTR ?zeroData@?1??sqlite3WinThreadSpecificData@@9@9
	mov	DWORD PTR [edi], eax
	mov	ecx, DWORD PTR ?zeroData@?1??sqlite3WinThreadSpecificData@@9@9+4
; Line 17740
	mov	eax, DWORD PTR ?key@?1??sqlite3WinThreadSpecificData@@9@9
	mov	DWORD PTR [edi+4], ecx
	mov	edx, DWORD PTR ?zeroData@?1??sqlite3WinThreadSpecificData@@9@9+8
	push	edi
	push	eax
	mov	DWORD PTR [edi+8], edx
	call	DWORD PTR __imp__TlsSetValue@8
; Line 17751
	mov	eax, edi
	pop	edi
	pop	esi
	pop	ebx
; Line 17752
	ret	0
$LN5@sqlite3Win@2:
; Line 17745
	test	edi, edi
	je	$LN1@sqlite3Win@2
	test	esi, esi
	jge	$LN1@sqlite3Win@2
	mov	eax, 12					; 0000000cH
	mov	ecx, OFFSET ?zeroData@?1??sqlite3WinThreadSpecificData@@9@9
	mov	edx, edi
	push	ebp
$LL12@sqlite3Win@2:
	mov	esi, DWORD PTR [edx]
	cmp	esi, DWORD PTR [ecx]
	jne	SHORT $LN13@sqlite3Win@2
	sub	eax, 4
	add	ecx, 4
	add	edx, 4
	cmp	eax, 4
	jae	SHORT $LL12@sqlite3Win@2
	test	eax, eax
	je	SHORT $LN14@sqlite3Win@2
$LN13@sqlite3Win@2:
	movzx	esi, BYTE PTR [edx]
	movzx	ebp, BYTE PTR [ecx]
	sub	esi, ebp
	jne	SHORT $LN32@sqlite3Win@2
	sub	eax, ebx
	add	ecx, ebx
	add	edx, ebx
	test	eax, eax
	je	SHORT $LN14@sqlite3Win@2
	movzx	esi, BYTE PTR [edx]
	movzx	ebp, BYTE PTR [ecx]
	sub	esi, ebp
	jne	SHORT $LN32@sqlite3Win@2
	sub	eax, ebx
	add	ecx, ebx
	add	edx, ebx
	test	eax, eax
	je	SHORT $LN14@sqlite3Win@2
	movzx	esi, BYTE PTR [edx]
	movzx	ebp, BYTE PTR [ecx]
	sub	esi, ebp
	jne	SHORT $LN32@sqlite3Win@2
	sub	eax, ebx
	add	ecx, ebx
	add	edx, ebx
	test	eax, eax
	je	SHORT $LN14@sqlite3Win@2
	movzx	esi, BYTE PTR [edx]
	movzx	ecx, BYTE PTR [ecx]
	sub	esi, ecx
	je	SHORT $LN14@sqlite3Win@2
$LN32@sqlite3Win@2:
	test	esi, esi
	mov	eax, ebx
	jg	SHORT $LN16@sqlite3Win@2
	or	eax, -1
	jmp	SHORT $LN16@sqlite3Win@2
$LN14@sqlite3Win@2:
	xor	eax, eax
$LN16@sqlite3Win@2:
	test	eax, eax
	pop	ebp
	jne	SHORT $LN1@sqlite3Win@2
; Line 17746
	push	edi
	call	_free
; Line 17747
	mov	edx, DWORD PTR ?key@?1??sqlite3WinThreadSpecificData@@9@9
	add	esp, 4
	push	0
	push	edx
	call	DWORD PTR __imp__TlsSetValue@8
; Line 17749
	xor	edi, edi
$LN1@sqlite3Win@2:
; Line 17751
	mov	eax, edi
	pop	edi
	pop	esi
	pop	ebx
; Line 17752
	ret	0
_sqlite3WinThreadSpecificData ENDP
; Function compile flags: /Ogtpy
_TEXT	ENDS
;	COMDAT _pageInStatement
_TEXT	SEGMENT
_pageInStatement PROC					; COMDAT
; _pPg$ = eax
; Line 18232
	mov	ecx, DWORD PTR [eax]
; Line 18233
	cmp	BYTE PTR [ecx+16], 0
	je	SHORT $LN2@pageInStat
; Line 18234
	mov	edx, DWORD PTR [ecx+56]
	add	edx, DWORD PTR [ecx+52]
	movzx	eax, BYTE PTR [edx+eax+64]
; Line 18240
	ret	0
$LN2@pageInStat:
; Line 18236
	mov	eax, DWORD PTR [eax+4]
	push	esi
; Line 18237
	mov	esi, DWORD PTR [ecx+80]
; Line 18238
	test	esi, esi
	je	SHORT $LN5@pageInStat
	cmp	eax, DWORD PTR [ecx+36]
	jg	SHORT $LN5@pageInStat
	mov	ecx, eax
	and	ecx, 7
	mov	edx, 1
	shl	edx, cl
	shr	eax, 3
	mov	al, BYTE PTR [eax+esi]
	test	dl, al
	je	SHORT $LN5@pageInStat
	mov	eax, 1
	pop	esi
; Line 18240
	ret	0
$LN5@pageInStat:
; Line 18238
	xor	eax, eax
	pop	esi
; Line 18240
	ret	0
_pageInStatement ENDP
; Function compile flags: /Ogtpy
_TEXT	ENDS
;	COMDAT _read32bits
_TEXT	SEGMENT
_ac$ = -4						; size = 4
_pRes$ = 8						; size = 4
_read32bits PROC					; COMDAT
; _fd$ = eax
; Line 18280
	push	ecx
; Line 18282
	mov	ecx, DWORD PTR [eax]
	push	4
	lea	edx, DWORD PTR _ac$[esp+8]
	push	edx
	push	eax
	mov	eax, DWORD PTR [ecx+8]
	call	eax
	add	esp, 12					; 0000000cH
; Line 18283
	test	eax, eax
	jne	SHORT $LN1@read32bits
; Line 18284
	mov	ecx, DWORD PTR _ac$[esp+4]
	xor	edx, edx
	mov	dh, cl
	movzx	ecx, ch
	or	edx, ecx
	movzx	ecx, BYTE PTR _ac$[esp+6]
	shl	edx, 8
	or	edx, ecx
	movzx	ecx, BYTE PTR _ac$[esp+7]
	shl	edx, 8
	or	edx, ecx
	mov	ecx, DWORD PTR _pRes$[esp]
	mov	DWORD PTR [ecx], edx
$LN1@read32bits:
; Line 18287
	pop	ecx
	ret	0
_read32bits ENDP
; Function compile flags: /Ogtpy
_TEXT	ENDS
;	COMDAT _write32bits
_TEXT	SEGMENT
_ac$ = -4						; size = 4
_write32bits PROC					; COMDAT
; _fd$ = ecx
; _val$ = eax
; Line 18298
	push	ecx
; Line 18300
	mov	edx, eax
	shr	edx, 24					; 00000018H
	mov	BYTE PTR _ac$[esp+4], dl
	mov	edx, eax
	shr	edx, 16					; 00000010H
	mov	BYTE PTR _ac$[esp+5], dl
	mov	edx, eax
	shr	edx, 8
	mov	BYTE PTR _ac$[esp+6], dl
	mov	BYTE PTR _ac$[esp+7], al
; Line 18301
	mov	eax, DWORD PTR [ecx]
	mov	eax, DWORD PTR [eax+12]
	push	4
	lea	edx, DWORD PTR _ac$[esp+8]
	push	edx
	push	ecx
	call	eax
; Line 18302
	add	esp, 16					; 00000010H
	ret	0
_write32bits ENDP
; Function compile flags: /Ogtpy
_TEXT	ENDS
;	COMDAT _retrieve32bits
_TEXT	SEGMENT
_retrieve32bits PROC					; COMDAT
; _p$ = ecx
; _offset$ = eax
; Line 18311
	xor	edx, edx
	mov	dh, BYTE PTR [ecx+eax+48]
	push	esi
	movzx	esi, BYTE PTR [ecx+eax+50]
	mov	dl, BYTE PTR [ecx+eax+49]
	movzx	eax, BYTE PTR [ecx+eax+51]
	shl	edx, 8
	or	edx, esi
	shl	edx, 8
	or	eax, edx
	pop	esi
; Line 18312
	ret	0
_retrieve32bits ENDP
; Function compile flags: /Ogtpy
_TEXT	ENDS
;	COMDAT _pager_error
_TEXT	SEGMENT
_pPager$ = 8						; size = 4
_pager_error PROC					; COMDAT
; _rc$ = eax
; Line 18326
	mov	ecx, eax
	and	ecx, 255				; 000000ffH
; Line 18332
	cmp	ecx, 13					; 0000000dH
	je	SHORT $LN1@pager_erro
	cmp	ecx, 10					; 0000000aH
	je	SHORT $LN1@pager_erro
	cmp	ecx, 11					; 0000000bH
	jne	SHORT $LN2@pager_erro
$LN1@pager_erro:
; Line 18333
	mov	ecx, DWORD PTR _pPager$[esp-4]
	mov	DWORD PTR [ecx+24], eax
$LN2@pager_erro:
; Line 18336
	ret	0
_pager_error ENDP
_TEXT	ENDS
EXTRN	__alldiv:PROC
; Function compile flags: /Ogtpy
;	COMDAT _seekJournalHdr
_TEXT	SEGMENT
_seekJournalHdr PROC					; COMDAT
; _pPager$ = eax
; Line 18461
	push	ebx
	push	esi
	push	edi
	mov	edi, eax
; Line 18463
	mov	ecx, DWORD PTR [edi+136]
	mov	esi, DWORD PTR [edi+140]
; Line 18464
	mov	ebx, ecx
	xor	eax, eax
	xor	edx, edx
	or	ebx, esi
	je	SHORT $LN1@seekJourna
; Line 18465
	mov	eax, DWORD PTR [edi+176]
	push	ebp
	cdq
	mov	ebp, edx
	push	ebp
	sub	ecx, 1
	mov	ebx, eax
	push	ebx
	sbb	esi, 0
	push	esi
	push	ecx
	call	__alldiv
	push	ebp
	add	eax, 1
	push	ebx
	adc	edx, 0
	push	edx
	push	eax
	call	__allmul
	pop	ebp
$LN1@seekJourna:
; Line 18470
	mov	DWORD PTR [edi+136], eax
	mov	DWORD PTR [edi+140], edx
; Line 18471
	mov	edi, DWORD PTR [edi+100]
	mov	ecx, DWORD PTR [edi]
	push	edx
	mov	edx, DWORD PTR [ecx+16]
	push	eax
	push	edi
	call	edx
	add	esp, 12					; 0000000cH
	pop	edi
	pop	esi
	pop	ebx
; Line 18472
	ret	0
_seekJournalHdr ENDP
_TEXT	ENDS
PUBLIC	_pDbSize$GSCopy$
PUBLIC	_pNRec$GSCopy$
PUBLIC	__$ArrayPad$
; Function compile flags: /Ogtpy
;	COMDAT _readJournalHdr
_TEXT	SEGMENT
_ac$105639 = -24					; size = 4
_pNRec$GSCopy$ = -20					; size = 4
_pDbSize$GSCopy$ = -16					; size = 4
_aMagic$ = -12						; size = 8
__$ArrayPad$ = -4					; size = 4
_journalSize$ = 8					; size = 8
_pNRec$ = 16						; size = 4
_readJournalHdr PROC					; COMDAT
; _pPager$ = edi
; _pDbSize$ = ecx
; Line 18557
	sub	esp, 24					; 00000018H
	mov	eax, DWORD PTR ___security_cookie
	xor	eax, esp
	mov	DWORD PTR __$ArrayPad$[esp+24], eax
; Line 18582
	mov	eax, DWORD PTR _pNRec$[esp+20]
	mov	DWORD PTR _pNRec$GSCopy$[esp+24], eax
	mov	eax, edi
	mov	DWORD PTR _pDbSize$GSCopy$[esp+24], ecx
	call	_seekJournalHdr
	test	eax, eax
	jne	$LN9@readJourna
	mov	eax, DWORD PTR [edi+176]
	push	ebx
	lea	ebx, DWORD PTR [edi+176]
	cdq
	add	eax, DWORD PTR [edi+136]
	adc	edx, DWORD PTR [edi+140]
	cmp	edx, DWORD PTR _journalSize$[esp+28]
	jl	SHORT $LN7@readJourna
; Line 18564
	jg	$LN31@readJourna
	cmp	eax, DWORD PTR _journalSize$[esp+24]
; Line 18565
	ja	$LN31@readJourna
$LN7@readJourna:
; Line 18568
	mov	eax, DWORD PTR [edi+100]
	mov	edx, DWORD PTR [eax]
	mov	edx, DWORD PTR [edx+8]
	push	8
	lea	ecx, DWORD PTR _aMagic$[esp+32]
	push	ecx
	push	eax
	call	edx
	add	esp, 12					; 0000000cH
; Line 18569
	test	eax, eax
	jne	$LN36@readJourna
	push	ebp
	push	esi
; Line 18571
	mov	eax, 8
	mov	edx, OFFSET _aJournalMagic
	lea	esi, DWORD PTR _aMagic$[esp+36]
$LL12@readJourna:
	mov	ecx, DWORD PTR [esi]
	cmp	ecx, DWORD PTR [edx]
	jne	SHORT $LN13@readJourna
	sub	eax, 4
	add	edx, 4
	add	esi, 4
	cmp	eax, 4
	jae	SHORT $LL12@readJourna
	test	eax, eax
	je	SHORT $LN34@readJourna
$LN13@readJourna:
	movzx	ecx, BYTE PTR [esi]
	movzx	ebp, BYTE PTR [edx]
	sub	ecx, ebp
	jne	SHORT $LN32@readJourna
	sub	eax, 1
	add	edx, 1
	add	esi, 1
	test	eax, eax
	je	SHORT $LN34@readJourna
	movzx	ecx, BYTE PTR [esi]
	movzx	ebp, BYTE PTR [edx]
	sub	ecx, ebp
	jne	SHORT $LN32@readJourna
	sub	eax, 1
	add	edx, 1
	add	esi, 1
	test	eax, eax
	je	SHORT $LN34@readJourna
	movzx	ecx, BYTE PTR [esi]
	movzx	ebp, BYTE PTR [edx]
	sub	ecx, ebp
	jne	SHORT $LN32@readJourna
	sub	eax, 1
	add	edx, 1
	add	esi, 1
	test	eax, eax
	je	SHORT $LN34@readJourna
	movzx	ecx, BYTE PTR [esi]
	movzx	edx, BYTE PTR [edx]
	sub	ecx, edx
	je	SHORT $LN34@readJourna
$LN32@readJourna:
	test	ecx, ecx
	mov	eax, 1
	jg	SHORT $LN35@readJourna
	or	eax, -1
	jmp	SHORT $LN35@readJourna
$LN34@readJourna:
	xor	eax, eax
$LN35@readJourna:
	test	eax, eax
	pop	esi
	pop	ebp
	je	SHORT $LN5@readJourna
$LN31@readJourna:
; Line 18572
	mov	eax, 101				; 00000065H
	pop	ebx
; Line 18596
	mov	ecx, DWORD PTR __$ArrayPad$[esp+24]
	xor	ecx, esp
	call	@__security_check_cookie@4
	add	esp, 24					; 00000018H
	ret	0
$LN5@readJourna:
; Line 18575
	mov	eax, DWORD PTR [edi+100]
	mov	ecx, DWORD PTR [eax]
	push	4
	lea	edx, DWORD PTR _ac$105639[esp+32]
	push	edx
	push	eax
	mov	eax, DWORD PTR [ecx+8]
	call	eax
	add	esp, 12					; 0000000cH
	test	eax, eax
	jne	$LN36@readJourna
	mov	eax, DWORD PTR _ac$105639[esp+28]
	xor	ecx, ecx
	mov	ch, al
	movzx	edx, ah
	movzx	eax, BYTE PTR _ac$105639[esp+30]
	or	ecx, edx
	movzx	edx, BYTE PTR _ac$105639[esp+31]
	shl	ecx, 8
	or	ecx, eax
	mov	eax, DWORD PTR _pNRec$GSCopy$[esp+28]
	shl	ecx, 8
	or	ecx, edx
	mov	DWORD PTR [eax], ecx
; Line 18578
	mov	eax, DWORD PTR [edi+100]
	lea	ecx, DWORD PTR [edi+44]
	push	ecx
	call	_read32bits
	add	esp, 4
; Line 18579
	test	eax, eax
	jne	SHORT $LN36@readJourna
; Line 18581
	mov	edx, DWORD PTR _pDbSize$GSCopy$[esp+28]
	mov	eax, DWORD PTR [edi+100]
	push	edx
	call	_read32bits
	add	esp, 4
; Line 18582
	test	eax, eax
	jne	SHORT $LN36@readJourna
; Line 18590
	mov	eax, DWORD PTR [edi+100]
	push	ebx
	call	_read32bits
	add	esp, 4
; Line 18591
	test	eax, eax
	jne	SHORT $LN36@readJourna
; Line 18593
	mov	eax, DWORD PTR [ebx]
	cdq
	add	DWORD PTR [edi+136], eax
; Line 18594
	mov	ecx, DWORD PTR [edi+136]
	adc	DWORD PTR [edi+140], edx
	mov	eax, DWORD PTR [edi+140]
	push	eax
	mov	eax, DWORD PTR [edi+100]
	push	ecx
	call	_sqlite3OsSeek
	add	esp, 8
$LN36@readJourna:
	pop	ebx
$LN9@readJourna:
; Line 18596
	mov	ecx, DWORD PTR __$ArrayPad$[esp+24]
	xor	ecx, esp
	call	@__security_check_cookie@4
	add	esp, 24					; 00000018H
	ret	0
_readJournalHdr ENDP
_TEXT	ENDS
PUBLIC	__$ArrayPad$
; Function compile flags: /Ogtpy
;	COMDAT _writeMasterJournal
_TEXT	SEGMENT
_ac$105674 = -28					; size = 4
_cksum$ = -24						; size = 4
_zBuf$ = -20						; size = 16
__$ArrayPad$ = -4					; size = 4
_zMaster$ = 8						; size = 4
_writeMasterJournal PROC				; COMDAT
; _pPager$ = esi
; Line 18618
	sub	esp, 28					; 0000001cH
	mov	eax, DWORD PTR ___security_cookie
	xor	eax, esp
	mov	DWORD PTR __$ArrayPad$[esp+28], eax
	push	ebp
	mov	ebp, DWORD PTR _zMaster$[esp+28]
; Line 18622
	xor	edx, edx
; Line 18625
	test	ebp, ebp
	mov	DWORD PTR _cksum$[esp+32], edx
	je	$LN8@writeMaste
	cmp	BYTE PTR [esi+17], dl
	jne	$LN8@writeMaste
	push	ebx
; Line 18628
	mov	ebx, ebp
	mov	BYTE PTR [esi+17], 1
	lea	ecx, DWORD PTR [ebx+1]
$LL28@writeMaste:
	mov	al, BYTE PTR [ebx]
	add	ebx, 1
	test	al, al
	jne	SHORT $LL28@writeMaste
	sub	ebx, ecx
; Line 18629
	xor	eax, eax
	test	ebx, ebx
	jle	SHORT $LN5@writeMaste
$LL7@writeMaste:
; Line 18630
	movsx	ecx, BYTE PTR [eax+ebp]
	add	eax, 1
	add	edx, ecx
	cmp	eax, ebx
	jl	SHORT $LL7@writeMaste
	mov	DWORD PTR _cksum$[esp+36], edx
$LN5@writeMaste:
; Line 18637
	cmp	BYTE PTR [esi+8], 0
	je	SHORT $LN3@writeMaste
; Line 18638
	mov	eax, esi
	call	_seekJournalHdr
; Line 18639
	test	eax, eax
	jne	$LN29@writeMaste
$LN3@writeMaste:
; Line 18641
	lea	eax, DWORD PTR [ebx+20]
	cdq
	add	DWORD PTR [esi+136], eax
; Line 18643
	mov	eax, 1073741824				; 40000000H
	push	edi
	adc	DWORD PTR [esi+140], edx
	cdq
	idiv	DWORD PTR [esi+56]
	mov	edi, DWORD PTR [esi+100]
	push	4
	add	eax, 1
	mov	edx, eax
	shr	edx, 24					; 00000018H
	mov	ecx, eax
	mov	BYTE PTR _ac$105674[esp+44], dl
	shr	ecx, 16					; 00000010H
	mov	BYTE PTR _ac$105674[esp+45], cl
	mov	edx, eax
	shr	edx, 8
	mov	BYTE PTR _ac$105674[esp+47], al
	mov	eax, DWORD PTR [edi]
	lea	ecx, DWORD PTR _ac$105674[esp+44]
	push	ecx
	mov	BYTE PTR _ac$105674[esp+50], dl
	mov	edx, DWORD PTR [eax+12]
	push	edi
	call	edx
	add	esp, 12					; 0000000cH
; Line 18644
	test	eax, eax
	pop	edi
	jne	$LN29@writeMaste
; Line 18646
	mov	eax, DWORD PTR [esi+100]
	mov	ecx, DWORD PTR [eax]
	mov	edx, DWORD PTR [ecx+12]
	push	ebx
	push	ebp
	push	eax
	call	edx
	add	esp, 12					; 0000000cH
; Line 18647
	test	eax, eax
	jne	SHORT $LN29@writeMaste
; Line 18649
	mov	eax, ebx
	shr	eax, 24					; 00000018H
	mov	BYTE PTR _zBuf$[esp+36], al
; Line 18650
	mov	eax, DWORD PTR _cksum$[esp+36]
	mov	ecx, ebx
	shr	ecx, 16					; 00000010H
	mov	BYTE PTR _zBuf$[esp+37], cl
	mov	edx, ebx
	shr	edx, 8
	mov	BYTE PTR _zBuf$[esp+38], dl
	mov	ecx, eax
	mov	edx, eax
	shr	ecx, 24					; 00000018H
	shr	edx, 16					; 00000010H
	mov	BYTE PTR _zBuf$[esp+40], cl
	mov	BYTE PTR _zBuf$[esp+41], dl
; Line 18651
	mov	edx, DWORD PTR _aJournalMagic
	mov	ecx, eax
	mov	BYTE PTR _zBuf$[esp+43], al
	mov	eax, DWORD PTR _aJournalMagic+4
	mov	DWORD PTR _zBuf$[esp+44], edx
	mov	DWORD PTR _zBuf$[esp+48], eax
; Line 18652
	mov	eax, DWORD PTR [esi+100]
	shr	ecx, 8
	push	16					; 00000010H
	lea	edx, DWORD PTR _zBuf$[esp+40]
	mov	BYTE PTR _zBuf$[esp+43], bl
	mov	BYTE PTR _zBuf$[esp+46], cl
	mov	ecx, DWORD PTR [eax]
	push	edx
	push	eax
	mov	eax, DWORD PTR [ecx+12]
	call	eax
	add	esp, 12					; 0000000cH
; Line 18653
	cmp	BYTE PTR [esi+7], 0
	sete	cl
	mov	BYTE PTR [esi+13], cl
$LN29@writeMaste:
	pop	ebx
	pop	ebp
; Line 18655
	mov	ecx, DWORD PTR __$ArrayPad$[esp+28]
	xor	ecx, esp
	call	@__security_check_cookie@4
	add	esp, 28					; 0000001cH
	ret	0
$LN8@writeMaste:
	mov	ecx, DWORD PTR __$ArrayPad$[esp+32]
	pop	ebp
	xor	ecx, esp
	xor	eax, eax
	call	@__security_check_cookie@4
	add	esp, 28					; 0000001cH
	ret	0
_writeMasterJournal ENDP
; Function compile flags: /Ogtpy
_TEXT	ENDS
;	COMDAT _page_add_to_stmt_list
_TEXT	SEGMENT
_page_add_to_stmt_list PROC				; COMDAT
; _pPg$ = ecx
; Line 18667
	mov	eax, DWORD PTR [ecx]
; Line 18668
	mov	edx, DWORD PTR [eax+56]
	push	esi
	mov	esi, DWORD PTR [eax+52]
	push	edi
	lea	edi, DWORD PTR [esi+edx]
; Line 18670
	cmp	BYTE PTR [edi+ecx+64], 0
	lea	edi, DWORD PTR [edi+ecx+48]
	jne	SHORT $LN2@page_add_t
	push	ebx
; Line 18672
	mov	ebx, DWORD PTR [eax+128]
	test	ebx, ebx
	je	SHORT $LN1@page_add_t
; Line 18673
	add	ebx, esi
	mov	DWORD PTR [ebx+edx+60], ecx
$LN1@page_add_t:
; Line 18675
	mov	edx, DWORD PTR [eax+128]
	mov	DWORD PTR [edi+8], edx
; Line 18676
	mov	DWORD PTR [eax+128], ecx
; Line 18677
	mov	BYTE PTR [edi+16], 1
	pop	ebx
$LN2@page_add_t:
	pop	edi
	pop	esi
; Line 18679
	ret	0
_page_add_to_stmt_list ENDP
; Function compile flags: /Ogtpy
_TEXT	ENDS
;	COMDAT _pager_lookup
_TEXT	SEGMENT
_pager_lookup PROC					; COMDAT
; _pPager$ = ecx
; _pgno$ = edx
; Line 18687
	mov	eax, DWORD PTR [ecx+192]
	test	eax, eax
	jne	SHORT $LN3@pager_look
; Line 18693
	ret	0
$LN3@pager_look:
; Line 18688
	mov	ecx, DWORD PTR [ecx+188]
	sub	ecx, 1
	and	ecx, edx
	mov	eax, DWORD PTR [eax+ecx*4]
; Line 18689
	test	eax, eax
	je	SHORT $LN4@pager_look
	npad	3
$LL2@pager_look:
	cmp	DWORD PTR [eax+4], edx
	je	SHORT $LN4@pager_look
; Line 18690
	mov	eax, DWORD PTR [eax+8]
	test	eax, eax
	jne	SHORT $LL2@pager_look
$LN4@pager_look:
; Line 18693
	ret	0
_pager_lookup ENDP
; Function compile flags: /Ogtpy
_TEXT	ENDS
;	COMDAT _pager_unlock
_TEXT	SEGMENT
_pager_unlock PROC					; COMDAT
; _pPager$ = esi
; Line 18699
	cmp	BYTE PTR [esi+19], 0
	jne	SHORT $LN2@pager_unlo
; Line 18700
	cmp	BYTE PTR [esi+16], 0
	jne	SHORT $LN1@pager_unlo
; Line 18701
	mov	eax, DWORD PTR [esi+96]
	mov	ecx, DWORD PTR [eax]
	mov	edx, DWORD PTR [ecx+44]
	push	0
	push	eax
	call	edx
	add	esp, 8
; Line 18702
	mov	DWORD PTR [esi+28], -1
$LN1@pager_unlo:
; Line 18705
	mov	BYTE PTR [esi+10], 0
; Line 18706
	mov	BYTE PTR [esi+20], 0
$LN2@pager_unlo:
; Line 18708
	ret	0
_pager_unlock ENDP
; Function compile flags: /Ogtpy
_TEXT	ENDS
;	COMDAT _pager_cksum
_TEXT	SEGMENT
_pager_cksum PROC					; COMDAT
; _pPager$ = ecx
; _aData$ = edx
; Line 18852
	mov	eax, DWORD PTR [ecx+44]
; Line 18853
	mov	ecx, DWORD PTR [ecx+56]
	sub	ecx, 200				; 000000c8H
; Line 18854
	test	ecx, ecx
	jle	SHORT $LN1@pager_cksu
	push	esi
$LL2@pager_cksu:
; Line 18855
	movzx	esi, BYTE PTR [ecx+edx]
; Line 18856
	sub	ecx, 200				; 000000c8H
	add	eax, esi
	test	ecx, ecx
	jg	SHORT $LL2@pager_cksu
	pop	esi
$LN1@pager_cksu:
; Line 18859
	ret	0
_pager_cksum ENDP
; Function compile flags: /Ogtpy
_TEXT	ENDS
;	COMDAT _setSectorSize
_TEXT	SEGMENT
_setSectorSize PROC					; COMDAT
; _pPager$ = esi
; Line 19096
	mov	eax, DWORD PTR [esi+96]
	mov	ecx, DWORD PTR [eax]
	mov	ecx, DWORD PTR [ecx+56]
	test	ecx, ecx
	je	SHORT $LN6@setSectorS
	push	eax
	call	ecx
	add	esp, 4
	jmp	SHORT $LN7@setSectorS
$LN6@setSectorS:
	mov	eax, 512				; 00000200H
$LN7@setSectorS:
; Line 19097
	mov	ecx, DWORD PTR [esi+56]
	cmp	eax, ecx
	mov	DWORD PTR [esi+176], eax
	jge	SHORT $LN1@setSectorS
; Line 19098
	mov	DWORD PTR [esi+176], ecx
$LN1@setSectorS:
; Line 19100
	ret	0
_setSectorSize ENDP
; Function compile flags: /Ogtpy
_TEXT	ENDS
;	COMDAT _sqlite3PagerSetCachesize
_TEXT	SEGMENT
_sqlite3PagerSetCachesize PROC				; COMDAT
; _pPager$ = ecx
; _mxPage$ = eax
; Line 19389
	cmp	eax, 10					; 0000000aH
	jle	SHORT $LN2@sqlite3Pag
; Line 19390
	mov	DWORD PTR [ecx+68], eax
; Line 19394
	ret	0
$LN2@sqlite3Pag:
; Line 19392
	mov	DWORD PTR [ecx+68], 10			; 0000000aH
; Line 19394
	ret	0
_sqlite3PagerSetCachesize ENDP
; Function compile flags: /Ogtpy
_TEXT	ENDS
;	COMDAT _sqlite3PagerSetSafetyLevel
_TEXT	SEGMENT
_full_fsync$ = 8					; size = 4
_sqlite3PagerSetSafetyLevel PROC			; COMDAT
; _pPager$ = eax
; _level$ = ecx
; Line 19424
	cmp	ecx, 1
	je	SHORT $LN4@sqlite3Pag@2
	cmp	BYTE PTR [eax+11], 0
	jne	SHORT $LN4@sqlite3Pag@2
	xor	edx, edx
	jmp	SHORT $LN5@sqlite3Pag@2
$LN4@sqlite3Pag@2:
	mov	edx, 1
$LN5@sqlite3Pag@2:
; Line 19425
	cmp	ecx, 3
	mov	BYTE PTR [eax+7], dl
	jne	SHORT $LN6@sqlite3Pag@2
	cmp	BYTE PTR [eax+11], 0
	jne	SHORT $LN6@sqlite3Pag@2
	mov	ecx, 1
	jmp	SHORT $LN7@sqlite3Pag@2
$LN6@sqlite3Pag@2:
	xor	ecx, ecx
$LN7@sqlite3Pag@2:
; Line 19427
	test	dl, dl
	mov	BYTE PTR [eax+8], cl
	mov	cl, BYTE PTR _full_fsync$[esp-4]
	mov	BYTE PTR [eax+9], cl
	je	SHORT $LN1@sqlite3Pag@2
	mov	BYTE PTR [eax+13], 0
$LN1@sqlite3Pag@2:
; Line 19428
	ret	0
_sqlite3PagerSetSafetyLevel ENDP
; Function compile flags: /Ogtpy
_TEXT	ENDS
;	COMDAT _sqlite3PagerSetBusyhandler
_TEXT	SEGMENT
_sqlite3PagerSetBusyhandler PROC			; COMDAT
; _pPager$ = ecx
; _pBusyHandler$ = eax
; Line 19632
	mov	DWORD PTR [ecx+108], eax
; Line 19633
	ret	0
_sqlite3PagerSetBusyhandler ENDP
; Function compile flags: /Ogtpy
_TEXT	ENDS
;	COMDAT _sqlite3PagerSetDestructor
_TEXT	SEGMENT
_sqlite3PagerSetDestructor PROC				; COMDAT
; _pPager$ = ecx
; _xDesc$ = eax
; Line 19644
	mov	DWORD PTR [ecx+180], eax
; Line 19645
	ret	0
_sqlite3PagerSetDestructor ENDP
; Function compile flags: /Ogtpy
_TEXT	ENDS
;	COMDAT _sqlite3PagerSetReiniter
_TEXT	SEGMENT
_sqlite3PagerSetReiniter PROC				; COMDAT
; _pPager$ = ecx
; _xReinit$ = eax
; Line 19655
	mov	DWORD PTR [ecx+184], eax
; Line 19656
	ret	0
_sqlite3PagerSetReiniter ENDP
; Function compile flags: /Ogtpy
_TEXT	ENDS
;	COMDAT _sqlite3PagerReadFileheader
_TEXT	SEGMENT
_sqlite3PagerReadFileheader PROC			; COMDAT
; _pPager$ = esi
; _N$ = ebx
; _pDest$ = edi
; Line 19722
	push	ebp
; Line 19724
	push	ebx
	xor	ebp, ebp
	push	ebp
	push	edi
	call	_memset
	add	esp, 12					; 0000000cH
; Line 19725
	cmp	BYTE PTR [esi+16], 0
	jne	SHORT $LN10@sqlite3Pag@3
; Line 19727
	mov	eax, DWORD PTR [esi+96]
	mov	ecx, DWORD PTR [eax]
	mov	edx, DWORD PTR [ecx+16]
	push	ebp
	push	ebp
	push	eax
	call	edx
; Line 19730
	mov	eax, DWORD PTR [esi+96]
	mov	ecx, DWORD PTR [eax]
	mov	edx, DWORD PTR [ecx+8]
	push	ebx
	push	edi
	push	eax
	call	edx
	add	esp, 24					; 00000018H
; Line 19731
	cmp	eax, 522				; 0000020aH
	jne	SHORT $LN1@sqlite3Pag@3
; Line 19732
	xor	eax, eax
	pop	ebp
; Line 19736
	ret	0
$LN10@sqlite3Pag@3:
; Line 19735
	mov	eax, ebp
$LN1@sqlite3Pag@3:
	pop	ebp
; Line 19736
	ret	0
_sqlite3PagerReadFileheader ENDP
; Function compile flags: /Ogtpy
_TEXT	ENDS
;	COMDAT _sqlite3PagerPagecount
_TEXT	SEGMENT
_n$ = -8						; size = 8
_sqlite3PagerPagecount PROC				; COMDAT
; _pPager$ = esi
; Line 19747
	sub	esp, 8
; Line 19751
	cmp	DWORD PTR [esi+24], 0
	je	SHORT $LN9@sqlite3Pag@4
; Line 19752
	xor	eax, eax
; Line 19777
	add	esp, 8
	ret	0
$LN9@sqlite3Pag@4:
; Line 19754
	mov	eax, DWORD PTR [esi+28]
	test	eax, eax
	push	edi
	jl	SHORT $LN8@sqlite3Pag@4
; Line 19755
	cdq
	mov	ecx, eax
	mov	edi, edx
; Line 19756
	jmp	SHORT $LN3@sqlite3Pag@4
$LN8@sqlite3Pag@4:
; Line 19757
	mov	eax, DWORD PTR [esi+96]
	mov	ecx, DWORD PTR [eax]
	lea	edx, DWORD PTR _n$[esp+12]
	push	edx
	push	eax
	mov	eax, DWORD PTR [ecx+36]
	call	eax
	add	esp, 8
	test	eax, eax
	je	SHORT $LN6@sqlite3Pag@4
; Line 19758
	mov	ecx, eax
	and	ecx, 255				; 000000ffH
	cmp	ecx, 13					; 0000000dH
	je	SHORT $LN14@sqlite3Pag@4
	cmp	ecx, 10					; 0000000aH
	je	SHORT $LN14@sqlite3Pag@4
	cmp	ecx, 11					; 0000000bH
	jne	SHORT $LN15@sqlite3Pag@4
$LN14@sqlite3Pag@4:
	mov	DWORD PTR [esi+24], eax
$LN15@sqlite3Pag@4:
; Line 19759
	xor	eax, eax
	pop	edi
; Line 19777
	add	esp, 8
	ret	0
$LN6@sqlite3Pag@4:
; Line 19761
	mov	ecx, DWORD PTR _n$[esp+16]
	test	ecx, ecx
	mov	edi, DWORD PTR _n$[esp+12]
	jl	SHORT $LN5@sqlite3Pag@4
	jg	SHORT $LN18@sqlite3Pag@4
	test	edi, edi
	jbe	SHORT $LN5@sqlite3Pag@4
$LN18@sqlite3Pag@4:
	mov	eax, DWORD PTR [esi+56]
	cdq
	cmp	ecx, edx
	jg	SHORT $LN5@sqlite3Pag@4
	jl	SHORT $LN19@sqlite3Pag@4
	cmp	edi, eax
	jae	SHORT $LN5@sqlite3Pag@4
$LN19@sqlite3Pag@4:
; Line 19762
	mov	ecx, 1
	xor	edi, edi
; Line 19763
	jmp	SHORT $LN4@sqlite3Pag@4
$LN5@sqlite3Pag@4:
; Line 19764
	mov	eax, DWORD PTR [esi+56]
	cdq
	push	edx
	push	eax
	push	ecx
	push	edi
	call	__alldiv
	mov	ecx, eax
	mov	edi, edx
$LN4@sqlite3Pag@4:
; Line 19766
	cmp	BYTE PTR [esi+10], 0
	je	SHORT $LN3@sqlite3Pag@4
; Line 19767
	mov	DWORD PTR [esi+28], ecx
$LN3@sqlite3Pag@4:
; Line 19770
	mov	eax, 1073741824				; 40000000H
	cdq
	idiv	DWORD PTR [esi+56]
	cdq
	cmp	ecx, eax
	jne	SHORT $LN2@sqlite3Pag@4
	cmp	edi, edx
	jne	SHORT $LN2@sqlite3Pag@4
; Line 19771
	add	ecx, 1
	adc	edi, 0
$LN2@sqlite3Pag@4:
; Line 19773
	mov	edx, DWORD PTR [esi+72]
	xor	eax, eax
	cmp	edi, eax
	jl	SHORT $LN1@sqlite3Pag@4
	jg	SHORT $LN20@sqlite3Pag@4
	cmp	ecx, edx
	jbe	SHORT $LN1@sqlite3Pag@4
$LN20@sqlite3Pag@4:
; Line 19774
	mov	DWORD PTR [esi+72], ecx
$LN1@sqlite3Pag@4:
; Line 19776
	mov	eax, ecx
	pop	edi
; Line 19777
	add	esp, 8
	ret	0
_sqlite3PagerPagecount ENDP
; Function compile flags: /Ogtpy
_TEXT	ENDS
;	COMDAT __page_ref
_TEXT	SEGMENT
__page_ref PROC						; COMDAT
; _pPg$ = eax
; Line 20049
	cmp	WORD PTR [eax+34], 0
	jne	SHORT $LN13@page_ref
; Line 20051
	mov	edx, DWORD PTR [eax]
	cmp	eax, DWORD PTR [edx+120]
	jne	SHORT $LN7@page_ref
; Line 20052
	mov	ecx, DWORD PTR [eax+16]
; Line 20053
	test	ecx, ecx
	je	SHORT $LN5@page_ref
$LL6@page_ref:
	cmp	BYTE PTR [ecx+30], 0
	je	SHORT $LN5@page_ref
	mov	ecx, DWORD PTR [ecx+16]
	test	ecx, ecx
	jne	SHORT $LL6@page_ref
$LN5@page_ref:
; Line 20054
	mov	DWORD PTR [edx+120], ecx
$LN7@page_ref:
; Line 20056
	mov	ecx, DWORD PTR [eax+20]
	test	ecx, ecx
; Line 20057
	mov	edx, DWORD PTR [eax+16]
	je	SHORT $LN4@page_ref
	mov	DWORD PTR [ecx+16], edx
; Line 20058
	jmp	SHORT $LN3@page_ref
$LN4@page_ref:
; Line 20059
	mov	ecx, DWORD PTR [eax]
	mov	DWORD PTR [ecx+112], edx
$LN3@page_ref:
; Line 20061
	mov	ecx, DWORD PTR [eax+16]
	test	ecx, ecx
; Line 20062
	mov	edx, DWORD PTR [eax+20]
	je	SHORT $LN2@page_ref
	mov	DWORD PTR [ecx+20], edx
; Line 20066
	mov	ecx, DWORD PTR [eax]
	mov	edx, 1
	add	DWORD PTR [ecx+64], edx
; Line 20068
	add	WORD PTR [eax+34], dx
; Line 20070
	ret	0
$LN2@page_ref:
; Line 20064
	mov	ecx, DWORD PTR [eax]
	mov	DWORD PTR [ecx+116], edx
; Line 20066
	mov	ecx, DWORD PTR [eax]
	mov	edx, 1
	add	DWORD PTR [ecx+64], edx
; Line 20068
	add	WORD PTR [eax+34], dx
; Line 20070
	ret	0
$LN13@page_ref:
; Line 20068
	add	WORD PTR [eax+34], 1
; Line 20070
	ret	0
__page_ref ENDP
; Function compile flags: /Ogtpy
_TEXT	ENDS
;	COMDAT _sqlite3PagerRef
_TEXT	SEGMENT
_sqlite3PagerRef PROC					; COMDAT
; _pPg$ = eax
; Line 20089
	movzx	ecx, WORD PTR [eax+34]
	test	cx, cx
	jne	SHORT $LN3@sqlite3Pag@5
	call	__page_ref
; Line 20090
	xor	eax, eax
; Line 20091
	ret	0
$LN3@sqlite3Pag@5:
; Line 20089
	add	ecx, 1
	mov	WORD PTR [eax+34], cx
; Line 20090
	xor	eax, eax
; Line 20091
	ret	0
_sqlite3PagerRef ENDP
; Function compile flags: /Ogtpy
_TEXT	ENDS
;	COMDAT _syncJournal
_TEXT	SEGMENT
_syncJournal PROC					; COMDAT
; _pPager$ = esi
; Line 20120
	cmp	BYTE PTR [esi+13], 0
	push	edi
	je	$LN11@syncJourna
; Line 20121
	cmp	BYTE PTR [esi+11], 0
	jne	$LN10@syncJourna
; Line 20142
	cmp	BYTE PTR [esi+8], 0
	je	SHORT $LN8@syncJourna
; Line 20145
	mov	eax, DWORD PTR [esi+100]
	mov	ecx, DWORD PTR [eax]
	mov	edx, DWORD PTR [ecx+24]
	push	0
	push	eax
	call	edx
	add	esp, 8
; Line 20146
	test	eax, eax
	jne	$LN12@syncJourna
$LN8@syncJourna:
; Line 20149
	mov	eax, DWORD PTR [esi+144]
	mov	ecx, DWORD PTR [esi+148]
	mov	edx, DWORD PTR [esi+100]
	mov	edi, DWORD PTR [edx]
	add	eax, 8
	adc	ecx, 0
	push	ecx
	push	eax
	mov	eax, DWORD PTR [edi+16]
	push	edx
	call	eax
	add	esp, 12					; 0000000cH
; Line 20150
	test	eax, eax
	jne	SHORT $LN12@syncJourna
; Line 20153
	mov	eax, DWORD PTR [esi+40]
	mov	ecx, DWORD PTR [esi+100]
	call	_write32bits
; Line 20154
	test	eax, eax
	jne	SHORT $LN12@syncJourna
; Line 20156
	mov	edx, DWORD PTR [esi+140]
	mov	ecx, DWORD PTR [esi+136]
	mov	eax, DWORD PTR [esi+100]
	mov	edi, DWORD PTR [eax]
	push	edx
	push	ecx
	mov	ecx, DWORD PTR [edi+16]
	push	eax
	call	ecx
	add	esp, 12					; 0000000cH
; Line 20157
	test	eax, eax
	jne	SHORT $LN12@syncJourna
; Line 20161
	movzx	ecx, BYTE PTR [esi+9]
	mov	eax, DWORD PTR [esi+100]
	mov	edx, DWORD PTR [eax]
	push	ecx
	push	eax
	mov	eax, DWORD PTR [edx+24]
	call	eax
	add	esp, 8
; Line 20162
	test	eax, eax
	jne	SHORT $LN12@syncJourna
; Line 20163
	mov	BYTE PTR [esi+1], 1
$LN10@syncJourna:
; Line 20169
	mov	eax, DWORD PTR [esi+124]
	test	eax, eax
	mov	BYTE PTR [esi+13], 0
	je	SHORT $LN1@syncJourna
	npad	2
$LL3@syncJourna:
; Line 20170
	mov	BYTE PTR [eax+30], 0
	mov	eax, DWORD PTR [eax+24]
	test	eax, eax
	jne	SHORT $LL3@syncJourna
$LN1@syncJourna:
; Line 20172
	mov	ecx, DWORD PTR [esi+112]
	mov	DWORD PTR [esi+120], ecx
$LN11@syncJourna:
; Line 20188
	xor	eax, eax
$LN12@syncJourna:
	pop	edi
; Line 20189
	ret	0
_syncJournal ENDP
; Function compile flags: /Ogtpy
_TEXT	ENDS
;	COMDAT _merge_pagelist
_TEXT	SEGMENT
_result$ = -48						; size = 48
_merge_pagelist PROC					; COMDAT
; _pA$ = eax
; _pB$ = ecx
; Line 20195
	sub	esp, 48					; 00000030H
; Line 20198
	test	eax, eax
	push	esi
	lea	edx, DWORD PTR _result$[esp+52]
	je	SHORT $LN4@merge_page
	npad	4
$LL8@merge_page:
	test	ecx, ecx
	je	SHORT $LN7@merge_page
; Line 20199
	mov	esi, DWORD PTR [eax+4]
	cmp	esi, DWORD PTR [ecx+4]
	jae	SHORT $LN6@merge_page
; Line 20200
	mov	DWORD PTR [edx+36], eax
; Line 20201
	mov	edx, eax
; Line 20202
	mov	eax, DWORD PTR [eax+36]
; Line 20203
	jmp	SHORT $LN5@merge_page
$LN6@merge_page:
; Line 20204
	mov	DWORD PTR [edx+36], ecx
; Line 20205
	mov	edx, ecx
; Line 20206
	mov	ecx, DWORD PTR [ecx+36]
$LN5@merge_page:
; Line 20198
	test	eax, eax
	jne	SHORT $LL8@merge_page
$LN4@merge_page:
; Line 20211
	test	ecx, ecx
	je	SHORT $LN2@merge_page
; Line 20212
	mov	DWORD PTR [edx+36], ecx
; Line 20216
	mov	eax, DWORD PTR _result$[esp+88]
	pop	esi
; Line 20217
	add	esp, 48					; 00000030H
	ret	0
$LN7@merge_page:
; Line 20209
	test	eax, eax
	je	SHORT $LN2@merge_page
; Line 20210
	mov	DWORD PTR [edx+36], eax
; Line 20216
	mov	eax, DWORD PTR _result$[esp+88]
	pop	esi
; Line 20217
	add	esp, 48					; 00000030H
	ret	0
$LN2@merge_page:
; Line 20214
	mov	DWORD PTR [edx+36], 0
; Line 20216
	mov	eax, DWORD PTR _result$[esp+88]
	pop	esi
; Line 20217
	add	esp, 48					; 00000030H
	ret	0
_merge_pagelist ENDP
; Function compile flags: /Ogtpy
_TEXT	ENDS
;	COMDAT _sort_pagelist
_TEXT	SEGMENT
_a$ = -100						; size = 100
_sort_pagelist PROC					; COMDAT
; _pIn$ = eax
; Line 20232
	sub	esp, 100				; 00000064H
	push	esi
	push	edi
; Line 20235
	push	100					; 00000064H
	mov	edi, eax
	lea	eax, DWORD PTR _a$[esp+112]
	push	0
	push	eax
	call	_memset
	add	esp, 12					; 0000000cH
; Line 20236
	test	edi, edi
	je	SHORT $LN10@sort_pagel
	npad	4
$LL11@sort_pagel:
; Line 20238
	lea	eax, DWORD PTR [edi+36]
	mov	ecx, edi
	mov	edi, DWORD PTR [eax]
; Line 20239
	mov	DWORD PTR [eax], 0
; Line 20240
	xor	esi, esi
	npad	1
$LL9@sort_pagel:
; Line 20241
	mov	eax, DWORD PTR _a$[esp+esi*4+108]
	test	eax, eax
	je	SHORT $LN17@sort_pagel
; Line 20245
	call	_merge_pagelist
; Line 20246
	mov	DWORD PTR _a$[esp+esi*4+108], 0
	add	esi, 1
	cmp	esi, 24					; 00000018H
	mov	ecx, eax
	jl	SHORT $LL9@sort_pagel
; Line 20241
	jmp	SHORT $LN7@sort_pagel
$LN17@sort_pagel:
; Line 20242
	mov	DWORD PTR _a$[esp+esi*4+108], ecx
$LN7@sort_pagel:
; Line 20249
	cmp	esi, 24					; 00000018H
	jne	SHORT $LN4@sort_pagel
; Line 20255
	mov	eax, DWORD PTR _a$[esp+204]
	call	_merge_pagelist
	mov	DWORD PTR _a$[esp+204], eax
$LN4@sort_pagel:
; Line 20236
	test	edi, edi
	jne	SHORT $LL11@sort_pagel
$LN10@sort_pagel:
; Line 20258
	mov	eax, DWORD PTR _a$[esp+108]
; Line 20259
	mov	esi, 1
$LL3@sort_pagel:
; Line 20260
	mov	ecx, DWORD PTR _a$[esp+esi*4+108]
	call	_merge_pagelist
	add	esi, 1
	cmp	esi, 25					; 00000019H
	jl	SHORT $LL3@sort_pagel
	pop	edi
	pop	esi
; Line 20263
	add	esp, 100				; 00000064H
	ret	0
_sort_pagelist ENDP
; Function compile flags: /Ogtpy
_TEXT	ENDS
;	COMDAT _pager_get_all_dirty_pages
_TEXT	SEGMENT
_pager_get_all_dirty_pages PROC				; COMDAT
; _pPager$ = eax
; Line 20341
	mov	eax, DWORD PTR [eax+132]
; Line 20342
	ret	0
_pager_get_all_dirty_pages ENDP
; Function compile flags: /Ogtpy
_TEXT	ENDS
;	COMDAT _readDbPage
_TEXT	SEGMENT
_readDbPage PROC					; COMDAT
; _pPager$ = eax
; _pPg$ = edi
; _pgno$ = ebx
; Line 20546
	push	ebp
	push	esi
	mov	esi, eax
; Line 20549
	mov	eax, DWORD PTR [esi+56]
	cdq
	push	edx
	push	eax
	lea	ecx, DWORD PTR [ebx-1]
	push	0
	push	ecx
	call	__allmul
	mov	ecx, DWORD PTR [esi+96]
	mov	ebp, DWORD PTR [ecx]
	push	edx
	mov	edx, DWORD PTR [ebp+16]
	push	eax
	push	ecx
	call	edx
	add	esp, 12					; 0000000cH
; Line 20550
	test	eax, eax
	jne	SHORT $LN2@readDbPage
; Line 20552
	mov	ecx, DWORD PTR [esi+56]
	mov	eax, DWORD PTR [esi+96]
	mov	edx, DWORD PTR [eax]
	mov	edx, DWORD PTR [edx+8]
	push	ecx
	lea	ecx, DWORD PTR [edi+48]
	push	ecx
	push	eax
	call	edx
	add	esp, 12					; 0000000cH
$LN2@readDbPage:
; Line 20557
	cmp	ebx, 1
	jne	SHORT $LN1@readDbPage
; Line 20559
	lea	edx, DWORD PTR [esi+200]
	mov	esi, DWORD PTR [edi+72]
	lea	ecx, DWORD PTR [edi+72]
	mov	DWORD PTR [edx], esi
	mov	esi, DWORD PTR [ecx+4]
	mov	DWORD PTR [edx+4], esi
	mov	esi, DWORD PTR [ecx+8]
	mov	DWORD PTR [edx+8], esi
	mov	ecx, DWORD PTR [ecx+12]
	mov	DWORD PTR [edx+12], ecx
$LN1@readDbPage:
	pop	esi
	pop	ebp
; Line 20565
	ret	0
_readDbPage ENDP
; Function compile flags: /Ogtpy
_TEXT	ENDS
;	COMDAT _pager_get_content
_TEXT	SEGMENT
_pager_get_content PROC					; COMDAT
; _pPg$ = eax
; Line 20803
	push	edi
	mov	edi, eax
; Line 20804
	cmp	BYTE PTR [edi+32], 0
	je	SHORT $LN1@pager_get_
; Line 20805
	mov	eax, DWORD PTR [edi]
	push	ebx
	mov	ebx, DWORD PTR [edi+4]
	call	_readDbPage
; Line 20806
	test	eax, eax
	pop	ebx
	jne	SHORT $LN4@pager_get_
; Line 20807
	mov	BYTE PTR [edi+32], al
$LN1@pager_get_:
; Line 20812
	xor	eax, eax
$LN4@pager_get_:
	pop	edi
; Line 20813
	ret	0
_pager_get_content ENDP
; Function compile flags: /Ogtpy
_TEXT	ENDS
;	COMDAT _sqlite3PagerLookup
_TEXT	SEGMENT
_sqlite3PagerLookup PROC				; COMDAT
; _pPager$ = eax
; _pgno$ = edx
; Line 20988
	cmp	BYTE PTR [eax+10], 0
	jne	SHORT $LN3@sqlite3Pag@6
$LN17@sqlite3Pag@6:
; Line 20990
	xor	eax, eax
; Line 20999
	ret	0
$LN3@sqlite3Pag@6:
; Line 20992
	mov	ecx, DWORD PTR [eax+24]
	test	ecx, ecx
	je	SHORT $LN2@sqlite3Pag@6
	cmp	ecx, 13					; 0000000dH
; Line 20993
	jne	SHORT $LN17@sqlite3Pag@6
$LN2@sqlite3Pag@6:
; Line 20995
	mov	ecx, DWORD PTR [eax+192]
	test	ecx, ecx
	je	SHORT $LN17@sqlite3Pag@6
	mov	eax, DWORD PTR [eax+188]
	sub	eax, 1
	and	eax, edx
	mov	eax, DWORD PTR [ecx+eax*4]
	test	eax, eax
	je	SHORT $LN17@sqlite3Pag@6
$LL9@sqlite3Pag@6:
	cmp	DWORD PTR [eax+4], edx
	je	SHORT $LN8@sqlite3Pag@6
	mov	eax, DWORD PTR [eax+8]
	test	eax, eax
	jne	SHORT $LL9@sqlite3Pag@6
; Line 20999
	ret	0
; Line 20995
$LN8@sqlite3Pag@6:
; Line 20996
	test	eax, eax
	je	SHORT $LN17@sqlite3Pag@6
; Line 20997
	movzx	ecx, WORD PTR [eax+34]
	test	cx, cx
	jne	SHORT $LN6@sqlite3Pag@6
	jmp	__page_ref
$LN6@sqlite3Pag@6:
	add	ecx, 1
	mov	WORD PTR [eax+34], cx
; Line 20999
	ret	0
_sqlite3PagerLookup ENDP
; Function compile flags: /Ogtpy
_TEXT	ENDS
;	COMDAT _makeDirty
_TEXT	SEGMENT
_makeDirty PROC						; COMDAT
; _pPg$ = eax
; Line 21198
	cmp	BYTE PTR [eax+29], 0
	jne	SHORT $LN2@makeDirty
; Line 21199
	mov	ecx, DWORD PTR [eax]
; Line 21200
	mov	BYTE PTR [eax+29], 1
; Line 21201
	mov	edx, DWORD PTR [ecx+132]
	mov	DWORD PTR [eax+36], edx
; Line 21202
	mov	edx, DWORD PTR [ecx+132]
	test	edx, edx
	je	SHORT $LN1@makeDirty
; Line 21203
	mov	DWORD PTR [edx+40], eax
$LN1@makeDirty:
; Line 21205
	mov	DWORD PTR [eax+40], 0
; Line 21206
	mov	DWORD PTR [ecx+132], eax
$LN2@makeDirty:
; Line 21208
	ret	0
_makeDirty ENDP
; Function compile flags: /Ogtpy
_TEXT	ENDS
;	COMDAT _makeClean
_TEXT	SEGMENT
_makeClean PROC						; COMDAT
; _pPg$ = eax
; Line 21215
	cmp	BYTE PTR [eax+29], 0
	je	SHORT $LN1@makeClean
; Line 21217
	mov	ecx, DWORD PTR [eax+36]
	test	ecx, ecx
	mov	BYTE PTR [eax+29], 0
	je	SHORT $LN3@makeClean
; Line 21218
	mov	edx, DWORD PTR [eax+40]
	mov	DWORD PTR [ecx+40], edx
$LN3@makeClean:
; Line 21220
	mov	ecx, DWORD PTR [eax+40]
	test	ecx, ecx
	je	SHORT $LN2@makeClean
; Line 21221
	mov	eax, DWORD PTR [eax+36]
	mov	DWORD PTR [ecx+36], eax
; Line 21226
	ret	0
$LN2@makeClean:
; Line 21223
	mov	ecx, DWORD PTR [eax]
	mov	edx, DWORD PTR [eax+36]
	mov	DWORD PTR [ecx+132], edx
$LN1@makeClean:
; Line 21226
	ret	0
_makeClean ENDP
; Function compile flags: /Ogtpy
_TEXT	ENDS
;	COMDAT _sqlite3PagerDontWrite
_TEXT	SEGMENT
_sqlite3PagerDontWrite PROC				; COMDAT
; _pDbPage$ = eax
; Line 21545
	mov	ecx, DWORD PTR [eax]
; Line 21547
	cmp	BYTE PTR [ecx+16], 0
	jne	SHORT $LN1@sqlite3Pag@7
; Line 21549
	cmp	BYTE PTR [eax+29], 0
	mov	BYTE PTR [eax+31], 1
	je	SHORT $LN1@sqlite3Pag@7
	cmp	BYTE PTR [ecx+5], 0
	jne	SHORT $LN1@sqlite3Pag@7
; Line 21551
	mov	edx, DWORD PTR [ecx+28]
	cmp	edx, DWORD PTR [eax+4]
	jne	SHORT $LN2@sqlite3Pag@7
	cmp	DWORD PTR [ecx+32], edx
	jl	SHORT $LN1@sqlite3Pag@7
$LN2@sqlite3Pag@7:
; Line 21563
	jmp	_makeClean
$LN1@sqlite3Pag@7:
; Line 21569
	ret	0
_sqlite3PagerDontWrite ENDP
; Function compile flags: /Ogtpy
_TEXT	ENDS
;	COMDAT _sqlite3PagerDontRollback
_TEXT	SEGMENT
_sqlite3PagerDontRollback PROC				; COMDAT
; _pPg$ = edi
; Line 21582
	push	esi
; Line 21583
	mov	esi, DWORD PTR [edi]
; Line 21586
	cmp	BYTE PTR [esi], 0
	je	$LN4@sqlite3Pag@8
; Line 21587
	cmp	BYTE PTR [edi+31], 0
	jne	SHORT $LN4@sqlite3Pag@8
	cmp	BYTE PTR [esi+15], 0
	jne	SHORT $LN4@sqlite3Pag@8
	cmp	BYTE PTR [esi+16], 0
	jne	SHORT $LN4@sqlite3Pag@8
; Line 21588
	cmp	BYTE PTR [edi+28], 0
	jne	SHORT $LN2@sqlite3Pag@8
	mov	ecx, DWORD PTR [edi+4]
	cmp	ecx, DWORD PTR [esi+32]
	jg	SHORT $LN2@sqlite3Pag@8
; Line 21590
	mov	edx, DWORD PTR [esi+76]
	mov	eax, ecx
	shr	eax, 3
	add	eax, edx
	and	ecx, 7
	mov	dl, 1
	shl	dl, cl
	or	BYTE PTR [eax], dl
; Line 21591
	mov	BYTE PTR [edi+28], 1
; Line 21592
	mov	BYTE PTR [edi+32], 0
; Line 21593
	cmp	BYTE PTR [esi+5], 0
	je	SHORT $LN4@sqlite3Pag@8
; Line 21594
	mov	ecx, DWORD PTR [edi+4]
	mov	edx, DWORD PTR [esi+80]
	mov	eax, ecx
	shr	eax, 3
	add	eax, edx
	and	ecx, 7
	mov	dl, 1
	shl	dl, cl
	or	BYTE PTR [eax], dl
$LN2@sqlite3Pag@8:
; Line 21602
	cmp	BYTE PTR [esi+5], 0
	je	SHORT $LN4@sqlite3Pag@8
	mov	eax, edi
	call	_pageInStatement
	test	eax, eax
	jne	SHORT $LN4@sqlite3Pag@8
	mov	ecx, DWORD PTR [edi+4]
	cmp	ecx, DWORD PTR [esi+36]
	jg	SHORT $LN4@sqlite3Pag@8
; Line 21605
	mov	edx, DWORD PTR [esi+80]
	mov	eax, ecx
	shr	eax, 3
	add	eax, edx
	and	ecx, 7
	mov	dl, 1
	shl	dl, cl
	or	BYTE PTR [eax], dl
$LN4@sqlite3Pag@8:
	pop	esi
; Line 21607
	ret	0
_sqlite3PagerDontRollback ENDP
; Function compile flags: /Ogtpy
_TEXT	ENDS
;	COMDAT _sqlite3PagerIsreadonly
_TEXT	SEGMENT
_sqlite3PagerIsreadonly PROC				; COMDAT
; _pPager$ = eax
; Line 21877
	movzx	eax, BYTE PTR [eax+12]
; Line 21878
	ret	0
_sqlite3PagerIsreadonly ENDP
; Function compile flags: /Ogtpy
_TEXT	ENDS
;	COMDAT _sqlite3PagerRefcount
_TEXT	SEGMENT
_sqlite3PagerRefcount PROC				; COMDAT
; _pPager$ = eax
; Line 21884
	mov	eax, DWORD PTR [eax+64]
; Line 21885
	ret	0
_sqlite3PagerRefcount ENDP
; Function compile flags: /Ogtpy
_TEXT	ENDS
;	COMDAT _sqlite3PagerFilename
_TEXT	SEGMENT
_sqlite3PagerFilename PROC				; COMDAT
; _pPager$ = eax
; Line 22029
	mov	eax, DWORD PTR [eax+84]
; Line 22030
	ret	0
_sqlite3PagerFilename ENDP
