 dgate

 Timestamp is 519de8a2 (Thu May 23 11:00:02 2013)

 Preferred load address is 00400000

 Start         Length     Name                   Class
 0001:00000000 002270a0H .text                   CODE
 0001:002270a0 00001195H .text$x                 CODE
 0001:00228240 0000161eH .text$yc                CODE
 0001:00229860 000011d1H .text$yd                CODE
 0002:00000000 00000104H .CRT$XCA                DATA
 0002:00000104 0000010eH .CRT$XCC                DATA
 0002:00000214 00000109H .CRT$XCL                DATA
 0002:00000320 00000143H .CRT$XCU                DATA
 0002:00000464 00000104H .CRT$XCZ                DATA
 0002:00000568 00000104H .CRT$XIA                DATA
 0002:0000066c 0000011cH .CRT$XIC                DATA
 0002:00000788 00000104H .CRT$XIY                DATA
 0002:0000088c 00000104H .CRT$XIZ                DATA
 0002:00000990 00000104H .CRT$XPA                DATA
 0002:00000a94 0000010eH .CRT$XPX                DATA
 0002:00000ba4 00000104H .CRT$XPXA               DATA
 0002:00000ca8 00000104H .CRT$XPZ                DATA
 0002:00000dac 00000104H .CRT$XTA                DATA
 0002:00000eb0 00000104H .CRT$XTZ                DATA
 0002:00000fc0 0004758cH .rdata                  DATA
 0002:0004854c 0000015dH .rdata$debug            DATA
 0002:000486ac 0000447aH .rdata$r                DATA
 0002:0004cb30 00000143H .rdata$sxdata           DATA
 0002:0004cc74 00000104H .rtc$IAA                DATA
 0002:0004cd78 00000104H .rtc$IZZ                DATA
 0002:0004ce7c 00000104H .rtc$TAA                DATA
 0002:0004cf80 00000104H .rtc$TZZ                DATA
 0002:0004d088 00001824H .xdata$x                DATA
 0002:0004e8ac 00000000H .edata                  DATA
 0003:00000000 0000702dH .data                   DATA
 0003:00007040 003f48a4H .bss                    DATA
 0004:00000000 00000050H .idata$2                DATA
 0004:00000050 00000014H .idata$3                DATA
 0004:00000064 00000434H .idata$4                DATA
 0004:00000498 00000434H .idata$5                DATA
 0004:000008cc 00000db3H .idata$6                DATA

  Address         Publics by Value              Rva+Base       Lib:Object

 0000:00000000       __except_list              00000000     <absolute>
 0000:0000000e       ___safe_se_handler_count   0000000e     <absolute>
 0000:00000000       ___ImageBase               00400000     <linker-defined>
 0001:00005f90       ?strchr@@YAPADPADH@Z       00406f90 f i total.obj
 0001:00005fa0       ?strrchr@@YAPADPADH@Z      00406fa0 f i total.obj
 0001:00005fb0       ?strstr@@YAPADPADPBD@Z     00406fb0 f i total.obj
 0001:00005fc0       ?memchr@@YAPAXPAXHI@Z      00406fc0 f i total.obj
 0001:00006010       ?GetIncomingEndian@Buffer@@QAEIXZ 00407010 f i total.obj
 0001:00006020       ??0VR@@QAE@XZ              00407020 f i total.obj
 0001:00006050       ?GetBuffer@UID@@QAEPAEI@Z  00407050 f i total.obj
 0001:00006060       ?SetLength@UID@@QAEXI@Z    00407060 f i total.obj
 0001:00006090       ?GetSize@UID@@QAEIXZ       00407090 f i total.obj
 0001:000060a0       ??8UID@@QAEHAAV0@@Z        004070a0 f i total.obj
 0001:00006100       ??9UID@@QAEHAAV0@@Z        00407100 f i total.obj
 0001:00006160       ??4UID@@QAE?AV0@AAV0@@Z    00407160 f i total.obj
 0001:000061c0       ?SetType@TransferSyntax@@QAEXI@Z 004071c0 f i total.obj
 0001:000061d0       ?OpenForRead@FileBuffer@@QAEHPAD@Z 004071d0 f   total.obj
 0001:00006200       ?OpenForWrite@FileBuffer@@QAEHPAD@Z 00407200 f   total.obj
 0001:00006230       ?Close@FileBuffer@@QAEHXZ  00407230 f   total.obj
 0001:00006250       ?SendBinary@FileBuffer@@UAEHPAEI@Z 00407250 f   total.obj
 0001:00006280       ?ReadBinary@FileBuffer@@UAEHPAEI@Z 00407280 f   total.obj
 0001:000062d0       ??0bad_alloc@std@@QAE@PBD@Z 004072d0 f i total.obj
 0001:000062f0       ??1bad_alloc@std@@UAE@XZ   004072f0 f i total.obj
 0001:00006300       ??_Gbad_alloc@std@@UAEPAXI@Z 00407300 f i total.obj
 0001:00006300       ??_Ebad_alloc@std@@UAEPAXI@Z 00407300 f i total.obj
 0001:00006330       ?copy@?$char_traits@D@std@@SAPADPADPBDI@Z 00407330 f i total.obj
 0001:00006340       ?assign@?$char_traits@D@std@@SAPADPADID@Z 00407340 f i total.obj
 0001:00006360       ?assign@?$char_traits@D@std@@SAXAADABD@Z 00407360 f i total.obj
 0001:00006370       ?to_char_type@?$char_traits@D@std@@SADABH@Z 00407370 f i total.obj
 0001:00006380       ?to_int_type@?$char_traits@D@std@@SAHABD@Z 00407380 f i total.obj
 0001:00006390       ?eq_int_type@?$char_traits@D@std@@SA_NABH0@Z 00407390 f i total.obj
 0001:000063b0       ?eof@?$char_traits@D@std@@SAHXZ 004073b0 f i total.obj
 0001:000063c0       ?_Adopt@_Iterator_base0@std@@QAEXPBX@Z 004073c0 f i total.obj
 0001:000063d0       ??0runtime_error@std@@QAE@PBD@Z 004073d0 f i total.obj
 0001:000063f0       ??1runtime_error@std@@UAE@XZ 004073f0 f i total.obj
 0001:00006400       ?_Getctype@_Locinfo@std@@QBE?AU_Ctypevec@@XZ 00407400 f i total.obj
 0001:00006440       ??0id@locale@std@@QAE@I@Z  00407440 f i total.obj
 0001:00006450       ??Bid@locale@std@@QAEIXZ   00407450 f i total.obj
 0001:000064a0       ?_Incref@facet@locale@std@@QAEXXZ 004074a0 f i total.obj
 0001:000064d0       ?_Decref@facet@locale@std@@QAEPAV123@XZ 004074d0 f i total.obj
 0001:00006520       ?_Register@facet@locale@std@@QAEXXZ 00407520 f i total.obj
 0001:00006530       ??1facet@locale@std@@UAE@XZ 00407530 f i total.obj
 0001:00006540       ??0facet@locale@std@@IAE@I@Z 00407540 f i total.obj
 0001:00006560       ??0locale@std@@QAE@ABV01@@Z 00407560 f i total.obj
 0001:000065a0       ??0locale@std@@QAE@XZ      004075a0 f i total.obj
 0001:000065f0       ??1locale@std@@QAE@XZ      004075f0 f i total.obj
 0001:00006650       ?_Getfacet@locale@std@@QBEPBVfacet@12@I@Z 00407650 f i total.obj
 0001:000066a0       ??_Gfacet@locale@std@@UAEPAXI@Z 004076a0 f i total.obj
 0001:000066a0       ??_Efacet@locale@std@@UAEPAXI@Z 004076a0 f i total.obj
 0001:000066d0       ??0codecvt_base@std@@QAE@I@Z 004076d0 f i total.obj
 0001:000066f0       ?always_noconv@codecvt_base@std@@QBE_NXZ 004076f0 f i total.obj
 0001:00006700       ??1codecvt_base@std@@UAE@XZ 00407700 f i total.obj
 0001:00006710       ?do_always_noconv@codecvt_base@std@@MBE_NXZ 00407710 f i total.obj
 0001:00006720       ?do_max_length@codecvt_base@std@@MBEHXZ 00407720 f i total.obj
 0001:00006730       ?do_encoding@codecvt_base@std@@MBEHXZ 00407730 f i total.obj
 0001:00006740       ??_Gcodecvt_base@std@@UAEPAXI@Z 00407740 f i total.obj
 0001:00006740       ??_Ecodecvt_base@std@@UAEPAXI@Z 00407740 f i total.obj
 0001:00006770       ??0ctype_base@std@@QAE@I@Z 00407770 f i total.obj
 0001:00006790       ??1ctype_base@std@@UAE@XZ  00407790 f i total.obj
 0001:000067a0       ??_Ectype_base@std@@UAEPAXI@Z 004077a0 f i total.obj
 0001:000067a0       ??_Gctype_base@std@@UAEPAXI@Z 004077a0 f i total.obj
 0001:000067d0       ?is@?$ctype@D@std@@QBE_NFD@Z 004077d0 f i total.obj
 0001:00006800       ?widen@?$ctype@D@std@@QBEDD@Z 00407800 f i total.obj
 0001:00006810       ?_Init@?$ctype@D@std@@IAEXABV_Locinfo@2@@Z 00407810 f i total.obj
 0001:00006850       ??0error_code@std@@QAE@HABVerror_category@1@@Z 00407850 f i total.obj
 0001:00006870       ?make_error_code@std@@YA?AVerror_code@1@W4io_errc@31@@Z 00407870 f i total.obj
 0001:00006890       ?_Makestr@system_error@std@@AAEXXZ 00407890 f i total.obj
 0001:000068a0       ??1system_error@std@@UAE@XZ 004078a0 f i total.obj
 0001:000068b0       ?rdstate@ios_base@std@@QBEHXZ 004078b0 f i total.obj
 0001:000068c0       ?good@ios_base@std@@QBE_NXZ 004078c0 f i total.obj
 0001:000068d0       ?fail@ios_base@std@@QBE_NXZ 004078d0 f i total.obj
 0001:000068e0       ?flags@ios_base@std@@QBEHXZ 004078e0 f i total.obj
 0001:000068f0       ?getloc@ios_base@std@@QBE?AVlocale@2@XZ 004078f0 f i total.obj
 0001:00006940       ??1ios_base@std@@UAE@XZ    00407940 f i total.obj
 0001:00006960       ??0ios_base@std@@IAE@XZ    00407960 f i total.obj
 0001:00006970       ??_Eios_base@std@@UAEPAXI@Z 00407970 f i total.obj
 0001:00006970       ??_Gios_base@std@@UAEPAXI@Z 00407970 f i total.obj
 0001:000069c0       ?commentSize@@YAHPBDH@Z    004079c0 f   total.obj
 0001:00006a10       ?AddTimeStamps@Debug@@QAEXD@Z 00407a10 f i total.obj
 0001:00006a20       ?GetBasePath@IniValue@@QAEPADXZ 00407a20 f i total.obj
 0001:00006a30       ?GetIniFile@IniValue@@QAEPADXZ 00407a30 f i total.obj
 0001:00006a40       ?IniDumped@IniValue@@QAEHXZ 00407a40 f i total.obj
 0001:00006a50       ?IniReadDone@IniValue@@QAEHXZ 00407a50 f i total.obj
 0001:00006a80       ??0DriverApp@@QAE@XZ       00407a80 f i total.obj
 0001:00006aa0       ?SQLRealSize@@YAIPADJ@Z    00407aa0 f   total.obj
 0001:00006ac0       ??0CBufferedIO@@QAE@H@Z    00407ac0 f   total.obj
 0001:00006ae0       ??1CBufferedIO@@QAE@XZ     00407ae0 f   total.obj
 0001:00006b00       ?read@CBufferedIO@@QAEHHPAXI@Z 00407b00 f   total.obj
 0001:00006c00       ?lseek@CBufferedIO@@QAEJHJH@Z 00407c00 f   total.obj
 0001:00006c70       ??_GCBufferedIO@@QAEPAXI@Z 00407c70 f i total.obj
 0001:00006cb0       ??0TK@@QAE@XZ              00407cb0 f   total.obj
 0001:00006cc0       ??0TK@@QAE@H@Z             00407cc0 f   total.obj
 0001:00006cd0       ??0TK@@QAE@HHPAD@Z         00407cd0 f   total.obj
 0001:00006ce0       ??1TK@@QAE@XZ              00407ce0 f   total.obj
 0001:00006cf0       ??0Lex@@QAE@XZ             00407cf0 f   total.obj
 0001:00006d00       ??1Lex@@QAE@XZ             00407d00 f   total.obj
 0001:00006d50       ?Start@Lex@@QAEHPADPAU_TOKENSTRUCT@@@Z 00407d50 f   total.obj
 0001:00007340       ?Stop@Lex@@QAEHXZ          00408340 f   total.obj
 0001:00007350       ?Peek@Lex@@QAEHPAVTK@@@Z   00408350 f   total.obj
 0001:00007390       ?Get@Lex@@QAEHPAVTK@@@Z    00408390 f   total.obj
 0001:000073f0       ?GetString@Lex@@QAEHPAVTK@@D@Z 004083f0 f   total.obj
 0001:00007400       ?Off@Debug@@QAEXXZ         00408400 f   total.obj
 0001:000075e0       ?DirectoryExists@@YAHPAD@Z 004085e0 f   total.obj
 0001:00007bf0       ?GetFileName@ACRNemaMap@@QAEPBDXZ 00408bf0 f   total.obj
 0001:00007c00       ?getItemNotEnd@ACRNemaMap@@AAEHPADPAPADI@Z 00408c00 f   total.obj
 0001:00007cc0       ?iswhitespacea@ACRNemaMap@@AAEHD@Z 00408cc0 f   total.obj
 0001:00007d30       ?chechThreadError@IniValue@@AAEHPAX@Z 00408d30 f   total.obj
 0001:00007d60       ?dumpTime@IniValue@@AAEXPAU_iobuf@@PAUtm@@PBD@Z 00408d60 f   total.obj
 0001:00007db0       ?errorCleanNewConfigFile@IniValue@@AAEXXZ 00408db0 f   total.obj
 0001:00007e00       ?goToNextDataLine@IniValue@@AAEHXZ 00408e00 f   total.obj
 0001:00007e60       ?goToStartIsBlank@IniValue@@AAEHXZ 00408e60 f   total.obj
 0001:00007ed0       ?initIEGroup@IniValue@@AAEXPAU_iEGroup@@@Z 00408ed0 f   total.obj
 0001:00007ef0       ?lstrcpysplim@IniValue@@AAEPADPADI@Z 00408ef0 f   total.obj
 0001:00007f40       ?lstrieq@IniValue@@AAEHPBD@Z 00408f40 f   total.obj
 0001:00007fd0       ?lstrileq@IniValue@@AAEHPBD@Z 00408fd0 f   total.obj
 0001:00008070       ?lstrileqNum@IniValue@@AAEHPBD@Z 00409070 f   total.obj
 0001:00008140       ?readsscscpFixes@IniValue@@AAEXXZ 00409140 f   total.obj
 0001:000081a0       ?printAllocateError@IniValue@@AAEHHPBD@Z 004091a0 f   total.obj
 0001:000081d0       ?setIniString@IniValue@@AAEXPADI@Z 004091d0 f   total.obj
 0001:00008390       ?setIniTime@IniValue@@AAEXXZ 00409390 f   total.obj
 0001:00008450       ?setIniUINT@IniValue@@AAEXPAI@Z 00409450 f   total.obj
 0001:00008540       ?skipComments@IniValue@@AAEHXZ 00409540 f   total.obj
 0001:00008600       ?swapConfigFiles@IniValue@@AAEHXZ 00409600 f   total.obj
 0001:00008760       ?swapPointers@IniValue@@AAEXPAPAX0@Z 00409760 f   total.obj
 0001:00008780       ?threadError@IniValue@@AAEPADXZ 00409780 f   total.obj
 0001:000087b0       ?writeTonewConfigFile@IniValue@@AAEHPBDI@Z 004097b0 f   total.obj
 0001:00008860       ?CurrentTime@@YAKXZ        00409860 f   total.obj
 0001:00008880       ?UniqueKey@@YAPBDPAUDBENTRY@@@Z 00409880 f   total.obj
 0001:000088a0       ?into_UpdateCache@@YAHPAD@Z 004098a0 f   total.obj
 0001:000089b0       ?isin_UpdateCache@@YAHPAD@Z 004099b0 f   total.obj
 0001:00008ab0       ?clear_UpdateCache@@YAXXZ  00409ab0 f   total.obj
 0001:00008b30       ?VerifyIsInDBE@@YAHPAVVR@@PAUDBENTRY@@AAPAU2@@Z 00409b30 f   total.obj
 0001:00008bd0       ?LastDBE@@YAIPAUDBENTRY@@@Z 00409bd0 f   total.obj
 0001:00008c00       ?DBEIndex@@YAIPAUDBENTRY@@PAVVR@@@Z 00409c00 f   total.obj
 0001:00008c50       ?FindDBE@@YAPAUDBENTRY@@PAVVR@@@Z 00409c50 f   total.obj
 0001:00008d80       ?Pack@@YAHEEAAG@Z          00409d80 f   total.obj
 0001:00008db0       ?Pack@@YAHGAAE0@Z          00409db0 f   total.obj
 0001:00008f50       ?ReleaseMemory@CheckedPDU_Service@@QAEHXZ 00409f50 f   total.obj
 0001:00009220       ?InitializeFrom@CheckedPDU_Service@@QAEHPAD@Z 0040a220 f   total.obj
 0001:0000a0c0       ?ShouldIAcceptRemoteApTitle@CheckedPDU_Service@@EAEHPAE@Z 0040b0c0 f   total.obj
 0001:0000a220       ?ShouldIAcceptLocalApTitle@CheckedPDU_Service@@EAEHPAE@Z 0040b220 f   total.obj
 0001:0000a380       ?GetUID@UnknownStorage@@UAEHAAVUID@@@Z 0040b380 f   total.obj
 0001:0000a390       ?SetUID@@YAHAAVUID@@PAVVR@@@Z 0040b390 f   total.obj
 0001:0000a430       ?Hex2Dec@@YAGD@Z           0040b430 f   total.obj
 0001:0000a480       ?secofday@@YAIPAUtm@@@Z    0040b480 f   total.obj
 0001:0000a4b0       ?SpaceMem@@YAHPAEI@Z       0040b4b0 f   total.obj
 0001:0000a4e0       ?strcpylim@@YAPADPADPBDI@Z 0040b4e0 f   total.obj
 0001:0000a520       ?strcpysplim@@YAPADPADPBDI@Z 0040b520 f   total.obj
 0001:0000a570       ?streq@@YAHPBD0@Z          0040b570 f   total.obj
 0001:0000a5d0       ?strneq@@YAHPBD0I@Z        0040b5d0 f   total.obj
 0001:0000a630       ?strieq@@YAHPBD0@Z         0040b630 f   total.obj
 0001:0000a6b0       ?strnieq@@YAHPBD0I@Z       0040b6b0 f   total.obj
 0001:0000a730       ?strileq@@YAHPBD0@Z        0040b730 f   total.obj
 0001:0000a7a0       ?strnileq@@YAHPBD0I@Z      0040b7a0 f   total.obj
 0001:0000a820       ?strnlen32@@YAHPBDI@Z      0040b820 f   total.obj
 0001:0000a860       ?strnlen32u@@YAIPBDI@Z     0040b860 f   total.obj
 0001:0000a890       ?strnlenint@@YAHPBDI@Z     0040b890 f   total.obj
 0001:0000a8d0       _strnlen                   0040b8d0 f   total.obj
 0001:0000a900       ?timeofdayeq@@YAHPAUtm@@0@Z 0040b900 f   total.obj
 0001:0000a990       ?ZeroMem@@YAHPAEI@Z        0040b990 f   total.obj
 0001:0000a9c0       ?uniq@@YAIXZ               0040b9c0 f   total.obj
 0001:0000a9e0       ?uniq32@@YAIXZ             0040b9e0 f   total.obj
 0001:0000aa00       ?uniq16@@YAGXZ             0040ba00 f   total.obj
 0001:0000aa20       ?uniq8@@YAEXZ              0040ba20 f   total.obj
 0001:0000aa40       ?uniq8odd@@YAEXZ           0040ba40 f   total.obj
 0001:0000aa60       ?uniq16odd@@YAGXZ          0040ba60 f   total.obj
 0001:0000aa80       ?SwitchEndian@@YAGG@Z      0040ba80 f   total.obj
 0001:0000aaa0       ?SwitchEndian@@YAII@Z      0040baa0 f   total.obj
 0001:0000aad0       ?SwitchEndian@@YAFF@Z      0040bad0 f   total.obj
 0001:0000aaf0       ?SwitchEndian@@YAHH@Z      0040baf0 f   total.obj
 0001:0000ab20       ??4BE_UINT16@@QAEAAV0@AAG@Z 0040bb20 f   total.obj
 0001:0000ab40       ??4BE_UINT16@@QAEAAV0@ABV0@@Z 0040bb40 f   total.obj
 0001:0000ab60       ??4BE_UINT16@@QAEAAV0@ABH@Z 0040bb60 f   total.obj
 0001:0000ab80       ??IBE_UINT16@@QAEPAV0@XZ   0040bb80 f   total.obj
 0001:0000ab90       ??BBE_UINT16@@QAEGXZ       0040bb90 f   total.obj
 0001:0000abb0       ??0BE_UINT16@@QAE@XZ       0040bbb0 f   total.obj
 0001:0000abc0       ??0BE_UINT16@@QAE@AAV0@@Z  0040bbc0 f   total.obj
 0001:0000abe0       ??0BE_UINT16@@QAE@G@Z      0040bbe0 f   total.obj
 0001:0000ac00       ??0BE_UINT16@@QAE@I@Z      0040bc00 f   total.obj
 0001:0000ac20       ??0BE_UINT16@@QAE@F@Z      0040bc20 f   total.obj
 0001:0000ac40       ??0BE_UINT16@@QAE@H@Z      0040bc40 f   total.obj
 0001:0000ac60       ??4BE_UINT32@@QAEAAV0@AAI@Z 0040bc60 f   total.obj
 0001:0000ac90       ??4BE_UINT32@@QAEAAV0@ABV0@@Z 0040bc90 f   total.obj
 0001:0000aca0       ??4BE_UINT32@@QAEAAV0@ABH@Z 0040bca0 f   total.obj
 0001:0000acd0       ??IBE_UINT32@@QAEPAV0@XZ   0040bcd0 f   total.obj
 0001:0000ace0       ??BBE_UINT32@@QAEIXZ       0040bce0 f   total.obj
 0001:0000ad10       ??0BE_UINT32@@QAE@XZ       0040bd10 f   total.obj
 0001:0000ad20       ??0BE_UINT32@@QAE@AAV0@@Z  0040bd20 f   total.obj
 0001:0000ad30       ??0BE_UINT32@@QAE@G@Z      0040bd30 f   total.obj
 0001:0000ad60       ??0BE_UINT32@@QAE@I@Z      0040bd60 f   total.obj
 0001:0000ad90       ??0BE_UINT32@@QAE@F@Z      0040bd90 f   total.obj
 0001:0000adc0       ??0BE_UINT32@@QAE@H@Z      0040bdc0 f   total.obj
 0001:0000adf0       ??4BE_INT16@@QAEAAV0@AAF@Z 0040bdf0 f   total.obj
 0001:0000ae20       ??4BE_INT16@@QAEAAV0@ABV0@@Z 0040be20 f   total.obj
 0001:0000ae40       ??4BE_INT16@@QAEAAV0@ABH@Z 0040be40 f   total.obj
 0001:0000ae70       ??IBE_INT16@@QAEPAV0@XZ    0040be70 f   total.obj
 0001:0000ae80       ??BBE_INT16@@QAEFXZ        0040be80 f   total.obj
 0001:0000aea0       ??0BE_INT16@@QAE@XZ        0040bea0 f   total.obj
 0001:0000aeb0       ??0BE_INT16@@QAE@AAV0@@Z   0040beb0 f   total.obj
 0001:0000aed0       ??0BE_INT16@@QAE@G@Z       0040bed0 f   total.obj
 0001:0000aef0       ??0BE_INT16@@QAE@I@Z       0040bef0 f   total.obj
 0001:0000af10       ??0BE_INT16@@QAE@F@Z       0040bf10 f   total.obj
 0001:0000af30       ??0BE_INT16@@QAE@H@Z       0040bf30 f   total.obj
 0001:0000af50       ??4BE_INT32@@QAEAAV0@AAH@Z 0040bf50 f   total.obj
 0001:0000af80       ??4BE_INT32@@QAEAAV0@ABV0@@Z 0040bf80 f   total.obj
 0001:0000af90       ??4BE_INT32@@QAEAAV0@ABH@Z 0040bf90 f   total.obj
 0001:0000afc0       ??IBE_INT32@@QAEPAV0@XZ    0040bfc0 f   total.obj
 0001:0000afd0       ??BBE_INT32@@QAEHXZ        0040bfd0 f   total.obj
 0001:0000b000       ??0BE_INT32@@QAE@XZ        0040c000 f   total.obj
 0001:0000b010       ??0BE_INT32@@QAE@AAV0@@Z   0040c010 f   total.obj
 0001:0000b020       ??0BE_INT32@@QAE@G@Z       0040c020 f   total.obj
 0001:0000b050       ??0BE_INT32@@QAE@I@Z       0040c050 f   total.obj
 0001:0000b080       ??0BE_INT32@@QAE@F@Z       0040c080 f   total.obj
 0001:0000b0b0       ??0BE_INT32@@QAE@H@Z       0040c0b0 f   total.obj
 0001:0000b100       ?GetTransferSyntaxUID@PDU_Service@@QAEPADI@Z 0040c100 f   total.obj
 0001:0000b180       ??4ApplicationContext@@QAEAAV0@AAV0@@Z 0040c180 f i total.obj
 0001:0000b1f0       ??4TransferSyntax@@QAEAAV0@AAV0@@Z 0040c1f0 f i total.obj
 0001:0000b270       ??4ImplementationClass@@QAEAAV0@AAV0@@Z 0040c270 f i total.obj
 0001:0000b2f0       ??4ImplementationVersion@@QAEAAV0@AAV0@@Z 0040c2f0 f i total.obj
 0001:0000b370       ??4SCPSCURoleSelect@@QAEAAV0@AAV0@@Z 0040c370 f i total.obj
 0001:0000b3f0       ??4AbstractSyntax@@QAEAAV0@AAV0@@Z 0040c3f0 f i total.obj
 0001:0000b460       ??4PresentationContextAccept@@QAEAAV0@AAV0@@Z 0040c460 f i total.obj
 0001:0000b4c0       ?CanYouHandleTransferSyntax@PDU_Service@@UAEHAAVTransferSyntax@@@Z 0040c4c0 f   total.obj
 0001:0000b520       ?GetLocalAddress@PDU_Service@@UAEHPAE@Z 0040c520 f   total.obj
 0001:0000b570       ?GetRemoteAddress@PDU_Service@@UAEHPAE@Z 0040c570 f   total.obj
 0001:0000b5c0       ?ReadBinary@MemoryBuffer@@UAEHPAEI@Z 0040c5c0 f   total.obj
 0001:0000b640       ?SendBinary@MemoryBuffer@@UAEHPAEI@Z 0040c640 f   total.obj
 0001:0000b650       ?GetOutgoingSize@LinkedBuffer@@QAEIXZ 0040c650 f   total.obj
 0001:0000b660       ?GetIncomingSize@LinkedBuffer@@QAEIXZ 0040c660 f   total.obj
 0001:0000b670       ??0AAssociateRJ@@QAE@XZ    0040c670 f   total.obj
 0001:0000b6a0       ??0AAssociateRJ@@QAE@EEE@Z 0040c6a0 f   total.obj
 0001:0000b6e0       ??1AAssociateRJ@@UAE@XZ    0040c6e0 f   total.obj
 0001:0000b6f0       ?Size@AAssociateRJ@@QAEIXZ 0040c6f0 f   total.obj
 0001:0000b700       ??0AReleaseRQ@@QAE@XZ      0040c700 f   total.obj
 0001:0000b720       ??1AReleaseRQ@@UAE@XZ      0040c720 f   total.obj
 0001:0000b730       ?Size@AReleaseRQ@@QAEIXZ   0040c730 f   total.obj
 0001:0000b740       ??0AReleaseRP@@QAE@XZ      0040c740 f   total.obj
 0001:0000b760       ??1AReleaseRP@@UAE@XZ      0040c760 f   total.obj
 0001:0000b770       ?Size@AReleaseRP@@QAEIXZ   0040c770 f   total.obj
 0001:0000b780       ??0AAbortRQ@@QAE@XZ        0040c780 f   total.obj
 0001:0000b7a0       ??0AAbortRQ@@QAE@EE@Z      0040c7a0 f   total.obj
 0001:0000b7d0       ??1AAbortRQ@@UAE@XZ        0040c7d0 f   total.obj
 0001:0000b7e0       ?Size@AAbortRQ@@QAEIXZ     0040c7e0 f   total.obj
 0001:0000b7f0       ?SetTransferSyntax@PresentationContextAccept@@QAEXAAVTransferSyntax@@@Z 0040c7f0 f   total.obj
 0001:0000b800       ?SetCalledApTitle@AAssociateAC@@QAEXPAE@Z 0040c800 f   total.obj
 0001:0000b860       ?SetCallingApTitle@AAssociateAC@@QAEXPAE@Z 0040c860 f   total.obj
 0001:0000b8c0       ?SetApplicationContext@AAssociateAC@@QAEXAAVApplicationContext@@@Z 0040c8c0 f   total.obj
 0001:0000b930       ??1ApplicationContext@@QAE@XZ 0040c930 f   total.obj
 0001:0000b940       ?Set@ApplicationContext@@QAEXAAVUID@@@Z 0040c940 f   total.obj
 0001:0000b990       ?Size@ApplicationContext@@QAEIXZ 0040c990 f   total.obj
 0001:0000b9b0       ??1AbstractSyntax@@QAE@XZ  0040c9b0 f   total.obj
 0001:0000b9c0       ?Set@AbstractSyntax@@QAEXAAVUID@@@Z 0040c9c0 f   total.obj
 0001:0000ba10       ?Size@AbstractSyntax@@QAEIXZ 0040ca10 f   total.obj
 0001:0000ba30       ??1TransferSyntax@@QAE@XZ  0040ca30 f   total.obj
 0001:0000ba40       ?Set@TransferSyntax@@QAEXAAVUID@@@Z 0040ca40 f   total.obj
 0001:0000ba90       ?Size@TransferSyntax@@QAEIXZ 0040ca90 f   total.obj
 0001:0000bab0       ??1ImplementationClass@@QAE@XZ 0040cab0 f   total.obj
 0001:0000bac0       ?Set@ImplementationClass@@QAEXAAVUID@@@Z 0040cac0 f   total.obj
 0001:0000bb10       ?Size@ImplementationClass@@QAEIXZ 0040cb10 f   total.obj
 0001:0000bb30       ??1ImplementationVersion@@QAE@XZ 0040cb30 f   total.obj
 0001:0000bb40       ?Set@ImplementationVersion@@QAEXAAVUID@@@Z 0040cb40 f   total.obj
 0001:0000bb90       ?Size@ImplementationVersion@@QAEIXZ 0040cb90 f   total.obj
 0001:0000bbb0       ?SetAbstractSyntax@PresentationContext@@QAEXAAVAbstractSyntax@@@Z 0040cbb0 f   total.obj
 0001:0000bc20       ??0MaximumSubLength@@QAE@XZ 0040cc20 f   total.obj
 0001:0000bc30       ??0MaximumSubLength@@QAE@I@Z 0040cc30 f   total.obj
 0001:0000bc50       ??1MaximumSubLength@@QAE@XZ 0040cc50 f   total.obj
 0001:0000bc60       ?Set@MaximumSubLength@@QAEXI@Z 0040cc60 f   total.obj
 0001:0000bc70       ?Get@MaximumSubLength@@QAEIXZ 0040cc70 f   total.obj
 0001:0000bc80       ?Size@MaximumSubLength@@QAEIXZ 0040cc80 f   total.obj
 0001:0000bca0       ??1SCPSCURoleSelect@@QAE@XZ 0040cca0 f   total.obj
 0001:0000bcb0       ?Size@SCPSCURoleSelect@@QAEIXZ 0040ccb0 f   total.obj
 0001:0000bcd0       ??1UserInformation@@QAE@XZ 0040ccd0 f   total.obj
 0001:0000bce0       ?SetMax@UserInformation@@QAEXAAVMaximumSubLength@@@Z 0040cce0 f   total.obj
 0001:0000bd00       ?GetMax@UserInformation@@QAEIXZ 0040cd00 f   total.obj
 0001:0000bd10       ?Size@UserInformation@@QAEIXZ 0040cd10 f   total.obj
 0001:0000bd60       ?SetCalledApTitle@AAssociateRQ@@QAEXPAE@Z 0040cd60 f   total.obj
 0001:0000bdc0       ?SetCallingApTitle@AAssociateRQ@@QAEXPAE@Z 0040cdc0 f   total.obj
 0001:0000be20       ?SetApplicationContext@AAssociateRQ@@QAEXAAVApplicationContext@@@Z 0040ce20 f   total.obj
 0001:0000be90       ?SetApplicationContext@AAssociateRQ@@QAEXAAVUID@@@Z 0040ce90 f   total.obj
 0001:0000bee0       ?SetDicomErrorHandler@@YAXP6AXHPBDH@Z@Z 0040cee0 f   total.obj
 0001:0000bef0       ?DicomError@@YAHHPBDH@Z    0040cef0 f   total.obj
 0001:0000bf50       ??0VR@@QAE@GGIH@Z          0040cf50 f   total.obj
 0001:0000c010       ??0VR@@QAE@GGIPAG@Z        0040d010 f   total.obj
 0001:0000c060       ??0VR@@QAE@GGIPAGH@Z       0040d060 f   total.obj
 0001:0000c0b0       ??0VR@@QAE@GGIPAX@Z        0040d0b0 f   total.obj
 0001:0000c100       ??0VR@@QAE@GGIPAXH@Z       0040d100 f   total.obj
 0001:0000c150       ??OVR@@QAEIAAV0@@Z         0040d150 f   total.obj
 0001:0000c190       ??MVR@@QAEIAAV0@@Z         0040d190 f   total.obj
 0001:0000c1d0       ??8VR@@QAEIAAV0@@Z         0040d1d0 f   total.obj
 0001:0000c200       ?GroupLength@VRGroupPQueue@@QAEPAVVR@@XZ 0040d200 f   total.obj
 0001:0000c2b0       ??OVRGroupPQueue@@QAEIAAV0@@Z 0040d2b0 f   total.obj
 0001:0000c2d0       ??MVRGroupPQueue@@QAEIAAV0@@Z 0040d2d0 f   total.obj
 0001:0000c2f0       ??8VRGroupPQueue@@QAEIAAV0@@Z 0040d2f0 f   total.obj
 0001:0000c310       ?GetSpecialValueCodeOfVR@VR@@AAEHPAV1@@Z 0040d310 f   total.obj
 0001:0000c3e0       ?GetUINT16@VR@@QAEGXZ      0040d3e0 f   total.obj
 0001:0000c430       ?GetUINT@VR@@QAEIXZ        0040d430 f   total.obj
 0001:0000c470       ?GetULongLong@VR@@QAE_KXZ  0040d470 f   total.obj
 0001:0000c4c0       ?Getatoi@VR@@QAEHXZ        0040d4c0 f   total.obj
 0001:0000c530       ?SwapBigEndianData@VR@@QAEXXZ 0040d530 f   total.obj
 0001:0000c650       ??0Socket@@QAE@XZ          0040d650 f   total.obj
 0001:0000c6b0       ??1Socket@@UAE@XZ          0040d6b0 f   total.obj
 0001:0000c720       ?Gethostbyname@Socket@@QAEPAUhostent@@PAD@Z 0040d720 f   total.obj
 0001:0000c800       ?Getservbyname@Socket@@QAEPAUservent@@PBDPAD@Z 0040d800 f   total.obj
 0001:0000c880       ?Accept@Socket@@QAEHXZ     0040d880 f   total.obj
 0001:0000c910       ?Open@Socket@@UAEHPAD0@Z   0040d910 f   total.obj
 0001:0000ca60       ?Close@Socket@@QAEHXZ      0040da60 f   total.obj
 0001:0000cab0       ?Poll@Socket@@UAEHXZ       0040dab0 f   total.obj
 0001:0000cb50       ?SendBinary@Socket@@UAEHPAEI@Z 0040db50 f   total.obj
 0001:0000cb90       ?ReadBinary@Socket@@UAEHPAEI@Z 0040db90 f   total.obj
 0001:0000cc60       ?GetLinkError@Socket@@QAEHXZ 0040dc60 f   total.obj
 0001:0000cc70       ?SetTimeOut@Socket@@QAEHH@Z 0040dc70 f   total.obj
 0001:0000cc90       ?BindUDPServer@Socket@@QAEHPAD@Z 0040dc90 f   total.obj
 0001:0000cde0       ?BindUDPClient@Socket@@QAEHPADPBD@Z 0040dde0 f   total.obj
 0001:0000cf60       ??0BufferSpace@@QAE@I@Z    0040df60 f   total.obj
 0001:0000cff0       ??0BufferSpace@@QAE@XZ     0040dff0 f   total.obj
 0001:0000d010       ??1BufferSpace@@QAE@XZ     0040e010 f   total.obj
 0001:0000d030       ??_GBufferSpace@@QAEPAXI@Z 0040e030 f i total.obj
 0001:0000d070       ?SetIncomingEndian@Buffer@@QAEHI@Z 0040e070 f   total.obj
 0001:0000d090       ?SetOutgoingEndian@Buffer@@QAEHI@Z 0040e090 f   total.obj
 0001:0000d0b0       ?SetBreakSize@Buffer@@QAEHI@Z 0040e0b0 f   total.obj
 0001:0000d0d0       ?Poll@Buffer@@QAEHXZ       0040e0d0 f   total.obj
 0001:0000d0e0       ?qlock@@YAHPADHH@Z         0040e0e0 f   total.obj
 0001:0000d250       ?qunlock@@YAHPADHH@Z       0040e250 f   total.obj
 0001:0000d3d0       ?write_dbheader@@YAXPAUdbase_header@@@Z 0040e3d0 f   total.obj
 0001:0000d410       ?read_dbheader@@YAXPAUdbase_header@@@Z 0040e410 f   total.obj
 0001:0000d470       ?set_dbdate@@YAXPAUdbase_header@@@Z 0040e470 f   total.obj
 0001:0000d500       ?lock_dbheader@@YAHPAUdbase_header@@@Z 0040e500 f   total.obj
 0001:0000d6b0       ?unlock_dbheader@@YAXPAUdbase_header@@@Z 0040e6b0 f   total.obj
 0001:0000d6e0       ?dbase_open@@YAHPADPAPAUdbase_header@@@Z 0040e6e0 f   total.obj
 0001:0000dd10       ?dbase_lock@@YAHPAUdbase_header@@HHH@Z 0040ed10 f   total.obj
 0001:0000de10       ?mmatch@@YAHPAD0HH@Z       0040ee10 f   total.obj
 0001:0000dff0       ?dbase_query@@YAHPAUdbase_header@@PAHPAPAD1H@Z 0040eff0 f   total.obj
 0001:00010cd0       ?dbase_dup@@YAPAUdbase_header@@PADPAU1@@Z 00411cd0 f   total.obj
 0001:00010e70       ?dbase_read@@YAHPAUdbase_header@@HPAPAD@Z 00411e70 f   total.obj
 0001:00011100       ?dbase_write@@YAHPAUdbase_header@@HPAPADH@Z 00412100 f   total.obj
 0001:000115f0       ?dbase_trunc@@YAHPAUdbase_header@@H@Z 004125f0 f   total.obj
 0001:000116f0       ?dbase_pack@@YAHPAUdbase_header@@@Z 004126f0 f   total.obj
 0001:00011a00       ?hash_id@@YAHPADH@Z        00412a00 f   total.obj
 0001:00011a70       ?search_hash@@YAHPADH@Z    00412a70 f   total.obj
 0001:00011c30       ?enter_hash@@YAXPADHH@Z    00412c30 f   total.obj
 0001:00011e80       ?LoadMySQL@@YAXXZ          00412e80 f   total.obj
 0001:00011fe0       ?LoadPostgres@@YAXXZ       00412fe0 f   total.obj
 0001:000121f0       ?LoadSQLITE@@YAXXZ         004131f0 f   total.obj
 0001:00012200       ??0Database@@QAE@W4DBTYPE@@@Z 00413200 f   total.obj
 0001:000123a0       ?MYSQLExec@Database@@UAEHPADH@Z 004133a0 f   total.obj
 0001:00012470       ?GetNativeError@Database@@AAEJXZ 00413470 f   total.obj
 0001:000124c0       ?ComputeCRC@@YAIPADI@Z     004134c0 f   total.obj
 0001:00012500       ??0CMoveRQ@@QAE@XZ         00413500 f i total.obj
 0001:00012510       ??0CMoveRSP@@QAE@XZ        00413510 f i total.obj
 0001:000125a0       ?nki_private_compress@@YAHPACPAFHH@Z 004135a0 f   total.obj
 0001:00012f00       ?get_nki_private_decompressed_length@@YAHPAC@Z 00413f00 f   total.obj
 0001:00012f10       ?get_nki_private_compress_mode@@YAHPAC@Z 00413f10 f   total.obj
 0001:00012f20       ?nki_private_decompress@@YAHPAFPACH@Z 00413f20 f   total.obj
 0001:00013970       ?DePlane@@YAPADPADH@Z      00414970 f   total.obj
 0001:000139f0       ?DeYBRFULL@@YAXPADH@Z      004149f0 f   total.obj
 0001:00013b10       ?jpeg_type@@YADPAVVR@@@Z   00414b10 f   total.obj
 0001:00013c00       ?SetRequestedCompressionType@ExtendedPDU_Service@@QAEHPBD@Z 00414c00 f   total.obj
 0001:00013c30       _getsd                     00414c30 f   total.obj
 0001:00015550       ?luaopen_pack@@YAHPAUlua_State@@@Z 00416550 f   total.obj
 0001:00015580       ?heapinfo@@YAPADXZ         00416580 f   total.obj
 0001:00015800       ?isxdig@@YAHD@Z            00416800 f   total.obj
 0001:00015850       ?htoin@@YAHPBDH@Z          00416850 f   total.obj
 0001:000158e0       ?HTML@@YAXPBDZZ            004168e0 f   total.obj
 0001:00015af0       ?IsAlpha@@YAHE@Z           00416af0 f   total.obj
 0001:00015b20       ?IsDataAlpha@@YAHIPAE@Z    00416b20 f   total.obj
 0001:00015c70       ?PrintUDATA@@YAHIPAXGPAD@Z 00416c70 f   total.obj
 0001:00016190       ?SQLTypeSymName@@YAPBDH@Z  00417190 f   total.obj
 0001:000161c0       ?DICOMTypeSymName@@YAPBDH@Z 004171c0 f   total.obj
 0001:000162e0       ?dgate_IsDirectory@@YAHPAD@Z 004172e0 f   total.obj
 0001:000167b0       ??0CStoreRQ@@QAE@XZ        004177b0 f i total.obj
 0001:000167c0       ??0CStoreRSP@@QAE@XZ       004177c0 f i total.obj
 0001:000167d0       ??_H@YGXPAXIHP6EPAX0@Z@Z   004177d0 f i total.obj
 0001:00016800       ??_I@YGXPAXIHP6EX0@Z@Z     00417800 f i total.obj
 0001:00016840       ?into_queue@@YAXPAUconquest_queue@@PAD@Z 00417840 f   total.obj
 0001:000168d0       ?into_queue_unique@@YAHPAUconquest_queue@@PADH@Z 004178d0 f   total.obj
 0001:000169f0       ?reset_queue_fails@@YAXH@Z 004179f0 f   total.obj
 0001:00016ae0       ?mayprefetchprocess@@YAHPADPAVExtendedPDU_Service@@0@Z 00417ae0 f   total.obj
 0001:00016b10       ?StopZipThread@@YAXXZ      00417b10 f   total.obj
 0001:00016b30       ?PrintOptions@@YAHXZ       00417b30 f   total.obj
 0001:00017f40       ??0CFindRQ@@QAE@XZ         00418f40 f i total.obj
 0001:00017f50       ??0CFindRSP@@QAE@XZ        00418f50 f i total.obj
 0001:00017f60       ?CallBack@MyPatientRootQuery@@UAEHPAVDICOMCommandObject@@PAVDICOMDataObject@@@Z 00418f60 f   total.obj
 0001:00017f70       ?CallBack@MyStudyRootQuery@@UAEHPAVDICOMCommandObject@@PAVDICOMDataObject@@@Z 00418f70 f   total.obj
 0001:00017f80       ?CallBack@MyPatientStudyOnlyQuery@@UAEHPAVDICOMCommandObject@@PAVDICOMDataObject@@@Z 00418f80 f   total.obj
 0001:00017f90       ?CallBack@MyModalityWorkListQuery@@UAEHPAVDICOMCommandObject@@PAVDICOMDataObject@@@Z 00418f90 f   total.obj
 0001:00017fa0       ?CallBack@MyPatientRootRetrieve@@UAEHPAVDICOMCommandObject@@PAVDICOMDataObject@@@Z 00418fa0 f   total.obj
 0001:00017fb0       ?CallBack@MyPatientRootRetrieveNKI@@UAEHPAVDICOMCommandObject@@PAVDICOMDataObject@@@Z 00418fb0 f   total.obj
 0001:00017fc0       ?CallBack@MyPatientRootRetrieveGeneric@@UAEHPAVDICOMCommandObject@@PAVDICOMDataObject@@@Z 00418fc0 f   total.obj
 0001:00017fd0       ?CallBack@MyStudyRootRetrieve@@UAEHPAVDICOMCommandObject@@PAVDICOMDataObject@@@Z 00418fd0 f   total.obj
 0001:00017fe0       ?CallBack@MyStudyRootRetrieveNKI@@UAEHPAVDICOMCommandObject@@PAVDICOMDataObject@@@Z 00418fe0 f   total.obj
 0001:00017ff0       ?CallBack@MyStudyRootRetrieveGeneric@@UAEHPAVDICOMCommandObject@@PAVDICOMDataObject@@@Z 00418ff0 f   total.obj
 0001:00018000       ?CallBack@MyPatientStudyOnlyRetrieve@@UAEHPAVDICOMCommandObject@@PAVDICOMDataObject@@@Z 00419000 f   total.obj
 0001:00018010       ?CallBack@MyPatientStudyOnlyRetrieveNKI@@UAEHPAVDICOMCommandObject@@PAVDICOMDataObject@@@Z 00419010 f   total.obj
 0001:00018020       ?CallBack@MyPatientStudyOnlyRetrieveGeneric@@UAEHPAVDICOMCommandObject@@PAVDICOMDataObject@@@Z 00419020 f   total.obj
 0001:00018030       ?GetUID@RunTimeClassStorage@@UAEHAAVUID@@@Z 00419030 f   total.obj
 0001:00018080       ?SetUID@RunTimeClassStorage@@QAEHAAVUID@@@Z 00419080 f   total.obj
 0001:000180d0       ?ServerChildThread@DriverApp@@QAEHHI@Z 004190d0 f   total.obj
 0001:000180f0       ?DriverHelper@@YGHPAVDriverApp@@@Z 004190f0 f   total.obj
 0001:00018120       ?WipeStack@@YAXXZ          00419120 f   total.obj
 0001:00018130       ??0UnknownStorage@@QAE@XZ  00419130 f i total.obj
 0001:00018150       ?CheckObject@UnknownStorage@@UAEGPAVDICOMDataObject@@PAVPDU_Service@@@Z 00419150 f i total.obj
 0001:00018160       ??0NCreateRQ@@QAE@XZ       00419160 f i total.obj
 0001:00018170       ??0NCreateRSP@@QAE@XZ      00419170 f i total.obj
 0001:00018180       ??0NDeleteRQ@@QAE@XZ       00419180 f i total.obj
 0001:00018190       ??0NDeleteRSP@@QAE@XZ      00419190 f i total.obj
 0001:000181a0       ??0NSetRQ@@QAE@XZ          004191a0 f i total.obj
 0001:000181b0       ??0NSetRSP@@QAE@XZ         004191b0 f i total.obj
 0001:000181c0       ??0NActionRQ@@QAE@XZ       004191c0 f i total.obj
 0001:000181d0       ??0NActionRSP@@QAE@XZ      004191d0 f i total.obj
 0001:000181e0       ??0NGetRQ@@QAE@XZ          004191e0 f i total.obj
 0001:000181f0       ??0NGetRSP@@QAE@XZ         004191f0 f i total.obj
 0001:00018200       ??0NEventReportRQ@@QAE@XZ  00419200 f i total.obj
 0001:00018210       ??0NEventReportRSP@@QAE@XZ 00419210 f i total.obj
 0001:00018220       ??0ASCPRQ@@QAE@XZ          00419220 f i total.obj
 0001:00018230       ??0ASCPRSP@@QAE@XZ         00419230 f i total.obj
 0001:00018240       ??0ESCPRQ@@QAE@XZ          00419240 f i total.obj
 0001:00018250       ??0ESCPRSP@@QAE@XZ         00419250 f i total.obj
 0001:00018260       ?MakeQueryString@@YAHPAUDBENTRY@@PAD@Z 00419260 f   total.obj
 0001:000183e0       ??0MyBridgeStorage@@QAE@XZ 004193e0 f i total.obj
 0001:00018400       ??0CEchoRQ@@QAE@XZ         00419400 f i total.obj
 0001:00018410       ??0CEchoRSP@@QAE@XZ        00419410 f i total.obj
 0001:00018420       ??0StandardRetrieve@@QAE@XZ 00419420 f i total.obj
 0001:00018440       ?GetUID@StandardRetrieve@@UAEHAAVUID@@@Z 00419440 f i total.obj
 0001:00018450       ??0StorageApp@@QAE@XZ      00419450 f i total.obj
 0001:00018470       ?SetStringVR@@YAXPAPAVVR@@HHPBD@Z 00419470 f   total.obj
 0001:00018540       ?processhtml@@YAHPAD0H@Z   00419540 f   total.obj
 0001:000185d0       ??0GifManager@@QAE@XZ      004195d0 f   total.obj
 0001:000185f0       ?WritePalette@@YAHPAU_iobuf@@PAUGifStore@@H@Z 004195f0 f   total.obj
 0001:00018660       ?WriteComment@@YAHPAU_iobuf@@PAD@Z 00419660 f   total.obj
 0001:00018860       ?GetSize@?$Array@PAVBufferSpace@@@@QAEIXZ 00419860 f i total.obj
 0001:00018870       ??0?$Array@PAVBufferSpace@@@@QAE@XZ 00419870 f i total.obj
 0001:000188a0       ?GetSize@?$Array@PAVVR@@@@QAEIXZ 004198a0 f i total.obj
 0001:000188b0       ??0?$Array@PAVVR@@@@QAE@XZ 004198b0 f i total.obj
 0001:000188e0       ?GetSize@?$Array@PAVVRGroupPQueue@@@@QAEIXZ 004198e0 f i total.obj
 0001:000188f0       ??0?$Array@PAVVRGroupPQueue@@@@QAE@XZ 004198f0 f i total.obj
 0001:00018920       ?Clear@?$Array@VTransferSyntax@@@@QAEHXZ 00419920 f i total.obj
 0001:00018940       ?GetSize@?$Array@VTransferSyntax@@@@QAEIXZ 00419940 f i total.obj
 0001:00018950       ??0?$Array@VTransferSyntax@@@@QAE@XZ 00419950 f i total.obj
 0001:00018980       ??4?$Array@VTransferSyntax@@@@QAEABV0@AAV0@@Z 00419980 f i total.obj
 0001:000189b0       ??0?$Array@VTransferSyntax@@@@QAE@ABV0@@Z 004199b0 f i total.obj
 0001:00018a00       ?GetSize@?$Array@VPresentationContext@@@@QAEIXZ 00419a00 f i total.obj
 0001:00018a10       ??0?$Array@VPresentationContext@@@@QAE@XZ 00419a10 f i total.obj
 0001:00018a40       ??4?$Array@VPresentationContext@@@@QAEABV0@AAV0@@Z 00419a40 f i total.obj
 0001:00018a70       ?GetSize@?$Array@VPresentationContextAccept@@@@QAEIXZ 00419a70 f i total.obj
 0001:00018a80       ??0?$Array@VPresentationContextAccept@@@@QAE@XZ 00419a80 f i total.obj
 0001:00018ab0       ??4?$Array@VPresentationContextAccept@@@@QAEABV0@AAV0@@Z 00419ab0 f i total.obj
 0001:00018ae0       ?GetSize@?$Array@VAbstractSyntax@@@@QAEIXZ 00419ae0 f i total.obj
 0001:00018af0       ??0?$Array@VAbstractSyntax@@@@QAE@XZ 00419af0 f i total.obj
 0001:00018b20       ??0?$_Yarn@D@std@@QAE@XZ   00419b20 f i total.obj
 0001:00018b30       ?c_str@?$_Yarn@D@std@@QBEPBDXZ 00419b30 f i total.obj
 0001:00018b40       ??1?$basic_ios@DU?$char_traits@D@std@@@std@@UAE@XZ 00419b40 f i total.obj
 0001:00018b60       ?rdbuf@?$basic_ios@DU?$char_traits@D@std@@@std@@QBEPAV?$basic_streambuf@DU?$char_traits@D@std@@@2@XZ 00419b60 f i total.obj
 0001:00018b70       ??1?$basic_istream@DU?$char_traits@D@std@@@std@@UAE@XZ 00419b70 f i total.obj
 0001:00018b90       ?gcount@?$basic_istream@DU?$char_traits@D@std@@@std@@QBE_JXZ 00419b90 f i total.obj
 0001:00018ba0       ??Bsentry@?$basic_istream@DU?$char_traits@D@std@@@std@@QBEPQ_Bool_struct@2@HXZ 00419ba0 f i total.obj
 0001:00018bb0       ??1_Sentry_base@?$basic_istream@DU?$char_traits@D@std@@@std@@QAE@XZ 00419bb0 f i total.obj
 0001:00018bd0       ??0?$fpos@H@std@@QAE@_J@Z  00419bd0 f i total.obj
 0001:00018c00       ??B?$fpos@H@std@@QBE_JXZ   00419c00 f i total.obj
 0001:00018c10       ?GetSize@?$Array@PAVDICOMDataObject@@@@QAEIXZ 00419c10 f i total.obj
 0001:00018c20       ??0?$Array@PAVDICOMDataObject@@@@QAE@XZ 00419c20 f i total.obj
 0001:00018c50       ?GetSize@?$Array@PAD@@QAEIXZ 00419c50 f i total.obj
 0001:00018c60       ??0?$Array@PAD@@QAE@XZ     00419c60 f i total.obj
 0001:00018c90       ?GetSize@?$Array@PAJ@@QAEIXZ 00419c90 f i total.obj
 0001:00018ca0       ??0?$Array@PAJ@@QAE@XZ     00419ca0 f i total.obj
 0001:00018cd0       ??0?$Array@PAUDBENTRY@@@@QAE@XZ 00419cd0 f i total.obj
 0001:00018d00       ?GetSize@?$Array@H@@QAEIXZ 00419d00 f i total.obj
 0001:00018d10       ??0?$Array@H@@QAE@XZ       00419d10 f i total.obj
 0001:00018d40       ?GetSize@?$Array@UDBENTRY@@@@QAEIXZ 00419d40 f i total.obj
 0001:00018d50       ??0?$Array@UDBENTRY@@@@QAE@XZ 00419d50 f i total.obj
 0001:00018d80       ?GetSize@?$Array@PAU_ACRNemaAddress@@@@QAEIXZ 00419d80 f i total.obj
 0001:00018d90       ??0?$Array@PAU_ACRNemaAddress@@@@QAE@XZ 00419d90 f i total.obj
 0001:00018dc0       ?GetSize@?$Array@PAH@@QAEIXZ 00419dc0 f i total.obj
 0001:00018dd0       ??0?$Array@PAH@@QAE@XZ     00419dd0 f i total.obj
 0001:00018e00       ?GetSize@?$Array@PAU_sectionTable@@@@QAEIXZ 00419e00 f i total.obj
 0001:00018e10       ??0?$Array@PAU_sectionTable@@@@QAE@XZ 00419e10 f i total.obj
 0001:00018e40       ?GetSize@?$Array@PAU_iniTable@@@@QAEIXZ 00419e40 f i total.obj
 0001:00018e50       ??0?$Array@PAU_iniTable@@@@QAE@XZ 00419e50 f i total.obj
 0001:00018e80       ?Get@?$FixedArray@IU_RTCElement@@@@QAEAAU_RTCElement@@H@Z 00419e80 f i total.obj
 0001:00018ea0       ?GetSize@?$FixedArray@IU_RTCElement@@@@QAEIXZ 00419ea0 f i total.obj
 0001:00018eb0       ?GetSize@?$Array@U_RTCElement@@@@QAEIXZ 00419eb0 f i total.obj
 0001:00018ec0       ??0?$Array@U_RTCElement@@@@QAE@XZ 00419ec0 f i total.obj
 0001:00018ef0       ?GetSize@?$Array@PAVDICOMObject@@@@QAEIXZ 00419ef0 f i total.obj
 0001:00018f00       ??0?$Array@PAVDICOMObject@@@@QAE@XZ 00419f00 f i total.obj
 0001:00018f30       ??_Glocale@std@@QAEPAXI@Z  00419f30 f i total.obj
 0001:00018fb0       ??_D?$basic_istream@DU?$char_traits@D@std@@@std@@QAEXXZ 00419fb0 f i total.obj
 0001:00018fe0       ?size@?$basic_string@DU?$char_traits@D@std@@V?$allocator@D@2@@std@@QBEIXZ 00419fe0 f i total.obj
 0001:00018ff0       ??1?$_String_val@DV?$allocator@D@std@@@std@@QAE@XZ 00419ff0 f i total.obj
 0001:00019000       ??0?$allocator@D@std@@QAE@XZ 0041a000 f i total.obj
 0001:00019010       ?_Tidy@?$_Yarn@D@std@@AAEXXZ 0041a010 f i total.obj
 0001:00019030       ??0?$basic_ios@DU?$char_traits@D@std@@@std@@IAE@XZ 0041a030 f i total.obj
 0001:00019040       ??_E?$basic_ios@DU?$char_traits@D@std@@@std@@UAEPAXI@Z 0041a040 f i total.obj
 0001:00019040       ??_G?$basic_ios@DU?$char_traits@D@std@@@std@@UAEPAXI@Z 0041a040 f i total.obj
 0001:00019080       ??0_Sentry_base@?$basic_istream@DU?$char_traits@D@std@@@std@@QAE@AAV12@@Z 0041a080 f i total.obj
 0001:000190b0       ?pubseekoff@?$basic_streambuf@DU?$char_traits@D@std@@@std@@QAE?AV?$fpos@H@2@_JHH@Z 0041a0b0 f i total.obj
 0001:000190e0       ?pubsync@?$basic_streambuf@DU?$char_traits@D@std@@@std@@QAEHXZ 0041a0e0 f i total.obj
 0001:000190f0       ?sgetn@?$basic_streambuf@DU?$char_traits@D@std@@@std@@QAE_JPAD_J@Z 0041a0f0 f i total.obj
 0001:00019110       ?eback@?$basic_streambuf@DU?$char_traits@D@std@@@std@@IBEPADXZ 0041a110 f i total.obj
 0001:00019120       ?gptr@?$basic_streambuf@DU?$char_traits@D@std@@@std@@IBEPADXZ 0041a120 f i total.obj
 0001:00019130       ?_Gninc@?$basic_streambuf@DU?$char_traits@D@std@@@std@@IAEPADXZ 0041a130 f i total.obj
 0001:00019150       ?_Gnpreinc@?$basic_streambuf@DU?$char_traits@D@std@@@std@@IAEPADXZ 0041a150 f i total.obj
 0001:00019170       ?_Gnavail@?$basic_streambuf@DU?$char_traits@D@std@@@std@@IBE_JXZ 0041a170 f i total.obj
 0001:00019190       ?is_open@?$basic_filebuf@DU?$char_traits@D@std@@@std@@QBE_NXZ 0041a190 f i total.obj
 0001:000191a0       ?_Myptr@?$basic_string@DU?$char_traits@D@std@@V?$allocator@D@2@@std@@QAEPADXZ 0041a1a0 f i total.obj
 0001:000191b0       ?_Xlen@?$basic_string@DU?$char_traits@D@std@@V?$allocator@D@2@@std@@QBEXXZ 0041a1b0 f i total.obj
 0001:000191c0       ??0?$allocator@D@std@@QAE@ABV01@@Z 0041a1c0 f i total.obj
 0001:000191d0       ?deallocate@?$allocator@D@std@@QAEXPADI@Z 0041a1d0 f i total.obj
 0001:000191f0       ?tie@?$basic_ios@DU?$char_traits@D@std@@@std@@QBEPAV?$basic_ostream@DU?$char_traits@D@std@@@2@XZ 0041a1f0 f i total.obj
 0001:00019200       ?getloc@?$basic_streambuf@DU?$char_traits@D@std@@@std@@QBE?AVlocale@2@XZ 0041a200 f i total.obj
 0001:00019250       ?setg@?$basic_streambuf@DU?$char_traits@D@std@@@std@@IAEXPAD00@Z 0041a250 f i total.obj
 0001:00019280       ?_Init@?$basic_streambuf@DU?$char_traits@D@std@@@std@@IAEXPAPAD0PAH001@Z 0041a280 f i total.obj
 0001:000192c0       ??D?$_String_const_iterator@DU?$char_traits@D@std@@V?$allocator@D@2@@std@@QBEABDXZ 0041a2c0 f i total.obj
 0001:000192d0       ?unshift@?$codecvt@DDH@std@@QBEHAAHPAD1AAPAD@Z 0041a2d0 f i total.obj
 0001:000192e0       ?setp@?$basic_streambuf@DU?$char_traits@D@std@@@std@@IAEXPAD0@Z 0041a2e0 f i total.obj
 0001:00019310       ??0?$_String_const_iterator@DU?$char_traits@D@std@@V?$allocator@D@2@@std@@QAE@PBDPBU_Container_base0@1@@Z 0041a310 f i total.obj
 0001:00019320       ?max_size@?$allocator@D@std@@QBEIXZ 0041a320 f i total.obj
 0001:00019330       ?Get@?$Array@PAVBufferSpace@@@@QAEAAPAVBufferSpace@@I@Z 0041a330 f i total.obj
 0001:000193c0       ?RemoveAt@?$Array@PAVBufferSpace@@@@QAEHI@Z 0041a3c0 f i total.obj
 0001:00019470       ??1?$Array@PAVBufferSpace@@@@UAE@XZ 0041a470 f i total.obj
 0001:00019520       ?Get@?$Array@PAVVR@@@@QAEAAPAVVR@@I@Z 0041a520 f i total.obj
 0001:000195b0       ?RemoveAt@?$Array@PAVVR@@@@QAEHI@Z 0041a5b0 f i total.obj
 0001:00019660       ??1?$Array@PAVVR@@@@UAE@XZ 0041a660 f i total.obj
 0001:00019710       ?Pop@?$PQueueOfPtr@PAVVR@@@@QAEAAPAVVR@@XZ 0041a710 f i total.obj
 0001:000198e0       ?Get@?$Array@PAVVRGroupPQueue@@@@QAEAAPAVVRGroupPQueue@@I@Z 0041a8e0 f i total.obj
 0001:00019970       ?RemoveAt@?$Array@PAVVRGroupPQueue@@@@QAEHI@Z 0041a970 f i total.obj
 0001:00019a20       ??1?$Array@PAVVRGroupPQueue@@@@UAE@XZ 0041aa20 f i total.obj
 0001:00019ad0       ?Pop@?$PQueueOfPtr@PAVVRGroupPQueue@@@@QAEAAPAVVRGroupPQueue@@XZ 0041aad0 f i total.obj
 0001:00019ca0       ?Get@?$Array@VTransferSyntax@@@@QAEAAVTransferSyntax@@I@Z 0041aca0 f i total.obj
 0001:00019d30       ?Get@?$Array@VPresentationContext@@@@QAEAAVPresentationContext@@I@Z 0041ad30 f i total.obj
 0001:00019dc0       ??0?$Array@VPresentationContext@@@@QAE@I@Z 0041adc0 f i total.obj
 0001:00019df0       ?Get@?$Array@VPresentationContextAccept@@@@QAEAAVPresentationContextAccept@@I@Z 0041adf0 f i total.obj
 0001:00019e80       ??0?$Array@VPresentationContextAccept@@@@QAE@I@Z 0041ae80 f i total.obj
 0001:00019eb0       ?Get@?$Array@VAbstractSyntax@@@@QAEAAVAbstractSyntax@@I@Z 0041aeb0 f i total.obj
 0001:00019f40       ?Get@?$Array@PAVDICOMDataObject@@@@QAEAAPAVDICOMDataObject@@I@Z 0041af40 f i total.obj
 0001:00019fd0       ?RemoveAt@?$Array@PAVDICOMDataObject@@@@QAEHI@Z 0041afd0 f i total.obj
 0001:0001a080       ??1?$Array@PAVDICOMDataObject@@@@UAE@XZ 0041b080 f i total.obj
 0001:0001a130       ?Get@?$Array@PAD@@QAEAAPADI@Z 0041b130 f i total.obj
 0001:0001a1c0       ?ReplaceAt@?$Array@PAD@@QAEAAPADAAPADI@Z 0041b1c0 f i total.obj
 0001:0001a270       ?RemoveAt@?$Array@PAD@@QAEHI@Z 0041b270 f i total.obj
 0001:0001a320       ??1?$Array@PAD@@UAE@XZ     0041b320 f i total.obj
 0001:0001a3d0       ?Get@?$Array@PAJ@@QAEAAPAJI@Z 0041b3d0 f i total.obj
 0001:0001a460       ?RemoveAt@?$Array@PAJ@@QAEHI@Z 0041b460 f i total.obj
 0001:0001a510       ??1?$Array@PAJ@@UAE@XZ     0041b510 f i total.obj
 0001:0001a5c0       ?Get@?$Array@PAUDBENTRY@@@@QAEAAPAUDBENTRY@@I@Z 0041b5c0 f i total.obj
 0001:0001a650       ?Get@?$Array@H@@QAEAAHI@Z  0041b650 f i total.obj
 0001:0001a6e0       ?RemoveAt@?$Array@H@@QAEHI@Z 0041b6e0 f i total.obj
 0001:0001a790       ??1?$Array@H@@UAE@XZ       0041b790 f i total.obj
 0001:0001a840       ?Get@?$Array@UDBENTRY@@@@QAEAAUDBENTRY@@I@Z 0041b840 f i total.obj
 0001:0001a8d0       ?Get@?$Array@PAU_ACRNemaAddress@@@@QAEAAPAU_ACRNemaAddress@@I@Z 0041b8d0 f i total.obj
 0001:0001a960       ?ReplaceAt@?$Array@PAU_ACRNemaAddress@@@@QAEAAPAU_ACRNemaAddress@@AAPAU2@I@Z 0041b960 f i total.obj
 0001:0001aa10       ?RemoveAt@?$Array@PAU_ACRNemaAddress@@@@QAEHI@Z 0041ba10 f i total.obj
 0001:0001aac0       ??1?$Array@PAU_ACRNemaAddress@@@@UAE@XZ 0041bac0 f i total.obj
 0001:0001ab70       ?Get@?$Array@PAH@@QAEAAPAHI@Z 0041bb70 f i total.obj
 0001:0001ac00       ?ReplaceAt@?$Array@PAH@@QAEAAPAHAAPAHI@Z 0041bc00 f i total.obj
 0001:0001acb0       ?RemoveAt@?$Array@PAH@@QAEHI@Z 0041bcb0 f i total.obj
 0001:0001ad60       ??1?$Array@PAH@@UAE@XZ     0041bd60 f i total.obj
 0001:0001ae10       ?Get@?$Array@PAU_sectionTable@@@@QAEAAPAU_sectionTable@@I@Z 0041be10 f i total.obj
 0001:0001aea0       ?RemoveAt@?$Array@PAU_sectionTable@@@@QAEHI@Z 0041bea0 f i total.obj
 0001:0001af50       ??1?$Array@PAU_sectionTable@@@@UAE@XZ 0041bf50 f i total.obj
 0001:0001b000       ?Get@?$Array@PAU_iniTable@@@@QAEAAPAU_iniTable@@I@Z 0041c000 f i total.obj
 0001:0001b090       ?ReplaceAt@?$Array@PAU_iniTable@@@@QAEAAPAU_iniTable@@AAPAU2@I@Z 0041c090 f i total.obj
 0001:0001b140       ??0?$FixedArray@IU_RTCElement@@@@QAE@IH@Z 0041c140 f i total.obj
 0001:0001b1b0       ??1?$FixedArray@IU_RTCElement@@@@QAE@XZ 0041c1b0 f i total.obj
 0001:0001b1e0       ?Add@?$FixedArray@IU_RTCElement@@@@QAEAAU_RTCElement@@AAIAAU2@@Z 0041c1e0 f i total.obj
 0001:0001b250       ?IndexOf@?$FixedArray@IU_RTCElement@@@@QAEHAAI@Z 0041c250 f i total.obj
 0001:0001b330       ?Get@?$Array@U_RTCElement@@@@QAEAAU_RTCElement@@I@Z 0041c330 f i total.obj
 0001:0001b3c0       ?RemoveAt@?$Array@U_RTCElement@@@@QAEHI@Z 0041c3c0 f i total.obj
 0001:0001b470       ??1?$Array@U_RTCElement@@@@UAE@XZ 0041c470 f i total.obj
 0001:0001b520       ?Get@?$Array@PAVDICOMObject@@@@QAEAAPAVDICOMObject@@I@Z 0041c520 f i total.obj
 0001:0001b5b0       ?RemoveAt@?$Array@PAVDICOMObject@@@@QAEHI@Z 0041c5b0 f i total.obj
 0001:0001b660       ??1?$Array@PAVDICOMObject@@@@UAE@XZ 0041c660 f i total.obj
 0001:0001b710       ??$_Allocate@D@std@@YAPADIPAD@Z 0041c710 f i total.obj
 0001:0001b780       ??0bad_alloc@std@@QAE@ABV01@@Z 0041c780 f i total.obj
 0001:0001b7a0       ??1?$DataLink@VAbstractSyntax@@@@QAE@XZ 0041c7a0 f i total.obj
 0001:0001b7b0       ??0?$DataLink@PAVBufferSpace@@@@QAE@XZ 0041c7b0 f i total.obj
 0001:0001b7c0       ??0?$DataLink@PAVVR@@@@QAE@XZ 0041c7c0 f i total.obj
 0001:0001b7d0       ??0?$DataLink@PAVVRGroupPQueue@@@@QAE@XZ 0041c7d0 f i total.obj
 0001:0001b7e0       ??0?$DataLink@PAVDICOMDataObject@@@@QAE@XZ 0041c7e0 f i total.obj
 0001:0001b7f0       ??0?$DataLink@PAD@@QAE@XZ  0041c7f0 f i total.obj
 0001:0001b800       ??0?$DataLink@PAJ@@QAE@XZ  0041c800 f i total.obj
 0001:0001b810       ??0?$DataLink@PAUDBENTRY@@@@QAE@XZ 0041c810 f i total.obj
 0001:0001b820       ??0?$DataLink@H@@QAE@XZ    0041c820 f i total.obj
 0001:0001b830       ??0?$DataLink@UDBENTRY@@@@QAE@XZ 0041c830 f i total.obj
 0001:0001b840       ??0?$DataLink@PAU_ACRNemaAddress@@@@QAE@XZ 0041c840 f i total.obj
 0001:0001b850       ??0?$DataLink@PAH@@QAE@XZ  0041c850 f i total.obj
 0001:0001b860       ??0?$DataLink@PAU_sectionTable@@@@QAE@XZ 0041c860 f i total.obj
 0001:0001b870       ??0?$DataLink@PAU_iniTable@@@@QAE@XZ 0041c870 f i total.obj
 0001:0001b880       ??0?$Array@V?$FixedArrayElement@IU_RTCElement@@@@@@QAE@XZ 0041c880 f i total.obj
 0001:0001b8b0       ??0?$DataLink@U_RTCElement@@@@QAE@XZ 0041c8b0 f i total.obj
 0001:0001b8c0       ??0?$DataLink@PAVDICOMObject@@@@QAE@XZ 0041c8c0 f i total.obj
 0001:0001b8d0       ?_Init@?$codecvt@DDH@std@@IAEXABV_Locinfo@2@@Z 0041c8d0 f i total.obj
 0001:0001b8e0       ?RemoveAt@?$Array@PAUDBENTRY@@@@QAEHI@Z 0041c8e0 f i total.obj
 0001:0001b990       ?RemoveAt@?$Array@UDBENTRY@@@@QAEHI@Z 0041c990 f i total.obj
 0001:0001ba40       ?RemoveAt@?$Array@PAU_iniTable@@@@QAEHI@Z 0041ca40 f i total.obj
 0001:0001baf0       ??1?$DataLink@VTransferSyntax@@@@QAE@XZ 0041caf0 f i total.obj
 0001:0001bb00       ??O?$FixedArrayElement@IU_RTCElement@@@@QAEIAAV0@@Z 0041cb00 f i total.obj
 0001:0001bb20       ??M?$FixedArrayElement@IU_RTCElement@@@@QAEIAAV0@@Z 0041cb20 f i total.obj
 0001:0001bb40       ?GetSize@?$Array@V?$FixedArrayElement@IU_RTCElement@@@@@@QAEIXZ 0041cb40 f i total.obj
 0001:0001bb50       ?Get@?$Array@V?$FixedArrayElement@IU_RTCElement@@@@@@QAEAAV?$FixedArrayElement@IU_RTCElement@@@@I@Z 0041cb50 f i total.obj
 0001:0001bbe0       ?RemoveAt@?$Array@V?$FixedArrayElement@IU_RTCElement@@@@@@QAEHI@Z 0041cbe0 f i total.obj
 0001:0001bc90       ??0?$DataLink@V?$FixedArrayElement@IU_RTCElement@@@@@@QAE@XZ 0041cc90 f i total.obj
 0001:0001bca0       ?GetUID@StandardRetrieve@@W3AEHAAVUID@@@Z 0041cca0 f i total.obj
 0001:0001bcb0       ?GetUID@UnknownStorage@@W3AEHAAVUID@@@Z 0041ccb0 f i total.obj
 0001:0001bcc0       ??0?$PQueueOfPtr@PAVVR@@@@QAE@XZ 0041ccc0 f i total.obj
 0001:0001bcf0       ??1?$PQueueOfPtr@PAVVR@@@@UAE@XZ 0041ccf0 f i total.obj
 0001:0001bd00       ??_G?$PQueueOfPtr@PAVVR@@@@UAEPAXI@Z 0041cd00 f i total.obj
 0001:0001bd00       ??_E?$PQueueOfPtr@PAVVR@@@@UAEPAXI@Z 0041cd00 f i total.obj
 0001:0001bd30       ??0UID@@QAE@XZ             0041cd30 f i total.obj
 0001:0001bd60       ?Set@UID@@QAEXPAE@Z        0041cd60 f i total.obj
 0001:0001bde0       ?Set@UID@@QAEXPBD@Z        0041cde0 f i total.obj
 0001:0001bdf0       ?SetTimeOut@PDU_Service@@QAEHH@Z 0041cdf0 f i total.obj
 0001:0001be10       ??_Gruntime_error@std@@UAEPAXI@Z 0041ce10 f i total.obj
 0001:0001be10       ??_Eruntime_error@std@@UAEPAXI@Z 0041ce10 f i total.obj
 0001:0001be40       ?c_str@locale@std@@QBEPBDXZ 0041ce40 f i total.obj
 0001:0001be50       ??0?$ctype@D@std@@QAE@ABV_Locinfo@1@I@Z 0041ce50 f i total.obj
 0001:0001bea0       ?_Tidy@?$ctype@D@std@@IAEXXZ 0041cea0 f i total.obj
 0001:0001bed0       ?do_tolower@?$ctype@D@std@@MBEDD@Z 0041ced0 f i total.obj
 0001:0001bef0       ?do_tolower@?$ctype@D@std@@MBEPBDPADPBD@Z 0041cef0 f i total.obj
 0001:0001bf30       ?do_toupper@?$ctype@D@std@@MBEDD@Z 0041cf30 f i total.obj
 0001:0001bf50       ?do_toupper@?$ctype@D@std@@MBEPBDPADPBD@Z 0041cf50 f i total.obj
 0001:0001bf90       ?do_widen@?$ctype@D@std@@MBEDD@Z 0041cf90 f i total.obj
 0001:0001bfa0       ?do_widen@?$ctype@D@std@@MBEPBDPBD0PAD@Z 0041cfa0 f i total.obj
 0001:0001bfd0       ?do_narrow@?$ctype@D@std@@MBEDDD@Z 0041cfd0 f i total.obj
 0001:0001bfe0       ?do_narrow@?$ctype@D@std@@MBEPBDPBD0DPAD@Z 0041cfe0 f i total.obj
 0001:0001c010       ??1?$ctype@D@std@@MAE@XZ   0041d010 f i total.obj
 0001:0001c060       ??_E?$ctype@D@std@@MAEPAXI@Z 0041d060 f i total.obj
 0001:0001c060       ??_G?$ctype@D@std@@MAEPAXI@Z 0041d060 f i total.obj
 0001:0001c0c0       ??0system_error@std@@QAE@Verror_code@1@PBD@Z 0041d0c0 f i total.obj
 0001:0001c100       ??_Gsystem_error@std@@UAEPAXI@Z 0041d100 f i total.obj
 0001:0001c100       ??_Esystem_error@std@@UAEPAXI@Z 0041d100 f i total.obj
 0001:0001c130       ??0failure@ios_base@std@@QAE@PBDABVerror_code@2@@Z 0041d130 f i total.obj
 0001:0001c180       ??1failure@ios_base@std@@UAE@XZ 0041d180 f i total.obj
 0001:0001c190       ?clear@ios_base@std@@QAEXH_N@Z 0041d190 f i total.obj
 0001:0001c2c0       ??0runtime_error@std@@QAE@ABV01@@Z 0041d2c0 f i total.obj
 0001:0001c2e0       ??0system_error@std@@QAE@ABV01@@Z 0041d2e0 f i total.obj
 0001:0001c310       ?clear@ios_base@std@@QAEXH@Z 0041d310 f i total.obj
 0001:0001c330       ?_Init@ios_base@std@@IAEXXZ 0041d330 f i total.obj
 0001:0001c3e0       ??_Efailure@ios_base@std@@UAEPAXI@Z 0041d3e0 f i total.obj
 0001:0001c3e0       ??_Gfailure@ios_base@std@@UAEPAXI@Z 0041d3e0 f i total.obj
 0001:0001c410       ??0failure@ios_base@std@@QAE@ABV012@@Z 0041d410 f i total.obj
 0001:0001c450       ??1sentry@?$basic_istream@DU?$char_traits@D@std@@@std@@QAE@XZ 0041d450 f i total.obj
 0001:0001c470       ?decommentBuffer@@YAHPADH@Z 0041d470 f   total.obj
 0001:0001c650       ?safestrcat@@YAXPADPBDH@Z  0041d650 f   total.obj
 0001:0001c6e0       ?BuildColumnString@@YAHPAUDBENTRY@@PADPAVVR@@1@Z 0041d6e0 f   total.obj
 0001:0001c8d0       ?ParseComment@@YAHAAVLex@@@Z 0041d8d0 f   total.obj
 0001:0001c920       ??0Debug@@QAE@XZ           0041d920 f   total.obj
 0001:0001c9e0       ??1Debug@@QAE@XZ           0041d9e0 f   total.obj
 0001:0001cab0       ?On@Debug@@QAEXXZ          0041dab0 f   total.obj
 0001:0001cb30       ?On@Debug@@QAEXPAU_iobuf@@@Z 0041db30 f   total.obj
 0001:0001cbc0       ?On@Debug@@QAEXPAD@Z       0041dbc0 f   total.obj
 0001:0001cc60       ?OnMsgPipe@Debug@@QAEXPAD@Z 0041dc60 f   total.obj
 0001:0001cd00       ?OnMsgPipe@Debug@@QAEXPADH@Z 0041dd00 f   total.obj
 0001:0001cda0       ??0ACRNemaMap@@IAE@XZ      0041dda0 f   total.obj
 0001:0001ce60       ?ClearMap@ACRNemaMap@@QAEXXZ 0041de60 f   total.obj
 0001:0001cf70       ?DeleteEntry@ACRNemaMap@@QAEHI@Z 0041df70 f   total.obj
 0001:0001cfc0       ?GetOneEntry@ACRNemaMap@@QAEXIPADI0@Z 0041dfc0 f   total.obj
 0001:0001d030       ?GetOneACRNemaAddress@ACRNemaMap@@QAEPAU_ACRNemaAddress@@I@Z 0041e030 f   total.obj
 0001:0001d060       ?GetSize@ACRNemaMap@@QAEIXZ 0041e060 f   total.obj
 0001:0001d070       ?GetWholeAMapToString@ACRNemaMap@@QAEPADPAD@Z 0041e070 f   total.obj
 0001:0001d1b0       ?PrintAMapToString@ACRNemaMap@@QAEPADPAD@Z 0041e1b0 f   total.obj
 0001:0001d260       ?WriteAMapToTheFile@ACRNemaMap@@QAEHPAD@Z 0041e260 f   total.obj
 0001:0001d440       ?wildIPCheck@ACRNemaMap@@AAEXPADPBD0@Z 0041e440 f   total.obj
 0001:0001d590       ??0IniValue@@IAE@XZ        0041e590 f   total.obj
 0001:0001d6d0       ?dumpCharArray@IniValue@@AAEXPAU_iobuf@@PAV?$Array@PAD@@PBD@Z 0041e6d0 f   total.obj
 0001:0001d7a0       ?dumpIEGroup@IniValue@@AAEXPAU_iobuf@@PAU_iEGroup@@PBD@Z 0041e7a0 f   total.obj
 0001:0001d840       ?dumpIntArray@IniValue@@AAEXPAU_iobuf@@PAV?$Array@PAH@@PBD@Z 0041e840 f   total.obj
 0001:0001d910       ?errorToBuffer@IniValue@@AAEHPBD@Z 0041e910 f   total.obj
 0001:0001d950       ?freeCharArray@IniValue@@AAEXPAPAV?$Array@PAD@@@Z 0041e950 f   total.obj
 0001:0001da90       ?freeIEGroup@IniValue@@AAEXPAPAU_iEGroup@@@Z 0041ea90 f   total.obj
 0001:0001db20       ?freeIntArray@IniValue@@AAEXPAPAV?$Array@PAH@@@Z 0041eb20 f   total.obj
 0001:0001dc60       ?freeLua@IniValue@@AAEXXZ  0041ec60 f   total.obj
 0001:0001ddd0       ?freesscscp@IniValue@@AAEXXZ 0041edd0 f   total.obj
 0001:0001dfb0       ?freeSourceLines@IniValue@@AAEXPAPAU_sourceLines@@@Z 0041efb0 f   total.obj
 0001:0001dff0       ?freesection@IniValue@@AAEXXZ 0041eff0 f   total.obj
 0001:0001e120       ?freewadoservers@IniValue@@AAEXXZ 0041f120 f   total.obj
 0001:0001e150       ?freewebdefaults@IniValue@@AAEXXZ 0041f150 f   total.obj
 0001:0001e180       ?GetIniTableValue@IniValue@@QAEPADPBDPAV?$Array@PAU_iniTable@@@@@Z 0041f180 f   total.obj
 0001:0001e210       ?getStringPtrFromArray@IniValue@@AAEPADXZ 0041f210 f   total.obj
 0001:0001e250       ?getTypeForsourceLines@IniValue@@AAE?AW4DATAPTRTYPE@@XZ 0041f250 f   total.obj
 0001:0001e400       ?getTypeForWebDefaults@IniValue@@AAE?AW4DATAPTRTYPE@@XZ 0041f400 f   total.obj
 0001:0001e700       ?getReplyLength@IniValue@@AAEHXZ 0041f700 f   total.obj
 0001:0001e740       ?GetUnknownSectionTableValue@IniValue@@QAEPADPBD0@Z 0041f740 f   total.obj
 0001:0001e800       ?goToNextSection@IniValue@@AAEHXZ 0041f800 f   total.obj
 0001:0001e940       ?goToStartOfName@IniValue@@AAEHPBD@Z 0041f940 f   total.obj
 0001:0001eaa0       ?isIEGroup@IniValue@@AAEHI@Z 0041faa0 f   total.obj
 0001:0001ecf0       ?keepLine@IniValue@@AAEHPBD@Z 0041fcf0 f   total.obj
 0001:0001ee10       ?makeFullPath@IniValue@@AAEXPAD@Z 0041fe10 f   total.obj
 0001:0001ef10       ?mallocReturnBuf@IniValue@@AAEPADPBD@Z 0041ff10 f   total.obj
 0001:0001ef90       ?openNewConfigFile@IniValue@@AAEHXZ 0041ff90 f   total.obj
 0001:0001f070       ?SetBasePath@IniValue@@QAEHPBD@Z 00420070 f   total.obj
 0001:0001f200       ?setIniBool@IniValue@@AAEXXZ 00420200 f   total.obj
 0001:0001f2c0       ?SetIniFile@IniValue@@QAEHPBD@Z 004202c0 f   total.obj
 0001:0001f550       ?setIniFullPath@IniValue@@AAEXXZ 00420550 f   total.obj
 0001:0001f580       ?setIniINT@IniValue@@AAEXPAH@Z 00420580 f   total.obj
 0001:0001f5d0       ?unknownPrint@IniValue@@AAEXPAV?$Array@PAU_iniTable@@@@PAU_iobuf@@@Z 004205d0 f   total.obj
 0001:0001f6c0       ?writeByPutParms@IniValue@@AAEHPBD@Z 004206c0 f   total.obj
 0001:0001f870       ?writeNameValue@IniValue@@AAEHPBD0@Z 00420870 f   total.obj
 0001:0001f9c0       ?UniqueLink@@YAPBDPAUDBENTRY@@@Z 004209c0 f   total.obj
 0001:0001fa00       ?SetString@@YAPADPAVVR@@PADI@Z 00420a00 f   total.obj
 0001:0001fb90       ?MakeSafeDate@@YAHPAVVR@@PAD@Z 00420b90 f   total.obj
 0001:0001fcd0       ?ConstructVRFromSQL@@YAPAVVR@@PAUDBENTRY@@GGIPAD@Z 00420cd0 f   total.obj
 0001:0001ffe0       ??_G?$FixedArray@IU_RTCElement@@@@QAEPAXI@Z 00420fe0 f i total.obj
 0001:00020030       ?RunTimeClass@RTC@@QAEGGGPAD@Z 00421030 f   total.obj
 0001:000200e0       ?RunTimeClass@RTC@@QAEHPAVVR@@@Z 004210e0 f   total.obj
 0001:00020180       ?GetGroupElement@RTC@@QAEHPAU_RTCElement@@@Z 00421180 f   total.obj
 0001:00020260       ?AttachBinaryRTC@RTC@@QAEHPAD@Z 00421260 f   total.obj
 0001:00020570       ?AttachResourceRTC@RTC@@QAEHPAD@Z 00421570 f   total.obj
 0001:000207c0       ?GetUID@PatientRootQuery@@UAEHAAVUID@@@Z 004217c0 f   total.obj
 0001:000207e0       ?GetUID@PatientRootRetrieve@@UAEHAAVUID@@@Z 004217e0 f   total.obj
 0001:00020800       ?GetUID@StudyRootQuery@@UAEHAAVUID@@@Z 00421800 f   total.obj
 0001:00020820       ?GetUID@StudyRootRetrieve@@UAEHAAVUID@@@Z 00421820 f   total.obj
 0001:00020840       ?GetUID@PatientStudyOnlyQuery@@UAEHAAVUID@@@Z 00421840 f   total.obj
 0001:00020860       ?GetUID@PatientStudyOnlyRetrieve@@UAEHAAVUID@@@Z 00421860 f   total.obj
 0001:00020880       ?GetUID@ModalityWorkListQuery@@UAEHAAVUID@@@Z 00421880 f   total.obj
 0001:000208a0       ?GetUID@CRStorage@@UAEHAAVUID@@@Z 004218a0 f   total.obj
 0001:000208c0       ?GetUID@CTStorage@@UAEHAAVUID@@@Z 004218c0 f   total.obj
 0001:000208e0       ?GetUID@USMultiframeStorage@@UAEHAAVUID@@@Z 004218e0 f   total.obj
 0001:00020900       ?GetUID@MRStorage@@UAEHAAVUID@@@Z 00421900 f   total.obj
 0001:00020920       ?GetUID@NMStorage@@UAEHAAVUID@@@Z 00421920 f   total.obj
 0001:00020940       ?GetUID@USStorage@@UAEHAAVUID@@@Z 00421940 f   total.obj
 0001:00020960       ?GetUID@SCStorage@@UAEHAAVUID@@@Z 00421960 f   total.obj
 0001:00020980       ?GetUID@StandaloneOverlayStorage@@UAEHAAVUID@@@Z 00421980 f   total.obj
 0001:000209a0       ?GetUID@StandaloneCurveStorage@@UAEHAAVUID@@@Z 004219a0 f   total.obj
 0001:000209c0       ?GetUID@StandaloneModalityLUTStorage@@UAEHAAVUID@@@Z 004219c0 f   total.obj
 0001:000209e0       ?GetUID@StandaloneVOILUTStorage@@UAEHAAVUID@@@Z 004219e0 f   total.obj
 0001:00020a00       ?GetUID@GEMRStorage@@UAEHAAVUID@@@Z 00421a00 f   total.obj
 0001:00020a20       ?GetUID@GECTStorage@@UAEHAAVUID@@@Z 00421a20 f   total.obj
 0001:00020a40       ?GetUID@Verification@@UAEHAAVUID@@@Z 00421a40 f   total.obj
 0001:00020a60       ?TranslateUIDToVR@@YAPAVVR@@PAVUID@@GG@Z 00421a60 f   total.obj
 0001:00020c10       ?ConvertNumber@@YAGPAD@Z   00421c10 f   total.obj
 0001:00020cd0       ?strcatlim@@YAPADPADPBDI@Z 00421cd0 f   total.obj
 0001:00020d30       ?ImplicitLittleEndian_ParseRawVRIntoDCM@PDU_Service@@MAEHAAVLinkedBuffer@@PAVDICOMObject@@@Z 00421d30 f   total.obj
 0001:00020d60       ?ImplicitLittleEndian_ParseDCMIntoRawVR@PDU_Service@@MAEHPAVDICOMObject@@AAVLinkedBuffer@@@Z 00421d60 f   total.obj
 0001:00020d80       ?ExplicitLittleEndian_ParseRawVRIntoDCM@PDU_Service@@MAEHAAVLinkedBuffer@@PAVDICOMObject@@@Z 00421d80 f   total.obj
 0001:00020db0       ?ExplicitLittleEndian_ParseDCMIntoRawVR@PDU_Service@@MAEHPAVDICOMObject@@AAVLinkedBuffer@@@Z 00421db0 f   total.obj
 0001:00020dd0       ?ExplicitBigEndian_ParseRawVRIntoDCM@PDU_Service@@MAEHAAVLinkedBuffer@@PAVDICOMObject@@@Z 00421dd0 f   total.obj
 0001:00020e00       ?ExplicitBigEndian_ParseDCMIntoRawVR@PDU_Service@@MAEHPAVDICOMObject@@AAVLinkedBuffer@@@Z 00421e00 f   total.obj
 0001:00020e20       ??4UserInformation@@QAEAAV0@AAV0@@Z 00421e20 f i total.obj
 0001:00020ea0       ??4PresentationContext@@QAEAAV0@AAV0@@Z 00421ea0 f i total.obj
 0001:00020f70       ?SetApplicationContext@PDU_Service@@UAEHAAVUID@@@Z 00421f70 f   total.obj
 0001:00020fd0       ?SetLocalAddress@PDU_Service@@UAEHPAE@Z 00421fd0 f   total.obj
 0001:00021030       ?SetRemoteAddress@PDU_Service@@UAEHPAE@Z 00422030 f   total.obj
 0001:00021090       ??_EAAssociateRJ@@UAEPAXI@Z 00422090 f i total.obj
 0001:00021090       ??_GAAssociateRJ@@UAEPAXI@Z 00422090 f i total.obj
 0001:000210c0       ??_EAReleaseRQ@@UAEPAXI@Z  004220c0 f i total.obj
 0001:000210c0       ??_GAReleaseRQ@@UAEPAXI@Z  004220c0 f i total.obj
 0001:000210f0       ??_GAReleaseRP@@UAEPAXI@Z  004220f0 f i total.obj
 0001:000210f0       ??_EAReleaseRP@@UAEPAXI@Z  004220f0 f i total.obj
 0001:00021120       ??_GAAbortRQ@@UAEPAXI@Z    00422120 f i total.obj
 0001:00021120       ??_EAAbortRQ@@UAEPAXI@Z    00422120 f i total.obj
 0001:00021150       ??1PresentationContextAccept@@QAE@XZ 00422150 f   total.obj
 0001:00021160       ?Size@PresentationContextAccept@@QAEIXZ 00422160 f   total.obj
 0001:00021190       ?SetUserInformation@AAssociateAC@@QAEXAAVUserInformation@@@Z 00422190 f   total.obj
 0001:000211a0       ??0ApplicationContext@@QAE@XZ 004221a0 f   total.obj
 0001:000211d0       ??0ApplicationContext@@QAE@AAVUID@@@Z 004221d0 f   total.obj
 0001:00021250       ??0ApplicationContext@@QAE@PAE@Z 00422250 f   total.obj
 0001:000212a0       ?Set@ApplicationContext@@QAEXPAE@Z 004222a0 f   total.obj
 0001:000212b0       ??0AbstractSyntax@@QAE@XZ  004222b0 f   total.obj
 0001:000212e0       ??0AbstractSyntax@@QAE@AAVUID@@@Z 004222e0 f   total.obj
 0001:00021360       ??0AbstractSyntax@@QAE@PAE@Z 00422360 f   total.obj
 0001:000213b0       ?Set@AbstractSyntax@@QAEXPAE@Z 004223b0 f   total.obj
 0001:000213c0       ??0TransferSyntax@@QAE@XZ  004223c0 f   total.obj
 0001:000213f0       ??0TransferSyntax@@QAE@AAVUID@@@Z 004223f0 f   total.obj
 0001:00021470       ??0TransferSyntax@@QAE@PAE@Z 00422470 f   total.obj
 0001:000214c0       ?Set@TransferSyntax@@QAEXPAE@Z 004224c0 f   total.obj
 0001:000214d0       ??0ImplementationClass@@QAE@XZ 004224d0 f   total.obj
 0001:00021500       ??0ImplementationClass@@QAE@AAVUID@@@Z 00422500 f   total.obj
 0001:00021580       ??0ImplementationClass@@QAE@PAE@Z 00422580 f   total.obj
 0001:000215d0       ?Set@ImplementationClass@@QAEXPAE@Z 004225d0 f   total.obj
 0001:000215e0       ??0ImplementationVersion@@QAE@XZ 004225e0 f   total.obj
 0001:00021610       ??0ImplementationVersion@@QAE@AAVUID@@@Z 00422610 f   total.obj
 0001:00021690       ??0ImplementationVersion@@QAE@PAE@Z 00422690 f   total.obj
 0001:000216e0       ?Set@ImplementationVersion@@QAEXPAE@Z 004226e0 f   total.obj
 0001:000216f0       ?Size@PresentationContext@@QAEIXZ 004226f0 f   total.obj
 0001:000217c0       ??0SCPSCURoleSelect@@QAE@XZ 004227c0 f   total.obj
 0001:000217f0       ??0UserInformation@@QAE@XZ 004227f0 f   total.obj
 0001:00021890       ?SetUserInformation@AAssociateRQ@@QAEXAAVUserInformation@@@Z 00422890 f   total.obj
 0001:000218a0       ??1VR@@QAE@XZ              004228a0 f   total.obj
 0001:000219e0       ?Pop@VRGroupPQueue@@QAEPAVVR@@XZ 004229e0 f   total.obj
 0001:00021a20       ??0?$PQueueOfPtr@PAVVRGroupPQueue@@@@QAE@XZ 00422a20 f i total.obj
 0001:00021a50       ??1?$PQueueOfPtr@PAVVRGroupPQueue@@@@UAE@XZ 00422a50 f i total.obj
 0001:00021a60       ??_G?$PQueueOfPtr@PAVVRGroupPQueue@@@@UAEPAXI@Z 00422a60 f i total.obj
 0001:00021a60       ??_E?$PQueueOfPtr@PAVVRGroupPQueue@@@@UAEPAXI@Z 00422a60 f i total.obj
 0001:00021a90       ?GetVR@DICOMObject@@QAEPAVVR@@GG@Z 00422a90 f   total.obj
 0001:00021b80       ?GetBYTE@DICOMObject@@QAEEGG@Z 00422b80 f   total.obj
 0001:00021bc0       ?GetUINT16@DICOMObject@@QAEGGG@Z 00422bc0 f   total.obj
 0001:00021c30       ?GetUINT@DICOMObject@@QAEIGG@Z 00422c30 f   total.obj
 0001:00021c90       ?GetULongLong@DICOMObject@@QAE_KGG@Z 00422c90 f   total.obj
 0001:00021d10       ?Getatoi@DICOMObject@@QAEHGG@Z 00422d10 f   total.obj
 0001:00021dc0       ?GetCString@DICOMObject@@QAEPADGGI@Z 00422dc0 f   total.obj
 0001:00021e40       ?SetIf@VR@@QAEHPAV1@@Z     00422e40 f   total.obj
 0001:000222e0       ?Reset@VR@@QAEHXZ          004232e0 f   total.obj
 0001:00022430       ?ReAlloc@VR@@QAEHI@Z       00423430 f   total.obj
 0001:000224d0       ??_GSocket@@UAEPAXI@Z      004234d0 f i total.obj
 0001:000224d0       ??_ESocket@@UAEPAXI@Z      004234d0 f i total.obj
 0001:00022560       ?Listen@Socket@@QAEHPAD@Z  00423560 f   total.obj
 0001:00022700       ??0Buffer@@QAE@XZ          00423700 f   total.obj
 0001:00022770       ??1Buffer@@UAE@XZ          00423770 f   total.obj
 0001:000229d0       ?Flush@Buffer@@QAEHXZ      004239d0 f   total.obj
 0001:00022b70       ?Flush@Buffer@@QAEHI@Z     00423b70 f   total.obj
 0001:00022e60       ?dbase_close@@YAXPAUdbase_header@@@Z 00423e60 f   total.obj
 0001:00022fa0       ?dbase_create@@YAHPADPAPADPAPAUdbase_header@@@Z 00423fa0 f   total.obj
 0001:00023500       ?Close@Database@@UAEHXZ    00424500 f   total.obj
 0001:000237b0       ?SQLExecDirectWithRetry@Database@@UAEHPAXPAEJ@Z 004247b0 f   total.obj
 0001:00023900       ??0StandardRetrieveNKI@@QAE@XZ 00424900 f   total.obj
 0001:00023920       ?GetUID@StandardRetrieveNKI@@UAEHAAVUID@@@Z 00424920 f i total.obj
 0001:00023930       ?GetUID@StandardRetrieveNKI@@W3AEHAAVUID@@@Z 00424930 f i total.obj
 0001:00023940       ?GetUID@PatientRootRetrieveNKI@@UAEHAAVUID@@@Z 00424940 f   total.obj
 0001:00023960       ?GetUID@StudyRootRetrieveNKI@@UAEHAAVUID@@@Z 00424960 f   total.obj
 0001:00023980       ?GetUID@PatientStudyOnlyRetrieveNKI@@UAEHAAVUID@@@Z 00424980 f   total.obj
 0001:000239a0       ?GetUID@PatientRootRetrieveGeneric@@UAEHAAVUID@@@Z 004249a0 f   total.obj
 0001:000239c0       ?GetUID@StudyRootRetrieveGeneric@@UAEHAAVUID@@@Z 004249c0 f   total.obj
 0001:000239e0       ?GetUID@PatientStudyOnlyRetrieveGeneric@@UAEHAAVUID@@@Z 004249e0 f   total.obj
 0001:00023a00       ?GetNumberOfFrames@@YAHPAVDICOMDataObject@@@Z 00424a00 f   total.obj
 0001:00023c00       ?getpSliceInfo@@YAPAUSLICE_INFO@@PAVDICOMDataObject@@@Z 00424c00 f   total.obj
 0001:00024cf0       ??0StandardStorage@@QAE@XZ 00425cf0 f i total.obj
 0001:00024d10       ?GetUID@StandardStorage@@UAEHAAVUID@@@Z 00425d10 f i total.obj
 0001:00024d20       ?CheckObject@StandardStorage@@UAEGPAVDICOMDataObject@@PAVPDU_Service@@@Z 00425d20 f i total.obj
 0001:00024d30       ?GetUID@StandardStorage@@W3AEHAAVUID@@@Z 00425d30 f i total.obj
 0001:00024d40       ??0StandardQuery@@QAE@XZ   00425d40 f i total.obj
 0001:00024d60       ?GetUID@StandardQuery@@UAEHAAVUID@@@Z 00425d60 f i total.obj
 0001:00024d70       ?GetUID@StandardQuery@@W3AEHAAVUID@@@Z 00425d70 f i total.obj
 0001:00025170       ?SetUID@RunTimeClassStorage@@QAEHPAVVR@@@Z 00426170 f   total.obj
 0001:00025220       ?SetUID@RunTimeClassStorage@@QAEHPAVDICOMDataObject@@@Z 00426220 f   total.obj
 0001:00025250       ??0MyUnknownStorage@@QAE@XZ 00426250 f i total.obj
 0001:00025270       ??0CFSRQ@@QAE@XZ           00426270 f i total.obj
 0001:00025280       ?GetUID@CFSRQ@@UAEHAAVUID@@@Z 00426280 f i total.obj
 0001:000252a0       ??0CFSRSP@@QAE@XZ          004262a0 f i total.obj
 0001:000252b0       ?GetUID@CFSRSP@@UAEHAAVUID@@@Z 004262b0 f i total.obj
 0001:000252d0       ??0DFSRQ@@QAE@XZ           004262d0 f i total.obj
 0001:000252e0       ?GetUID@DFSRQ@@UAEHAAVUID@@@Z 004262e0 f i total.obj
 0001:00025300       ??0DFSRSP@@QAE@XZ          00426300 f i total.obj
 0001:00025310       ?GetUID@DFSRSP@@UAEHAAVUID@@@Z 00426310 f i total.obj
 0001:00025330       ??0SFSRQ@@QAE@XZ           00426330 f i total.obj
 0001:00025340       ?GetUID@SFSRQ@@UAEHAAVUID@@@Z 00426340 f i total.obj
 0001:00025360       ??0SFSRSP@@QAE@XZ          00426360 f i total.obj
 0001:00025370       ?GetUID@SFSRSP@@UAEHAAVUID@@@Z 00426370 f i total.obj
 0001:00025390       ??0AFSRQ@@QAE@XZ           00426390 f i total.obj
 0001:000253a0       ?GetUID@AFSRQ@@UAEHAAVUID@@@Z 004263a0 f i total.obj
 0001:000253c0       ??0AFSRSP@@QAE@XZ          004263c0 f i total.obj
 0001:000253d0       ?GetUID@AFSRSP@@UAEHAAVUID@@@Z 004263d0 f i total.obj
 0001:000253f0       ??0CFBRQ@@QAE@XZ           004263f0 f i total.obj
 0001:00025400       ?GetUID@CFBRQ@@UAEHAAVUID@@@Z 00426400 f i total.obj
 0001:00025420       ??0CFBRSP@@QAE@XZ          00426420 f i total.obj
 0001:00025430       ?GetUID@CFBRSP@@UAEHAAVUID@@@Z 00426430 f i total.obj
 0001:00025450       ??0DFBRQ@@QAE@XZ           00426450 f i total.obj
 0001:00025460       ?GetUID@DFBRQ@@UAEHAAVUID@@@Z 00426460 f i total.obj
 0001:00025480       ??0DFBRSP@@QAE@XZ          00426480 f i total.obj
 0001:00025490       ?GetUID@DFBRSP@@UAEHAAVUID@@@Z 00426490 f i total.obj
 0001:000254b0       ??0AFBRQ@@QAE@XZ           004264b0 f i total.obj
 0001:000254c0       ?GetUID@AFBRQ@@UAEHAAVUID@@@Z 004264c0 f i total.obj
 0001:000254e0       ??0AFBRSP@@QAE@XZ          004264e0 f i total.obj
 0001:000254f0       ?GetUID@AFBRSP@@UAEHAAVUID@@@Z 004264f0 f i total.obj
 0001:00025510       ??0SFBRQ@@QAE@XZ           00426510 f i total.obj
 0001:00025520       ?GetUID@SFBRQ@@UAEHAAVUID@@@Z 00426520 f i total.obj
 0001:00025540       ??0SFBRSP@@QAE@XZ          00426540 f i total.obj
 0001:00025550       ?GetUID@SFBRSP@@UAEHAAVUID@@@Z 00426550 f i total.obj
 0001:00025570       ??0SBGIBRQ@@QAE@XZ         00426570 f i total.obj
 0001:00025580       ?GetUID@SBGIBRQ@@UAEHAAVUID@@@Z 00426580 f i total.obj
 0001:000255a0       ??0SBGIBRRSP@@QAE@XZ       004265a0 f i total.obj
 0001:000255b0       ?GetUID@SBGIBRRSP@@UAEHAAVUID@@@Z 004265b0 f i total.obj
 0001:000255d0       ??0SBCIBRQ@@QAE@XZ         004265d0 f i total.obj
 0001:000255e0       ?GetUID@SBCIBRQ@@UAEHAAVUID@@@Z 004265e0 f i total.obj
 0001:00025600       ??0SBCIBRRSP@@QAE@XZ       00426600 f i total.obj
 0001:00025610       ?GetUID@SBCIBRRSP@@UAEHAAVUID@@@Z 00426610 f i total.obj
 0001:00025630       ??0GPRQ@@QAE@XZ            00426630 f i total.obj
 0001:00025640       ?GetUID@GPRQ@@UAEHAAVUID@@@Z 00426640 f i total.obj
 0001:00025660       ??0GPRSP@@QAE@XZ           00426660 f i total.obj
 0001:00025670       ?GetUID@GPRSP@@UAEHAAVUID@@@Z 00426670 f i total.obj
 0001:00025690       ??0EPRQ@@QAE@XZ            00426690 f i total.obj
 0001:000256a0       ?GetUID@EPRQ@@UAEHAAVUID@@@Z 004266a0 f i total.obj
 0001:000256c0       ??0EPRSP@@QAE@XZ           004266c0 f i total.obj
 0001:000256d0       ?GetUID@EPRSP@@UAEHAAVUID@@@Z 004266d0 f i total.obj
 0001:000256f0       ?GetUID@ASCPRQ@@UAEHAAVUID@@@Z 004266f0 f i total.obj
 0001:00025710       ?GetUID@ASCPRSP@@UAEHAAVUID@@@Z 00426710 f i total.obj
 0001:00025730       ?GetUID@ESCPRQ@@UAEHAAVUID@@@Z 00426730 f i total.obj
 0001:00025750       ?GetUID@ESCPRSP@@UAEHAAVUID@@@Z 00426750 f i total.obj
 0001:00025770       ??0Verification@@QAE@XZ    00426770 f i total.obj
 0001:00025790       ??0PatientRootRetrieve@@QAE@XZ 00426790 f i total.obj
 0001:000257b0       ?uGetUID@PatientRootRetrieve@@UAEHAAVUID@@@Z 004267b0 f i total.obj
 0001:000257c0       ??0PatientRootRetrieveNKI@@QAE@XZ 004267c0 f i total.obj
 0001:000257e0       ?uGetUID@PatientRootRetrieveNKI@@UAEHAAVUID@@@Z 004267e0 f i total.obj
 0001:000257f0       ??0PatientRootRetrieveGeneric@@QAE@XZ 004267f0 f i total.obj
 0001:00025810       ?uGetUID@PatientRootRetrieveGeneric@@UAEHAAVUID@@@Z 00426810 f i total.obj
 0001:00025820       ??0StudyRootRetrieve@@QAE@XZ 00426820 f i total.obj
 0001:00025840       ?uGetUID@StudyRootRetrieve@@UAEHAAVUID@@@Z 00426840 f i total.obj
 0001:00025850       ??0StudyRootRetrieveNKI@@QAE@XZ 00426850 f i total.obj
 0001:00025870       ?uGetUID@StudyRootRetrieveNKI@@UAEHAAVUID@@@Z 00426870 f i total.obj
 0001:00025880       ??0StudyRootRetrieveGeneric@@QAE@XZ 00426880 f i total.obj
 0001:000258a0       ?uGetUID@StudyRootRetrieveGeneric@@UAEHAAVUID@@@Z 004268a0 f i total.obj
 0001:000258b0       ??0PatientStudyOnlyQuery@@QAE@XZ 004268b0 f i total.obj
 0001:000258d0       ?uGetUID@PatientStudyOnlyQuery@@UAEHAAVUID@@@Z 004268d0 f i total.obj
 0001:000258e0       ??0PatientStudyOnlyRetrieve@@QAE@XZ 004268e0 f i total.obj
 0001:00025900       ?uGetUID@PatientStudyOnlyRetrieve@@UAEHAAVUID@@@Z 00426900 f i total.obj
 0001:00025910       ??0PatientStudyOnlyRetrieveNKI@@QAE@XZ 00426910 f i total.obj
 0001:00025930       ?uGetUID@PatientStudyOnlyRetrieveNKI@@UAEHAAVUID@@@Z 00426930 f i total.obj
 0001:00025940       ??0PatientStudyOnlyRetrieveGeneric@@QAE@XZ 00426940 f i total.obj
 0001:00025960       ?uGetUID@PatientStudyOnlyRetrieveGeneric@@UAEHAAVUID@@@Z 00426960 f i total.obj
 0001:00025970       ?WriteGIFHeader@@YAHPAU_iobuf@@HHPAE11HW4ColorStyleType@@PAD@Z 00426970 f   total.obj
 0001:00025c80       ??A?$Array@VTransferSyntax@@@@QAEAAVTransferSyntax@@I@Z 00426c80 f i total.obj
 0001:00025c90       ??A?$Array@VPresentationContext@@@@QAEAAVPresentationContext@@I@Z 00426c90 f i total.obj
 0001:00025ca0       ??A?$Array@VPresentationContextAccept@@@@QAEAAVPresentationContextAccept@@I@Z 00426ca0 f i total.obj
 0001:00025cb0       ??1?$_Yarn@D@std@@QAE@XZ   00426cb0 f i total.obj
 0001:00025cd0       ?tellg@?$basic_istream@DU?$char_traits@D@std@@@std@@QAE?AV?$fpos@H@2@XZ 00426cd0 f i total.obj
 0001:00025d40       ??1?$basic_streambuf@DU?$char_traits@D@std@@@std@@UAE@XZ 00426d40 f i total.obj
 0001:00025dd0       ?_Lock@?$basic_streambuf@DU?$char_traits@D@std@@@std@@UAEXXZ 00426dd0 f i total.obj
 0001:00025de0       ?_Unlock@?$basic_streambuf@DU?$char_traits@D@std@@@std@@UAEXXZ 00426de0 f i total.obj
 0001:00025df0       ?overflow@?$basic_streambuf@DU?$char_traits@D@std@@@std@@MAEHH@Z 00426df0 f i total.obj
 0001:00025e00       ?pbackfail@?$basic_streambuf@DU?$char_traits@D@std@@@std@@MAEHH@Z 00426e00 f i total.obj
 0001:00025e10       ?showmanyc@?$basic_streambuf@DU?$char_traits@D@std@@@std@@MAE_JXZ 00426e10 f i total.obj
 0001:00025e20       ?underflow@?$basic_streambuf@DU?$char_traits@D@std@@@std@@MAEHXZ 00426e20 f i total.obj
 0001:00025e30       ?setbuf@?$basic_streambuf@DU?$char_traits@D@std@@@std@@MAEPAV12@PAD_J@Z 00426e30 f i total.obj
 0001:00025e40       ?sync@?$basic_streambuf@DU?$char_traits@D@std@@@std@@MAEHXZ 00426e40 f i total.obj
 0001:00025e50       ?imbue@?$basic_streambuf@DU?$char_traits@D@std@@@std@@MAEXABVlocale@2@@Z 00426e50 f i total.obj
 0001:00025e60       ?pptr@?$basic_streambuf@DU?$char_traits@D@std@@@std@@IBEPADXZ 00426e60 f i total.obj
 0001:00025e70       ?gbump@?$basic_streambuf@DU?$char_traits@D@std@@@std@@IAEXH@Z 00426e70 f i total.obj
 0001:00025e90       ?pbump@?$basic_streambuf@DU?$char_traits@D@std@@@std@@IAEXH@Z 00426e90 f i total.obj
 0001:00025eb0       ?_Pnavail@?$basic_streambuf@DU?$char_traits@D@std@@@std@@IBE_JXZ 00426eb0 f i total.obj
 0001:00025ed0       ?sgetc@?$basic_streambuf@DU?$char_traits@D@std@@@std@@QAEHXZ 00426ed0 f i total.obj
 0001:00025f00       ?uflow@?$basic_streambuf@DU?$char_traits@D@std@@@std@@MAEHXZ 00426f00 f i total.obj
 0001:00025f30       ?xsgetn@?$basic_streambuf@DU?$char_traits@D@std@@@std@@MAE_JPAD_J@Z 00426f30 f i total.obj
 0001:00026040       ?xsputn@?$basic_streambuf@DU?$char_traits@D@std@@@std@@MAE_JPBD_J@Z 00427040 f i total.obj
 0001:00026160       ?seekoff@?$basic_streambuf@DU?$char_traits@D@std@@@std@@MAE?AV?$fpos@H@2@_JHH@Z 00427160 f i total.obj
 0001:00026190       ?seekpos@?$basic_streambuf@DU?$char_traits@D@std@@@std@@MAE?AV?$fpos@H@2@V32@H@Z 00427190 f i total.obj
 0001:000261c0       ?is_open@?$basic_ifstream@DU?$char_traits@D@std@@@std@@QBE_NXZ 004271c0 f i total.obj
 0001:000261d0       ??A?$Array@PAVDICOMDataObject@@@@QAEAAPAVDICOMDataObject@@I@Z 004271d0 f i total.obj
 0001:000261e0       ??_G?$Array@PAVBufferSpace@@@@UAEPAXI@Z 004271e0 f i total.obj
 0001:000261e0       ??_E?$Array@PAVBufferSpace@@@@UAEPAXI@Z 004271e0 f i total.obj
 0001:00026210       ??_E?$Array@PAVVR@@@@UAEPAXI@Z 00427210 f i total.obj
 0001:00026210       ??_G?$Array@PAVVR@@@@UAEPAXI@Z 00427210 f i total.obj
 0001:00026240       ??_E?$Array@PAVVRGroupPQueue@@@@UAEPAXI@Z 00427240 f i total.obj
 0001:00026240       ??_G?$Array@PAVVRGroupPQueue@@@@UAEPAXI@Z 00427240 f i total.obj
 0001:00026270       ??_G?$basic_istream@DU?$char_traits@D@std@@@std@@UAEPAXI@Z 00427270 f i total.obj
 0001:00026270       ??_E?$basic_istream@DU?$char_traits@D@std@@@std@@UAEPAXI@Z 00427270 f i total.obj
 0001:000262c0       ??_E?$basic_streambuf@DU?$char_traits@D@std@@@std@@UAEPAXI@Z 004272c0 f i total.obj
 0001:000262c0       ??_G?$basic_streambuf@DU?$char_traits@D@std@@@std@@UAEPAXI@Z 004272c0 f i total.obj
 0001:000262f0       ??_G?$Array@PAVDICOMDataObject@@@@UAEPAXI@Z 004272f0 f i total.obj
 0001:000262f0       ??_E?$Array@PAVDICOMDataObject@@@@UAEPAXI@Z 004272f0 f i total.obj
 0001:00026320       ??_G?$Array@PAD@@UAEPAXI@Z 00427320 f i total.obj
 0001:00026320       ??_E?$Array@PAD@@UAEPAXI@Z 00427320 f i total.obj
 0001:00026350       ??_G?$Array@PAJ@@UAEPAXI@Z 00427350 f i total.obj
 0001:00026350       ??_E?$Array@PAJ@@UAEPAXI@Z 00427350 f i total.obj
 0001:00026380       ??_G?$Array@H@@UAEPAXI@Z   00427380 f i total.obj
 0001:00026380       ??_E?$Array@H@@UAEPAXI@Z   00427380 f i total.obj
 0001:000263b0       ??_E?$Array@PAU_ACRNemaAddress@@@@UAEPAXI@Z 004273b0 f i total.obj
 0001:000263b0       ??_G?$Array@PAU_ACRNemaAddress@@@@UAEPAXI@Z 004273b0 f i total.obj
 0001:000263e0       ??_E?$Array@PAH@@UAEPAXI@Z 004273e0 f i total.obj
 0001:000263e0       ??_G?$Array@PAH@@UAEPAXI@Z 004273e0 f i total.obj
 0001:00026410       ??_G?$Array@PAU_sectionTable@@@@UAEPAXI@Z 00427410 f i total.obj
 0001:00026410       ??_E?$Array@PAU_sectionTable@@@@UAEPAXI@Z 00427410 f i total.obj
 0001:00026440       ??_G?$Array@U_RTCElement@@@@UAEPAXI@Z 00427440 f i total.obj
 0001:00026440       ??_E?$Array@U_RTCElement@@@@UAEPAXI@Z 00427440 f i total.obj
 0001:00026470       ??_E?$Array@PAVDICOMObject@@@@UAEPAXI@Z 00427470 f i total.obj
 0001:00026470       ??_G?$Array@PAVDICOMObject@@@@UAEPAXI@Z 00427470 f i total.obj
 0001:000264a0       ??0?$_String_val@DV?$allocator@D@std@@@std@@QAE@V?$allocator@D@1@@Z 004274a0 f i total.obj
 0001:000264b0       ?clear@?$basic_ios@DU?$char_traits@D@std@@@std@@QAEXH_N@Z 004274b0 f i total.obj
 0001:000264d0       ?sbumpc@?$basic_streambuf@DU?$char_traits@D@std@@@std@@QAEHXZ 004274d0 f i total.obj
 0001:00026510       ?_Reset_back@?$basic_filebuf@DU?$char_traits@D@std@@@std@@AAEXXZ 00427510 f i total.obj
 0001:00026540       ??D?$_String_iterator@DU?$char_traits@D@std@@V?$allocator@D@2@@std@@QBEAADXZ 00427540 f i total.obj
 0001:00026550       ?_Chassign@?$basic_string@DU?$char_traits@D@std@@V?$allocator@D@2@@std@@QAEXIID@Z 00427550 f i total.obj
 0001:000265a0       ?_Eos@?$basic_string@DU?$char_traits@D@std@@V?$allocator@D@2@@std@@QAEXI@Z 004275a0 f i total.obj
 0001:000265c0       ?_Init@?$basic_streambuf@DU?$char_traits@D@std@@@std@@IAEXXZ 004275c0 f i total.obj
 0001:00026630       ??0?$_String_iterator@DU?$char_traits@D@std@@V?$allocator@D@2@@std@@QAE@PADPBU_Container_base0@1@@Z 00427630 f i total.obj
 0001:00026640       ?max_size@?$basic_string@DU?$char_traits@D@std@@V?$allocator@D@2@@std@@QBEIXZ 00427640 f i total.obj
 0001:00026650       ?allocate@?$allocator@D@std@@QAEPADI@Z 00427650 f i total.obj
 0001:000266c0       ?Add@?$Array@PAVBufferSpace@@@@QAEAAPAVBufferSpace@@AAPAV2@@Z 004276c0 f i total.obj
 0001:00026730       ?Add@?$Array@PAVVR@@@@QAEAAPAVVR@@AAPAV2@@Z 00427730 f i total.obj
 0001:000267a0       ?Push@?$PQueueOfPtr@PAVVR@@@@QAEAAPAVVR@@AAPAV2@@Z 004277a0 f i total.obj
 0001:00026b20       ?Add@?$Array@PAVVRGroupPQueue@@@@QAEAAPAVVRGroupPQueue@@AAPAV2@@Z 00427b20 f i total.obj
 0001:00026b90       ?Push@?$PQueueOfPtr@PAVVRGroupPQueue@@@@QAEAAPAVVRGroupPQueue@@AAPAV2@@Z 00427b90 f i total.obj
 0001:00026ef0       ?Add@?$Array@PAVDICOMDataObject@@@@QAEAAPAVDICOMDataObject@@AAPAV2@@Z 00427ef0 f i total.obj
 0001:00026f60       ?Add@?$Array@PAD@@QAEAAPADAAPAD@Z 00427f60 f i total.obj
 0001:00026fd0       ?Add@?$Array@PAJ@@QAEAAPAJAAPAJ@Z 00427fd0 f i total.obj
 0001:00027040       ?Add@?$Array@PAUDBENTRY@@@@QAEAAPAUDBENTRY@@AAPAU2@@Z 00428040 f i total.obj
 0001:000270b0       ??1?$Array@PAUDBENTRY@@@@UAE@XZ 004280b0 f i total.obj
 0001:00027160       ?Add@?$Array@H@@QAEAAHAAH@Z 00428160 f i total.obj
 0001:000271d0       ?Add@?$Array@UDBENTRY@@@@QAEAAUDBENTRY@@AAU2@@Z 004281d0 f i total.obj
 0001:00027250       ??1?$Array@UDBENTRY@@@@UAE@XZ 00428250 f i total.obj
 0001:00027300       ?Add@?$Array@PAU_ACRNemaAddress@@@@QAEAAPAU_ACRNemaAddress@@AAPAU2@@Z 00428300 f i total.obj
 0001:00027370       ?Add@?$Array@PAH@@QAEAAPAHAAPAH@Z 00428370 f i total.obj
 0001:000273e0       ?Add@?$Array@PAU_sectionTable@@@@QAEAAPAU_sectionTable@@AAPAU2@@Z 004283e0 f i total.obj
 0001:00027450       ?Add@?$Array@PAU_iniTable@@@@QAEAAPAU_iniTable@@AAPAU2@@Z 00428450 f i total.obj
 0001:000274c0       ??1?$Array@PAU_iniTable@@@@UAE@XZ 004284c0 f i total.obj
 0001:00027570       ?Add@?$Array@U_RTCElement@@@@QAEAAU_RTCElement@@AAU2@@Z 00428570 f i total.obj
 0001:000275f0       ?Add@?$Array@PAVDICOMObject@@@@QAEAAPAVDICOMObject@@AAPAV2@@Z 004285f0 f i total.obj
 0001:00027660       ??_G?$DataLink@VAbstractSyntax@@@@QAEPAXI@Z 00428660 f i total.obj
 0001:00027680       ??1?$DataLink@VPresentationContextAccept@@@@QAE@XZ 00428680 f i total.obj
 0001:00027690       ??0?$DataLink@VTransferSyntax@@@@QAE@XZ 00428690 f i total.obj
 0001:000276d0       ??0?$DataLink@VAbstractSyntax@@@@QAE@XZ 004286d0 f i total.obj
 0001:00027710       ??0?$codecvt@DDH@std@@QAE@ABV_Locinfo@1@I@Z 00428710 f i total.obj
 0001:00027730       ??1?$codecvt@DDH@std@@MAE@XZ 00428730 f i total.obj
 0001:00027740       ?do_in@?$codecvt@DDH@std@@MBEHAAHPBD1AAPBDPAD3AAPAD@Z 00428740 f i total.obj
 0001:00027770       ?do_out@?$codecvt@DDH@std@@MBEHAAHPBD1AAPBDPAD3AAPAD@Z 00428770 f i total.obj
 0001:000277a0       ?do_unshift@?$codecvt@DDH@std@@MBEHAAHPAD1AAPAD@Z 004287a0 f i total.obj
 0001:000277c0       ?do_length@?$codecvt@DDH@std@@MBEHABHPBD1I@Z 004287c0 f i total.obj
 0001:000277e0       ??_G?$codecvt@DDH@std@@MAEPAXI@Z 004287e0 f i total.obj
 0001:000277e0       ??_E?$codecvt@DDH@std@@MAEPAXI@Z 004287e0 f i total.obj
 0001:00027810       ??1?$Array@V?$FixedArrayElement@IU_RTCElement@@@@@@UAE@XZ 00428810 f i total.obj
 0001:000278c0       ?Pop@?$PQueue@V?$FixedArrayElement@IU_RTCElement@@@@@@QAEAAV?$FixedArrayElement@IU_RTCElement@@@@XZ 004288c0 f i total.obj
 0001:00027b70       ??_G?$DataLink@VTransferSyntax@@@@QAEPAXI@Z 00428b70 f i total.obj
 0001:00027b90       ?Add@?$Array@V?$FixedArrayElement@IU_RTCElement@@@@@@QAEAAV?$FixedArrayElement@IU_RTCElement@@@@AAV2@@Z 00428b90 f i total.obj
 0001:00027c20       ?GetUID@PatientRootRetrieve@@W3AEHAAVUID@@@Z 00428c20 f i total.obj
 0001:00027c30       ?GetUID@StudyRootRetrieveNKI@@W3AEHAAVUID@@@Z 00428c30 f i total.obj
 0001:00027c40       ?GetUID@PatientStudyOnlyRetrieveGeneric@@W3AEHAAVUID@@@Z 00428c40 f i total.obj
 0001:00027c50       ?GetUID@StudyRootRetrieveGeneric@@W3AEHAAVUID@@@Z 00428c50 f i total.obj
 0001:00027c60       ?GetUID@PatientRootRetrieveNKI@@W3AEHAAVUID@@@Z 00428c60 f i total.obj
 0001:00027c70       ?GetUID@PatientStudyOnlyRetrieve@@W3AEHAAVUID@@@Z 00428c70 f i total.obj
 0001:00027c80       ?GetUID@PatientStudyOnlyRetrieveNKI@@W3AEHAAVUID@@@Z 00428c80 f i total.obj
 0001:00027c90       ?GetUID@StudyRootRetrieve@@W3AEHAAVUID@@@Z 00428c90 f i total.obj
 0001:00027ca0       ?GetUID@Verification@@W3AEHAAVUID@@@Z 00428ca0 f i total.obj
 0001:00027cb0       ?GetUID@PatientRootRetrieveGeneric@@W3AEHAAVUID@@@Z 00428cb0 f i total.obj
 0001:00027cc0       ?GetUID@PatientStudyOnlyQuery@@W3AEHAAVUID@@@Z 00428cc0 f i total.obj
 0001:00027cd0       ??0VRGroupPQueue@@QAE@G@Z  00428cd0 f i total.obj
 0001:00027d10       ??1VRGroupPQueue@@UAE@XZ   00428d10 f i total.obj
 0001:00027d20       ??_EVRGroupPQueue@@UAEPAXI@Z 00428d20 f i total.obj
 0001:00027d20       ??_GVRGroupPQueue@@UAEPAXI@Z 00428d20 f i total.obj
 0001:00027d50       ??0UID@@QAE@PBD@Z          00428d50 f i total.obj
 0001:00027d70       ??0LinkedBuffer@@QAE@XZ    00428d70 f i total.obj
 0001:00027de0       ??1LinkedBuffer@@UAE@XZ    00428de0 f i total.obj
 0001:00027e00       ??_ELinkedBuffer@@UAEPAXI@Z 00428e00 f i total.obj
 0001:00027e00       ??_GLinkedBuffer@@UAEPAXI@Z 00428e00 f i total.obj
 0001:00027e40       ??0FileBuffer@@QAE@XZ      00428e40 f i total.obj
 0001:00027eb0       ??1FileBuffer@@UAE@XZ      00428eb0 f i total.obj
 0001:00027ed0       ??_EFileBuffer@@UAEPAXI@Z  00428ed0 f i total.obj
 0001:00027ed0       ??_GFileBuffer@@UAEPAXI@Z  00428ed0 f i total.obj
 0001:00027f10       ??_GVR@@QAEPAXI@Z          00428f10 f i total.obj
 0001:00027f40       ?SaveDICOMDataObject@PDU_Service@@QAEHPADIPAVDICOMDataObject@@@Z 00428f40 f   total.obj
 0001:00028320       ??0_Locinfo@std@@QAE@PBD@Z 00429320 f i total.obj
 0001:000283b0       ??1_Locinfo@std@@QAE@XZ    004293b0 f i total.obj
 0001:00028430       ?_Getcat@?$ctype@D@std@@SAIPAPBVfacet@locale@2@PBV42@@Z 00429430 f i total.obj
 0001:000284f0       ??1ACRNemaMap@@IAE@XZ      004294f0 f   total.obj
 0001:00028530       ?AppendMapToOpenFile@ACRNemaMap@@AAEHPAU_iobuf@@PAD@Z 00429530 f   total.obj
 0001:000285a0       ?GetACRNema@ACRNemaMap@@QAEHPAD000@Z 004295a0 f   total.obj
 0001:00028bc0       ?ReplaceEntry@ACRNemaMap@@QAEHIPBD000@Z 00429bc0 f   total.obj
 0001:00028ce0       ?WriteAMapToAFile@ACRNemaMap@@QAEHPBDPAD@Z 00429ce0 f   total.obj
 0001:00028d60       ??1IniValue@@IAE@XZ        00429d60 f   total.obj
 0001:00029040       ?addToCharArray@IniValue@@AAEHPBDPAPAV?$Array@PAD@@@Z 0042a040 f   total.obj
 0001:000291a0       ?addToIntArray@IniValue@@AAEHHPAPAV?$Array@PAH@@@Z 0042a1a0 f   total.obj
 0001:000292d0       ?defaultIni@IniValue@@AAEXXZ 0042a2d0 f   total.obj
 0001:00029c60       ?dumpsourceLines@IniValue@@AAEXPAU_iobuf@@PAU_sourceLines@@PBD@Z 0042ac60 f   total.obj
 0001:00029d30       ?getBoolWithTemp@IniValue@@AAEHXZ 0042ad30 f   total.obj
 0001:00029d60       ?getIniBoolString@IniValue@@AAEPADXZ 0042ad60 f   total.obj
 0001:00029df0       ?getIniInitFromArray@IniValue@@AAEPADPAPAV?$Array@PAH@@@Z 0042adf0 f   total.obj
 0001:00029f70       ?getIniInitFromArray@IniValue@@AAEPADPAPAPAV?$Array@PAH@@@Z 0042af70 f   total.obj
 0001:00029fa0       ?getIniString@IniValue@@AAEPADXZ 0042afa0 f   total.obj
 0001:00029fd0       ?getIniStringFromArrayH@IniValue@@AAEPADPAPAV?$Array@PAD@@@Z 0042afd0 f   total.obj
 0001:0002a170       ?getIniStringFromArrayDH@IniValue@@AAEPADPAPAPAV?$Array@PAD@@@Z 0042b170 f   total.obj
 0001:0002a1a0       ?getIniTime@IniValue@@AAEPADXZ 0042b1a0 f   total.obj
 0001:0002a250       ?getTypeForLua@IniValue@@AAE?AW4DATAPTRTYPE@@XZ 0042b250 f   total.obj
 0001:0002a950       ?getTypeForsscscp@IniValue@@AAE?AW4DATAPTRTYPE@@XZ 0042b950 f   total.obj
 0001:0002c750       ?intTableValue@IniValue@@AAEPADPAV?$Array@PAU_iniTable@@@@PBD@Z 0042d750 f   total.obj
 0001:0002c780       ?setIntForArray@IniValue@@AAEXPAPAPAV?$Array@PAH@@@Z 0042d780 f   total.obj
 0001:0002c7f0       ?setStringForArray@IniValue@@AAEHPAPAPAV?$Array@PAD@@@Z 0042d7f0 f   total.obj
 0001:0002c8b0       ?setUIntForArray@IniValue@@AAEXPAPAPAV?$Array@PAI@@@Z 0042d8b0 f   total.obj
 0001:0002c8f0       ?unknownEntry@IniValue@@AAEHPAPAV?$Array@PAU_iniTable@@@@@Z 0042d8f0 f   total.obj
 0001:0002cab0       ?AddStudyInstanceUID@@YAHPAVDICOMDataObject@@@Z 0042dab0 f   total.obj
 0001:0002cbd0       ?AddSeriesInstanceUID@@YAHPAVDICOMDataObject@@@Z 0042dbd0 f   total.obj
 0001:0002ccf0       ?DetachRTC@RTC@@QAEHXZ     0042dcf0 f   total.obj
 0001:0002cd90       ?CanYouHandleTransferSyntax@CheckedPDU_Service@@UAEHAAVTransferSyntax@@@Z 0042dd90 f   total.obj
 0001:0002cfd0       ?ShouldIAcceptApplicationContext@CheckedPDU_Service@@EAEHAAVApplicationContext@@@Z 0042dfd0 f   total.obj
 0001:0002d130       ?ShouldIAcceptAbstractSyntax@CheckedPDU_Service@@EAEHAAVAbstractSyntax@@@Z 0042e130 f   total.obj
 0001:0002d290       ?Read@NDeleteRQ@@QAEHPAVDICOMCommandObject@@PAVPDU_Service@@@Z 0042e290 f   total.obj
 0001:0002d330       ?Read@NDeleteRSP@@QAEHPAVDICOMCommandObject@@PAVPDU_Service@@@Z 0042e330 f   total.obj
 0001:0002d3d0       ?Read@CEchoRQ@@QAEHPAVDICOMCommandObject@@@Z 0042e3d0 f   total.obj
 0001:0002d450       ?Read@CEchoRSP@@QAEHPAVDICOMCommandObject@@@Z 0042e450 f   total.obj
 0001:0002d4d0       ?Read@CStoreRSP@@QAEHPAVDICOMCommandObject@@@Z 0042e4d0 f   total.obj
 0001:0002d550       ?GetImplementationClass@PDU_Service@@MAEHAAVImplementationClass@@@Z 0042e550 f   total.obj
 0001:0002d570       ?GetImplementationVersion@PDU_Service@@MAEHAAVImplementationVersion@@@Z 0042e570 f   total.obj
 0001:0002d590       ??0MemoryBuffer@@QAE@PAEIHI@Z 0042e590 f   total.obj
 0001:0002d6d0       ??1MemoryBuffer@@UAE@XZ    0042e6d0 f   total.obj
 0001:0002d720       ?Flush@LinkedBuffer@@QAEHAAVBuffer@@I@Z 0042e720 f   total.obj
 0001:0002d740       ??0PDataTF@@QAE@XZ         0042e740 f   total.obj
 0001:0002d7c0       ??1PDataTF@@UAE@XZ         0042e7c0 f   total.obj
 0001:0002d7f0       ??0PresentationContextAccept@@QAE@XZ 0042e7f0 f   total.obj
 0001:0002d850       ??0PresentationContextAccept@@QAE@AAVTransferSyntax@@@Z 0042e850 f   total.obj
 0001:0002d8c0       ?Size@AAssociateAC@@QAEIXZ 0042e8c0 f   total.obj
 0001:0002da50       ?Size@AAssociateRQ@@QAEIXZ 0042ea50 f   total.obj
 0001:0002dbc0       ?Push@VRGroupPQueue@@QAEHPAVVR@@@Z 0042ebc0 f   total.obj
 0001:0002dc10       ??0DICOMObject@@QAE@XZ     0042ec10 f   total.obj
 0001:0002dc80       ?Push@DICOMObject@@UAEHPAV1@@Z 0042ec80 f   total.obj
 0001:0002dd20       ?Push@DICOMObject@@UAEHPAVVR@@@Z 0042ed20 f   total.obj
 0001:0002dea0       ?DeleteVR@DICOMObject@@QAEHPAVVR@@@Z 0042eea0 f   total.obj
 0001:0002dfe0       ?ReplaceVR@DICOMObject@@QAEHPAVVR@@@Z 0042efe0 f   total.obj
 0001:0002e1a0       ?ChangeVR@DICOMObject@@QAEHGGPBDGH@Z 0042f1a0 f   total.obj
 0001:0002e2c0       ?ChangeVR@DICOMObject@@QAEHGGEG@Z 0042f2c0 f   total.obj
 0001:0002e3c0       ?ChangeVR@DICOMObject@@QAEHGGGG@Z 0042f3c0 f   total.obj
 0001:0002e4e0       ?ChangeVR@DICOMObject@@QAEHGGIG@Z 0042f4e0 f   total.obj
 0001:0002e600       ?Reset@DICOMObject@@UAEHXZ 0042f600 f   total.obj
 0001:0002e660       ?Package@DICOMObject@@AAEHXZ 0042f660 f   total.obj
 0001:0002e7a0       ??_GBuffer@@UAEPAXI@Z      0042f7a0 f i total.obj
 0001:0002e7a0       ??_EBuffer@@UAEPAXI@Z      0042f7a0 f i total.obj
 0001:0002e7d0       ?Write@Buffer@@QAEHPAEI@Z  0042f7d0 f   total.obj
 0001:0002eab0       ?ReadBlock@Buffer@@QAEHXZ  0042fab0 f   total.obj
 0001:0002ebb0       ??1Database@@UAE@XZ        0042fbb0 f   total.obj
 0001:0002ec70       ?DecompressNKI@@YAHPAVDICOMDataObject@@@Z 0042fc70 f   total.obj
 0001:0002edc0       ?CompressNKI@@YAHPAVDICOMDataObject@@H@Z 0042fdc0 f   total.obj
 0001:0002eec0       ?DcmConvertPixelData@@YAHPAVDICOMDataObject@@HHHHHHMMM@Z 0042fec0 f   total.obj
 0001:00030700       ??0RunTimeClassStorage@@QAE@XZ 00431700 f i total.obj
 0001:00030750       ?uGetUID@RunTimeClassStorage@@UAEHAAVUID@@@Z 00431750 f i total.obj
 0001:00030760       ?GetUID@RunTimeClassStorage@@W3AEHAAVUID@@@Z 00431760 f i total.obj
 0001:00030770       ??0PatientRootQuery@@QAE@XZ 00431770 f i total.obj
 0001:00030790       ?uGetUID@PatientRootQuery@@UAEHAAVUID@@@Z 00431790 f i total.obj
 0001:000307a0       ?GetUID@PatientRootQuery@@W3AEHAAVUID@@@Z 004317a0 f i total.obj
 0001:000307b0       ??0StudyRootQuery@@QAE@XZ  004317b0 f i total.obj
 0001:000307d0       ?uGetUID@StudyRootQuery@@UAEHAAVUID@@@Z 004317d0 f i total.obj
 0001:000307e0       ?GetUID@StudyRootQuery@@W3AEHAAVUID@@@Z 004317e0 f i total.obj
 0001:000307f0       ??0ModalityWorkListQuery@@QAE@XZ 004317f0 f i total.obj
 0001:00030810       ?uGetUID@ModalityWorkListQuery@@UAEHAAVUID@@@Z 00431810 f i total.obj
 0001:00030820       ?GetUID@ModalityWorkListQuery@@W3AEHAAVUID@@@Z 00431820 f i total.obj
 0001:00030830       ??0MyPatientRootRetrieve@@QAE@XZ 00431830 f i total.obj
 0001:00030890       ??0MyPatientRootRetrieveNKI@@QAE@XZ 00431890 f i total.obj
 0001:000308f0       ??0MyPatientRootRetrieveGeneric@@QAE@XZ 004318f0 f i total.obj
 0001:00030950       ??0MyStudyRootRetrieve@@QAE@XZ 00431950 f i total.obj
 0001:000309b0       ??0MyStudyRootRetrieveNKI@@QAE@XZ 004319b0 f i total.obj
 0001:00030a10       ??0MyStudyRootRetrieveGeneric@@QAE@XZ 00431a10 f i total.obj
 0001:00030a70       ??0MyPatientStudyOnlyQuery@@QAE@XZ 00431a70 f i total.obj
 0001:00030a90       ??0MyPatientStudyOnlyRetrieve@@QAE@XZ 00431a90 f i total.obj
 0001:00030af0       ??0MyPatientStudyOnlyRetrieveNKI@@QAE@XZ 00431af0 f i total.obj
 0001:00030b50       ??0MyPatientStudyOnlyRetrieveGeneric@@QAE@XZ 00431b50 f i total.obj
 0001:00030db0       ?setstate@?$basic_ios@DU?$char_traits@D@std@@@std@@QAEXH_N@Z 00431db0 f i total.obj
 0001:00030de0       ?seekg@?$basic_istream@DU?$char_traits@D@std@@@std@@QAEAAV12@_JH@Z 00431de0 f i total.obj
 0001:00030e80       ?snextc@?$basic_streambuf@DU?$char_traits@D@std@@@std@@QAEHXZ 00431e80 f i total.obj
 0001:00030f20       ??_E?$Array@PAUDBENTRY@@@@UAEPAXI@Z 00431f20 f i total.obj
 0001:00030f20       ??_G?$Array@PAUDBENTRY@@@@UAEPAXI@Z 00431f20 f i total.obj
 0001:00030f50       ??_E?$Array@UDBENTRY@@@@UAEPAXI@Z 00431f50 f i total.obj
 0001:00030f50       ??_G?$Array@UDBENTRY@@@@UAEPAXI@Z 00431f50 f i total.obj
 0001:00030f80       ??_E?$Array@PAU_iniTable@@@@UAEPAXI@Z 00431f80 f i total.obj
 0001:00030f80       ??_G?$Array@PAU_iniTable@@@@UAEPAXI@Z 00431f80 f i total.obj
 0001:00030fb0       ?begin@?$basic_string@DU?$char_traits@D@std@@V?$allocator@D@2@@std@@QAE?AV?$_String_iterator@DU?$char_traits@D@std@@V?$allocator@D@2@@2@XZ 00431fb0 f i total.obj
 0001:00030fd0       ?_Tidy@?$basic_string@DU?$char_traits@D@std@@V?$allocator@D@2@@std@@QAEX_NI@Z 00431fd0 f i total.obj
 0001:00031030       ?_Init@?$basic_filebuf@DU?$char_traits@D@std@@@std@@IAEXPAU_iobuf@@W4_Initfl@12@@Z 00432030 f i total.obj
 0001:00031100       ?_Initcvt@?$basic_filebuf@DU?$char_traits@D@std@@@std@@IAEXPBV?$codecvt@DDH@2@@Z 00432100 f i total.obj
 0001:00031140       ??0?$basic_streambuf@DU?$char_traits@D@std@@@std@@IAE@XZ 00432140 f i total.obj
 0001:00031230       ?_Copy@?$basic_string@DU?$char_traits@D@std@@V?$allocator@D@2@@std@@QAEXII@Z 00432230 f i total.obj
 0001:000313d0       ?Add@?$Array@VTransferSyntax@@@@QAEAAVTransferSyntax@@AAV2@@Z 004323d0 f i total.obj
 0001:00031470       ?Add@?$Array@VAbstractSyntax@@@@QAEAAVAbstractSyntax@@AAV2@@Z 00432470 f i total.obj
 0001:00031570       ?RemoveAt@?$Array@VAbstractSyntax@@@@QAEHI@Z 00432570 f i total.obj
 0001:00031620       ??1?$Array@VAbstractSyntax@@@@UAE@XZ 00432620 f i total.obj
 0001:000316d0       ??$use_facet@V?$ctype@D@std@@@std@@YAABV?$ctype@D@0@ABVlocale@0@@Z 004326d0 f i total.obj
 0001:00031840       ??_G?$DataLink@VPresentationContextAccept@@@@QAEPAXI@Z 00432840 f i total.obj
 0001:00031860       ??0?$PQueue@V?$FixedArrayElement@IU_RTCElement@@@@@@QAE@XZ 00432860 f i total.obj
 0001:00031890       ??1?$PQueue@V?$FixedArrayElement@IU_RTCElement@@@@@@UAE@XZ 00432890 f i total.obj
 0001:000318a0       ??_G?$PQueue@V?$FixedArrayElement@IU_RTCElement@@@@@@UAEPAXI@Z 004328a0 f i total.obj
 0001:000318a0       ??_E?$PQueue@V?$FixedArrayElement@IU_RTCElement@@@@@@UAEPAXI@Z 004328a0 f i total.obj
 0001:000318d0       ?_Getcat@?$codecvt@DDH@std@@SAIPAPBVfacet@locale@2@PBV42@@Z 004328d0 f i total.obj
 0001:00031970       ??0?$DataLink@VPresentationContextAccept@@@@QAE@XZ 00432970 f i total.obj
 0001:000319d0       ??_G?$Array@V?$FixedArrayElement@IU_RTCElement@@@@@@UAEPAXI@Z 004329d0 f i total.obj
 0001:000319d0       ??_E?$Array@V?$FixedArrayElement@IU_RTCElement@@@@@@UAEPAXI@Z 004329d0 f i total.obj
 0001:00031a00       ?RemoveAt@?$Array@VTransferSyntax@@@@QAEHI@Z 00432a00 f i total.obj
 0001:00031ab0       ?Push@?$PQueue@V?$FixedArrayElement@IU_RTCElement@@@@@@QAEAAV?$FixedArrayElement@IU_RTCElement@@@@AAV2@@Z 00432ab0 f i total.obj
 0001:00031e10       ?GetACRNemaNoWild@ACRNemaMap@@QAEHPAD000@Z 00432e10 f   total.obj
 0001:00031e30       ?DumpIni@IniValue@@QAEXPAU_iobuf@@@Z 00432e30 f   total.obj
 0001:00033360       ?GetIniInitPtr@IniValue@@QAEPAHPBD0@Z 00434360 f   total.obj
 0001:00033710       ?GetIniString@IniValue@@QAEPADPBD0@Z 00434710 f   total.obj
 0001:00034390       ?GetIniStringLen@IniValue@@QAEHPBDPAPAD0@Z 00435390 f   total.obj
 0001:00034a10       ?readlua@IniValue@@AAEHXZ  00435a10 f   total.obj
 0001:00034c40       ?readScripts@IniValue@@AAEHXZ 00435c40 f   total.obj
 0001:00034f40       ?readsourceLines@IniValue@@AAEHPAPAU_sourceLines@@@Z 00435f40 f   total.obj
 0001:000350e0       ?readsscscp@IniValue@@AAEHXZ 004360e0 f   total.obj
 0001:00035720       ?readUknownSection@IniValue@@AAEHXZ 00436720 f   total.obj
 0001:00035980       ?readwadoservers@IniValue@@AAEHXZ 00436980 f   total.obj
 0001:00035af0       ?readwebdefaults@IniValue@@AAEHXZ 00436af0 f   total.obj
 0001:00035cf0       ??1RTC@@QAE@XZ             00436cf0 f   total.obj
 0001:00035d00       ?ReadRequest@Verification@@QAEHPAVPDU_Service@@PAVDICOMCommandObject@@@Z 00436d00 f   total.obj
 0001:00035e20       ??_GRTC@@QAEPAXI@Z         00436e20 f i total.obj
 0001:00035e50       ?DetachRTC@PDU_Service@@QAEPAVRTC@@XZ 00436e50 f   total.obj
 0001:00035ea0       ?GetAcceptedPCIDForTransferSyntax@PDU_Service@@QAEEAAVUID@@@Z 00436ea0 f   total.obj
 0001:00036110       ?GetTransferSyntaxUID@PDU_Service@@QAEHEAAVUID@@@Z 00437110 f   total.obj
 0001:000362c0       ?ClearAbstractSyntaxs@PDU_Service@@QAEHXZ 004372c0 f   total.obj
 0001:00036380       ?AddAbstractSyntax@PDU_Service@@UAEHAAVUID@@@Z 00437380 f   total.obj
 0001:00036540       ??_GMemoryBuffer@@UAEPAXI@Z 00437540 f i total.obj
 0001:00036540       ??_EMemoryBuffer@@UAEPAXI@Z 00437540 f i total.obj
 0001:000365a0       ?SendBinary@LinkedBuffer@@UAEHPAEI@Z 004375a0 f   total.obj
 0001:000365d0       ??_GPDataTF@@UAEPAXI@Z     004375d0 f i total.obj
 0001:000365d0       ??_EPDataTF@@UAEPAXI@Z     004375d0 f i total.obj
 0001:00036620       ?AddTransferSyntax@PresentationContext@@QAEXAAVTransferSyntax@@@Z 00437620 f   total.obj
 0001:00036630       ?Pop@DICOMObject@@UAEPAVVR@@XZ 00437630 f   total.obj
 0001:00036720       ??6Buffer@@QAEAAV0@AAE@Z   00437720 f   total.obj
 0001:00036750       ??6Buffer@@QAEAAV0@AAG@Z   00437750 f   total.obj
 0001:000367e0       ??6Buffer@@QAEAAV0@AAI@Z   004377e0 f   total.obj
 0001:00036850       ?Fill@Buffer@@QAEHI@Z      00437850 f   total.obj
 0001:000368b0       ?Read@Buffer@@QAEHPAEI@Z   004378b0 f   total.obj
 0001:00036b50       ??_EDatabase@@UAEPAXI@Z    00437b50 f i total.obj
 0001:00036b50       ??_GDatabase@@UAEPAXI@Z    00437b50 f i total.obj
 0001:00036b80       ??0MyPatientRootQuery@@QAE@XZ 00437b80 f i total.obj
 0001:00036ba0       ??0MyStudyRootQuery@@QAE@XZ 00437ba0 f i total.obj
 0001:00036bc0       ??0MyModalityWorkListQuery@@QAE@XZ 00437bc0 f i total.obj
 0001:00036e70       ??1?$basic_string@DU?$char_traits@D@std@@V?$allocator@D@2@@std@@QAE@XZ 00437e70 f i total.obj
 0001:00036ea0       ?flush@?$basic_ostream@DU?$char_traits@D@std@@@std@@QAEAAV12@XZ 00437ea0 f i total.obj
 0001:00036f10       ??_E?$Array@VAbstractSyntax@@@@UAEPAXI@Z 00437f10 f i total.obj
 0001:00036f10       ??_G?$Array@VAbstractSyntax@@@@UAEPAXI@Z 00437f10 f i total.obj
 0001:00036f40       ?_Ipfx@?$basic_istream@DU?$char_traits@D@std@@@std@@QAE_N_N@Z 00437f40 f i total.obj
 0001:00037130       ??0?$basic_filebuf@DU?$char_traits@D@std@@@std@@QAE@PAU_iobuf@@@Z 00438130 f i total.obj
 0001:00037160       ?move@?$char_traits@D@std@@SAPADPADPBDI@Z 00438160 f i total.obj
 0001:00037170       ??$_Fgetc@D@std@@YA_NAADPAU_iobuf@@@Z 00438170 f i total.obj
 0001:000371a0       ??$_Fputc@D@std@@YA_NDPAU_iobuf@@@Z 004381a0 f i total.obj
 0001:000371d0       ??$_Ungetc@D@std@@YA_NABDPAU_iobuf@@@Z 004381d0 f i total.obj
 0001:00037200       ?_Lock@?$basic_filebuf@DU?$char_traits@D@std@@@std@@UAEXXZ 00438200 f i total.obj
 0001:00037220       ?_Unlock@?$basic_filebuf@DU?$char_traits@D@std@@@std@@UAEXXZ 00438220 f i total.obj
 0001:00037240       ?sync@?$basic_filebuf@DU?$char_traits@D@std@@@std@@MAEHXZ 00438240 f i total.obj
 0001:00037280       ?egptr@?$basic_streambuf@DU?$char_traits@D@std@@@std@@IBEPADXZ 00438280 f i total.obj
 0001:00037290       ?epptr@?$basic_streambuf@DU?$char_traits@D@std@@@std@@IBEPADXZ 00438290 f i total.obj
 0001:000372a0       ?_Gndec@?$basic_streambuf@DU?$char_traits@D@std@@@std@@IAEPADXZ 004382a0 f i total.obj
 0001:000372c0       ?_Pninc@?$basic_streambuf@DU?$char_traits@D@std@@@std@@IAEPADXZ 004382c0 f i total.obj
 0001:000372e0       ??0?$fpos@H@std@@QAE@H_J@Z 004382e0 f i total.obj
 0001:00037310       ?state@?$fpos@H@std@@QBEHXZ 00438310 f i total.obj
 0001:00037320       ?seekpos@?$fpos@H@std@@QBE_JXZ 00438320 f i total.obj
 0001:00037330       ?in@?$codecvt@DDH@std@@QBEHAAHPBD1AAPBDPAD3AAPAD@Z 00438330 f i total.obj
 0001:00037340       ?out@?$codecvt@DDH@std@@QBEHAAHPBD1AAPBDPAD3AAPAD@Z 00438340 f i total.obj
 0001:00037350       ?_Xran@?$basic_string@DU?$char_traits@D@std@@V?$allocator@D@2@@std@@QBEXXZ 00438350 f i total.obj
 0001:00037360       ?not_eof@?$char_traits@D@std@@SAHABH@Z 00438360 f i total.obj
 0001:00037380       ?underflow@?$basic_filebuf@DU?$char_traits@D@std@@@std@@MAEHXZ 00438380 f i total.obj
 0001:000373e0       ?_Set_back@?$basic_filebuf@DU?$char_traits@D@std@@@std@@AAEXXZ 004383e0 f i total.obj
 0001:00037430       ?pbackfail@?$basic_filebuf@DU?$char_traits@D@std@@@std@@MAEHH@Z 00438430 f i total.obj
 0001:000374e0       ?erase@?$basic_string@DU?$char_traits@D@std@@V?$allocator@D@2@@std@@QAEAAV12@II@Z 004384e0 f i total.obj
 0001:00037580       ?setbuf@?$basic_filebuf@DU?$char_traits@D@std@@@std@@MAEPAV?$basic_streambuf@DU?$char_traits@D@std@@@2@PAD_J@Z 00438580 f i total.obj
 0001:000375f0       ??0?$basic_string@DU?$char_traits@D@std@@V?$allocator@D@2@@std@@QAE@XZ 004385f0 f i total.obj
 0001:00037610       ?_Grow@?$basic_string@DU?$char_traits@D@std@@V?$allocator@D@2@@std@@QAE_NI_N@Z 00438610 f i total.obj
 0001:000376e0       ?widen@?$basic_ios@DU?$char_traits@D@std@@@std@@QBEDD@Z 004386e0 f i total.obj
 0001:000377a0       ??1?$Array@VTransferSyntax@@@@UAE@XZ 004387a0 f i total.obj
 0001:00037850       ?Add@?$Array@VPresentationContextAccept@@@@QAEAAVPresentationContextAccept@@AAV2@@Z 00438850 f i total.obj
 0001:00037960       ?RemoveAt@?$Array@VPresentationContextAccept@@@@QAEHI@Z 00438960 f i total.obj
 0001:00037a10       ??1?$Array@VPresentationContextAccept@@@@UAE@XZ 00438a10 f i total.obj
 0001:00037ac0       ?Sort@?$FixedArray@IU_RTCElement@@@@QAEHXZ 00438ac0 f i total.obj
 0001:00037be0       ??$use_facet@V?$codecvt@DDH@std@@@std@@YAABV?$codecvt@DDH@0@ABVlocale@0@@Z 00438be0 f i total.obj
 0001:00037d50       ?GetInstance@ACRNemaMap@@SAPAV1@XZ 00438d50 f i total.obj
 0001:00037d90       ?GetInstance@IniValue@@SAPAV1@XZ 00438d90 f i total.obj
 0001:00037dd0       ?GetIniInitPtr@IniValue@@QAEPAHPBD@Z 00438dd0 f i total.obj
 0001:00037df0       ?GetIniStringLen@IniValue@@QAEHPBDPAPAD@Z 00438df0 f i total.obj
 0001:00037e20       ?MakeSafeString@@YAHPAVVR@@PADPAVDatabase@@@Z 00438e20 f   total.obj
 0001:000382e0       ?DICOM2SQLQuery@@YAHPADPAVDatabase@@@Z 004392e0 f   total.obj
 0001:00038ac0       ?printf@Debug@@QAAHPBDZZ   00439ac0 f   total.obj
 0001:00038ef0       ?CalcMegsOnDevice@@YAIPAD@Z 00439ef0 f   total.obj
 0001:00038fe0       ?CheckFreeStoreOnMAGDevice@@YAII@Z 00439fe0 f   total.obj
 0001:00039170       ?CheckFreeStoreOnMIRRORDevice@@YAII@Z 0043a170 f   total.obj
 0001:000392b0       ?CheckFreeStoreOnCACHEDevice@@YAII@Z 0043a2b0 f   total.obj
 0001:00039440       ?GetPhysicalDevice@@YAHPBDPAD@Z 0043a440 f   total.obj
 0001:00039880       ?FindPhysicalDevice@@YAHPAD00@Z 0043a880 f   total.obj
 0001:0003a1c0       ?GetKBUsedOnDevice@@YAHPAD@Z 0043b1c0 f   total.obj
 0001:0003a730       ?MakeSafeString@@YAHPBDPADPAVDatabase@@@Z 0043b730 f   total.obj
 0001:0003a830       ?FindCacheDirectory@@YAHPAD0@Z 0043b830 f   total.obj
 0001:0003aa30       ?GetIniString@IniValue@@QAEPADPBD@Z 0043ba30 f   total.obj
 0001:0003aad0       ?FixImage@@YAHPAVDICOMDataObject@@@Z 0043bad0 f   total.obj
 0001:0003b1d0       ?MakeSafeStringValues@@YAHPAVVR@@PAD@Z 0043c1d0 f   total.obj
 0001:0003b320       ?NewDeleteFromDB@@YAHPAVDICOMDataObject@@AAVDatabase@@@Z 0043c320 f   total.obj
 0001:0003baa0       ?RemoveDuplicates@@YAHAAVDatabase@@PAUDBENTRY@@PADPAVDICOMDataObject@@H@Z 0043caa0 f   total.obj
 0001:0003bc70       ?PrintTable@@YAHPAUDBENTRY@@PAD@Z 0043cc70 f   total.obj
 0001:0003bd00       ?MakeTableString@@YAHPAUDBENTRY@@PADH@Z 0043cd00 f   total.obj
 0001:0003bfc0       ?ConstructAE@@YAPAVVR@@XZ  0043cfc0 f   total.obj
 0001:0003c0e0       ?AttachRTC@RTC@@QAEHPAD@Z  0043d0e0 f   total.obj
 0001:0003cb70       ?ParseImagePixelDataDCMToRaw@PDU_Service@@MAEHPAV?$Array@PAVDICOMDataObject@@@@AAVLinkedBuffer@@@Z 0043db70 f   total.obj
 0001:0003cf80       ?ParseRawVRIntoDCM@PDU_Service@@MAEHEAAVLinkedBuffer@@PAVDICOMObject@@@Z 0043df80 f   total.obj
 0001:0003d240       ?ParseDCMIntoRawVR@PDU_Service@@MAEEPAVDICOMObject@@AAVLinkedBuffer@@@Z 0043e240 f   total.obj
 0001:0003d430       ?Implicit_ParseDCMIntoRawVR@PDU_Service@@MAEHPAVDICOMObject@@AAVLinkedBuffer@@@Z 0043e430 f   total.obj
 0001:0003e150       ?Explicit_ParseDCMIntoRawVR@PDU_Service@@MAEHPAVDICOMObject@@AAVLinkedBuffer@@@Z 0043f150 f   total.obj
 0001:0003f000       ?Dynamic_ParseDCMIntoRawVR@PDU_Service@@MAEHPAVDICOMObject@@AAVLinkedBuffer@@I@Z 00440000 f   total.obj
 0001:000401f0       ?AttachRTC@PDU_Service@@QAEHPAVRTC@@H@Z 004411f0 f   total.obj
 0001:00040250       ?InterogateAAssociateAC@PDU_Service@@IAEHXZ 00441250 f   total.obj
 0001:00040580       ?AddTransferSyntaxs@PDU_Service@@MAEHAAVPresentationContext@@@Z 00441580 f   total.obj
 0001:00040670       ?Fill@LinkedBuffer@@QAEHAAVBuffer@@I@Z 00441670 f   total.obj
 0001:00040690       ?ReadBinary@LinkedBuffer@@UAEHPAEI@Z 00441690 f   total.obj
 0001:000406c0       ?Write@PDataTF@@QAEHAAVBuffer@@@Z 004416c0 f   total.obj
 0001:00040a90       ?Write@AAssociateRJ@@QAEHAAVBuffer@@@Z 00441a90 f   total.obj
 0001:00040bb0       ?Write@AReleaseRQ@@QAEHAAVBuffer@@@Z 00441bb0 f   total.obj
 0001:00040cb0       ?Write@AReleaseRP@@QAEHAAVBuffer@@@Z 00441cb0 f   total.obj
 0001:00040db0       ?Write@AAbortRQ@@QAEHAAVBuffer@@@Z 00441db0 f   total.obj
 0001:00040ed0       ??0AAssociateAC@@QAE@XZ    00441ed0 f   total.obj
 0001:00040fd0       ??0AAssociateAC@@QAE@PAE0@Z 00441fd0 f   total.obj
 0001:00041150       ??1AAssociateAC@@UAE@XZ    00442150 f   total.obj
 0001:00041170       ?AddPresentationContextAccept@AAssociateAC@@QAEXAAVPresentationContextAccept@@@Z 00442170 f   total.obj
 0001:00041180       ?Write@ApplicationContext@@QAEHAAVBuffer@@@Z 00442180 f   total.obj
 0001:00041200       ?Write@AbstractSyntax@@QAEHAAVBuffer@@@Z 00442200 f   total.obj
 0001:00041280       ?Write@TransferSyntax@@QAEHAAVBuffer@@@Z 00442280 f   total.obj
 0001:00041300       ?Write@ImplementationClass@@QAEHAAVBuffer@@@Z 00442300 f   total.obj
 0001:00041380       ?Write@ImplementationVersion@@QAEHAAVBuffer@@@Z 00442380 f   total.obj
 0001:00041400       ??0PresentationContext@@QAE@XZ 00442400 f   total.obj
 0001:00041480       ??0PresentationContext@@QAE@AAVAbstractSyntax@@AAVTransferSyntax@@@Z 00442480 f   total.obj
 0001:00041580       ??1PresentationContext@@QAE@XZ 00442580 f   total.obj
 0001:00041590       ?Write@PresentationContext@@QAEHAAVBuffer@@@Z 00442590 f   total.obj
 0001:000417e0       ?Write@MaximumSubLength@@QAEHAAVBuffer@@@Z 004427e0 f   total.obj
 0001:00041880       ?Write@SCPSCURoleSelect@@QAEHAAVBuffer@@@Z 00442880 f   total.obj
 0001:00041930       ?Write@UserInformation@@QAEHAAVBuffer@@@Z 00442930 f   total.obj
 0001:00041a70       ?Write@AAssociateRQ@@QAEHAAVBuffer@@@Z 00442a70 f   total.obj
 0001:00041c90       ??_GPresentationContext@@QAEPAXI@Z 00442c90 f i total.obj
 0001:00041cc0       ??1DICOMObject@@UAE@XZ     00442cc0 f   total.obj
 0001:00041de0       ??5Buffer@@QAEAAV0@AAE@Z   00442de0 f   total.obj
 0001:00041e10       ??5Buffer@@QAEAAV0@AAG@Z   00442e10 f   total.obj
 0001:00041e80       ??5Buffer@@QAEAAV0@AAI@Z   00442e80 f   total.obj
 0001:00041f70       ?Kill@Buffer@@QAEHI@Z      00442f70 f   total.obj
 0001:00041ff0       ?process_escape@@YAXPAD@Z  00442ff0 f   total.obj
 0001:00042080       ?process_escapeValue@@YAXPAD@Z 00443080 f   total.obj
 0001:00042500       ?UpdateIndex@@YAXPAUdbase_header@@HH@Z 00443500 f   total.obj
 0001:000425e0       ??0Database@@QAE@XZ        004435e0 f   total.obj
 0001:000427e0       ?Open@Database@@UAEHPBD000@Z 004437e0 f   total.obj
 0001:00043300       ?NewStatement@Database@@AAEHXZ 00444300 f   total.obj
 0001:000433a0       ?QueryTables@Database@@UAEHPAD000@Z 004443a0 f   total.obj
 0001:000434a0       ?PGSQLExec@Database@@UAEHPAD@Z 004444a0 f   total.obj
 0001:00043600       ?SQLITEExec@Database@@UAEHPADH@Z 00444600 f   total.obj
 0001:000437c0       ?Query@Database@@UAEHPBD000@Z 004447c0 f   total.obj
 0001:000438e0       ?InternalQuery@Database@@UAEHPBD000H@Z 004448e0 f   total.obj
 0001:00044d50       ?QueryDistinct@Database@@UAEHPADPBD11@Z 00445d50 f   total.obj
 0001:00045680       ?AddRecord@Database@@UAEHPBD00@Z 00446680 f   total.obj
 0001:00045ed0       ?DeleteRecord@Database@@UAEHPBD0@Z 00446ed0 f   total.obj
 0001:000462c0       ?BindField@Database@@UAEHGFPAXJPAJ@Z 004472c0 f   total.obj
 0001:000466a0       ?NextRecord@Database@@UAEHXZ 004476a0 f   total.obj
 0001:00047140       ?CreateTable@Database@@UAEHPBD0@Z 00448140 f   total.obj
 0001:000476c0       ?CreateIndex@Database@@UAEHPBD00@Z 004486c0 f   total.obj
 0001:00047960       ?CreateUniqueIndex@Database@@UAEHPAD0PBD@Z 00448960 f   total.obj
 0001:00047bf0       ?DeleteTable@Database@@UAEHPBD@Z 00448bf0 f   total.obj
 0001:00047e20       ?Exec@Database@@UAEHPBD@Z  00448e20 f   total.obj
 0001:00047fb0       ?UpdateRecords@Database@@UAEHPAD0PBD@Z 00448fb0 f   total.obj
 0001:00048770       ?ExtractRecords@Database@@UAEHPBD0PAD@Z 00449770 f   total.obj
 0001:00048960       ?PrintLastError@Database@@UAEHXZ 00449960 f   total.obj
 0001:00048a40       ?CreateDatabase@Database@@UAEHPAD00@Z 00449a40 f   total.obj
 0001:00048eb0       ?DecompressJPEGL@@YAHPAVDICOMDataObject@@@Z 00449eb0 f   total.obj
 0001:00049710       ?DecompressJPEG2K@@YAHPAVDICOMDataObject@@@Z 0044a710 f   total.obj
 0001:0004a270       ?UseBuiltInDecompressor@@YAHPAH@Z 0044b270 f   total.obj
 0001:0004a430       ?MakeSegTable@@YAPAEPAVVR@@IPAI@Z 0044b430 f   total.obj
 0001:0004a7a0       ?DecodePalette@@YAHPAVDICOMDataObject@@@Z 0044b7a0 f   total.obj
 0001:0004b710       ?AddTransferSyntaxs@ExtendedPDU_Service@@EAEHAAVPresentationContext@@@Z 0044c710 f   total.obj
 0001:0004bed0       _getExtInt                 0044ced0 f   total.obj
 0001:0004ca00       _getExtSLen                0044da00 f   total.obj
 0001:0004d740       ?parseHL7@@YAXPAPADPAD11111@Z 0044e740 f   total.obj
 0001:0004dec0       ?MyDcmError@@YAXHPBDH@Z    0044eec0 f   total.obj
 0001:0004e040       ?StatusDisplay@@YAXPAU_iobuf@@@Z 0044f040 f   total.obj
 0001:0004e4a0       ?IARQ@@YAXAAVAAssociateRQ@@H@Z 0044f4a0 f   total.obj
 0001:0004e960       ?DumpVR@@YAHPAVVR@@PAU_iobuf@@H@Z 0044f960 f   total.obj
 0001:0004eb90       ?NonDestructiveDumpDICOMObject@@YAHPAVDICOMObject@@PAU_iobuf@@H@Z 0044fb90 f   total.obj
 0001:0004ee30       ?PrintFreeSpace@@YAHXZ     0044fe30 f   total.obj
 0001:0004ef70       ?DumpDD@@YAHPAUDBENTRY@@@Z 0044ff70 f   total.obj
 0001:0004f0c0       ?PrintKFactorFile@@YAHXZ   004500c0 f   total.obj
 0001:0004f230       ?GenUID@@YAHPAD@Z          00450230 f   total.obj
 0001:0004f350       ?BackgroundExec@@YAHPAD0@Z 00450350 f   total.obj
 0001:0004f4c0       ?CallImportConverters@@YAHPAVDICOMDataObject@@PAD111PAVExtendedPDU_Service@@1@Z 004504c0 f   total.obj
 0001:0004f5a0       ?copyprocess@@YAHPADPAVExtendedPDU_Service@@0@Z 004505a0 f   total.obj
 0001:0004f600       ?ApplyWorklist@@YAHPAVDICOMDataObject@@PAVDatabase@@@Z 00450600 f   total.obj
 0001:0004fb10       ?KodakFixer@@YAXPAVDICOMDataObject@@H@Z 00450b10 f   total.obj
 0001:0004fce0       ?crc_ddo@@YAIPAVDICOMObject@@@Z 00450ce0 f   total.obj
 0001:0004fe60       ?compare_ddo@@YAHPAVDICOMObject@@0@Z 00450e60 f   total.obj
 0001:000502e0       ?RemoveQueryDuplicates@@YAXPBDPAV?$Array@PAVDICOMDataObject@@@@@Z 004512e0 f   total.obj
 0001:00050680       ?QualifyOn@@YAHPAE0000@Z   00451680 f   total.obj
 0001:00050780       ?QualifyOn@MyPatientRootRetrieve@@UAEHPAE000@Z 00451780 f   total.obj
 0001:000507e0       ?QualifyOn@MyPatientRootRetrieveNKI@@UAEHPAE0000@Z 004517e0 f   total.obj
 0001:00050810       ?QualifyOn@MyPatientRootRetrieveGeneric@@UAEHPAE0000@Z 00451810 f   total.obj
 0001:00050840       ?QualifyOn@MyStudyRootRetrieve@@UAEHPAE000@Z 00451840 f   total.obj
 0001:000508a0       ?QualifyOn@MyStudyRootRetrieveNKI@@UAEHPAE0000@Z 004518a0 f   total.obj
 0001:000508d0       ?QualifyOn@MyStudyRootRetrieveGeneric@@UAEHPAE0000@Z 004518d0 f   total.obj
 0001:00050900       ?QualifyOn@MyPatientStudyOnlyRetrieve@@UAEHPAE000@Z 00451900 f   total.obj
 0001:00050960       ?QualifyOn@MyPatientStudyOnlyRetrieveNKI@@UAEHPAE0000@Z 00451960 f   total.obj
 0001:00050990       ?QualifyOn@MyPatientStudyOnlyRetrieveGeneric@@UAEHPAE0000@Z 00451990 f   total.obj
 0001:000509c0       ?Server@DriverApp@@QAEHPAE@Z 004519c0 f   total.obj
 0001:00050ca0       ?LogUser@@YAXPBDPAVAAssociateRQ@@PAVDICOMCommandObject@@@Z 00451ca0 f   total.obj
 0001:00050cd0       ?NewTempFile@@YAXPADPBD@Z  00451cd0 f   total.obj
 0001:00050e60       ?WriteGIFFrame@@YAHPAU_iobuf@@PAEHH111HHHW4ColorStyleType@@@Z 00451e60 f   total.obj
 0001:000512a0       ?WriteGIF@@YAHPAU_iobuf@@PAEHHH111HHPBD@Z 004522a0 f   total.obj
 0001:00051330       ??0sentry@?$basic_istream@DU?$char_traits@D@std@@@std@@QAE@AAV12@_N@Z 00452330 f i total.obj
 0001:00051380       ?imbue@?$basic_filebuf@DU?$char_traits@D@std@@@std@@MAEXABVlocale@2@@Z 00452380 f i total.obj
 0001:000513d0       ??_G?$Array@VTransferSyntax@@@@UAEPAXI@Z 004523d0 f i total.obj
 0001:000513d0       ??_E?$Array@VTransferSyntax@@@@UAEPAXI@Z 004523d0 f i total.obj
 0001:00051400       ??_E?$Array@VPresentationContextAccept@@@@UAEPAXI@Z 00452400 f i total.obj
 0001:00051400       ??_G?$Array@VPresentationContextAccept@@@@UAEPAXI@Z 00452400 f i total.obj
 0001:00051430       ?append@?$basic_string@DU?$char_traits@D@std@@V?$allocator@D@2@@std@@QAEAAV12@ID@Z 00452430 f i total.obj
 0001:00051500       ?open@?$basic_filebuf@DU?$char_traits@D@std@@@std@@QAEPAV12@PBDHH@Z 00452500 f i total.obj
 0001:000515e0       ?assign@?$basic_string@DU?$char_traits@D@std@@V?$allocator@D@2@@std@@QAEAAV12@ID@Z 004525e0 f i total.obj
 0001:000516d0       ?init@?$basic_ios@DU?$char_traits@D@std@@@std@@IAEXPAV?$basic_streambuf@DU?$char_traits@D@std@@@2@_N@Z 004526d0 f i total.obj
 0001:00051730       ??1?$DataLink@VPresentationContext@@@@QAE@XZ 00452730 f i total.obj
 0001:00051740       ??0?$DataLink@VPresentationContext@@@@QAE@XZ 00452740 f i total.obj
 0001:00051760       ??5Buffer@@QAEAAV0@AAD@Z   00452760 f i total.obj
 0001:00051790       ??0DICOMDataObject@@QAE@XZ 00452790 f i total.obj
 0001:00051800       ??1DICOMDataObject@@UAE@XZ 00452800 f i total.obj
 0001:00051810       ?MakeChapter10@PDU_Service@@UAEHPAVDICOMDataObject@@PBD@Z 00452810 f   total.obj
 0001:00051df0       ?BuildSearchString@@YAHPAVDatabase@@PAUDBENTRY@@PADPAVVR@@22H@Z 00452df0 f   total.obj
 0001:000524c0       ?QueryOnStudy@@YAHPAVDICOMDataObject@@PAV?$Array@PAVDICOMDataObject@@@@@Z 004534c0 f   total.obj
 0001:00054730       ?QueryOnSeries@@YAHPAVDICOMDataObject@@PAV?$Array@PAVDICOMDataObject@@@@@Z 00455730 f   total.obj
 0001:00056ef0       ?QueryOnImage@@YAHPAVDICOMDataObject@@PAV?$Array@PAVDICOMDataObject@@@@@Z 00457ef0 f   total.obj
 0001:0005a2d0       ?QueryOnModalityWorkList@@YAHPAVDICOMDataObject@@PAV?$Array@PAVDICOMDataObject@@@@@Z 0045b2d0 f   total.obj
 0001:0005c6b0       ?OnUDP@Debug@@QAEXPADPBD@Z 0045d6b0 f   total.obj
 0001:0005c770       ?LargestFreeMAG@@YAIXZ     0045d770 f   total.obj
 0001:0005c7f0       ?MaxMagDevice@@YAIXZ       0045d7f0 f   total.obj
 0001:0005c880       ?MaxCACHEDevice@@YAHI@Z    0045d880 f   total.obj
 0001:0005c910       ?GetKBUsedForPatient@@YAHPAD0H@Z 0045d910 f   total.obj
 0001:0005cdd0       ?GetKBUsedForSeries@@YAHPAD0H@Z 0045ddd0 f   total.obj
 0001:0005d270       ?ModifyDeviceNameForPatient@@YAHPADPBD0@Z 0045e270 f   total.obj
 0001:0005d520       ?ModifyDeviceNameForSeries@@YAHPADPBD0@Z 0045e520 f   total.obj
 0001:0005d780       ?MovePatientData@@YAHPAD000@Z 0045e780 f   total.obj
 0001:0005dcd0       ?CopyPatientData@@YAHPAD000@Z 0045ecd0 f   total.obj
 0001:0005e190       ?CopySeriesData@@YAHPAD000@Z 0045f190 f   total.obj
 0001:0005e650       ?ComparePatientData@@YAHPAD000@Z 0045f650 f   total.obj
 0001:0005ea70       ?CompareSeriesData@@YAHPAD000@Z 0045fa70 f   total.obj
 0001:0005ee90       ?DeletePatientData@@YAHPAD000@Z 0045fe90 f   total.obj
 0001:0005f3e0       ?DeleteSeriesData@@YAHPAD000@Z 004603e0 f   total.obj
 0001:0005f930       ?MakeListOfPatientsOnDevice@@YAHPADPAPAD@Z 00460930 f   total.obj
 0001:0005ff10       ?RestoreMAGFlags@@YAHXZ    00460f10 f   total.obj
 0001:00060030       ?MakeListOfSeriesOnDevice@@YAHPADPAPADHH@Z 00461030 f   total.obj
 0001:00060460       ?SelectSeriesForArchival@@YAHPADHH@Z 00461460 f   total.obj
 0001:000605d0       ?PrepareBunchForBurning@@YAHPAD0@Z 004615d0 f   total.obj
 0001:00060d80       ?CompareBunchAfterBurning@@YAHPAD@Z 00461d80 f   total.obj
 0001:00060f60       ?DeleteBunchAfterBurning@@YAHPAD@Z 00461f60 f   total.obj
 0001:000612a0       ?VerifyMirrorDisk@@YAHPAD@Z 004622a0 f   total.obj
 0001:00061490       ?RenameDevice@@YAHPAD0@Z   00462490 f   total.obj
 0001:00061570       ?MakeListOfOldestPatientsOnDevice@@YAHPAPADHPBDPAD@Z 00462570 f   total.obj
 0001:00061ca0       ?DICOM2SQLValue@@YAHPAD@Z  00462ca0 f   total.obj
 0001:00061d70       ?AddToTable@@YAHAAVDatabase@@PAUDBENTRY@@PADPAVDICOMDataObject@@22@Z 00462d70 f   total.obj
 0001:000624d0       ?UpdateOrAddToTable@@YAHAAVDatabase@@PAUDBENTRY@@PADPAVDICOMDataObject@@PBD422PAHHH@Z 004634d0 f   total.obj
 0001:00064350       ?UpdateAccessTimes@@YAHAAVDatabase@@PAD@Z 00465350 f   total.obj
 0001:000648e0       ?ChangeUID@@YAHPADPBD0@Z   004658e0 f   total.obj
 0001:00064cd0       ?ChangeUIDTo@@YAHPAD00@Z   00465cd0 f   total.obj
 0001:00065080       ?ChangeUIDBack@@YAHPAD0@Z  00466080 f   total.obj
 0001:00065250       ?DeleteUIDChanges@@YAHPAD@Z 00466250 f   total.obj
 0001:000653a0       ?MergeUIDs@@YAHQAPADHPBDPAD@Z 004663a0 f   total.obj
 0001:00065800       ?GetFileName@@YAHPAVVR@@PAD1AAVDatabase@@H111@Z 00466800 f   total.obj
 0001:00065c10       ?MakeCopy@@YAPAVDICOMDataObject@@PAV1@@Z 00466c10 f   total.obj
 0001:00065ff0       ?NewDeleteSopFromDB@@YAHPAD000AAVDatabase@@@Z 00466ff0 f   total.obj
 0001:00066670       ?InitializeTables@@YAHH@Z  00467670 f   total.obj
 0001:00067320       ??0RTC@@QAE@HPAD@Z         00468320 f   total.obj
 0001:00067350       ?RunTimeClass@RTC@@QAEHPAVDICOMObject@@@Z 00468350 f   total.obj
 0001:000674f0       ?MkBinaryRtc@@YAHPAD0H@Z   004684f0 f   total.obj
 0001:00067810       ??0DICOMCommandObject@@QAE@XZ 00468810 f i total.obj
 0001:00067880       ??1DICOMCommandObject@@UAE@XZ 00468880 f i total.obj
 0001:00067be0       ?ParseImagePixelDataRawToDCM@PDU_Service@@MAEHAAVLinkedBuffer@@PAVDICOMObject@@@Z 00468be0 f   total.obj
 0001:00067fd0       ?Implicit_ParseRawVRIntoDCM@PDU_Service@@MAEHAAVLinkedBuffer@@PAVDICOMObject@@H@Z 00468fd0 f   total.obj
 0001:000689d0       ?Explicit_ParseRawVRIntoDCM@PDU_Service@@MAEHAAVLinkedBuffer@@PAVDICOMObject@@@Z 004699d0 f   total.obj
 0001:00069590       ?Dynamic_ParseRawVRIntoDCM@PDU_Service@@MAEHAAVLinkedBuffer@@PAVDICOMObject@@I@Z 0046a590 f   total.obj
 0001:0006a4c0       ?ReadDynamic@PDataTF@@QAEHAAVBuffer@@@Z 0046b4c0 f   total.obj
 0001:0006a620       ?ReadDynamic@AAssociateRJ@@QAEHAAVBuffer@@@Z 0046b620 f   total.obj
 0001:0006a6c0       ?ReadDynamic@AReleaseRQ@@QAEHAAVBuffer@@@Z 0046b6c0 f   total.obj
 0001:0006a710       ?ReadDynamic@AReleaseRP@@QAEHAAVBuffer@@@Z 0046b710 f   total.obj
 0001:0006a760       ?ReadDynamic@AAbortRQ@@QAEHAAVBuffer@@@Z 0046b760 f   total.obj
 0001:0006a800       ?Write@PresentationContextAccept@@QAEHAAVBuffer@@@Z 0046b800 f   total.obj
 0001:0006a8f0       ??_GAAssociateAC@@UAEPAXI@Z 0046b8f0 f i total.obj
 0001:0006a8f0       ??_EAAssociateAC@@UAEPAXI@Z 0046b8f0 f i total.obj
 0001:0006a930       ?Write@AAssociateAC@@QAEHAAVBuffer@@@Z 0046b930 f   total.obj
 0001:0006ab50       ?ReadDynamic@ApplicationContext@@QAEHAAVBuffer@@@Z 0046bb50 f   total.obj
 0001:0006ac20       ?ReadDynamic@AbstractSyntax@@QAEHAAVBuffer@@@Z 0046bc20 f   total.obj
 0001:0006acf0       ?ReadDynamic@TransferSyntax@@QAEHAAVBuffer@@@Z 0046bcf0 f   total.obj
 0001:0006adc0       ?ReadDynamic@ImplementationClass@@QAEHAAVBuffer@@@Z 0046bdc0 f   total.obj
 0001:0006ae90       ?ReadDynamic@ImplementationVersion@@QAEHAAVBuffer@@@Z 0046be90 f   total.obj
 0001:0006af60       ?ReadDynamic@MaximumSubLength@@QAEHAAVBuffer@@@Z 0046bf60 f   total.obj
 0001:0006aff0       ?ReadDynamic@SCPSCURoleSelect@@QAEHAAVBuffer@@@Z 0046bff0 f   total.obj
 0001:0006b140       ?ReadDynamic@UserInformation@@QAEHAAVBuffer@@@Z 0046c140 f   total.obj
 0001:0006b380       ??_GDICOMObject@@UAEPAXI@Z 0046c380 f i total.obj
 0001:0006b380       ??_EDICOMObject@@UAEPAXI@Z 0046c380 f i total.obj
 0001:0006b3b0       ?ExtractFrame@@YAHPAVDICOMDataObject@@I@Z 0046c3b0 f   total.obj
 0001:0006b640       ?ExtractFrames@@YAHPAVDICOMDataObject@@IIH@Z 0046c640 f   total.obj
 0001:0006ba30       ?MaybeDownsize@@YAHPAVDICOMDataObject@@PAVDICOMCommandObject@@H@Z 0046ca30 f   total.obj
 0001:0006c020       ?NewTempFileWExt@@YAXPADPBD@Z 0046d020 f   total.obj
 0001:0006c1c0       ?NewTempFile@@YAXPAD@Z     0046d1c0 f   total.obj
 0001:0006cc80       ?ProcessHL7Data@@YAXPAD@Z  0046dc80 f   total.obj
 0001:0006d400       ?CGI@@YAHPADPBD1@Z         0046e400 f   total.obj
 0001:0006e4c0       ?TestFilter@@YAHPAD0H0@Z   0046f4c0 f   total.obj
 0001:0006e8e0       ?PrefetchPatientData@@YAHPADI@Z 0046f8e0 f   total.obj
 0001:0006f2e0       ?new_prefetcherqueue@@YAPAUconquest_queue@@XZ 004702e0 f   total.obj
 0001:0006f480       ?prefetcher@@YAHPAVDICOMDataObject@@H@Z 00470480 f   total.obj
 0001:0006f650       ?SearchOn@MyModalityWorkListQuery@@UAEHPAVDICOMDataObject@@PAV?$Array@PAVDICOMDataObject@@@@@Z 00470650 f   total.obj
 0001:0006f7a0       ?read@?$basic_istream@DU?$char_traits@D@std@@@std@@QAEAAV12@PAD_J@Z 004707a0 f i total.obj
 0001:0006f910       ?open@?$basic_ifstream@DU?$char_traits@D@std@@@std@@QAEXPBDHH@Z 00470910 f i total.obj
 0001:0006f990       ?uflow@?$basic_filebuf@DU?$char_traits@D@std@@@std@@MAEHXZ 00470990 f i total.obj
 0001:0006fc80       ??0?$basic_string@DU?$char_traits@D@std@@V?$allocator@D@2@@std@@QAE@ID@Z 00470c80 f i total.obj
 0001:0006fcc0       ??0?$basic_istream@DU?$char_traits@D@std@@@std@@QAE@PAV?$basic_streambuf@DU?$char_traits@D@std@@@1@_N@Z 00470cc0 f i total.obj
 0001:0006fd70       ?_Endwrite@?$basic_filebuf@DU?$char_traits@D@std@@@std@@IAE_NXZ 00470d70 f i total.obj
 0001:0006ff40       ?Add@?$Array@VPresentationContext@@@@QAEAAVPresentationContext@@AAV2@@Z 00470f40 f i total.obj
 0001:0006ffd0       ??_G?$DataLink@VPresentationContext@@@@QAEPAXI@Z 00470fd0 f i total.obj
 0001:00070000       ?LoadDICOMDataObject@PDU_Service@@QAEPAVDICOMDataObject@@PAD@Z 00471000 f   total.obj
 0001:000702a0       ??_EDICOMDataObject@@UAEPAXI@Z 004712a0 f i total.obj
 0001:000702a0       ??_GDICOMDataObject@@UAEPAXI@Z 004712a0 f i total.obj
 0001:000702d0       ?LoadKFactorFile@@YAHPAD@Z 004712d0 f   total.obj
 0001:00070530       ?SaveToDataBase@@YAHAAVDatabase@@PAVDICOMDataObject@@PADPBDH@Z 00471530 f   total.obj
 0001:00070a60       ?GetFileName@@YAHPAVVR@@PAD1H111@Z 00471a60 f   total.obj
 0001:00070bb0       ??_GDICOMCommandObject@@UAEPAXI@Z 00471bb0 f i total.obj
 0001:00070bb0       ??_EDICOMCommandObject@@UAEPAXI@Z 00471bb0 f i total.obj
 0001:00070be0       ?Read@NGetRQ@@QAEHPAVDICOMCommandObject@@PAVPDU_Service@@PAVDICOMDataObject@@@Z 00471be0 f   total.obj
 0001:00070c90       ?Read@AAssociateRJ@@QAEHAAVBuffer@@@Z 00471c90 f   total.obj
 0001:00070cc0       ?Read@AReleaseRQ@@QAEHAAVBuffer@@@Z 00471cc0 f   total.obj
 0001:00070d20       ?Read@AReleaseRP@@QAEHAAVBuffer@@@Z 00471d20 f   total.obj
 0001:00070d80       ?Read@AAbortRQ@@QAEHAAVBuffer@@@Z 00471d80 f   total.obj
 0001:00070db0       ?Read@ApplicationContext@@QAEHAAVBuffer@@@Z 00471db0 f   total.obj
 0001:00070df0       ?Read@AbstractSyntax@@QAEHAAVBuffer@@@Z 00471df0 f   total.obj
 0001:00070e30       ?Read@TransferSyntax@@QAEHAAVBuffer@@@Z 00471e30 f   total.obj
 0001:00070e70       ?Read@ImplementationClass@@QAEHAAVBuffer@@@Z 00471e70 f   total.obj
 0001:00070eb0       ?Read@ImplementationVersion@@QAEHAAVBuffer@@@Z 00471eb0 f   total.obj
 0001:00070ef0       ?ReadDynamic@PresentationContext@@QAEHAAVBuffer@@@Z 00471ef0 f   total.obj
 0001:00071180       ?Read@MaximumSubLength@@QAEHAAVBuffer@@@Z 00472180 f   total.obj
 0001:000711b0       ?Read@SCPSCURoleSelect@@QAEHAAVBuffer@@@Z 004721b0 f   total.obj
 0001:000711e0       ?Read@UserInformation@@QAEHAAVBuffer@@@Z 004721e0 f   total.obj
 0001:00071220       ?AddPresentationContext@AAssociateRQ@@QAEXAAVPresentationContext@@@Z 00472220 f   total.obj
 0001:00071260       ?ReadDynamic@AAssociateRQ@@QAEHAAVBuffer@@@Z 00472260 f   total.obj
 0001:000715e0       ?CompressJPEGL@@YAHPAVDICOMDataObject@@HH@Z 004725e0 f   total.obj
 0001:000730d0       ?CompressJPEG2K@@YAHPAVDICOMDataObject@@H@Z 004740d0 f   total.obj
 0001:00075610       ?overflow@?$basic_filebuf@DU?$char_traits@D@std@@@std@@MAEHH@Z 00476610 f i total.obj
 0001:00075920       ?seekoff@?$basic_filebuf@DU?$char_traits@D@std@@@std@@MAE?AV?$fpos@H@2@_JHH@Z 00476920 f i total.obj
 0001:00075a50       ?seekpos@?$basic_filebuf@DU?$char_traits@D@std@@@std@@MAE?AV?$fpos@H@2@V32@H@Z 00476a50 f i total.obj
 0001:00075b60       ?close@?$basic_filebuf@DU?$char_traits@D@std@@@std@@QAEPAV12@XZ 00476b60 f i total.obj
 0001:00075c10       ?RemoveAt@?$Array@VPresentationContext@@@@QAEHI@Z 00476c10 f i total.obj
 0001:00075cd0       ??1?$Array@VPresentationContext@@@@UAE@XZ 00476cd0 f i total.obj
 0001:00075d90       ?InterogateAAssociateRQ@PDU_Service@@IAEHXZ 00476d90 f   total.obj
 0001:00076590       ?Close@PDU_Service@@QAEHXZ 00477590 f   total.obj
 0001:00076660       ?GetPresentationContextID@PDU_Service@@QAEEAAVUID@@@Z 00477660 f   total.obj
 0001:00076820       ?GetPresentationContextID@PDU_Service@@QAEEAAVUID@@0@Z 00477820 f   total.obj
 0001:00076c40       ?IsAbstractSyntaxAccepted@PDU_Service@@QAEHAAVUID@@@Z 00477c40 f   total.obj
 0001:00076d40       ?AddAbstractSyntaxAlias@PDU_Service@@UAEHAAVUID@@0@Z 00477d40 f   total.obj
 0001:000770c0       ?ReadDynamic@PresentationContextAccept@@QAEHAAVBuffer@@@Z 004780c0 f   total.obj
 0001:000771a0       ?ReadDynamic@AAssociateAC@@QAEHAAVBuffer@@@Z 004781a0 f   total.obj
 0001:000775a0       ?Read@PresentationContext@@QAEHAAVBuffer@@@Z 004785a0 f   total.obj
 0001:000775d0       ??0AAssociateRQ@@QAE@XZ    004785d0 f   total.obj
 0001:000776d0       ??0AAssociateRQ@@QAE@PAE0@Z 004786d0 f   total.obj
 0001:00077850       ??1AAssociateRQ@@UAE@XZ    00478850 f   total.obj
 0001:000779c0       ?ClearPresentationContexts@AAssociateRQ@@QAEXXZ 004789c0 f   total.obj
 0001:00077a90       ?Read@AAssociateRQ@@QAEHAAVBuffer@@@Z 00478a90 f   total.obj
 0001:00077ac0       ?GetAcceptedCompressionType@ExtendedPDU_Service@@QAEPADVUID@@@Z 00478ac0 f   total.obj
 0001:000785c0       ?new_queue@@YAPAUconquest_queue@@HHHP6AHPADPAVExtendedPDU_Service@@0@Z1H@Z 004795c0 f   total.obj
 0001:000786b0       ?mirrorcopy_queue@@YAXPAD0@Z 004796b0 f   total.obj
 0001:000787d0       ?close@?$basic_ifstream@DU?$char_traits@D@std@@@std@@QAEXXZ 004797d0 f i total.obj
 0001:00078810       ??1?$basic_filebuf@DU?$char_traits@D@std@@@std@@UAE@XZ 00479810 f i total.obj
 0001:00078870       ??_G?$Array@VPresentationContext@@@@UAEPAXI@Z 00479870 f i total.obj
 0001:00078870       ??_E?$Array@VPresentationContext@@@@UAEPAXI@Z 00479870 f i total.obj
 0001:000788a0       ??_G?$basic_filebuf@DU?$char_traits@D@std@@@std@@UAEPAXI@Z 004798a0 f i total.obj
 0001:000788a0       ??_E?$basic_filebuf@DU?$char_traits@D@std@@@std@@UAEPAXI@Z 004798a0 f i total.obj
 0001:00078910       ?ParseDCMIntoRawVR@PDU_Service@@MAEEPAVDICOMObject@@AAVLinkedBuffer@@AAVUID@@H@Z 00479910 f   total.obj
 0001:00078b20       ??0PDU_Service@@QAE@XZ     00479b20 f   total.obj
 0001:00078dc0       ?ShouldIAcceptRemoteApTitle@PDU_Service@@MAEHPAE@Z 00479dc0 f i total.obj
 0001:00078dd0       ?ShouldIAcceptLocalApTitle@PDU_Service@@MAEHPAE@Z 00479dd0 f i total.obj
 0001:00078de0       ?ShouldIAcceptApplicationContext@PDU_Service@@MAEHAAVApplicationContext@@@Z 00479de0 f i total.obj
 0001:00078df0       ?ShouldIAcceptPresentationContext@PDU_Service@@MAEHAAVPresentationContext@@AAVPresentationContextAccept@@@Z 00479df0 f i total.obj
 0001:00078e00       ?ShouldIAcceptAbstractSyntax@PDU_Service@@MAEHAAVAbstractSyntax@@@Z 00479e00 f i total.obj
 0001:00078e10       ?ReadBinary@PDU_Service@@UAEHPAEI@Z 00479e10 f i total.obj
 0001:00078e20       ?SendBinary@PDU_Service@@UAEHPAEI@Z 00479e20 f i total.obj
 0001:00078e30       ??_EPDU_Service@@WFA@AEPAXI@Z 00479e30 f i total.obj
 0001:00078e40       ??_EPDU_Service@@WDNI@AEPAXI@Z 00479e40 f i total.obj
 0001:00078e50       ??_EPDU_Service@@WDPI@AEPAXI@Z 00479e50 f i total.obj
 0001:00078e60       ??_EPDU_Service@@WCAM@AEPAXI@Z 00479e60 f i total.obj
 0001:00078e70       ??_EPDU_Service@@WDMI@AEPAXI@Z 00479e70 f i total.obj
 0001:00078e80       ??_EPDU_Service@@WDOI@AEPAXI@Z 00479e80 f i total.obj
 0001:00078e90       ??_EPDU_Service@@WEAI@AEPAXI@Z 00479e90 f i total.obj
 0001:00078ea0       ??1PDU_Service@@UAE@XZ     00479ea0 f   total.obj
 0001:00079120       ?Write@PDU_Service@@QAEHPAVDICOMCommandObject@@AAVUID@@@Z 0047a120 f   total.obj
 0001:00079190       ?Write@PDU_Service@@QAEHPAVDICOMDataObject@@AAVUID@@@Z 0047a190 f   total.obj
 0001:00079200       ?Listen@PDU_Service@@QAEHPAE@Z 0047a200 f   total.obj
 0001:000792f0       ?Listen@PDU_Service@@QAEHH@Z 0047a2f0 f   total.obj
 0001:00079540       ?Multiplex@PDU_Service@@QAEHH@Z 0047a540 f   total.obj
 0001:000796c0       ?Connect@PDU_Service@@QAEHPAE0@Z 0047a6c0 f   total.obj
 0001:00079b20       ?Read@PresentationContextAccept@@QAEHAAVBuffer@@@Z 0047ab20 f   total.obj
 0001:00079b50       ?Read@AAssociateAC@@QAEHAAVBuffer@@@Z 0047ab50 f   total.obj
 0001:00079b80       ??_EAAssociateRQ@@UAEPAXI@Z 0047ab80 f i total.obj
 0001:00079b80       ??_GAAssociateRQ@@UAEPAXI@Z 0047ab80 f i total.obj
 0001:00079bb0       ?SaveDICOMDataObject@@YAXPADPAVDICOMDataObject@@@Z 0047abb0 f   total.obj
 0001:00079e30       ?DecompressImage@@YAHPAPAVDICOMDataObject@@PAH@Z 0047ae30 f   total.obj
 0001:0007a620       ?CompressJPEGImage@@YAHPAPAVDICOMDataObject@@HPAHH@Z 0047b620 f   total.obj
 0001:0007abc0       ?To8bitMonochromeOrRGB@@YAHPAVDICOMDataObject@@HPAH1PAPAEHHHI@Z 0047bbc0 f   total.obj
 0001:0007bf10       ?ToGif@@YAHPAVDICOMDataObject@@PADHHHHI@Z 0047cf10 f   total.obj
 0001:0007c340       ?ToBMP@@YAHPAVDICOMDataObject@@PADHHHHI@Z 0047d340 f   total.obj
 0001:0007c950       ?MergeUIDofDDO@@YAHPAVDICOMDataObject@@PBD1@Z 0047d950 f   total.obj
 0001:0007cc40       ??0?$basic_ifstream@DU?$char_traits@D@std@@@std@@QAE@XZ 0047dc40 f i total.obj
 0001:0007cd60       ??1?$basic_ifstream@DU?$char_traits@D@std@@@std@@UAE@XZ 0047dd60 f i total.obj
 0001:0007cde0       ??_D?$basic_ifstream@DU?$char_traits@D@std@@@std@@QAEXXZ 0047dde0 f i total.obj
 0001:0007ce10       ?LoadImplicitLittleEndianFile@@YAPAVDICOMDataObject@@PADI@Z 0047de10 f   total.obj
 0001:0007d0e0       ?TestFile@@YAHPAD0@Z       0047e0e0 f   total.obj
 0001:0007d390       ?TestPatientData@@YAHPAD00@Z 0047e390 f   total.obj
 0001:0007d730       ?TestSeriesData@@YAHPAD00@Z 0047e730 f   total.obj
 0001:0007dad0       ?TestImages@@YAHPAD@Z      0047ead0 f   total.obj
 0001:0007dc40       ??0CheckedPDU_Service@@QAE@PAD@Z 0047ec40 f   total.obj
 0001:0007dcc0       ??_ECheckedPDU_Service@@WDNI@AEPAXI@Z 0047ecc0 f i total.obj
 0001:0007dcd0       ??_ECheckedPDU_Service@@WDPI@AEPAXI@Z 0047ecd0 f i total.obj
 0001:0007dce0       ??_ECheckedPDU_Service@@WCAM@AEPAXI@Z 0047ece0 f i total.obj
 0001:0007dcf0       ??_ECheckedPDU_Service@@WDMI@AEPAXI@Z 0047ecf0 f i total.obj
 0001:0007dd00       ??_ECheckedPDU_Service@@WDOI@AEPAXI@Z 0047ed00 f i total.obj
 0001:0007dd10       ??_ECheckedPDU_Service@@WEAI@AEPAXI@Z 0047ed10 f i total.obj
 0001:0007dd20       ??_ECheckedPDU_Service@@WFA@AEPAXI@Z 0047ed20 f i total.obj
 0001:0007dd30       ??1CheckedPDU_Service@@UAE@XZ 0047ed30 f   total.obj
 0001:0007dda0       ?Write@NEventReportRQ@@QAEHPAVPDU_Service@@PAVDICOMDataObject@@PAVUID@@G@Z 0047eda0 f   total.obj
 0001:0007e110       ?Write@NEventReportRQ@@QAEHPAVPDU_Service@@PAVUID@@G@Z 0047f110 f   total.obj
 0001:0007e130       ?Write@NEventReportRSP@@QAEHPAVPDU_Service@@PAVDICOMCommandObject@@PAVUID@@GGPAVDICOMDataObject@@@Z 0047f130 f   total.obj
 0001:0007e530       ?Write@NEventReportRSP@@QAEHPAVPDU_Service@@PAVDICOMCommandObject@@PAVUID@@GPAVDICOMDataObject@@@Z 0047f530 f   total.obj
 0001:0007e560       ?Write@NGetRQ@@QAEHPAVPDU_Service@@PAVDICOMDataObject@@PAVUID@@@Z 0047f560 f   total.obj
 0001:0007e860       ?Write@NGetRSP@@QAEHPAVPDU_Service@@PAVDICOMCommandObject@@PAVUID@@GPAVDICOMDataObject@@@Z 0047f860 f   total.obj
 0001:0007ebf0       ?Write@NSetRQ@@QAEHPAVPDU_Service@@PAVDICOMDataObject@@PAVUID@@@Z 0047fbf0 f   total.obj
 0001:0007eef0       ?Write@NSetRQ@@QAEHPAVPDU_Service@@PAVUID@@@Z 0047fef0 f   total.obj
 0001:0007ef10       ?Write@NSetRSP@@QAEHPAVPDU_Service@@PAVDICOMCommandObject@@PAVUID@@GPAVDICOMDataObject@@@Z 0047ff10 f   total.obj
 0001:0007f2a0       ?Write@NActionRQ@@QAEHPAVPDU_Service@@PAVDICOMDataObject@@PAVUID@@G@Z 004802a0 f   total.obj
 0001:0007f610       ?Write@NActionRQ@@QAEHPAVPDU_Service@@PAVUID@@G@Z 00480610 f   total.obj
 0001:0007f630       ?Write@NActionRSP@@QAEHPAVPDU_Service@@PAVDICOMCommandObject@@PAVUID@@GGPAVDICOMDataObject@@@Z 00480630 f   total.obj
 0001:0007fa30       ?Write@NCreateRQ@@QAEHPAVPDU_Service@@PAVDICOMDataObject@@PAVUID@@@Z 00480a30 f   total.obj
 0001:0007fd30       ?Write@NCreateRQ@@QAEHPAVPDU_Service@@PAVUID@@@Z 00480d30 f   total.obj
 0001:0007fd50       ?Write@NCreateRSP@@QAEHPAVPDU_Service@@PAVDICOMCommandObject@@PAVUID@@GPAVDICOMDataObject@@@Z 00480d50 f   total.obj
 0001:000800e0       ?Write@NDeleteRQ@@QAEHPAVPDU_Service@@PAVUID@@@Z 004810e0 f   total.obj
 0001:000803b0       ?Write@NDeleteRSP@@QAEHPAVPDU_Service@@PAVDICOMCommandObject@@PAVUID@@G@Z 004813b0 f   total.obj
 0001:00080700       ?Write@CEchoRQ@@QAEHPAVPDU_Service@@@Z 00481700 f   total.obj
 0001:000809c0       ?Write@CEchoRSP@@QAEHPAVPDU_Service@@PAVDICOMCommandObject@@GPAVVR@@@Z 004819c0 f   total.obj
 0001:00080c80       ?Write@CEchoRSP@@QAEHPAVPDU_Service@@PAVDICOMCommandObject@@G@Z 00481c80 f   total.obj
 0001:00080ca0       ?Write@CEchoRSP@@QAEHPAVPDU_Service@@PAVDICOMCommandObject@@@Z 00481ca0 f   total.obj
 0001:00080cc0       ?Write@CStoreRQ@@QAEHPAVPDU_Service@@PAVDICOMDataObject@@PAVVR@@PAE@Z 00481cc0 f   total.obj
 0001:000811d0       ?Write@CStoreRSP@@QAEHPAVPDU_Service@@PAVDICOMCommandObject@@G@Z 004821d0 f   total.obj
 0001:00081590       ?Write@CStoreRSP@@QAEHPAVPDU_Service@@PAVDICOMCommandObject@@@Z 00482590 f   total.obj
 0001:000815b0       ?Write@CFindRQ@@QAEHPAVPDU_Service@@PAVDICOMDataObject@@@Z 004825b0 f   total.obj
 0001:00081910       ?Write@CFindRSP@@QAEHPAVPDU_Service@@PAVDICOMCommandObject@@GPAVDICOMDataObject@@PAD@Z 00482910 f   total.obj
 0001:00081e30       ?Write@CFindRSP@@QAEHPAVPDU_Service@@PAVDICOMCommandObject@@PAVDICOMDataObject@@PAD@Z 00482e30 f   total.obj
 0001:00081e80       ?Write@CMoveRQ@@QAEHPAVPDU_Service@@PAVDICOMDataObject@@PAE@Z 00482e80 f   total.obj
 0001:000822c0       ?Write@CMoveRSP@@QAEHPAVPDU_Service@@PAVDICOMCommandObject@@GGGGGPAVDICOMDataObject@@@Z 004832c0 f   total.obj
 0001:00082880       ??_GPDU_Service@@UAEPAXI@Z 00483880 f i total.obj
 0001:00082880       ??_EPDU_Service@@UAEPAXI@Z 00483880 f i total.obj
 0001:000828b0       ?Read@PDU_Service@@QAEHPAVDICOMObject@@@Z 004838b0 f   total.obj
 0001:00082a70       ?Multiplex@PDU_Service@@QAEHPAE@Z 00483a70 f   total.obj
 0001:00082b20       ?ToJPG@@YAHPAVDICOMDataObject@@PADHHHHI@Z 00483b20 f   total.obj
 0001:00082ff0       ?RegenToDatabase@@YAHPAVDatabase@@PAD1PBD@Z 00483ff0 f   total.obj
 0001:00083210       ?RegenFile@@YAHPAD@Z       00484210 f   total.obj
 0001:00083480       ?RegenDir@@YAHPAVDatabase@@PADPBD@Z 00484480 f   total.obj
 0001:000837a0       ?Regen@@YAHPBDHPAD@Z       004847a0 f   total.obj
 0001:00083dc0       ?Regen@@YAHXZ              00484dc0 f   total.obj
 0001:00085530       ?DcmMove2@@YAHPADPBDHHPAVDICOMDataObject@@1@Z 00486530 f   total.obj
 0001:000864f0       ?GrabImagesFromServer@@YAHPAEPBDPAD@Z 004874f0 f   total.obj
 0001:00087ed0       ?SendServerCommand@@YAHPBD0HPADHH@Z 00488ed0 f   total.obj
 0001:00088f60       ??_G?$basic_ifstream@DU?$char_traits@D@std@@@std@@UAEPAXI@Z 00489f60 f i total.obj
 0001:00088f60       ??_E?$basic_ifstream@DU?$char_traits@D@std@@@std@@UAEPAXI@Z 00489f60 f i total.obj
 0001:00088fb0       ?fileToBuffer@@YAHPAPAXPBDH@Z 00489fb0 f   total.obj
 0001:000892b0       ?fileToBufferWithErr@@YAHPAPAXPBDPADHH@Z 0048a2b0 f   total.obj
 0001:000894f0       ??0ExtendedPDU_Service@@QAE@PAD@Z 0048a4f0 f i total.obj
 0001:00089590       ??_EExtendedPDU_Service@@WCAM@AEPAXI@Z 0048a590 f i total.obj
 0001:000895a0       ??_EExtendedPDU_Service@@WDMI@AEPAXI@Z 0048a5a0 f i total.obj
 0001:000895b0       ??_EExtendedPDU_Service@@WDOI@AEPAXI@Z 0048a5b0 f i total.obj
 0001:000895c0       ??_EExtendedPDU_Service@@WEAI@AEPAXI@Z 0048a5c0 f i total.obj
 0001:000895d0       ??_EExtendedPDU_Service@@WFA@AEPAXI@Z 0048a5d0 f i total.obj
 0001:000895e0       ??_EExtendedPDU_Service@@WDNI@AEPAXI@Z 0048a5e0 f i total.obj
 0001:000895f0       ??_EExtendedPDU_Service@@WDPI@AEPAXI@Z 0048a5f0 f i total.obj
 0001:00089600       ??1ExtendedPDU_Service@@UAE@XZ 0048a600 f i total.obj
 0001:000896f0       ??_EExtendedPDU_Service@@UAEPAXI@Z 0048a6f0 f i total.obj
 0001:000896f0       ??_GExtendedPDU_Service@@UAEPAXI@Z 0048a6f0 f i total.obj
 0001:00089720       ?InitACRNemaAddressArray@ACRNemaMap@@QAEHPAD@Z 0048a720 f   total.obj
 0001:00089960       ?readIniFile@IniValue@@AAEHXZ 0048a960 f   total.obj
 0001:000899f0       ?WriteToIni@IniValue@@QAEHPBD00@Z 0048a9f0 f   total.obj
 0001:00089d80       ??_GCheckedPDU_Service@@UAEPAXI@Z 0048ad80 f i total.obj
 0001:00089d80       ??_ECheckedPDU_Service@@UAEPAXI@Z 0048ad80 f i total.obj
 0001:00089db0       ?Write@StandardStorage@@QAEHPAVPDU_Service@@PAVDICOMDataObject@@PAVVR@@PAE@Z 0048adb0 f   total.obj
 0001:00089ef0       ?Read@Verification@@QAEHPAVPDU_Service@@PAVDICOMCommandObject@@@Z 0048aef0 f   total.obj
 0001:0008a010       ?WriteResponse@Verification@@QAEHPAVPDU_Service@@PAVDICOMCommandObject@@PAVVR@@@Z 0048b010 f   total.obj
 0001:0008a040       ?Write@Verification@@QAEHPAVPDU_Service@@@Z 0048b040 f   total.obj
 0001:0008a140       ?Read@NEventReportRQ@@QAEHPAVDICOMCommandObject@@PAVPDU_Service@@PAVDICOMDataObject@@@Z 0048b140 f   total.obj
 0001:0008a210       ?Read@NEventReportRSP@@QAEHPAVDICOMCommandObject@@PAVPDU_Service@@PAVDICOMDataObject@@@Z 0048b210 f   total.obj
 0001:0008a2e0       ?Read@NGetRSP@@QAEHPAVDICOMCommandObject@@PAVPDU_Service@@PAVDICOMDataObject@@@Z 0048b2e0 f   total.obj
 0001:0008a3b0       ?Read@NSetRQ@@QAEHPAVDICOMCommandObject@@PAVPDU_Service@@PAVDICOMDataObject@@@Z 0048b3b0 f   total.obj
 0001:0008a480       ?Read@NSetRSP@@QAEHPAVDICOMCommandObject@@PAVPDU_Service@@PAVDICOMDataObject@@@Z 0048b480 f   total.obj
 0001:0008a550       ?Read@NActionRQ@@QAEHPAVDICOMCommandObject@@PAVPDU_Service@@PAVDICOMDataObject@@@Z 0048b550 f   total.obj
 0001:0008a620       ?Read@NActionRSP@@QAEHPAVDICOMCommandObject@@PAVPDU_Service@@PAVDICOMDataObject@@@Z 0048b620 f   total.obj
 0001:0008a6f0       ?Read@NCreateRQ@@QAEHPAVDICOMCommandObject@@PAVPDU_Service@@PAVDICOMDataObject@@@Z 0048b6f0 f   total.obj
 0001:0008a7c0       ?Read@NCreateRSP@@QAEHPAVDICOMCommandObject@@PAVPDU_Service@@PAVDICOMDataObject@@@Z 0048b7c0 f   total.obj
 0001:0008a890       ?Read@CStoreRQ@@QAEHPAVDICOMCommandObject@@PAVPDU_Service@@PAVDICOMDataObject@@@Z 0048b890 f   total.obj
 0001:0008a960       ?Read@CStoreRQ@@QAEHPAVDICOMCommandObject@@@Z 0048b960 f   total.obj
 0001:0008aa00       ?Read@CFindRQ@@QAEHPAVDICOMCommandObject@@PAVPDU_Service@@PAVDICOMDataObject@@@Z 0048ba00 f   total.obj
 0001:0008aad0       ?Read@CFindRQ@@QAEHPAVDICOMCommandObject@@@Z 0048bad0 f   total.obj
 0001:0008ab70       ?Read@CFindRSP@@QAEHPAVDICOMCommandObject@@PAVPDU_Service@@PAVDICOMDataObject@@@Z 0048bb70 f   total.obj
 0001:0008ac30       ?Read@CFindRSP@@QAEHPAVDICOMCommandObject@@@Z 0048bc30 f   total.obj
 0001:0008acb0       ?Read@CMoveRQ@@QAEHPAVDICOMCommandObject@@PAVPDU_Service@@PAVDICOMDataObject@@@Z 0048bcb0 f   total.obj
 0001:0008ad80       ?Read@CMoveRQ@@QAEHPAVDICOMCommandObject@@@Z 0048bd80 f   total.obj
 0001:0008ae20       ?Read@CMoveRSP@@QAEHPAVDICOMCommandObject@@PAVPDU_Service@@PAVDICOMDataObject@@@Z 0048be20 f   total.obj
 0001:0008aef0       ?Read@CMoveRSP@@QAEHPAVDICOMCommandObject@@@Z 0048bef0 f   total.obj
 0001:0008af70       ?Write@StandardRetrieveNKI@@QAEHPAVPDU_Service@@PAVDICOMDataObject@@PAE@Z 0048bf70 f   total.obj
 0001:0008bd00       ?LoadForGUI@@YAPAVDICOMDataObject@@PAD@Z 0048cd00 f   total.obj
 0001:0008c400       ?LoadForBridge@@YAPAVDICOMDataObject@@PAD0@Z 0048d400 f   total.obj
 0001:0008c6e0       ?GetImageFileUID@@YAHPAD0@Z 0048d6e0 f   total.obj
 0001:0008c7e0       ?SearchDICOMObject@@YAHPAVDICOMObject@@PBDPADPAPAV?$Array@PAVDICOMDataObject@@@@PAPAVDICOMDataObject@@@Z 0048d7e0 f   total.obj
 0001:0008d410       ??_FExtendedPDU_Service@@QAEXXZ 0048e410 f i total.obj
 0001:0008d420       ?PrinterSupport@StorageApp@@QAEHPAVCheckedPDU_Service@@PAVDICOMCommandObject@@QAPAVDICOMDataObject@@@Z 0048e420 f   total.obj
 0001:0008e890       ?StorageCommitmentSupport@StorageApp@@QAEHPAVCheckedPDU_Service@@PAVDICOMCommandObject@@PAPAVDICOMDataObject@@@Z 0048f890 f   total.obj
 0001:0008f080       ?Write@RunTimeClassStorage@@QAEHPAVPDU_Service@@PAVDICOMDataObject@@@Z 00490080 f i total.obj
 0001:0008f0a0       ?DeleteNameFromIniFile@IniValue@@QAEHPBD0@Z 004900a0 f   total.obj
 0001:0008f300       ?GetIniLine@IniValue@@QAEPADPBD@Z 00490300 f   total.obj
 0001:0008f4a0       ?ReadIni@IniValue@@QAEHXZ  004904a0 f   total.obj
 0001:00090210       ?WriteToIni@IniValue@@QAEHPBD0@Z 00491210 f   total.obj
 0001:000902d0       ?Read@StandardQuery@@QAEHPAVPDU_Service@@PAVDICOMCommandObject@@@Z 004912d0 f   total.obj
 0001:00090650       ?Write@StandardQuery@@QAEHPAVPDU_Service@@PAVDICOMDataObject@@PAV?$Array@PAVDICOMDataObject@@@@@Z 00491650 f   total.obj
 0001:00090970       ?Read@StandardRetrieve@@QAEHPAVPDU_Service@@PAVDICOMCommandObject@@@Z 00491970 f   total.obj
 0001:000910d0       ?Write@StandardRetrieve@@QAEHPAVPDU_Service@@PAVDICOMDataObject@@PAE@Z 004920d0 f   total.obj
 0001:000913e0       ?Read@StandardStorage@@QAEHPAVPDU_Service@@PAVDICOMCommandObject@@PAVDICOMDataObject@@@Z 004923e0 f   total.obj
 0001:00091530       ?Read@UnknownStorage@@QAEHPAVPDU_Service@@PAVDICOMCommandObject@@PAVDICOMDataObject@@@Z 00492530 f   total.obj
 0001:00092070       ?FailSafeStorage@StorageApp@@QAEXPAVCheckedPDU_Service@@@Z 00493070 f   total.obj
 0001:000923f0       ?Read@PatientRootQuery@@QAEHPAVPDU_Service@@PAVDICOMCommandObject@@@Z 004933f0 f i total.obj
 0001:00092400       ?Write@PatientRootQuery@@QAEHPAVPDU_Service@@PAVDICOMDataObject@@PAV?$Array@PAVDICOMDataObject@@@@@Z 00493400 f i total.obj
 0001:00092410       ?Read@StudyRootQuery@@QAEHPAVPDU_Service@@PAVDICOMCommandObject@@@Z 00493410 f i total.obj
 0001:00092420       ?Write@StudyRootQuery@@QAEHPAVPDU_Service@@PAVDICOMDataObject@@PAV?$Array@PAVDICOMDataObject@@@@@Z 00493420 f i total.obj
 0001:00092430       ?Read@PatientStudyOnlyQuery@@QAEHPAVPDU_Service@@PAVDICOMCommandObject@@@Z 00493430 f i total.obj
 0001:00092440       ?Read@ModalityWorkListQuery@@QAEHPAVPDU_Service@@PAVDICOMCommandObject@@@Z 00493440 f i total.obj
 0001:00092450       ?Write@ModalityWorkListQuery@@QAEHPAVPDU_Service@@PAVDICOMDataObject@@PAV?$Array@PAVDICOMDataObject@@@@@Z 00493450 f i total.obj
 0001:00092460       ?DeleteNameFromIniFile@IniValue@@QAEHPBD@Z 00493460 f   total.obj
 0001:00092570       ?VirtualQuery@@YAHPAVDICOMDataObject@@PBDHPAV?$Array@PAVDICOMDataObject@@@@PAD@Z 00493570 f   total.obj
 0001:00093c90       ?ImageFileLister@@YAHPBDPAD1111PAU_iobuf@@@Z 00494c90 f   total.obj
 0001:00094eb0       ?SeriesUIDLister@@YAHPAD000PAU_iobuf@@@Z 00495eb0 f   total.obj
 0001:000954c0       ?DcmSubmitData@@YAHPAD000000H0@Z 004964c0 f   total.obj
 0001:000963a0       ?QueryOnPatient@@YAHPAVDICOMDataObject@@PAV?$Array@PAVDICOMDataObject@@@@@Z 004973a0 f   total.obj
 0001:00097e00       ?RemoveFromWorld@@YAHPAVDICOMDataObject@@AAVDatabase@@@Z 00498e00 f   total.obj
 0001:00097ef0       ?RemoveFromPACS@@YAHPAVDICOMDataObject@@H@Z 00498ef0 f   total.obj
 0001:000989f0       ?do_lua@@YAPBDPAPAUlua_State@@PBDPAUscriptdata@@@Z 004999f0 f   total.obj
 0001:000993a0       ?lua_setvar@@YAXPAVExtendedPDU_Service@@PAD1@Z 0049a3a0 f   total.obj
 0001:00099450       ?lua_getstring@@YAXPAVExtendedPDU_Service@@PAVDICOMCommandObject@@PAVDICOMDataObject@@PAD3@Z 0049a450 f   total.obj
 0001:00099580       ?DgateCgi@@YAXPAD0@Z       0049a580 f   total.obj
 0001:000a2670       ?DeletePatient@@YAHPADH@Z  004a3670 f   total.obj
 0001:000a27e0       ?DeleteStudy@@YAHPADH@Z    004a37e0 f   total.obj
 0001:000a2a60       ?DeleteStudies@@YAHPADH@Z  004a3a60 f   total.obj
 0001:000a2bf0       ?DeleteSeries@@YAHPADH@Z   004a3bf0 f   total.obj
 0001:000a2e70       ?DeleteImage@@YAHPADH@Z    004a3e70 f   total.obj
 0001:000a3000       ?DeleteImageFile@@YAHPADH@Z 004a4000 f   total.obj
 0001:000a3260       ?CallExportConverterN@@YAHPADH0000PAVExtendedPDU_Service@@000@Z 004a4260 f   total.obj
 0001:000a7fc0       ?exportprocessN@@YAHPADPAVExtendedPDU_Service@@0@Z 004a8fc0 f   total.obj
 0001:000a8020       ?export_queueN@@YAXPAPAUconquest_queue@@PADH111111@Z 004a9020 f   total.obj
 0001:000a8300       ?QueueExportConverters@@YAXPAD000000@Z 004a9300 f   total.obj
 0001:000a88a0       ?VirtualQueryCached@@YAHPAVDICOMDataObject@@PBDHPAV?$Array@PAVDICOMDataObject@@@@@Z 004a98a0 f   total.obj
 0001:000a9620       ?PatientStudyFinder@@YAHPAD00PAU_iobuf@@PBD@Z 004aa620 f   total.obj
 0001:000ab500       ?SearchOn@MyPatientRootQuery@@UAEHPAVDICOMDataObject@@PAV?$Array@PAVDICOMDataObject@@@@@Z 004ac500 f   total.obj
 0001:000ab780       ?SearchOn@MyStudyRootQuery@@UAEHPAVDICOMDataObject@@PAV?$Array@PAVDICOMDataObject@@@@@Z 004ac780 f   total.obj
 0001:000aba60       ?SearchOn@MyPatientStudyOnlyQuery@@UAEHPAVDICOMDataObject@@PAV?$Array@PAVDICOMDataObject@@@@@Z 004aca60 f   total.obj
 0001:000abd10       ?PanicKillOff@@YAHI@Z      004acd10 f   total.obj
 0001:000ac2e0       ?MAGRampage@@YGHXZ         004ad2e0 f   total.obj
 0001:000ac360       ?GetDevice@@YAHPADI@Z      004ad360 f   total.obj
 0001:000acf80       ?StartZipThread@@YAXXZ     004adf80 f   total.obj
 0001:000acfc0       ?GenerateFileName@@YAHPAVDICOMDataObject@@PAD11HH11PAVDatabase@@@Z 004adfc0 f   total.obj
 0001:000af000       ?SaveToDisk@@YAHAAVDatabase@@PAVDICOMDataObject@@PADHPAVExtendedPDU_Service@@HH@Z 004b0000 f   total.obj
 0001:000afe20       ?VirtualQueryToDB@@YAHPAVDICOMDataObject@@HPAD@Z 004b0e20 f   total.obj
 0001:000b0850       ?SearchOn@MyPatientRootRetrieve@@UAEHPAVDICOMDataObject@@PAV?$Array@PAVDICOMDataObject@@@@@Z 004b1850 f   total.obj
 0001:000b0bc0       ?SearchOn@MyPatientRootRetrieveNKI@@UAEHPAVDICOMDataObject@@PAV?$Array@PAVDICOMDataObject@@@@@Z 004b1bc0 f   total.obj
 0001:000b0f30       ?SearchOn@MyPatientRootRetrieveGeneric@@UAEHPAVDICOMDataObject@@PAV?$Array@PAVDICOMDataObject@@@@@Z 004b1f30 f   total.obj
 0001:000b12a0       ?SearchOn@MyStudyRootRetrieve@@UAEHPAVDICOMDataObject@@PAV?$Array@PAVDICOMDataObject@@@@@Z 004b22a0 f   total.obj
 0001:000b1610       ?SearchOn@MyStudyRootRetrieveNKI@@UAEHPAVDICOMDataObject@@PAV?$Array@PAVDICOMDataObject@@@@@Z 004b2610 f   total.obj
 0001:000b1980       ?SearchOn@MyStudyRootRetrieveGeneric@@UAEHPAVDICOMDataObject@@PAV?$Array@PAVDICOMDataObject@@@@@Z 004b2980 f   total.obj
 0001:000b1cf0       ?SearchOn@MyPatientStudyOnlyRetrieve@@UAEHPAVDICOMDataObject@@PAV?$Array@PAVDICOMDataObject@@@@@Z 004b2cf0 f   total.obj
 0001:000b2060       ?SearchOn@MyPatientStudyOnlyRetrieveNKI@@UAEHPAVDICOMDataObject@@PAV?$Array@PAVDICOMDataObject@@@@@Z 004b3060 f   total.obj
 0001:000b23d0       ?SearchOn@MyPatientStudyOnlyRetrieveGeneric@@UAEHPAVDICOMDataObject@@PAV?$Array@PAVDICOMDataObject@@@@@Z 004b33d0 f   total.obj
 0001:000b2740       ?TestSyntax@@YAXPADHPAVExtendedPDU_Service@@@Z 004b3740 f   total.obj
 0001:000b2b50       ?TestThreadedSave@@YAXPAD@Z 004b3b50 f   total.obj
 0001:000b2b80       ?CloneDB@@YAXPAD@Z         004b3b80 f   total.obj
 0001:000b3830       ?DcmMergeStudy@@YAHPBDPAD1111PAVExtendedPDU_Service@@@Z 004b4830 f   total.obj
 0001:000b4180       ?prefetchprocess@@YAHPADPAVExtendedPDU_Service@@0@Z 004b5180 f   total.obj
 0001:000b4640       ?prefetch_queue@@YAHPBDPAD000000000H0@Z 004b5640 f   total.obj
 0001:000b4a30       ?CallImportConverterN@@YAHPAVDICOMDataObject@@HPAD111PAVExtendedPDU_Service@@11@Z 004b5a30 f   total.obj
 0001:000bcef0       ?QueryMoveScript@MyPatientRootQuery@@UAEHPAVPDU_Service@@PAVDICOMCommandObject@@PAVDICOMDataObject@@@Z 004bdef0 f   total.obj
 0001:000bcf30       ?QueryResultScript@MyPatientRootQuery@@UAEHPAVPDU_Service@@PAVDICOMCommandObject@@PAVDICOMDataObject@@@Z 004bdf30 f   total.obj
 0001:000bcfe0       ?QueryMoveScript@MyStudyRootQuery@@UAEHPAVPDU_Service@@PAVDICOMCommandObject@@PAVDICOMDataObject@@@Z 004bdfe0 f   total.obj
 0001:000bd020       ?QueryResultScript@MyStudyRootQuery@@UAEHPAVPDU_Service@@PAVDICOMCommandObject@@PAVDICOMDataObject@@@Z 004be020 f   total.obj
 0001:000bd0d0       ?QueryMoveScript@MyPatientStudyOnlyQuery@@UAEHPAVPDU_Service@@PAVDICOMCommandObject@@PAVDICOMDataObject@@@Z 004be0d0 f   total.obj
 0001:000bd110       ?QueryResultScript@MyPatientStudyOnlyQuery@@UAEHPAVPDU_Service@@PAVDICOMCommandObject@@PAVDICOMDataObject@@@Z 004be110 f   total.obj
 0001:000bd1c0       ?QueryMoveScript@MyModalityWorkListQuery@@UAEHPAVPDU_Service@@PAVDICOMCommandObject@@PAVDICOMDataObject@@@Z 004be1c0 f   total.obj
 0001:000bd200       ?QueryResultScript@MyModalityWorkListQuery@@UAEHPAVPDU_Service@@PAVDICOMCommandObject@@PAVDICOMDataObject@@@Z 004be200 f   total.obj
 0001:000bd240       ?QueryMoveScript@MyPatientRootRetrieve@@UAEHPAVPDU_Service@@PAVDICOMCommandObject@@PAVDICOMDataObject@@@Z 004be240 f   total.obj
 0001:000bd340       ?QueryMoveScript@MyPatientRootRetrieveNKI@@UAEHPAVPDU_Service@@PAVDICOMCommandObject@@PAVDICOMDataObject@@@Z 004be340 f   total.obj
 0001:000bd440       ?QueryMoveScript@MyPatientRootRetrieveGeneric@@UAEHPAVPDU_Service@@PAVDICOMCommandObject@@PAVDICOMDataObject@@@Z 004be440 f   total.obj
 0001:000bd540       ?QueryMoveScript@MyStudyRootRetrieve@@UAEHPAVPDU_Service@@PAVDICOMCommandObject@@PAVDICOMDataObject@@@Z 004be540 f   total.obj
 0001:000bd640       ?QueryMoveScript@MyStudyRootRetrieveNKI@@UAEHPAVPDU_Service@@PAVDICOMCommandObject@@PAVDICOMDataObject@@@Z 004be640 f   total.obj
 0001:000bd740       ?QueryMoveScript@MyStudyRootRetrieveGeneric@@UAEHPAVPDU_Service@@PAVDICOMCommandObject@@PAVDICOMDataObject@@@Z 004be740 f   total.obj
 0001:000bd840       ?QueryMoveScript@MyPatientStudyOnlyRetrieve@@UAEHPAVPDU_Service@@PAVDICOMCommandObject@@PAVDICOMDataObject@@@Z 004be840 f   total.obj
 0001:000bd940       ?QueryMoveScript@MyPatientStudyOnlyRetrieveNKI@@UAEHPAVPDU_Service@@PAVDICOMCommandObject@@PAVDICOMDataObject@@@Z 004be940 f   total.obj
 0001:000bda40       ?QueryMoveScript@MyPatientStudyOnlyRetrieveGeneric@@UAEHPAVPDU_Service@@PAVDICOMCommandObject@@PAVDICOMDataObject@@@Z 004bea40 f   total.obj
 0001:000bdb40       ?ProcessDDO@@YAHPAPAVDICOMDataObject@@PAVDICOMCommandObject@@PAVExtendedPDU_Service@@@Z 004beb40 f   total.obj
 0001:000bdcb0       ?recompress@@YAHPAPAVDICOMDataObject@@PBD1HPAVExtendedPDU_Service@@@Z 004becb0 f   total.obj
 0001:000be420       ?CheckObject@MyBridgeStorage@@UAEGPAVDICOMDataObject@@PAVPDU_Service@@@Z 004bf420 f i total.obj
 0001:000be710       ?ModifyPATIDofImageFile@@YAHPAD0H0PAVExtendedPDU_Service@@@Z 004bf710 f   total.obj
 0001:000bede0       ?ModifyImageFile@@YAHPAD0PAVExtendedPDU_Service@@@Z 004bfde0 f   total.obj
 0001:000beea0       ?ModifyData@@YAHPAD000PAVExtendedPDU_Service@@@Z 004bfea0 f   total.obj
 0001:000bf080       ?AttachFile@@YAHPAD00PAVExtendedPDU_Service@@@Z 004c0080 f   total.obj
 0001:000bf260       ?AttachRTPLANToRTSTRUCT@@YAHPAD0PAVExtendedPDU_Service@@@Z 004c0260 f   total.obj
 0001:000bf440       ?AttachAnyToPatient@@YAHPAD0PAVExtendedPDU_Service@@@Z 004c0440 f   total.obj
 0001:000bf5d0       ?AttachAnyToStudy@@YAHPAD0PAVExtendedPDU_Service@@@Z 004c05d0 f   total.obj
 0001:000bf780       ?AttachAnyToSeries@@YAHPAD0PAVExtendedPDU_Service@@@Z 004c0780 f   total.obj
 0001:000bf960       ?CheckObject@MyUnknownStorage@@UAEGPAVDICOMDataObject@@PAVPDU_Service@@@Z 004c0960 f i total.obj
 0001:000c0590       ?VirtualServer2@@YAHPAUReadAheadThreadData@@H@Z 004c1590 f   total.obj
 0001:000c2590       ?RetrieveOn@@YAHPAVDICOMDataObject@@PAPAV1@PAPAVStandardStorage@@AAVRunTimeClassStorage@@PAVDICOMCommandObject@@PAV?$Array@PAVDICOMDataObject@@@@PAX@Z 004c3590 f   total.obj
 0001:000c3600       ?RetrieveOn@MyPatientRootRetrieve@@UAEHPAVDICOMDataObject@@PAPAV2@PAPAVStandardStorage@@@Z 004c4600 f   total.obj
 0001:000c3650       ?RetrieveOn@MyPatientRootRetrieveNKI@@UAEHPAVDICOMDataObject@@PAPAV2@PAPAVStandardStorage@@PAVDICOMCommandObject@@PAV?$Array@PAVDICOMDataObject@@@@PAX@Z 004c4650 f   total.obj
 0001:000c36a0       ?RetrieveOn@MyPatientRootRetrieveGeneric@@UAEHPAVDICOMDataObject@@PAPAV2@PAPAVStandardStorage@@PAVDICOMCommandObject@@PAV?$Array@PAVDICOMDataObject@@@@PAX@Z 004c46a0 f   total.obj
 0001:000c36f0       ?RetrieveOn@MyStudyRootRetrieve@@UAEHPAVDICOMDataObject@@PAPAV2@PAPAVStandardStorage@@@Z 004c46f0 f   total.obj
 0001:000c3740       ?RetrieveOn@MyStudyRootRetrieveNKI@@UAEHPAVDICOMDataObject@@PAPAV2@PAPAVStandardStorage@@PAVDICOMCommandObject@@PAV?$Array@PAVDICOMDataObject@@@@PAX@Z 004c4740 f   total.obj
 0001:000c3790       ?RetrieveOn@MyStudyRootRetrieveGeneric@@UAEHPAVDICOMDataObject@@PAPAV2@PAPAVStandardStorage@@PAVDICOMCommandObject@@PAV?$Array@PAVDICOMDataObject@@@@PAX@Z 004c4790 f   total.obj
 0001:000c37e0       ?RetrieveOn@MyPatientStudyOnlyRetrieve@@UAEHPAVDICOMDataObject@@PAPAV2@PAPAVStandardStorage@@@Z 004c47e0 f   total.obj
 0001:000c3830       ?RetrieveOn@MyPatientStudyOnlyRetrieveNKI@@UAEHPAVDICOMDataObject@@PAPAV2@PAPAVStandardStorage@@PAVDICOMCommandObject@@PAV?$Array@PAVDICOMDataObject@@@@PAX@Z 004c4830 f   total.obj
 0001:000c3880       ?RetrieveOn@MyPatientStudyOnlyRetrieveGeneric@@UAEHPAVDICOMDataObject@@PAPAV2@PAPAVStandardStorage@@PAVDICOMCommandObject@@PAV?$Array@PAVDICOMDataObject@@@@PAX@Z 004c4880 f   total.obj
 0001:000c38d0       ?TestCompress@@YAXPADPBDPAVExtendedPDU_Service@@@Z 004c48d0 f   total.obj
 0001:000c4280       ?TestForward@@YAXPADPBD0PAVExtendedPDU_Service@@@Z 004c5280 f   total.obj
 0001:000c49b0       ?ProcessMoveDevicePatient@@YAXPAD0@Z 004c59b0 f   total.obj
 0001:000c4d20       ?ProcessMoveDeviceSeries@@YAXPAD0@Z 004c5d20 f   total.obj
 0001:000c5090       ?MoveDataToDevice@@YAHPAD0@Z 004c6090 f   total.obj
 0001:000c5500       ?MoveSeriesToDevice@@YAHPAD0@Z 004c6500 f   total.obj
 0001:000c5970       ?Read@StandardRetrieveNKI@@QAEHPAVExtendedPDU_Service@@PAVDICOMCommandObject@@PAX@Z 004c6970 f   total.obj
 0001:000c6880       ?recompressFile@@YAHPAD0PAVExtendedPDU_Service@@@Z 004c7880 f   total.obj
 0001:000c6a30       ?AddImageFile@@YAHPAD0PAVExtendedPDU_Service@@@Z 004c7a30 f   total.obj
 0001:000c71d0       ?Read@PatientRootRetrieveNKI@@QAEHPAVExtendedPDU_Service@@PAVDICOMCommandObject@@PAX@Z 004c81d0 f i total.obj
 0001:000c71e0       ?Read@StudyRootRetrieveNKI@@QAEHPAVExtendedPDU_Service@@PAVDICOMCommandObject@@PAX@Z 004c81e0 f i total.obj
 0001:000c71f0       ?Read@PatientStudyOnlyRetrieveNKI@@QAEHPAVExtendedPDU_Service@@PAVDICOMCommandObject@@PAX@Z 004c81f0 f i total.obj
 0001:000c7200       ?Read@PatientRootRetrieveGeneric@@QAEHPAVExtendedPDU_Service@@PAVDICOMCommandObject@@PAX@Z 004c8200 f i total.obj
 0001:000c7210       ?Read@StudyRootRetrieveGeneric@@QAEHPAVExtendedPDU_Service@@PAVDICOMCommandObject@@PAX@Z 004c8210 f i total.obj
 0001:000c7220       ?Read@PatientStudyOnlyRetrieveGeneric@@QAEHPAVExtendedPDU_Service@@PAVDICOMCommandObject@@PAX@Z 004c8220 f i total.obj
 0001:000c7230       ?RecompressPatient@@YAXPAD00PAVExtendedPDU_Service@@@Z 004c8230 f   total.obj
 0001:000c78f0       ?SelectLRUForArchival@@YAHPADHPAVExtendedPDU_Service@@@Z 004c88f0 f   total.obj
 0001:000c7be0       ?LoadAndDeleteDir@@YAHPAD0PAVExtendedPDU_Service@@@Z 004c8be0 f   total.obj
 0001:000c7fc0       ?StartMonitorThread@@YAXPAD@Z 004c8fc0 f   total.obj
 0001:000c7ff0       ?ServerChild@StorageApp@@UAEHHI@Z 004c8ff0 f   total.obj
 0001:000d2780       ?ParseArgs@@YAHHQAPADPAVExtendedPDU_Service@@@Z 004d3780 f   total.obj
 0001:000d49b0       _main                      004d59b0 f   total.obj
 0001:000d53e0       _sqlite3_compileoption_get 004d63e0 f   sqlite3.obj
 0001:000d60e0       _sqlite3_mutex_alloc       004d70e0 f   sqlite3.obj
 0001:000d6120       _sqlite3_mutex_free        004d7120 f   sqlite3.obj
 0001:000d6140       _sqlite3_mutex_enter       004d7140 f   sqlite3.obj
 0001:000d6160       _sqlite3_mutex_try         004d7160 f   sqlite3.obj
 0001:000d6180       _sqlite3_mutex_leave       004d7180 f   sqlite3.obj
 0001:000d62b0       _sqlite3_release_memory    004d72b0 f   sqlite3.obj
 0001:000d6380       _sqlite3_memory_alarm      004d7380 f   sqlite3.obj
 0001:000d6530       _sqlite3_free              004d7530 f   sqlite3.obj
 0001:000d6a10       _sqlite3_stricmp           004d7a10 f   sqlite3.obj
 0001:000d6a70       _sqlite3_strnicmp          004d7a70 f   sqlite3.obj
 0001:000d8210       _sqlite3_win32_write_debug 004d9210 f   sqlite3.obj
 0001:000d82c0       _sqlite3_win32_sleep       004d92c0 f   sqlite3.obj
 0001:000d85a0       _sqlite3_win32_mbcs_to_utf8 004d95a0 f   sqlite3.obj
 0001:000d85e0       _sqlite3_win32_utf8_to_mbcs 004d95e0 f   sqlite3.obj
 0001:000d9250       _sqlite3_os_end            004da250 f   sqlite3.obj
 0001:000dd520       _sqlite3_enable_shared_cache 004de520 f   sqlite3.obj
 0001:000de8a0       _sqlite3_backup_remaining  004df8a0 f   sqlite3.obj
 0001:000de8b0       _sqlite3_backup_pagecount  004df8b0 f   sqlite3.obj
 0001:000ded60       _sqlite3_sql               004dfd60 f   sqlite3.obj
 0001:000df900       _sqlite3_expired           004e0900 f   sqlite3.obj
 0001:000df920       _sqlite3_value_double      004e0920 f   sqlite3.obj
 0001:000df980       _sqlite3_value_int         004e0980 f   sqlite3.obj
 0001:000df990       _sqlite3_value_int64       004e0990 f   sqlite3.obj
 0001:000df9a0       _sqlite3_value_type        004e09a0 f   sqlite3.obj
 0001:000df9b0       _sqlite3_result_null       004e09b0 f   sqlite3.obj
 0001:000dfa10       _sqlite3_result_error_nomem 004e0a10 f   sqlite3.obj
 0001:000dfa80       _sqlite3_user_data         004e0a80 f   sqlite3.obj
 0001:000dfa90       _sqlite3_context_db_handle 004e0a90 f   sqlite3.obj
 0001:000dfaa0       _sqlite3_get_auxdata       004e0aa0 f   sqlite3.obj
 0001:000dfad0       _sqlite3_aggregate_count   004e0ad0 f   sqlite3.obj
 0001:000dfae0       _sqlite3_column_count      004e0ae0 f   sqlite3.obj
 0001:000dfb00       _sqlite3_data_count        004e0b00 f   sqlite3.obj
 0001:000dfba0       _sqlite3_bind_parameter_count 004e0ba0 f   sqlite3.obj
 0001:000dfbc0       _sqlite3_bind_parameter_name 004e0bc0 f   sqlite3.obj
 0001:000dfcd0       _sqlite3_bind_parameter_index 004e0cd0 f   sqlite3.obj
 0001:000dfd20       _sqlite3_db_handle         004e0d20 f   sqlite3.obj
 0001:000dfd40       _sqlite3_stmt_readonly     004e0d40 f   sqlite3.obj
 0001:000dfd60       _sqlite3_stmt_busy         004e0d60 f   sqlite3.obj
 0001:000dfd90       _sqlite3_next_stmt         004e0d90 f   sqlite3.obj
 0001:000dfde0       _sqlite3_stmt_status       004e0de0 f   sqlite3.obj
 0001:000dfee0       _sqlite3_value_numeric_type 004e0ee0 f   sqlite3.obj
 0001:000dff50       _sqlite3_blob_bytes        004e0f50 f   sqlite3.obj
 0001:000e1530       _sqlite3_set_authorizer    004e2530 f   sqlite3.obj
 0001:000e2c10       _sqlite3_enable_load_extension 004e3c10 f   sqlite3.obj
 0001:000e3730       _sqlite3_free_table        004e4730 f   sqlite3.obj
 0001:000e40d0       _sqlite3_vtab_on_conflict  004e50d0 f   sqlite3.obj
 0001:000e4fa0       _sqlite3_complete          004e5fa0 f   sqlite3.obj
 0001:000e5530       _sqlite3_libversion        004e6530 f   sqlite3.obj
 0001:000e5540       _sqlite3_sourceid          004e6540 f   sqlite3.obj
 0001:000e5550       _sqlite3_libversion_number 004e6550 f   sqlite3.obj
 0001:000e5560       _sqlite3_threadsafe        004e6560 f   sqlite3.obj
 0001:000e5570       _sqlite3_db_mutex          004e6570 f   sqlite3.obj
 0001:000e5580       _sqlite3_db_release_memory 004e6580 f   sqlite3.obj
 0001:000e57b0       _sqlite3_last_insert_rowid 004e67b0 f   sqlite3.obj
 0001:000e57c0       _sqlite3_changes           004e67c0 f   sqlite3.obj
 0001:000e57d0       _sqlite3_total_changes     004e67d0 f   sqlite3.obj
 0001:000e5ae0       _sqlite3_busy_handler      004e6ae0 f   sqlite3.obj
 0001:000e5b40       _sqlite3_progress_handler  004e6b40 f   sqlite3.obj
 0001:000e5bd0       _sqlite3_busy_timeout      004e6bd0 f   sqlite3.obj
 0001:000e5c60       _sqlite3_interrupt         004e6c60 f   sqlite3.obj
 0001:000e5c80       _sqlite3_trace             004e6c80 f   sqlite3.obj
 0001:000e5ce0       _sqlite3_profile           004e6ce0 f   sqlite3.obj
 0001:000e5d40       _sqlite3_commit_hook       004e6d40 f   sqlite3.obj
 0001:000e5da0       _sqlite3_update_hook       004e6da0 f   sqlite3.obj
 0001:000e5e00       _sqlite3_rollback_hook     004e6e00 f   sqlite3.obj
 0001:000e5e60       _sqlite3_wal_hook          004e6e60 f   sqlite3.obj
 0001:000e5ed0       _sqlite3_limit             004e6ed0 f   sqlite3.obj
 0001:000e5f10       _sqlite3_collation_needed  004e6f10 f   sqlite3.obj
 0001:000e5f70       _sqlite3_collation_needed16 004e6f70 f   sqlite3.obj
 0001:000e5fd0       _sqlite3_global_recover    004e6fd0 f   sqlite3.obj
 0001:000e5fe0       _sqlite3_get_autocommit    004e6fe0 f   sqlite3.obj
 0001:000e5ff0       _sqlite3_thread_cleanup    004e6ff0 f   sqlite3.obj
 0001:000e6000       _sqlite3_extended_result_codes 004e7000 f   sqlite3.obj
 0001:000e6050       _sqlite3_uri_parameter     004e7050 f   sqlite3.obj
 0001:000e6120       _sqlite3_uri_boolean       004e7120 f   sqlite3.obj
 0001:000e6170       _sqlite3_uri_int64         004e7170 f   sqlite3.obj
 0001:000e62b0       _sqlite3_db_filename       004e72b0 f   sqlite3.obj
 0001:000e62f0       _sqlite3_db_readonly       004e72f0 f   sqlite3.obj
 0001:000e6320       _sqlite3_compileoption_used 004e7320 f   sqlite3.obj
 0001:000e6600       _sqlite3_vfs_find          004e7600 f   sqlite3.obj
 0001:000e66c0       _sqlite3_vfs_register      004e76c0 f   sqlite3.obj
 0001:000e6760       _sqlite3_vfs_unregister    004e7760 f   sqlite3.obj
 0001:000e6e20       _sqlite3_realloc           004e7e20 f   sqlite3.obj
 0001:000e73f0       _sqlite3_randomness        004e83f0 f   sqlite3.obj
 0001:000ebeb0       _sqlite3_clear_bindings    004eceb0 f   sqlite3.obj
 0001:000ec080       _sqlite3_result_double     004ed080 f   sqlite3.obj
 0001:000ec0b0       _sqlite3_result_int        004ed0b0 f   sqlite3.obj
 0001:000ec110       _sqlite3_result_int64      004ed110 f   sqlite3.obj
 0001:000ec170       _sqlite3_result_zeroblob   004ed170 f   sqlite3.obj
 0001:000ec270       _sqlite3_aggregate_context 004ed270 f   sqlite3.obj
 0001:000ec310       _sqlite3_set_auxdata       004ed310 f   sqlite3.obj
 0001:000ec5c0       _sqlite3_transfer_bindings 004ed5c0 f   sqlite3.obj
 0001:000f1810       _sqlite3_db_config         004f2810 f   sqlite3.obj
 0001:000f18e0       _sqlite3_sleep             004f28e0 f   sqlite3.obj
 0001:000f1930       _sqlite3_file_control      004f2930 f   sqlite3.obj
 0001:000f2f90       _sqlite3_vmprintf          004f3f90 f   sqlite3.obj
 0001:000f3050       _sqlite3_mprintf           004f4050 f   sqlite3.obj
 0001:000f3080       _sqlite3_vsnprintf         004f4080 f   sqlite3.obj
 0001:000f3100       _sqlite3_snprintf          004f4100 f   sqlite3.obj
 0001:000f3230       _sqlite3_log               004f4230 f   sqlite3.obj
 0001:000f6230       _sqlite3_result_value      004f7230 f   sqlite3.obj
 0001:000fd660       _sqlite3_status            004fe660 f   sqlite3.obj
 0001:000fd6d0       _sqlite3_db_status         004fe6d0 f   sqlite3.obj
 0001:000fddf0       _sqlite3_memory_used       004fedf0 f   sqlite3.obj
 0001:000fde00       _sqlite3_memory_highwater  004fee00 f   sqlite3.obj
 0001:000feb60       _sqlite3_os_init           004ffb60 f   sqlite3.obj
 0001:00100990       _sqlite3_value_bytes       00501990 f   sqlite3.obj
 0001:001009d0       _sqlite3_value_bytes16     005019d0 f   sqlite3.obj
 0001:00100a10       _sqlite3_value_text        00501a10 f   sqlite3.obj
 0001:00100a30       _sqlite3_value_text16      00501a30 f   sqlite3.obj
 0001:00100a50       _sqlite3_value_text16be    00501a50 f   sqlite3.obj
 0001:00100a70       _sqlite3_value_text16le    00501a70 f   sqlite3.obj
 0001:00100a90       _sqlite3_result_error      00501a90 f   sqlite3.obj
 0001:00100ac0       _sqlite3_result_error16    00501ac0 f   sqlite3.obj
 0001:00100af0       _sqlite3_result_error_code 00501af0 f   sqlite3.obj
 0001:00100b70       _sqlite3_result_error_toobig 00501b70 f   sqlite3.obj
 0001:00100cb0       _sqlite3_column_name       00501cb0 f   sqlite3.obj
 0001:00100d30       _sqlite3_column_name16     00501d30 f   sqlite3.obj
 0001:00100db0       _sqlite3_column_decltype   00501db0 f   sqlite3.obj
 0001:00100e30       _sqlite3_column_decltype16 00501e30 f   sqlite3.obj
 0001:00107cc0       _sqlite3_config            00508cc0 f   sqlite3.obj
 0001:00107f70       _sqlite3_errmsg            00508f70 f   sqlite3.obj
 0001:00108080       _sqlite3_errmsg16          00509080 f   sqlite3.obj
 0001:00108180       _sqlite3_errcode           00509180 f   sqlite3.obj
 0001:00108200       _sqlite3_extended_errcode  00509200 f   sqlite3.obj
 0001:0010ad20       _sqlite3_value_blob        0050bd20 f   sqlite3.obj
 0001:0010adb0       _sqlite3_result_blob       0050bdb0 f   sqlite3.obj
 0001:0010ae10       _sqlite3_result_text       0050be10 f   sqlite3.obj
 0001:0010ae70       _sqlite3_result_text16     0050be70 f   sqlite3.obj
 0001:0010aed0       _sqlite3_result_text16be   0050bed0 f   sqlite3.obj
 0001:0010af30       _sqlite3_result_text16le   0050bf30 f   sqlite3.obj
 0001:0010b1b0       _sqlite3_bind_double       0050c1b0 f   sqlite3.obj
 0001:0010b220       _sqlite3_bind_int64        0050c220 f   sqlite3.obj
 0001:0010b2d0       _sqlite3_bind_null         0050c2d0 f   sqlite3.obj
 0001:0010b310       _sqlite3_bind_zeroblob     0050c310 f   sqlite3.obj
 0001:00113c20       _sqlite3_vtab_config       00514c20 f   sqlite3.obj
 0001:001172b0       _sqlite3_column_blob       005182b0 f   sqlite3.obj
 0001:00117340       _sqlite3_column_bytes      00518340 f   sqlite3.obj
 0001:001173b0       _sqlite3_column_bytes16    005183b0 f   sqlite3.obj
 0001:00117420       _sqlite3_column_double     00518420 f   sqlite3.obj
 0001:001174d0       _sqlite3_column_int        005184d0 f   sqlite3.obj
 0001:00117500       _sqlite3_column_int64      00518500 f   sqlite3.obj
 0001:00117540       _sqlite3_column_text       00518540 f   sqlite3.obj
 0001:00117580       _sqlite3_column_value      00518580 f   sqlite3.obj
 0001:001175d0       _sqlite3_column_text16     005185d0 f   sqlite3.obj
 0001:00117610       _sqlite3_column_type       00518610 f   sqlite3.obj
 0001:00117780       _sqlite3_bind_blob         00518780 f   sqlite3.obj
 0001:001177b0       _sqlite3_bind_int          005187b0 f   sqlite3.obj
 0001:001177d0       _sqlite3_bind_text         005187d0 f   sqlite3.obj
 0001:00117800       _sqlite3_bind_text16       00518800 f   sqlite3.obj
 0001:00117830       _sqlite3_bind_value        00518830 f   sqlite3.obj
 0001:0011a6e0       _sqlite3_load_extension    0051b6e0 f   sqlite3.obj
 0001:0011b2c0       _sqlite3_create_module     0051c2c0 f   sqlite3.obj
 0001:0011b2f0       _sqlite3_create_module_v2  0051c2f0 f   sqlite3.obj
 0001:0011c360       _sqlite3_create_function_v2 0051d360 f   sqlite3.obj
 0001:0011c480       _sqlite3_create_function16 0051d480 f   sqlite3.obj
 0001:0011c550       _sqlite3_overload_function 0051d550 f   sqlite3.obj
 0001:0011c640       _sqlite3_create_collation  0051d640 f   sqlite3.obj
 0001:0011c6e0       _sqlite3_create_collation_v2 0051d6e0 f   sqlite3.obj
 0001:0011c780       _sqlite3_create_collation16 0051d780 f   sqlite3.obj
 0001:0011d0d0       _sqlite3_initialize        0051e0d0 f   sqlite3.obj
 0001:0011d350       _sqlite3_create_function   0051e350 f   sqlite3.obj
 0001:0011d390       _sqlite3_soft_heap_limit64 0051e390 f   sqlite3.obj
 0001:0011d450       _sqlite3_soft_heap_limit   0051e450 f   sqlite3.obj
 0001:0011d470       _sqlite3_malloc            0051e470 f   sqlite3.obj
 0001:00124680       _sqlite3_auto_extension    00525680 f   sqlite3.obj
 0001:00124770       _sqlite3_reset_auto_extension 00525770 f   sqlite3.obj
 0001:001249b0       _sqlite3_complete16        005259b0 f   sqlite3.obj
 0001:00124ab0       _sqlite3_shutdown          00525ab0 f   sqlite3.obj
 0001:00125240       _sqlite3_test_control      00526240 f   sqlite3.obj
 0001:0012ab80       _sqlite3_backup_step       0052bb80 f   sqlite3.obj
 0001:0012b7b0       _sqlite3_backup_finish     0052c7b0 f   sqlite3.obj
 0001:0012fd30       _sqlite3_close             00530d30 f   sqlite3.obj
 0001:001305d0       _sqlite3_wal_checkpoint_v2 005315d0 f   sqlite3.obj
 0001:001306f0       _sqlite3_wal_checkpoint    005316f0 f   sqlite3.obj
 0001:00130810       _sqlite3_backup_init       00531810 f   sqlite3.obj
 0001:00131160       _sqlite3_finalize          00532160 f   sqlite3.obj
 0001:00131220       _sqlite3_reset             00532220 f   sqlite3.obj
 0001:00131300       _sqlite3_blob_close        00532300 f   sqlite3.obj
 0001:001314c0       _sqlite3_blob_read         005324c0 f   sqlite3.obj
 0001:001314f0       _sqlite3_blob_write        005324f0 f   sqlite3.obj
 0001:00134920       _sqlite3_prepare           00535920 f   sqlite3.obj
 0001:00134950       _sqlite3_prepare_v2        00535950 f   sqlite3.obj
 0001:00134ad0       _sqlite3_prepare16         00535ad0 f   sqlite3.obj
 0001:00134b00       _sqlite3_prepare16_v2      00535b00 f   sqlite3.obj
 0001:001352e0       _sqlite3_wal_autocheckpoint 005362e0 f   sqlite3.obj
 0001:001358e0       _sqlite3_open              005368e0 f   sqlite3.obj
 0001:00135900       _sqlite3_open_v2           00536900 f   sqlite3.obj
 0001:00135910       _sqlite3_open16            00536910 f   sqlite3.obj
 0001:001415c0       _sqlite3_step              005425c0 f   sqlite3.obj
 0001:00141ac0       _sqlite3_blob_reopen       00542ac0 f   sqlite3.obj
 0001:00142290       _sqlite3_exec              00543290 f   sqlite3.obj
 0001:001431a0       _sqlite3_get_table         005441a0 f   sqlite3.obj
 0001:00149600       _sqlite3_blob_open         0054a600 f   sqlite3.obj
 0001:00157c20       _sqlite3_declare_vtab      00558c20 f   sqlite3.obj
 0001:00157f40       _lua_xmove                 00558f40 f   lua.obj
 0001:00157fb0       _lua_setlevel              00558fb0 f   lua.obj
 0001:00157fd0       _lua_atpanic               00558fd0 f   lua.obj
 0001:00157ff0       _lua_gettop                00558ff0 f   lua.obj
 0001:00158010       _lua_settop                00559010 f   lua.obj
 0001:00158070       _lua_remove                00559070 f   lua.obj
 0001:001580d0       _lua_insert                005590d0 f   lua.obj
 0001:00158140       _lua_pushvalue             00559140 f   lua.obj
 0001:00158180       _lua_type                  00559180 f   lua.obj
 0001:001581b0       _lua_typename              005591b0 f   lua.obj
 0001:001581d0       _lua_iscfunction           005591d0 f   lua.obj
 0001:00158200       _lua_isstring              00559200 f   lua.obj
 0001:00158240       _lua_isuserdata            00559240 f   lua.obj
 0001:00158270       _lua_toboolean             00559270 f   lua.obj
 0001:001582a0       _lua_tocfunction           005592a0 f   lua.obj
 0001:001582d0       _lua_touserdata            005592d0 f   lua.obj
 0001:00158300       _lua_tothread              00559300 f   lua.obj
 0001:00158320       _lua_topointer             00559320 f   lua.obj
 0001:001583b0       _lua_pushnil               005593b0 f   lua.obj
 0001:001583d0       _lua_pushnumber            005593d0 f   lua.obj
 0001:001583f0       _lua_pushinteger           005593f0 f   lua.obj
 0001:00158410       _lua_pushboolean           00559410 f   lua.obj
 0001:00158440       _lua_pushlightuserdata     00559440 f   lua.obj
 0001:00158460       _lua_pushthread            00559460 f   lua.obj
 0001:00158490       _lua_getmetatable          00559490 f   lua.obj
 0001:00158500       _lua_getfenv               00559500 f   lua.obj
 0001:00158580       _lua_status                00559580 f   lua.obj
 0001:00158590       _lua_getallocf             00559590 f   lua.obj
 0001:001585c0       _lua_setallocf             005595c0 f   lua.obj
 0001:00158640       _lua_getupvalue            00559640 f   lua.obj
 0001:00158c60       _lua_sethook               00559c60 f   lua.obj
 0001:00158ca0       _lua_gethook               00559ca0 f   lua.obj
 0001:00158cb0       _lua_gethookmask           00559cb0 f   lua.obj
 0001:00158cc0       _lua_gethookcount          00559cc0 f   lua.obj
 0001:00158cd0       _lua_getstack              00559cd0 f   lua.obj
 0001:0015cff0       _luaL_buffinit             0055dff0 f   lua.obj
 0001:0015daf0       _lua_checkstack            0055eaf0 f   lua.obj
 0001:0015db80       _lua_isnumber              0055eb80 f   lua.obj
 0001:0015dbe0       _lua_rawequal              0055ebe0 f   lua.obj
 0001:0015dc90       _lua_equal                 0055ec90 f   lua.obj
 0001:0015dd00       _lua_lessthan              0055ed00 f   lua.obj
 0001:0015dd60       _lua_tonumber              0055ed60 f   lua.obj
 0001:0015ddd0       _lua_tointeger             0055edd0 f   lua.obj
 0001:0015de50       _lua_objlen                0055ee50 f   lua.obj
 0001:0015dee0       _lua_rawget                0055eee0 f   lua.obj
 0001:0015df20       _lua_rawgeti               0055ef20 f   lua.obj
 0001:0015df70       _lua_rawset                0055ef70 f   lua.obj
 0001:0015e060       _lua_setmetatable          0055f060 f   lua.obj
 0001:0015e140       _lua_setfenv               0055f140 f   lua.obj
 0001:0015e210       _lua_setupvalue            0055f210 f   lua.obj
 0001:0015e3c0       _lua_getlocal              0055f3c0 f   lua.obj
 0001:0015e430       _lua_setlocal              0055f430 f   lua.obj
 0001:00160480       _lua_gettable              00561480 f   lua.obj
 0001:001604b0       _lua_settable              005614b0 f   lua.obj
 0001:001604f0       _lua_rawseti               005614f0 f   lua.obj
 0001:001605b0       _lua_dump                  005615b0 f   lua.obj
 0001:001608c0       _lua_getinfo               005618c0 f   lua.obj
 0001:001610f0       _luaL_ref                  005620f0 f   lua.obj
 0001:00161210       _luaL_unref                00562210 f   lua.obj
 0001:001612e0       _lua_tolstring             005622e0 f   lua.obj
 0001:00161370       _lua_createtable           00562370 f   lua.obj
 0001:001613c0       _lua_gc                    005623c0 f   lua.obj
 0001:001638d0       _lua_call                  005648d0 f   lua.obj
 0001:001640b0       _lua_pushvfstring          005650b0 f   lua.obj
 0001:001640f0       _lua_pushfstring           005650f0 f   lua.obj
 0001:00164130       _lua_error                 00565130 f   lua.obj
 0001:00164230       _lua_yield                 00565230 f   lua.obj
 0001:00164ae0       _lua_replace               00565ae0 f   lua.obj
 0001:00164bc0       _lua_pushlstring           00565bc0 f   lua.obj
 0001:00164c10       _lua_pushstring            00565c10 f   lua.obj
 0001:00164c90       _lua_getfield              00565c90 f   lua.obj
 0001:00164d10       _lua_setfield              00565d10 f   lua.obj
 0001:00164d90       _lua_next                  00565d90 f   lua.obj
 0001:00164dd0       _lua_concat                00565dd0 f   lua.obj
 0001:001650e0       _lua_resume                005660e0 f   lua.obj
 0001:001658b0       _lua_newstate              005668b0 f   lua.obj
 0001:00165a30       _lua_close                 00566a30 f   lua.obj
 0001:00166630       _luaL_where                00567630 f   lua.obj
 0001:00166710       _luaL_error                00567710 f   lua.obj
 0001:001667a0       _luaL_newmetatable         005677a0 f   lua.obj
 0001:001668f0       _luaL_checkstack           005678f0 f   lua.obj
 0001:00166930       _luaL_getmetafield         00567930 f   lua.obj
 0001:00166a10       _luaL_callmeta             00567a10 f   lua.obj
 0001:00166ab0       _luaL_findtable            00567ab0 f   lua.obj
 0001:00166fd0       _luaL_prepbuffer           00567fd0 f   lua.obj
 0001:00167000       _luaL_addlstring           00568000 f   lua.obj
 0001:001670c0       _luaL_addstring            005680c0 f   lua.obj
 0001:00167100       _luaL_pushresult           00568100 f   lua.obj
 0001:00167130       _luaL_addvalue             00568130 f   lua.obj
 0001:001671b0       _luaL_newstate             005681b0 f   lua.obj
 0001:0016a740       _lua_newthread             0056b740 f   lua.obj
 0001:0016a780       _lua_pcall                 0056b780 f   lua.obj
 0001:0016a810       _lua_newuserdata           0056b810 f   lua.obj
 0001:0016d460       _luaL_argerror             0056e460 f   lua.obj
 0001:0016d5b0       _luaL_typerror             0056e5b0 f   lua.obj
 0001:0016d690       _luaL_checkudata           0056e690 f   lua.obj
 0001:0016d770       _luaL_checktype            0056e770 f   lua.obj
 0001:0016d7b0       _luaL_checkany             0056e7b0 f   lua.obj
 0001:0016d7f0       _luaL_checklstring         0056e7f0 f   lua.obj
 0001:0016d880       _luaL_optlstring           0056e880 f   lua.obj
 0001:0016d900       _luaL_checknumber          0056e900 f   lua.obj
 0001:0016da20       _luaL_optnumber            0056ea20 f   lua.obj
 0001:0016da70       _luaL_checkinteger         0056ea70 f   lua.obj
 0001:0016dba0       _luaL_optinteger           0056eba0 f   lua.obj
 0001:0016dbf0       _luaL_gsub                 0056ebf0 f   lua.obj
 0001:00176e80       _lua_pushcclosure          00577e80 f   lua.obj
 0001:00176fc0       _lua_cpcall                00577fc0 f   lua.obj
 0001:00177dd0       _luaL_checkoption          00578dd0 f   lua.obj
 0001:00177eb0       _luaL_openlib              00578eb0 f   lua.obj
 0001:001788d0       _luaL_openlibs             005798d0 f   lua.obj
 0001:0017d2e0       _luaL_register             0057e2e0 f   lua.obj
 0001:0017d5f0       _luaopen_base              0057e5f0 f   lua.obj
 0001:0017d620       _luaopen_debug             0057e620 f   lua.obj
 0001:0017d6f0       _luaopen_io                0057e6f0 f   lua.obj
 0001:0017d8e0       _luaopen_math              0057e8e0 f   lua.obj
 0001:0017da50       _luaopen_package           0057ea50 f   lua.obj
 0001:0017df80       _luaopen_os                0057ef80 f   lua.obj
 0001:0017dfb0       _luaopen_string            0057efb0 f   lua.obj
 0001:0017e070       _luaopen_table             0057f070 f   lua.obj
 0001:0017fc00       _lua_load                  00580c00 f   lua.obj
 0001:0017fc60       _luaL_loadfile             00580c60 f   lua.obj
 0001:0017ff30       _luaL_loadbuffer           00580f30 f   lua.obj
 0001:0017ffa0       _luaL_loadstring           00580fa0 f   lua.obj
 0001:00180ae0       _jas_clrspc_numchans       00581ae0 f   jasperlib.obj
 0001:00180b30       _jas_setdbglevel           00581b30 f   jasperlib.obj
 0001:00180b50       _jas_getdbglevel           00581b50 f   jasperlib.obj
 0001:00180b60       _jas_eprintf               00581b60 f   jasperlib.obj
 0001:00180b90       _jas_memdump               00581b90 f   jasperlib.obj
 0001:00180c70       _jas_getopt                00581c70 f   jasperlib.obj
 0001:00180df0       _jas_iccprof_gethdr        00581df0 f   jasperlib.obj
 0001:00180e10       _jas_iccprof_sethdr        00581e10 f   jasperlib.obj
 0001:00180ec0       _jas_iccattrval_clone      00581ec0 f   jasperlib.obj
 0001:00181360       _jas_image_getfmt          00582360 f   jasperlib.obj
 0001:001813b0       _jas_image_fmtfromname     005823b0 f   jasperlib.obj
 0001:00181450       _jas_image_rawsize         00582450 f   jasperlib.obj
 0001:00181530       _jas_image_lookupfmtbyid   00582530 f   jasperlib.obj
 0001:00181560       _jas_image_lookupfmtbyname 00582560 f   jasperlib.obj
 0001:00181760       _jas_image_getcmptbytype   00582760 f   jasperlib.obj
 0001:001817a0       _jas_image_ishomosamp      005827a0 f   jasperlib.obj
 0001:00181970       _jas_malloc                00582970 f   jasperlib.obj
 0001:00181980       _jas_free                  00582980 f   jasperlib.obj
 0001:00181990       _jas_realloc               00582990 f   jasperlib.obj
 0001:001819a0       _jas_calloc                005829a0 f   jasperlib.obj
 0001:001819e0       _jas_matrix_destroy        005829e0 f   jasperlib.obj
 0001:00181a60       _jas_matrix_bindsub        00582a60 f   jasperlib.obj
 0001:00181b60       _jas_matrix_cmp            00582b60 f   jasperlib.obj
 0001:00181bf0       _jas_matrix_divpow2        00582bf0 f   jasperlib.obj
 0001:00181c90       _jas_matrix_clip           00582c90 f   jasperlib.obj
 0001:00181d30       _jas_matrix_asr            00582d30 f   jasperlib.obj
 0001:00181dd0       _jas_matrix_asl            00582dd0 f   jasperlib.obj
 0001:00181e40       _jas_matrix_resize         00582e40 f   jasperlib.obj
 0001:00181eb0       _jas_matrix_setall         00582eb0 f   jasperlib.obj
 0001:00181f10       _jas_seq2d_output          00582f10 f   jasperlib.obj
 0001:001821b0       _jas_stream_ungetc         005831b0 f   jasperlib.obj
 0001:001821f0       _jas_stream_isseekable     005831f0 f   jasperlib.obj
 0001:00182240       _jas_stream_tell           00583240 f   jasperlib.obj
 0001:001823a0       _jas_stream_fillbuf        005833a0 f   jasperlib.obj
 0001:001824b0       _jas_stream_flushbuf       005834b0 f   jasperlib.obj
 0001:00182690       _jas_stream_copy           00583690 f   jasperlib.obj
 0001:001827a0       _jas_stream_setrwcount     005837a0 f   jasperlib.obj
 0001:001827c0       _jas_stream_display        005837c0 f   jasperlib.obj
 0001:00182da0       _jas_strdup                00583da0 f   jasperlib.obj
 0001:00182df0       _jas_tmr_start             00583df0 f   jasperlib.obj
 0001:00182e00       _jas_tmr_stop              00583e00 f   jasperlib.obj
 0001:00182e10       _jas_tmr_get               00583e10 f   jasperlib.obj
 0001:00182e20       _jas_tvparser_destroy      00583e20 f   jasperlib.obj
 0001:00182e50       _jas_tvparser_next         00583e50 f   jasperlib.obj
 0001:00182fd0       _jas_tvparser_gettag       00583fd0 f   jasperlib.obj
 0001:00182fe0       _jas_tvparser_getval       00583fe0 f   jasperlib.obj
 0001:00182ff0       _jas_taginfos_lookup       00583ff0 f   jasperlib.obj
 0001:00183050       _jas_taginfo_nonull        00584050 f   jasperlib.obj
 0001:00183070       _jas_getversion            00584070 f   jasperlib.obj
 0001:00183080       _bmp_info_create           00584080 f   jasperlib.obj
 0001:001830a0       _bmp_info_destroy          005840a0 f   jasperlib.obj
 0001:001830d0       _bmp_isgrayscalepal        005840d0 f   jasperlib.obj
 0001:00183110       _bmp_numcmpts              00584110 f   jasperlib.obj
 0001:00183780       _jp2_box_destroy           00584780 f   jasperlib.obj
 0001:00183f80       _jp2_boxinfolookup         00584f80 f   jasperlib.obj
 0001:00184380       _jp2_cdef_lookup           00585380 f   jasperlib.obj
 0001:001845f0       _jpc_bitstream_putbit_func 005855f0 f   jasperlib.obj
 0001:00184710       _jpc_bitstream_putbits     00585710 f   jasperlib.obj
 0001:001848d0       _jpc_bitstream_fillbuf     005858d0 f   jasperlib.obj
 0001:00184a30       _jpc_bitstream_needalign   00585a30 f   jasperlib.obj
 0001:00184ab0       _jpc_bitstream_pending     00585ab0 f   jasperlib.obj
 0001:00184ad0       _jpc_bitstream_outalign    00585ad0 f   jasperlib.obj
 0001:00184c70       _jpc_cstate_create         00585c70 f   jasperlib.obj
 0001:00184c90       _jpc_cstate_destroy        00585c90 f   jasperlib.obj
 0001:00184ca0       _jpc_ms_destroy            00585ca0 f   jasperlib.obj
 0001:00185440       _jpc_getuint8              00586440 f   jasperlib.obj
 0001:001854b0       _jpc_putuint8              005864b0 f   jasperlib.obj
 0001:00185520       _jpc_getuint16             00586520 f   jasperlib.obj
 0001:00185600       _jpc_putuint16             00586600 f   jasperlib.obj
 0001:001856f0       _jpc_getuint32             005866f0 f   jasperlib.obj
 0001:00185870       _jpc_putuint32             00586870 f   jasperlib.obj
 0001:00185a60       _jpc_getdata               00586a60 f   jasperlib.obj
 0001:00185a80       _jpc_putdata               00586a80 f   jasperlib.obj
 0001:00186230       _jpc_seglist_insert        00587230 f   jasperlib.obj
 0001:00186280       _jpc_seglist_remove        00587280 f   jasperlib.obj
 0001:001862d0       _jpc_seg_alloc             005872d0 f   jasperlib.obj
 0001:001865d0       _jpc_streamlist_create     005875d0 f   jasperlib.obj
 0001:00186640       _jpc_streamlist_insert     00587640 f   jasperlib.obj
 0001:001866d0       _jpc_streamlist_remove     005876d0 f   jasperlib.obj
 0001:00186720       _jpc_streamlist_get        00587720 f   jasperlib.obj
 0001:00186770       _jpc_streamlist_numstreams 00587770 f   jasperlib.obj
 0001:00186780       _jpc_ppxstab_create        00587780 f   jasperlib.obj
 0001:001867b0       _jpc_ppxstab_grow          005877b0 f   jasperlib.obj
 0001:00186820       _jpc_ppxstab_insert        00587820 f   jasperlib.obj
 0001:00186900       _jpc_ppxstabent_create     00587900 f   jasperlib.obj
 0001:00186930       _jpc_ppxstabent_destroy    00587930 f   jasperlib.obj
 0001:00186960       _jpc_enc_cp_destroy        00587960 f   jasperlib.obj
 0001:001869a0       _ratestrtosize             005879a0 f   jasperlib.obj
 0001:00186a90       _dump_passes               00587a90 f   jasperlib.obj
 0001:00186b10       _jpc_quantize              00587b10 f   jasperlib.obj
 0001:00186be0       _calcrdslopes              00587be0 f   jasperlib.obj
 0001:00186d50       _dump_layeringinfo         00587d50 f   jasperlib.obj
 0001:00186f60       _jpc_enc_dump              00587f60 f   jasperlib.obj
 0001:00187190       _jpc_floorlog2             00588190 f   jasperlib.obj
 0001:001871d0       _jpc_firstone              005881d0 f   jasperlib.obj
 0001:00187210       _jpc_rct                   00588210 f   jasperlib.obj
 0001:00187310       _jpc_irct                  00588310 f   jasperlib.obj
 0001:00187410       _jpc_ict                   00588410 f   jasperlib.obj
 0001:001876b0       _jpc_iict                  005886b0 f   jasperlib.obj
 0001:001878a0       _jpc_mct_getsynweight      005888a0 f   jasperlib.obj
 0001:00187950       _jpc_mqdec_destroy         00588950 f   jasperlib.obj
 0001:00187980       _jpc_mqdec_setinput        00588980 f   jasperlib.obj
 0001:00187990       _jpc_mqdec_setctxs         00588990 f   jasperlib.obj
 0001:00187a00       _jpc_mqdec_setctx          00588a00 f   jasperlib.obj
 0001:00187a30       _jpc_mqdec_mpsexchrenormd  00588a30 f   jasperlib.obj
 0001:00187b50       _jpc_mqdec_lpsexchrenormd  00588b50 f   jasperlib.obj
 0001:00187d30       _jpc_mqdec_dump            00588d30 f   jasperlib.obj
 0001:00187db0       _jpc_mqenc_destroy         00588db0 f   jasperlib.obj
 0001:00187de0       _jpc_mqenc_init            00588de0 f   jasperlib.obj
 0001:00187e20       _jpc_mqenc_setctxs         00588e20 f   jasperlib.obj
 0001:00187e90       _jpc_mqenc_getstate        00588e90 f   jasperlib.obj
 0001:00187ec0       _jpc_mqenc_codemps2        00588ec0 f   jasperlib.obj
 0001:00188210       _jpc_mqenc_codelps         00589210 f   jasperlib.obj
 0001:00188580       _jpc_mqenc_dump            00589580 f   jasperlib.obj
 0001:001885e0       _jpc_qmfb_split_row        005895e0 f   jasperlib.obj
 0001:00188760       _jpc_qmfb_split_col        00589760 f   jasperlib.obj
 0001:00188930       _jpc_qmfb_split_colgrp     00589930 f   jasperlib.obj
 0001:00188bb0       _jpc_qmfb_split_colres     00589bb0 f   jasperlib.obj
 0001:00188e40       _jpc_qmfb_join_row         00589e40 f   jasperlib.obj
 0001:00188f80       _jpc_qmfb_join_col         00589f80 f   jasperlib.obj
 0001:00189110       _jpc_qmfb_join_colgrp      0058a110 f   jasperlib.obj
 0001:00189320       _jpc_qmfb_join_colres      0058a320 f   jasperlib.obj
 0001:00189560       _jpc_ft_fwdlift_row        0058a560 f   jasperlib.obj
 0001:00189670       _jpc_ft_fwdlift_col        0058a670 f   jasperlib.obj
 0001:001897b0       _jpc_ft_fwdlift_colgrp     0058a7b0 f   jasperlib.obj
 0001:00189c30       _jpc_ft_fwdlift_colres     0058ac30 f   jasperlib.obj
 0001:00189e90       _jpc_ft_invlift_row        0058ae90 f   jasperlib.obj
 0001:00189fb0       _jpc_ft_invlift_col        0058afb0 f   jasperlib.obj
 0001:0018a100       _jpc_ft_invlift_colgrp     0058b100 f   jasperlib.obj
 0001:0018a570       _jpc_ft_invlift_colres     0058b570 f   jasperlib.obj
 0001:0018a7e0       _jpc_ft_analyze            0058b7e0 f   jasperlib.obj
 0001:0018a900       _jpc_ft_synthesize         0058b900 f   jasperlib.obj
 0001:0018aa20       _jpc_ns_fwdlift_row        0058ba20 f   jasperlib.obj
 0001:0018ada0       _jpc_ns_fwdlift_colgrp     0058bda0 f   jasperlib.obj
 0001:0018bbb0       _jpc_ns_fwdlift_colres     0058cbb0 f   jasperlib.obj
 0001:0018c210       _jpc_ns_fwdlift_col        0058d210 f   jasperlib.obj
 0001:0018c5f0       _jpc_ns_invlift_row        0058d5f0 f   jasperlib.obj
 0001:0018c980       _jpc_ns_invlift_colgrp     0058d980 f   jasperlib.obj
 0001:0018d7c0       _jpc_ns_invlift_colres     0058e7c0 f   jasperlib.obj
 0001:0018de10       _jpc_ns_invlift_col        0058ee10 f   jasperlib.obj
 0001:0018e1f0       _jpc_ns_analyze            0058f1f0 f   jasperlib.obj
 0001:0018e310       _jpc_ns_synthesize         0058f310 f   jasperlib.obj
 0001:0018e430       _JPC_PASSTYPE              0058f430 f   jasperlib.obj
 0001:0018e4a0       _JPC_NOMINALGAIN           0058f4a0 f   jasperlib.obj
 0001:0018e530       _JPC_SEGTYPE               0058f530 f   jasperlib.obj
 0001:0018e580       _JPC_SEGPASSCNT            0058f580 f   jasperlib.obj
 0001:0018e620       _JPC_ISTERMINATED          0058f620 f   jasperlib.obj
 0001:0018e680       _jpc_getsignmsedec_func    0058f680 f   jasperlib.obj
 0001:0018e730       _jpc_getzcctxno            0058f730 f   jasperlib.obj
 0001:0018e8c0       _jpc_getspb                0058f8c0 f   jasperlib.obj
 0001:0018e9b0       _jpc_getscctxno            0058f9b0 f   jasperlib.obj
 0001:0018eb20       _jpc_getmagctxno           0058fb20 f   jasperlib.obj
 0001:0018eb70       _jpc_initctxs              0058fb70 f   jasperlib.obj
 0001:0018ebd0       _jpc_initmqctxs            0058fbd0 f   jasperlib.obj
 0001:0018ebe0       _jpc_pow2i                 0058fbe0 f   jasperlib.obj
 0001:00193ae0       _jpc_pchglist_create       00594ae0 f   jasperlib.obj
 0001:00193b10       _jpc_pchglist_insert       00594b10 f   jasperlib.obj
 0001:00193ba0       _jpc_pchglist_remove       00594ba0 f   jasperlib.obj
 0001:00193c00       _jpc_pchg_copy             00594c00 f   jasperlib.obj
 0001:00193c30       _jpc_pchg_destroy          00594c30 f   jasperlib.obj
 0001:00193c40       _jpc_pchglist_get          00594c40 f   jasperlib.obj
 0001:00193c60       _jpc_pchglist_numpchgs     00594c60 f   jasperlib.obj
 0001:00193c70       _jpc_pi_init               00594c70 f   jasperlib.obj
 0001:00193ec0       _jpc_dec_lookahead         00594ec0 f   jasperlib.obj
 0001:00194350       _jpc_tagtree_destroy       00595350 f   jasperlib.obj
 0001:001943b0       _jpc_tagtree_copy          005953b0 f   jasperlib.obj
 0001:00194430       _jpc_tagtree_reset         00595430 f   jasperlib.obj
 0001:00194460       _jpc_tagtree_setvalue      00595460 f   jasperlib.obj
 0001:001944b0       _jpc_tagtree_getleaf       005954b0 f   jasperlib.obj
 0001:001944d0       _jpc_tagtree_encode        005954d0 f   jasperlib.obj
 0001:00194830       _jpc_tagtree_decode        00595830 f   jasperlib.obj
 0001:00194970       _jpc_tagtree_dump          00595970 f   jasperlib.obj
 0001:001949c0       _jpc_cod_gettsfb           005959c0 f   jasperlib.obj
 0001:00194a10       _jpc_tsfb_destroy          00595a10 f   jasperlib.obj
 0001:00194a20       _jpc_tsfb_analyze2         00595a20 f   jasperlib.obj
 0001:00194ae0       _jpc_tsfb_analyze          00595ae0 f   jasperlib.obj
 0001:00194b50       _jpc_tsfb_synthesize2      00595b50 f   jasperlib.obj
 0001:00194c10       _jpc_tsfb_synthesize       00595c10 f   jasperlib.obj
 0001:00194c80       _jpc_tsfb_getbands2        00595c80 f   jasperlib.obj
 0001:00194f60       _jpc_atoaf                 00595f60 f   jasperlib.obj
 0001:00195130       _jpc_seq_norm              00596130 f   jasperlib.obj
 0001:00195240       _jpg_decode                00596240 f   jasperlib.obj
 0001:00195280       _jpg_encode                00596280 f   jasperlib.obj
 0001:00195580       _pgx_dumphdr               00596580 f   jasperlib.obj
 0001:00195c90       _pnm_type                  00596c90 f   jasperlib.obj
 0001:00195cf0       _pnm_fmt                   00596cf0 f   jasperlib.obj
 0001:00195d50       _pnm_maxvaltodepth         00596d50 f   jasperlib.obj
 0001:00196560       _jas_cmxform_apply         00597560 f   jasperlib.obj
 0001:00197340       _jas_iccprof_getattr       00598340 f   jasperlib.obj
 0001:00197460       _jas_iccattrval_destroy    00598460 f   jasperlib.obj
 0001:001974a0       _jas_iccattrval_dump       005984a0 f   jasperlib.obj
 0001:00197b50       _jas_image_create0         00598b50 f   jasperlib.obj
 0001:00197be0       _jas_image_encode          00598be0 f   jasperlib.obj
 0001:00197c40       _jas_image_clearfmts       00598c40 f   jasperlib.obj
 0001:00197cc0       _jas_image_addfmt          00598cc0 f   jasperlib.obj
 0001:00197de0       _jas_image_strtofmt        00598de0 f   jasperlib.obj
 0001:00197e00       _jas_image_fmttostr        00598e00 f   jasperlib.obj
 0001:00198210       _jas_cleanup               00599210 f   jasperlib.obj
 0001:00198220       _jas_matrix_create         00599220 f   jasperlib.obj
 0001:00198330       _jas_matrix_copy           00599330 f   jasperlib.obj
 0001:00198390       _jas_seq2d_bindsub         00599390 f   jasperlib.obj
 0001:001983e0       _jas_stream_fopen          005993e0 f   jasperlib.obj
 0001:00198590       _jas_stream_freopen        00599590 f   jasperlib.obj
 0001:00198680       _jas_stream_tmpfile        00599680 f   jasperlib.obj
 0001:00198830       _jas_stream_fdopen         00599830 f   jasperlib.obj
 0001:00198990       _jas_stream_getc_func      00599990 f   jasperlib.obj
 0001:00198a20       _jas_stream_putc_func      00599a20 f   jasperlib.obj
 0001:00198ac0       _jas_stream_read           00599ac0 f   jasperlib.obj
 0001:00198c20       _jas_stream_write          00599c20 f   jasperlib.obj
 0001:00198da0       _jas_stream_puts           00599da0 f   jasperlib.obj
 0001:00198f20       _jas_stream_gets           00599f20 f   jasperlib.obj
 0001:001990c0       _jas_stream_gobble         0059a0c0 f   jasperlib.obj
 0001:00199140       _jas_stream_pad            0059a140 f   jasperlib.obj
 0001:001991e0       _jas_stream_flush          0059a1e0 f   jasperlib.obj
 0001:00199200       _jas_tvparser_create       0059a200 f   jasperlib.obj
 0001:00199260       _bmp_validate              0059a260 f   jasperlib.obj
 0001:00199b00       _jp2_box_create            0059ab00 f   jasperlib.obj
 0001:00199b80       _jp2_box_dump              0059ab80 f   jasperlib.obj
 0001:0019a820       _jp2_validate              0059b820 f   jasperlib.obj
 0001:0019a900       _jpc_bitstream_sopen       0059b900 f   jasperlib.obj
 0001:0019aa90       _jpc_bitstream_getbit_func 0059ba90 f   jasperlib.obj
 0001:0019aae0       _jpc_bitstream_getbits     0059bae0 f   jasperlib.obj
 0001:0019ace0       _jpc_bitstream_inalign     0059bce0 f   jasperlib.obj
 0001:0019ada0       _jpc_ms_create             0059bda0 f   jasperlib.obj
 0001:0019ae10       _jpc_ms_dump               0059be10 f   jasperlib.obj
 0001:0019c410       _jpc_validate              0059d410 f   jasperlib.obj
 0001:0019cdd0       _jpc_ppxstab_destroy       0059ddd0 f   jasperlib.obj
 0001:0019ce40       _jpc_pptstabwrite          0059de40 f   jasperlib.obj
 0001:0019deb0       _jpc_mqdec_init            0059eeb0 f   jasperlib.obj
 0001:0019df60       _jpc_mqdec_getbit_func     0059ef60 f   jasperlib.obj
 0001:0019dfd0       _jpc_mqenc_create          0059efd0 f   jasperlib.obj
 0001:0019e070       _jpc_mqenc_putbit_func     0059f070 f   jasperlib.obj
 0001:0019e410       _jpc_mqenc_flush           0059f410 f   jasperlib.obj
 0001:0019f190       _jpc_initluts              005a0190 f   jasperlib.obj
 0001:001a1430       _jpc_pi_next               005a2430 f   jasperlib.obj
 0001:001a1520       _jpc_pi_create0            005a2520 f   jasperlib.obj
 0001:001a1590       _jpc_pi_addpchg            005a2590 f   jasperlib.obj
 0001:001a1610       _jpc_pchglist_destroy      005a2610 f   jasperlib.obj
 0001:001a1770       _jpc_save_t2state          005a2770 f   jasperlib.obj
 0001:001a19d0       _jpc_restore_t2state       005a29d0 f   jasperlib.obj
 0001:001a1c30       _jpc_tagtree_create        005a2c30 f   jasperlib.obj
 0001:001a1e50       _jpc_tsfb_getbands         005a2e50 f   jasperlib.obj
 0001:001a1f50       _jpg_validate              005a2f50 f   jasperlib.obj
 0001:001a1fe0       _mif_validate              005a2fe0 f   jasperlib.obj
 0001:001a25c0       _pgx_validate              005a35c0 f   jasperlib.obj
 0001:001a27e0       _pnm_validate              005a37e0 f   jasperlib.obj
 0001:001a2ec0       _ras_validate              005a3ec0 f   jasperlib.obj
 0001:001a3760       _jas_iccattrtab_dump       005a4760 f   jasperlib.obj
 0001:001a3a30       _jas_iccattrval_create     005a4a30 f   jasperlib.obj
 0001:001a3ad0       _jas_iccattrval_allowmodify 005a4ad0 f   jasperlib.obj
 0001:001a54e0       _jas_seq2d_create          005a64e0 f   jasperlib.obj
 0001:001a5560       _jas_seq2d_copy            005a6560 f   jasperlib.obj
 0001:001a5640       _jas_seq2d_input           005a6640 f   jasperlib.obj
 0001:001a57c0       _jas_stream_close          005a67c0 f   jasperlib.obj
 0001:001a5830       _jas_stream_printf         005a6830 f   jasperlib.obj
 0001:001a58b0       _jas_stream_seek           005a68b0 f   jasperlib.obj
 0001:001a5960       _jas_stream_length         005a6960 f   jasperlib.obj
 0001:001a5a30       _jpc_bitstream_align       005a6a30 f   jasperlib.obj
 0001:001a6480       _jpc_seg_destroy           005a7480 f   jasperlib.obj
 0001:001a64b0       _jpc_streamlist_destroy    005a74b0 f   jasperlib.obj
 0001:001a66e0       _jpc_mqdec_create          005a76e0 f   jasperlib.obj
 0001:001a6790       _getthebyte                005a7790 f   jasperlib.obj
 0001:001a6930       _jpc_pi_destroy            005a7930 f   jasperlib.obj
 0001:001a6a10       _jpc_pchglist_copy         005a7a10 f   jasperlib.obj
 0001:001a6b70       _jpc_dec_pi_create         005a7b70 f   jasperlib.obj
 0001:001a6ec0       _jpc_enc_pi_create         005a7ec0 f   jasperlib.obj
 0001:001a7230       _jpc_seq_upsample          005a8230 f   jasperlib.obj
 0001:001a7330       _jpc_seq_conv              005a8330 f   jasperlib.obj
 0001:001a7e70       _jas_iccprof_dump          005a8e70 f   jasperlib.obj
 0001:001a82a0       _jas_iccprof_setattr       005a92a0 f   jasperlib.obj
 0001:001a8420       _jas_image_readcmpt        005a9420 f   jasperlib.obj
 0001:001a86a0       _jas_image_writecmpt       005a96a0 f   jasperlib.obj
 0001:001a8920       _jas_image_delcmpt         005a9920 f   jasperlib.obj
 0001:001a89a0       _jas_image_readcmptsample  005a99a0 f   jasperlib.obj
 0001:001a8b10       _jas_image_writecmptsample 005a9b10 f   jasperlib.obj
 0001:001a8ca0       _jas_image_readcmpt2       005a9ca0 f   jasperlib.obj
 0001:001a8df0       _jas_image_writecmpt2      005a9df0 f   jasperlib.obj
 0001:001a8f40       _jas_stream_memopen        005a9f40 f   jasperlib.obj
 0001:001a9100       _jas_stream_rewind         005aa100 f   jasperlib.obj
 0001:001a9d80       _jp2_box_get               005aad80 f   jasperlib.obj
 0001:001a9f60       _jp2_box_put               005aaf60 f   jasperlib.obj
 0001:001aa100       _jpc_bitstream_close       005ab100 f   jasperlib.obj
 0001:001aa190       _jpc_getms                 005ab190 f   jasperlib.obj
 0001:001aa430       _jpc_putms                 005ab430 f   jasperlib.obj
 0001:001abb20       _jpc_ppmstabtostreams      005acb20 f   jasperlib.obj
 0001:001acf70       _jpc_enc_enccblk           005adf70 f   jasperlib.obj
 0001:001ae310       _jpc_dec_decodepkts        005af310 f   jasperlib.obj
 0001:001ae5c0       _jpc_enc_encpkt            005af5c0 f   jasperlib.obj
 0001:001af220       _jpc_init_t2state          005b0220 f   jasperlib.obj
 0001:001b0f90       _jas_cmxform_destroy       005b1f90 f   jasperlib.obj
 0001:001b1830       _jas_iccprof_destroy       005b2830 f   jasperlib.obj
 0001:001b1870       _jas_iccprof_save          005b2870 f   jasperlib.obj
 0001:001b1f60       _jas_image_addcmpt         005b2f60 f   jasperlib.obj
 0001:001b2050       _jas_image_copycmpt        005b3050 f   jasperlib.obj
 0001:001b20f0       _jas_image_dump            005b30f0 f   jasperlib.obj
 0001:001b22c0       _jas_image_depalettize     005b32c0 f   jasperlib.obj
 0001:001b23f0       _jas_image_sampcmpt        005b33f0 f   jasperlib.obj
 0001:001b2990       _bmp_encode                005b3990 f   jasperlib.obj
 0001:001b2db0       _rateallocate              005b3db0 f   jasperlib.obj
 0001:001b3f10       _jpc_dec_decodecblks       005b4f10 f   jasperlib.obj
 0001:001b4070       _jpc_enc_enccblks          005b5070 f   jasperlib.obj
 0001:001b43b0       _jpc_enc_encpkts           005b53b0 f   jasperlib.obj
 0001:001b44d0       _pgx_encode                005b54d0 f   jasperlib.obj
 0001:001b4610       _pnm_encode                005b5610 f   jasperlib.obj
 0001:001b4a80       _jas_cmprof_destroy        005b5a80 f   jasperlib.obj
 0001:001b4b00       _jas_cmxform_create        005b5b00 f   jasperlib.obj
 0001:001b4f90       _jas_iccprof_copy          005b5f90 f   jasperlib.obj
 0001:001b5020       _jas_iccprof_load          005b6020 f   jasperlib.obj
 0001:001b52e0       _jas_iccprof_createfrombuf 005b62e0 f   jasperlib.obj
 0001:001b5330       _jas_iccprof_createfromclrspc 005b6330 f   jasperlib.obj
 0001:001b53b0       _jas_image_destroy         005b63b0 f   jasperlib.obj
 0001:001b5d00       _jpc_enc_encodetiledata    005b6d00 f   jasperlib.obj
 0001:001b60a0       _mif_encode                005b70a0 f   jasperlib.obj
 0001:001b63c0       _pgx_decode                005b73c0 f   jasperlib.obj
 0001:001b64d0       _ras_encode                005b74d0 f   jasperlib.obj
 0001:001b67f0       _jas_cmprof_createfromiccprof 005b77f0 f   jasperlib.obj
 0001:001b6a40       _jas_cmprof_copy           005b7a40 f   jasperlib.obj
 0001:001b6b50       _jas_iccprof_createfromcmprof 005b7b50 f   jasperlib.obj
 0001:001b6b70       _jas_image_create          005b7b70 f   jasperlib.obj
 0001:001b6d70       _jas_image_copy            005b7d70 f   jasperlib.obj
 0001:001b6e50       _jas_image_chclrspc        005b7e50 f   jasperlib.obj
 0001:001b76c0       _bmp_decode                005b86c0 f   jasperlib.obj
 0001:001b7a30       _jpc_decode                005b8a30 f   jasperlib.obj
 0001:001b8390       _pnm_decode                005b9390 f   jasperlib.obj
 0001:001b8530       _ras_decode                005b9530 f   jasperlib.obj
 0001:001b8780       _jas_cmprof_createfromclrspc 005b9780 f   jasperlib.obj
 0001:001b8840       _jas_image_decode          005b9840 f   jasperlib.obj
 0001:001b8900       _jp2_decode                005b9900 f   jasperlib.obj
 0001:001b9380       _jpc_enc_tile_destroy      005ba380 f   jasperlib.obj
 0001:001b97c0       _mif_decode                005ba7c0 f   jasperlib.obj
 0001:001b9b40       _jpc_enc_destroy           005bab40 f   jasperlib.obj
 0001:001b9be0       _jpc_enc_tile_create       005babe0 f   jasperlib.obj
 0001:001b9f50       _jpc_enc_create            005baf50 f   jasperlib.obj
 0001:001bb370       _jpc_encode                005bc370 f   jasperlib.obj
 0001:001bb4c0       _jp2_encode                005bc4c0 f   jasperlib.obj
 0001:001bbd20       _jas_init                  005bcd20 f   jasperlib.obj
 0001:001bbf7c       _SQLFreeEnv@4              005bcf7c f   odbc32:ODBC32.dll
 0001:001bbf82       _SQLFreeConnect@4          005bcf82 f   odbc32:ODBC32.dll
 0001:001bbf88       _SQLDisconnect@4           005bcf88 f   odbc32:ODBC32.dll
 0001:001bbf8e       _SQLFreeStmt@8             005bcf8e f   odbc32:ODBC32.dll
 0001:001bbf94       _SQLError@32               005bcf94 f   odbc32:ODBC32.dll
 0001:001bbf9a       _SQLExecDirect@12          005bcf9a f   odbc32:ODBC32.dll
 0001:001bbfa0       _SQLAllocStmt@8            005bcfa0 f   odbc32:ODBC32.dll
 0001:001bbfa6       _SQLConnect@28             005bcfa6 f   odbc32:ODBC32.dll
 0001:001bbfac       _SQLAllocConnect@8         005bcfac f   odbc32:ODBC32.dll
 0001:001bbfb2       _SQLAllocEnv@4             005bcfb2 f   odbc32:ODBC32.dll
 0001:001bbfb8       _SQLTables@36              005bcfb8 f   odbc32:ODBC32.dll
 0001:001bbfbe       _SQLBindCol@24             005bcfbe f   odbc32:ODBC32.dll
 0001:001bbfc4       _SQLFetch@4                005bcfc4 f   odbc32:ODBC32.dll
 0001:001bbfd0       _SQLInstallDriver@20       005bcfd0 f   odbccp32:funcload.obj
 0001:001bbff0       _SQLInstallDriverManager@12 005bcff0 f   odbccp32:funcload.obj
 0001:001bc010       _SQLGetInstalledDrivers@12 005bd010 f   odbccp32:funcload.obj
 0001:001bc030       _SQLGetAvailableDrivers@16 005bd030 f   odbccp32:funcload.obj
 0001:001bc050       _SQLConfigDataSource@16    005bd050 f   odbccp32:funcload.obj
 0001:001bc070       _SQLRemoveDefaultDataSource@0 005bd070 f   odbccp32:funcload.obj
 0001:001bc090       _SQLWriteDSNToIni@8        005bd090 f   odbccp32:funcload.obj
 0001:001bc0b0       _SQLRemoveDSNFromIni@4     005bd0b0 f   odbccp32:funcload.obj
 0001:001bc0d0       _SQLInstallODBC@16         005bd0d0 f   odbccp32:funcload.obj
 0001:001bc0f0       _SQLManageDataSources@4    005bd0f0 f   odbccp32:funcload.obj
 0001:001bc110       _SQLCreateDataSource@8     005bd110 f   odbccp32:funcload.obj
 0001:001bc130       _SQLGetTranslator@32       005bd130 f   odbccp32:funcload.obj
 0001:001bc150       _SQLValidDSN@4             005bd150 f   odbccp32:funcload.obj
 0001:001bc170       _SQLWritePrivateProfileString@16 005bd170 f   odbccp32:funcload.obj
 0001:001bc190       _SQLGetPrivateProfileString@24 005bd190 f   odbccp32:funcload.obj
 0001:001bc1b0       _SQLRemoveDriverManager@4  005bd1b0 f   odbccp32:funcload.obj
 0001:001bc1d0       _SQLInstallTranslator@32   005bd1d0 f   odbccp32:funcload.obj
 0001:001bc1f0       _SQLRemoveTranslator@8     005bd1f0 f   odbccp32:funcload.obj
 0001:001bc210       _SQLRemoveDriver@12        005bd210 f   odbccp32:funcload.obj
 0001:001bc230       _SQLConfigDriver@28        005bd230 f   odbccp32:funcload.obj
 0001:001bc250       _SQLInstallerError@20      005bd250 f   odbccp32:funcload.obj
 0001:001bc270       _SQLPostInstallerError@8   005bd270 f   odbccp32:funcload.obj
 0001:001bc290       _SQLReadFileDSN@24         005bd290 f   odbccp32:funcload.obj
 0001:001bc2b0       _SQLWriteFileDSN@16        005bd2b0 f   odbccp32:funcload.obj
 0001:001bc2d0       _SQLInstallDriverEx@28     005bd2d0 f   odbccp32:funcload.obj
 0001:001bc2f0       _SQLGetConfigMode@4        005bd2f0 f   odbccp32:funcload.obj
 0001:001bc310       _SQLSetConfigMode@4        005bd310 f   odbccp32:funcload.obj
 0001:001bc330       _SQLInstallTranslatorEx@28 005bd330 f   odbccp32:funcload.obj
 0001:001bc350       _SQLInstallDriverW@20      005bd350 f   odbccp32:funcload.obj
 0001:001bc370       _SQLInstallDriverManagerW@12 005bd370 f   odbccp32:funcload.obj
 0001:001bc390       _SQLGetInstalledDriversW@12 005bd390 f   odbccp32:funcload.obj
 0001:001bc3b0       _SQLGetAvailableDriversW@16 005bd3b0 f   odbccp32:funcload.obj
 0001:001bc3d0       _SQLConfigDataSourceW@16   005bd3d0 f   odbccp32:funcload.obj
 0001:001bc3f0       _SQLWriteDSNToIniW@8       005bd3f0 f   odbccp32:funcload.obj
 0001:001bc410       _SQLRemoveDSNFromIniW@4    005bd410 f   odbccp32:funcload.obj
 0001:001bc430       _SQLInstallODBCW@16        005bd430 f   odbccp32:funcload.obj
 0001:001bc450       _SQLCreateDataSourceW@8    005bd450 f   odbccp32:funcload.obj
 0001:001bc470       _SQLGetTranslatorW@32      005bd470 f   odbccp32:funcload.obj
 0001:001bc490       _SQLValidDSNW@4            005bd490 f   odbccp32:funcload.obj
 0001:001bc4b0       _SQLWritePrivateProfileStringW@16 005bd4b0 f   odbccp32:funcload.obj
 0001:001bc4d0       _SQLGetPrivateProfileStringW@24 005bd4d0 f   odbccp32:funcload.obj
 0001:001bc4f0       _SQLInstallTranslatorW@32  005bd4f0 f   odbccp32:funcload.obj
 0001:001bc510       _SQLRemoveTranslatorW@8    005bd510 f   odbccp32:funcload.obj
 0001:001bc530       _SQLRemoveDriverW@12       005bd530 f   odbccp32:funcload.obj
 0001:001bc550       _SQLConfigDriverW@28       005bd550 f   odbccp32:funcload.obj
 0001:001bc570       _SQLInstallerErrorW@20     005bd570 f   odbccp32:funcload.obj
 0001:001bc590       _SQLPostInstallerErrorW@8  005bd590 f   odbccp32:funcload.obj
 0001:001bc5b0       _SQLReadFileDSNW@24        005bd5b0 f   odbccp32:funcload.obj
 0001:001bc5d0       _SQLWriteFileDSNW@16       005bd5d0 f   odbccp32:funcload.obj
 0001:001bc5f0       _SQLInstallDriverExW@28    005bd5f0 f   odbccp32:funcload.obj
 0001:001bc610       _SQLInstallTranslatorExW@28 005bd610 f   odbccp32:funcload.obj
 0001:001bc6a0       _StringCchPrintfA          005bd6a0 f i odbccp32:dllload.obj
 0001:001bc780       _ODBC___GetSetupProc@4     005bd780 f   odbccp32:dllload.obj
 0001:001bc958       _WSAStartup@8              005bd958 f   wsock32:WSOCK32.dll
 0001:001bc95e       _WSACleanup@0              005bd95e f   wsock32:WSOCK32.dll
 0001:001bc964       _closesocket@4             005bd964 f   wsock32:WSOCK32.dll
 0001:001bc96a       _shutdown@8                005bd96a f   wsock32:WSOCK32.dll
 0001:001bc970       _inet_addr@4               005bd970 f   wsock32:WSOCK32.dll
 0001:001bc976       _gethostbyname@4           005bd976 f   wsock32:WSOCK32.dll
 0001:001bc97c       _htons@4                   005bd97c f   wsock32:WSOCK32.dll
 0001:001bc982       _getservbyname@8           005bd982 f   wsock32:WSOCK32.dll
 0001:001bc988       _accept@12                 005bd988 f   wsock32:WSOCK32.dll
 0001:001bc98e       _connect@12                005bd98e f   wsock32:WSOCK32.dll
 0001:001bc994       _setsockopt@20             005bd994 f   wsock32:WSOCK32.dll
 0001:001bc99a       _socket@12                 005bd99a f   wsock32:WSOCK32.dll
 0001:001bc9a0       _select@20                 005bd9a0 f   wsock32:WSOCK32.dll
 0001:001bc9a6       _send@16                   005bd9a6 f   wsock32:WSOCK32.dll
 0001:001bc9ac       _recv@16                   005bd9ac f   wsock32:WSOCK32.dll
 0001:001bc9b2       _WSAGetLastError@0         005bd9b2 f   wsock32:WSOCK32.dll
 0001:001bc9b8       _bind@12                   005bd9b8 f   wsock32:WSOCK32.dll
 0001:001bc9be       _listen@8                  005bd9be f   wsock32:WSOCK32.dll
 0001:001bc9c4       _inet_ntoa@4               005bd9c4 f   wsock32:WSOCK32.dll
 0001:001bc9ca       _MessageBoxA@16            005bd9ca f   user32:USER32.dll
 0001:001bc9d0       _LoadStringA@16            005bd9d0 f   user32:USER32.dll
 0001:001bc9d6       _Sleep@4                   005bd9d6 f   kernel32:KERNEL32.dll
 0001:001bc9dc       _LeaveCriticalSection@4    005bd9dc f   kernel32:KERNEL32.dll
 0001:001bc9e2       _EnterCriticalSection@4    005bd9e2 f   kernel32:KERNEL32.dll
 0001:001bc9e8       _InitializeCriticalSection@4 005bd9e8 f   kernel32:KERNEL32.dll
 0001:001bc9ee       _GetProcAddress@8          005bd9ee f   kernel32:KERNEL32.dll
 0001:001bc9f4       _LoadLibraryA@4            005bd9f4 f   kernel32:KERNEL32.dll
 0001:001bc9fa       _HeapUnlock@4              005bd9fa f   kernel32:KERNEL32.dll
 0001:001bca00       _HeapLock@4                005bda00 f   kernel32:KERNEL32.dll
 0001:001bca06       _GetProcessHeap@0          005bda06 f   kernel32:KERNEL32.dll
 0001:001bca0c       _ReadFile@20               005bda0c f   kernel32:KERNEL32.dll
 0001:001bca12       _CloseHandle@4             005bda12 f   kernel32:KERNEL32.dll
 0001:001bca18       _CreateFileA@28            005bda18 f   kernel32:KERNEL32.dll
 0001:001bca1e       _DeleteCriticalSection@4   005bda1e f   kernel32:KERNEL32.dll
 0001:001bca24       _CallNamedPipeA@28         005bda24 f   kernel32:KERNEL32.dll
 0001:001bca2a       _WaitNamedPipeA@8          005bda2a f   kernel32:KERNEL32.dll
 0001:001bca30       _GetDiskFreeSpaceExA@16    005bda30 f   kernel32:KERNEL32.dll
 0001:001bca36       _FindClose@4               005bda36 f   kernel32:KERNEL32.dll
 0001:001bca3c       _FindNextFileA@8           005bda3c f   kernel32:KERNEL32.dll
 0001:001bca42       _FindFirstFileA@8          005bda42 f   kernel32:KERNEL32.dll
 0001:001bca48       _GetTickCount@0            005bda48 f   kernel32:KERNEL32.dll
 0001:001bca4e       _CreateThread@24           005bda4e f   kernel32:KERNEL32.dll
 0001:001bca54       _WaitForSingleObject@8     005bda54 f   kernel32:KERNEL32.dll
 0001:001bca5a       _GetLastError@0            005bda5a f   kernel32:KERNEL32.dll
 0001:001bca60       _CreateProcessA@40         005bda60 f   kernel32:KERNEL32.dll
 0001:001bca66       _WinExec@8                 005bda66 f   kernel32:KERNEL32.dll
 0001:001bca6c       _UnmapViewOfFile@4         005bda6c f   kernel32:KERNEL32.dll
 0001:001bca72       _MapViewOfFile@20          005bda72 f   kernel32:KERNEL32.dll
 0001:001bca78       _OpenFileMappingA@12       005bda78 f   kernel32:KERNEL32.dll
 0001:001bca7e       _SetEnvironmentVariableA@8 005bda7e f   kernel32:KERNEL32.dll
 0001:001bca84       _OutputDebugStringW@4      005bda84 f   kernel32:KERNEL32.dll
 0001:001bca8a       _OutputDebugStringA@4      005bda8a f   kernel32:KERNEL32.dll
 0001:001bca90       _SetFilePointerEx@20       005bda90 f   kernel32:KERNEL32.dll
 0001:001bca96       _WaitForSingleObjectEx@12  005bda96 f   kernel32:KERNEL32.dll
 0001:001bca9c       _WriteFile@20              005bda9c f   kernel32:KERNEL32.dll
 0001:001bcaa2       _WideCharToMultiByte@32    005bdaa2 f   kernel32:KERNEL32.dll
 0001:001bcaa8       _UnlockFileEx@20           005bdaa8 f   kernel32:KERNEL32.dll
 0001:001bcaae       _UnlockFile@20             005bdaae f   kernel32:KERNEL32.dll
 0001:001bcab4       _SystemTimeToFileTime@8    005bdab4 f   kernel32:KERNEL32.dll
 0001:001bcaba       _SetFilePointer@16         005bdaba f   kernel32:KERNEL32.dll
 0001:001bcac0       _SetEndOfFile@4            005bdac0 f   kernel32:KERNEL32.dll
 0001:001bcac6       _QueryPerformanceCounter@4 005bdac6 f   kernel32:KERNEL32.dll
 0001:001bcacc       _MultiByteToWideChar@24    005bdacc f   kernel32:KERNEL32.dll
 0001:001bcad2       _LockFileEx@24             005bdad2 f   kernel32:KERNEL32.dll
 0001:001bcad8       _LockFile@20               005bdad8 f   kernel32:KERNEL32.dll
 0001:001bcade       _LocalFree@4               005bdade f   kernel32:KERNEL32.dll
 0001:001bcae4       _LoadLibraryW@4            005bdae4 f   kernel32:KERNEL32.dll
 0001:001bcaea       _HeapValidate@12           005bdaea f   kernel32:KERNEL32.dll
 0001:001bcaf0       _HeapSize@12               005bdaf0 f   kernel32:KERNEL32.dll
 0001:001bcaf6       _HeapReAlloc@16            005bdaf6 f   kernel32:KERNEL32.dll
 0001:001bcafc       _HeapFree@12               005bdafc f   kernel32:KERNEL32.dll
 0001:001bcb02       _HeapDestroy@4             005bdb02 f   kernel32:KERNEL32.dll
 0001:001bcb08       _HeapCreate@12             005bdb08 f   kernel32:KERNEL32.dll
 0001:001bcb0e       _HeapAlloc@12              005bdb0e f   kernel32:KERNEL32.dll
 0001:001bcb14       _GetVersionExA@4           005bdb14 f   kernel32:KERNEL32.dll
 0001:001bcb1a       _GetTempPathW@8            005bdb1a f   kernel32:KERNEL32.dll
 0001:001bcb20       _GetTempPathA@8            005bdb20 f   kernel32:KERNEL32.dll
 0001:001bcb26       _GetSystemTimeAsFileTime@4 005bdb26 f   kernel32:KERNEL32.dll
 0001:001bcb2c       _GetSystemTime@4           005bdb2c f   kernel32:KERNEL32.dll
 0001:001bcb32       _GetSystemInfo@4           005bdb32 f   kernel32:KERNEL32.dll
 0001:001bcb38       _GetFullPathNameW@16       005bdb38 f   kernel32:KERNEL32.dll
 0001:001bcb3e       _GetFullPathNameA@16       005bdb3e f   kernel32:KERNEL32.dll
 0001:001bcb44       _GetFileSize@8             005bdb44 f   kernel32:KERNEL32.dll
 0001:001bcb4a       _GetFileAttributesExW@12   005bdb4a f   kernel32:KERNEL32.dll
 0001:001bcb50       _GetFileAttributesW@4      005bdb50 f   kernel32:KERNEL32.dll
 0001:001bcb56       _GetFileAttributesA@4      005bdb56 f   kernel32:KERNEL32.dll
 0001:001bcb5c       _GetDiskFreeSpaceW@20      005bdb5c f   kernel32:KERNEL32.dll
 0001:001bcb62       _GetDiskFreeSpaceA@20      005bdb62 f   kernel32:KERNEL32.dll
 0001:001bcb68       _GetCurrentProcessId@0     005bdb68 f   kernel32:KERNEL32.dll
 0001:001bcb6e       _FreeLibrary@4             005bdb6e f   kernel32:KERNEL32.dll
 0001:001bcb74       _FormatMessageW@28         005bdb74 f   kernel32:KERNEL32.dll
 0001:001bcb7a       _FormatMessageA@28         005bdb7a f   kernel32:KERNEL32.dll
 0001:001bcb80       _FlushFileBuffers@4        005bdb80 f   kernel32:KERNEL32.dll
 0001:001bcb86       _DeleteFileW@4             005bdb86 f   kernel32:KERNEL32.dll
 0001:001bcb8c       _DeleteFileA@4             005bdb8c f   kernel32:KERNEL32.dll
 0001:001bcb92       _CreateMutexW@12           005bdb92 f   kernel32:KERNEL32.dll
 0001:001bcb98       _CreateFileMappingW@24     005bdb98 f   kernel32:KERNEL32.dll
 0001:001bcb9e       _CreateFileW@28            005bdb9e f   kernel32:KERNEL32.dll
 0001:001bcba4       _AreFileApisANSI@0         005bdba4 f   kernel32:KERNEL32.dll
 0001:001bcbaa       _InterlockedCompareExchange@12 005bdbaa f   kernel32:KERNEL32.dll
 0001:001bcbb0       _GetModuleFileNameA@12     005bdbb0 f   kernel32:KERNEL32.dll
 0001:001bcbb6       _GetSystemDirectoryA@8     005bdbb6 f   kernel32:KERNEL32.dll
 0001:001bcbbc       _GetModuleHandleA@4        005bdbbc f   kernel32:KERNEL32.dll
 0001:001bcbd0       _jpeg_CreateDecompress     005bdbd0 f   libjpeg:jdapimin.obj
 0001:001bccd0       _jpeg_destroy_decompress   005bdcd0 f   libjpeg:jdapimin.obj
 0001:001bcce0       _jpeg_abort_decompress     005bdce0 f   libjpeg:jdapimin.obj
 0001:001bcee0       _jpeg_consume_input        005bdee0 f   libjpeg:jdapimin.obj
 0001:001bcfb0       _jpeg_input_complete       005bdfb0 f   libjpeg:jdapimin.obj
 0001:001bd000       _jpeg_has_multiple_scans   005be000 f   libjpeg:jdapimin.obj
 0001:001bd050       _jpeg_finish_decompress    005be050 f   libjpeg:jdapimin.obj
 0001:001bd120       _jpeg_read_header          005be120 f   libjpeg:jdapimin.obj
 0001:001bd270       _jpeg_read_scanlines       005be270 f   libjpeg:jdapistd.obj
 0001:001bd4d0       _jpeg_read_raw_data        005be4d0 f   libjpeg:jdapistd.obj
 0001:001bd690       _jpeg_start_output         005be690 f   libjpeg:jdapistd.obj
 0001:001bd700       _jpeg_finish_output        005be700 f   libjpeg:jdapistd.obj
 0001:001bd7a0       _jpeg_start_decompress     005be7a0 f   libjpeg:jdapistd.obj
 0001:001bd950       _jpeg_calc_output_dimensions 005be950 f   libjpeg:jdmaster.obj
 0001:001bde70       _jpeg_new_colormap         005bee70 f   libjpeg:jdmaster.obj
 0001:001bdef0       _jinit_master_decompress   005beef0 f   libjpeg:jdmaster.obj
 0001:001bf9b0       _jpeg_resync_to_restart    005c09b0 f   libjpeg:jdmarker.obj
 0001:001bfbe0       _jinit_marker_reader       005c0be0 f   libjpeg:jdmarker.obj
 0001:001bfc80       _jpeg_save_markers         005c0c80 f   libjpeg:jdmarker.obj
 0001:001bfd60       _jpeg_set_marker_processor 005c0d60 f   libjpeg:jdmarker.obj
 0001:001bff40       _jpeg_std_error            005c0f40 f   libjpeg:jerror.obj
 0001:001bff90       _jpeg_CreateCompress       005c0f90 f   libjpeg:jcapimin.obj
 0001:001c0060       _jpeg_destroy_compress     005c1060 f   libjpeg:jcapimin.obj
 0001:001c0070       _jpeg_abort_compress       005c1070 f   libjpeg:jcapimin.obj
 0001:001c0080       _jpeg_suppress_tables      005c1080 f   libjpeg:jcapimin.obj
 0001:001c00f0       _jpeg_finish_compress      005c10f0 f   libjpeg:jcapimin.obj
 0001:001c0210       _jpeg_write_marker         005c1210 f   libjpeg:jcapimin.obj
 0001:001c0290       _jpeg_write_m_header       005c1290 f   libjpeg:jcapimin.obj
 0001:001c02f0       _jpeg_write_m_byte         005c12f0 f   libjpeg:jcapimin.obj
 0001:001c0310       _jpeg_write_tables         005c1310 f   libjpeg:jcapimin.obj
 0001:001c0370       _jpeg_start_compress       005c1370 f   libjpeg:jcapistd.obj
 0001:001c03f0       _jpeg_write_scanlines      005c13f0 f   libjpeg:jcapistd.obj
 0001:001c04c0       _jpeg_write_raw_data       005c14c0 f   libjpeg:jcapistd.obj
 0001:001c07a0       _jpeg_stdio_dest           005c17a0 f   libjpeg:jdatadst.obj
 0001:001c07e0       _jpeg_add_quant_table      005c17e0 f   libjpeg:jcparam.obj
 0001:001c09b0       _jpeg_set_linear_quality   005c19b0 f   libjpeg:jcparam.obj
 0001:001c09f0       _jpeg_quality_scaling      005c19f0 f   libjpeg:jcparam.obj
 0001:001c0a30       _jpeg_set_quality          005c1a30 f   libjpeg:jcparam.obj
 0001:001c0bc0       _jpeg_set_colorspace       005c1bc0 f   libjpeg:jcparam.obj
 0001:001c10d0       _jpeg_simple_progression   005c20d0 f   libjpeg:jcparam.obj
 0001:001c1340       _jpeg_default_colorspace   005c2340 f   libjpeg:jcparam.obj
 0001:001c13d0       _jpeg_simple_lossless      005c23d0 f   libjpeg:jcparam.obj
 0001:001c14b0       _jpeg_set_defaults         005c24b0 f   libjpeg:jcparam.obj
 0001:001c1b00       _jinit_input_controller    005c2b00 f   libjpeg:jdinput.obj
 0001:001c2840       _jinit_memory_mgr          005c3840 f   libjpeg:jmemmgr.obj
 0001:001c2980       _jpeg_abort                005c3980 f   libjpeg:jcomapi.obj
 0001:001c29d0       _jpeg_destroy              005c39d0 f   libjpeg:jcomapi.obj
 0001:001c2a00       _jpeg_alloc_quant_table    005c3a00 f   libjpeg:jcomapi.obj
 0001:001c2a20       _jpeg_alloc_huff_table     005c3a20 f   libjpeg:jcomapi.obj
 0001:001c2ff0       _jinit_d_main_controller   005c3ff0 f   libjpeg:jdmainct.obj
 0001:001c33a0       _jinit_d_post_controller   005c43a0 f   libjpeg:jdpostct.obj
 0001:001c3900       _jinit_upsampler           005c4900 f   libjpeg:jdsample.obj
 0001:001c4000       _jinit_color_deconverter   005c5000 f   libjpeg:jdcolor.obj
 0001:001c4770       _jinit_merged_upsampler    005c5770 f   libjpeg:jdmerge.obj
 0001:001c5fc0       _jinit_2pass_quantizer     005c6fc0 f   libjpeg:jquant2.obj
 0001:001c6e10       _jinit_1pass_quantizer     005c7e10 f   libjpeg:jquant1.obj
 0001:001c6ef0       _jdiv_round_up             005c7ef0 f   libjpeg:jutils.obj
 0001:001c6f00       _jround_up                 005c7f00 f   libjpeg:jutils.obj
 0001:001c6f20       _jcopy_sample_rows         005c7f20 f   libjpeg:jutils.obj
 0001:001c6f70       _jcopy_block_row           005c7f70 f   libjpeg:jutils.obj
 0001:001c6f90       _jzero_far                 005c7f90 f   libjpeg:jutils.obj
 0001:001c7ff0       _jinit_marker_writer       005c8ff0 f   libjpeg:jcmarker.obj
 0001:001c8050       _jinit_compress_master     005c9050 f   libjpeg:jcinit.obj
 0001:001c80b0       _jinit_c_codec             005c90b0 f   libjpeg:jcodec.obj
 0001:001c80d0       _jinit_d_codec             005c90d0 f   libjpeg:jcodec.obj
 0001:001c80f0       _jpeg_get_small            005c90f0 f   libjpeg:jmemnobs.obj
 0001:001c8100       _jpeg_free_small           005c9100 f   libjpeg:jmemnobs.obj
 0001:001c8110       _jpeg_get_large            005c9110 f   libjpeg:jmemnobs.obj
 0001:001c8120       _jpeg_free_large           005c9120 f   libjpeg:jmemnobs.obj
 0001:001c8130       _jpeg_mem_available        005c9130 f   libjpeg:jmemnobs.obj
 0001:001c8140       _jpeg_open_backing_store   005c9140 f   libjpeg:jmemnobs.obj
 0001:001c8160       _jpeg_mem_init             005c9160 f   libjpeg:jmemnobs.obj
 0001:001c8170       _jpeg_mem_term             005c9170 f   libjpeg:jmemnobs.obj
 0001:001c8280       _jinit_c_main_controller   005c9280 f   libjpeg:jcmainct.obj
 0001:001c88b0       _jinit_c_prep_controller   005c98b0 f   libjpeg:jcprepct.obj
 0001:001c91a0       _jinit_downsampler         005ca1a0 f   libjpeg:jcsample.obj
 0001:001c9d90       _jinit_color_converter     005cad90 f   libjpeg:jccolor.obj
 0001:001cabf0       _jinit_c_master_control    005cbbf0 f   libjpeg:jcmaster.obj
 0001:001cacf0       _jinit_lossy_c_codec       005cbcf0 f   libjpeg:jclossy.obj
 0001:001cadc0       _jinit_lossless_c_codec    005cbdc0 f   libjpeg:jclossls.obj
 0001:001cb0d0       _jinit_lossy_d_codec       005cc0d0 f   libjpeg:jdlossy.obj
 0001:001cb1c0       _jinit_lossless_d_codec    005cc1c0 f   libjpeg:jdlossls.obj
 0001:001cba10       _jinit_c_coef_controller   005cca10 f   libjpeg:jccoefct.obj
 0001:001cc660       _jinit_shuff_encoder       005cd660 f   libjpeg:jcshuff.obj
 0001:001cd4b0       _jinit_phuff_encoder       005ce4b0 f   libjpeg:jcphuff.obj
 0001:001ce160       _jinit_forward_dct         005cf160 f   libjpeg:jcdctmgr.obj
 0001:001ce930       _jinit_c_diff_controller   005cf930 f   libjpeg:jcdiffct.obj
 0001:001cf300       _jinit_lhuff_encoder       005d0300 f   libjpeg:jclhuff.obj
 0001:001cf9e0       _jinit_differencer         005d09e0 f   libjpeg:jcpred.obj
 0001:001cfaa0       _jinit_c_scaler            005d0aa0 f   libjpeg:jcscale.obj
 0001:001d0950       _jinit_d_coef_controller   005d1950 f   libjpeg:jdcoefct.obj
 0001:001d10d0       _jinit_shuff_decoder       005d20d0 f   libjpeg:jdshuff.obj
 0001:001d1dd0       _jinit_phuff_decoder       005d2dd0 f   libjpeg:jdphuff.obj
 0001:001d2190       _jinit_inverse_dct         005d3190 f   libjpeg:jddctmgr.obj
 0001:001d2950       _jinit_d_diff_controller   005d3950 f   libjpeg:jddiffct.obj
 0001:001d2bc0       _jinit_d_scaler            005d3bc0 f   libjpeg:jdscale.obj
 0001:001d2fe0       _jinit_undifferencer       005d3fe0 f   libjpeg:jdpred.obj
 0001:001d3410       _jinit_lhuff_decoder       005d4410 f   libjpeg:jdlhuff.obj
 0001:001d3460       _jpeg_make_c_derived_tbl   005d4460 f   libjpeg:jchuff.obj
 0001:001d3680       _jpeg_gen_optimal_table    005d4680 f   libjpeg:jchuff.obj
 0001:001d3950       _jpeg_fdct_islow           005d4950 f   libjpeg:jfdctint.obj
 0001:001d3ce0       _jpeg_fdct_ifast           005d4ce0 f   libjpeg:jfdctfst.obj
 0001:001d43b0       _jpeg_fdct_float           005d53b0 f   libjpeg:jfdctflt.obj
 0001:001d46e0       _jpeg_make_d_derived_tbl   005d56e0 f   libjpeg:jdhuff.obj
 0001:001d49c0       _jpeg_fill_bit_buffer      005d59c0 f   libjpeg:jdhuff.obj
 0001:001d4af0       _jpeg_huff_decode          005d5af0 f   libjpeg:jdhuff.obj
 0001:001d4bd0       _jpeg_idct_islow           005d5bd0 f   libjpeg:jidctint.obj
 0001:001d51c0       _jpeg_idct_ifast           005d61c0 f   libjpeg:jidctfst.obj
 0001:001d57a0       _jpeg_idct_float           005d67a0 f   libjpeg:jidctflt.obj
 0001:001d5db0       _jpeg_idct_4x4             005d6db0 f   libjpeg:jidctred.obj
 0001:001d6210       _jpeg_idct_2x2             005d7210 f   libjpeg:jidctred.obj
 0001:001d64b0       _jpeg_idct_1x1             005d74b0 f   libjpeg:jidctred.obj
 0001:001d64fd       __Tolower                  005d74fd f   libcpmt:_tolower.obj
 0001:001d660a       __Getctype                 005d760a f   libcpmt:_tolower.obj
 0001:001d666a       ??0_Init_locks@std@@QAE@XZ 005d766a f   libcpmt:xlock.obj
 0001:001d669b       ??1_Init_locks@std@@QAE@XZ 005d769b f   libcpmt:xlock.obj
 0001:001d66c4       ?_Init_locks_ctor@_Init_locks@std@@CAXPAV12@@Z 005d76c4 f   libcpmt:xlock.obj
 0001:001d66ed       ?_Init_locks_dtor@_Init_locks@std@@CAXPAV12@@Z 005d76ed f   libcpmt:xlock.obj
 0001:001d6716       ??0_Lockit@std@@QAE@XZ     005d7716 f   libcpmt:xlock.obj
 0001:001d672d       ??0_Lockit@std@@QAE@H@Z    005d772d f   libcpmt:xlock.obj
 0001:001d6755       ??1_Lockit@std@@QAE@XZ     005d7755 f   libcpmt:xlock.obj
 0001:001d676c       ?_Lockit_ctor@_Lockit@std@@CAXPAV12@@Z 005d776c f   libcpmt:xlock.obj
 0001:001d6778       ?_Lockit_ctor@_Lockit@std@@CAXPAV12@H@Z 005d7778 f   libcpmt:xlock.obj
 0001:001d6799       ?_Lockit_dtor@_Lockit@std@@CAXPAV12@@Z 005d7799 f   libcpmt:xlock.obj
 0001:001d67b4       ?_Lockit_ctor@_Lockit@std@@SAXH@Z 005d77b4 f   libcpmt:xlock.obj
 0001:001d67d0       ?_Lockit_dtor@_Lockit@std@@SAXH@Z 005d77d0 f   libcpmt:xlock.obj
 0001:001d67ec       ??2@YAPAXIPAX@Z            005d77ec f i libcpmt:locale0.obj
 0001:001d67f6       ??3@YAXPAX0@Z              005d77f6 f i libcpmt:locale0.obj
 0001:001d67f7       ??0locale@std@@QAE@W4_Uninitialized@1@@Z 005d77f7 f i libcpmt:locale0.obj
 0001:001d67fc       ??0locale@std@@AAE@PAV_Locimp@01@@Z 005d77fc f i libcpmt:locale0.obj
 0001:001d680c       ??0_Fac_node@std@@QAE@PAU01@PAVfacet@locale@1@@Z 005d780c f i libcpmt:locale0.obj
 0001:001d6822       ??1_Fac_node@std@@QAE@XZ   005d7822 f i libcpmt:locale0.obj
 0001:001d6837       ??_G_Fac_node@std@@QAEPAXI@Z 005d7837 f i libcpmt:locale0.obj
 0001:001d6858       ?_Facet_Register@facet@locale@std@@CAXPAV123@@Z 005d7858 f   libcpmt:locale0.obj
 0001:001d6882       __Deletegloballocale       005d7882 f   libcpmt:locale0.obj
 0001:001d68cf       ?_Getgloballocale@locale@std@@CAPAV_Locimp@12@XZ 005d78cf f   libcpmt:locale0.obj
 0001:001d68d5       ?_Setgloballocale@locale@std@@CAXPAX@Z 005d78d5 f   libcpmt:locale0.obj
 0001:001d68ff       ?_Locimp_dtor@_Locimp@locale@std@@CAXPAV123@@Z 005d78ff f   libcpmt:locale0.obj
 0001:001d695f       ?_Empty@?$_Yarn@D@std@@QBE_NXZ 005d795f f i libcpmt:locale0.obj
 0001:001d6967       ?_C_str@?$_Yarn@D@std@@QBEPBDXZ 005d7967 f i libcpmt:locale0.obj
 0001:001d69bf       ??1_Fac_tidy_reg_t@std@@QAE@XZ 005d79bf f i libcpmt:locale0.obj
 0001:001d6a0d       ?_Locinfo_dtor@_Locinfo@std@@SAXPAV12@@Z 005d7a0d f   libcpmt:locale0.obj
 0001:001d6a28       ??4?$_Yarn@D@std@@QAEAAV01@PBD@Z 005d7a28 f i libcpmt:locale0.obj
 0001:001d6a80       ?_Locinfo_ctor@_Locinfo@std@@SAXPAV12@PBD@Z 005d7a80 f   libcpmt:locale0.obj
 0001:001d6acd       ??0?$_Yarn@D@std@@QAE@PBD@Z 005d7acd f i libcpmt:locale0.obj
 0001:001d6aeb       ??0_Locimp@locale@std@@AAE@_N@Z 005d7aeb f i libcpmt:locale0.obj
 0001:001d6b2a       ??1_Locimp@locale@std@@MAE@XZ 005d7b2a f i libcpmt:locale0.obj
 0001:001d6b6d       ??_E_Locimp@locale@std@@MAEPAXI@Z 005d7b6d f i libcpmt:locale0.obj
 0001:001d6b6d       ??_G_Locimp@locale@std@@MAEPAXI@Z 005d7b6d f i libcpmt:locale0.obj
 0001:001d6b8e       ?_Init@locale@std@@CAPAV_Locimp@12@XZ 005d7b8e f   libcpmt:locale0.obj
 0001:001d6c1d       ?classic@locale@std@@SAABV12@XZ 005d7c1d f   libcpmt:locale0.obj
 0001:001d6c28       ?empty@locale@std@@SA?AV12@XZ 005d7c28 f   libcpmt:locale0.obj
 0001:001d6c59       ??0error_category@std@@QAE@XZ 005d7c59 f i libcpmt:syserror.obj
 0001:001d6c62       ??1error_category@std@@UAE@XZ 005d7c62 f i libcpmt:syserror.obj
 0001:001d6c69       ??8error_category@std@@QBE_NABV01@@Z 005d7c69 f i libcpmt:syserror.obj
 0001:001d6c7a       ??_Eerror_category@std@@UAEPAXI@Z 005d7c7a f i libcpmt:syserror.obj
 0001:001d6c7a       ??_Gerror_category@std@@UAEPAXI@Z 005d7c7a f i libcpmt:syserror.obj
 0001:001d6c9c       ?value@error_code@std@@QBEHXZ 005d7c9c f i libcpmt:syserror.obj
 0001:001d6c9f       ?category@error_code@std@@QBEABVerror_category@2@XZ 005d7c9f f i libcpmt:syserror.obj
 0001:001d6ca3       ??0error_condition@std@@QAE@HABVerror_category@1@@Z 005d7ca3 f i libcpmt:syserror.obj
 0001:001d6cb9       ?value@error_condition@std@@QBEHXZ 005d7cb9 f i libcpmt:syserror.obj
 0001:001d6cbc       ?category@error_condition@std@@QBEABVerror_category@2@XZ 005d7cbc f i libcpmt:syserror.obj
 0001:001d6cc0       ??8error_condition@std@@QBE_NABV01@@Z 005d7cc0 f i libcpmt:syserror.obj
 0001:001d6ce1       ?default_error_condition@error_category@std@@UBE?AVerror_condition@2@H@Z 005d7ce1 f i libcpmt:syserror.obj
 0001:001d6cf5       ?equivalent@error_category@std@@UBE_NHABVerror_condition@2@@Z 005d7cf5 f i libcpmt:syserror.obj
 0001:001d6d16       ?equivalent@error_category@std@@UBE_NABVerror_code@2@H@Z 005d7d16 f i libcpmt:syserror.obj
 0001:001d6d35       ??0_Generic_error_category@std@@QAE@XZ 005d7d35 f i libcpmt:syserror.obj
 0001:001d6d45       ?length@?$char_traits@D@std@@SAIPBD@Z 005d7d45 f i libcpmt:syserror.obj
 0001:001d6d50       ?name@_Generic_error_category@std@@UBEPBDXZ 005d7d50 f i libcpmt:syserror.obj
 0001:001d6d54       ??1_Generic_error_category@std@@UAE@XZ 005d7d54 f i libcpmt:syserror.obj
 0001:001d6d5b       ??0_Iostream_error_category@std@@QAE@XZ 005d7d5b f i libcpmt:syserror.obj
 0001:001d6d6b       ?name@_Iostream_error_category@std@@UBEPBDXZ 005d7d6b f i libcpmt:syserror.obj
 0001:001d6d6f       ??1_Iostream_error_category@std@@UAE@XZ 005d7d6f f i libcpmt:syserror.obj
 0001:001d6d76       ??0_System_error_category@std@@QAE@XZ 005d7d76 f i libcpmt:syserror.obj
 0001:001d6d8d       ?name@_System_error_category@std@@UBEPBDXZ 005d7d8d f i libcpmt:syserror.obj
 0001:001d6d91       ?default_error_condition@_System_error_category@std@@UBE?AVerror_condition@2@H@Z 005d7d91 f i libcpmt:syserror.obj
 0001:001d6da5       ??1_System_error_category@std@@UAE@XZ 005d7da5 f i libcpmt:syserror.obj
 0001:001d6dac       ?generic_category@std@@YAABVerror_category@1@XZ 005d7dac f   libcpmt:syserror.obj
 0001:001d6db2       ?iostream_category@std@@YAABVerror_category@1@XZ 005d7db2 f   libcpmt:syserror.obj
 0001:001d6db8       ?system_category@std@@YAABVerror_category@1@XZ 005d7db8 f   libcpmt:syserror.obj
 0001:001d6dbe       ?_Myptr@?$basic_string@DU?$char_traits@D@std@@V?$allocator@D@2@@std@@QBEPBDXZ 005d7dbe f i libcpmt:syserror.obj
 0001:001d6dca       ??_E_Generic_error_category@std@@UAEPAXI@Z 005d7dca f i libcpmt:syserror.obj
 0001:001d6dca       ??_G_Generic_error_category@std@@UAEPAXI@Z 005d7dca f i libcpmt:syserror.obj
 0001:001d6dec       ??_E_Iostream_error_category@std@@UAEPAXI@Z 005d7dec f i libcpmt:syserror.obj
 0001:001d6dec       ??_G_Iostream_error_category@std@@UAEPAXI@Z 005d7dec f i libcpmt:syserror.obj
 0001:001d6e0e       ??_G_System_error_category@std@@UAEPAXI@Z 005d7e0e f i libcpmt:syserror.obj
 0001:001d6e0e       ??_E_System_error_category@std@@UAEPAXI@Z 005d7e0e f i libcpmt:syserror.obj
 0001:001d6e30       ?_Inside@?$basic_string@DU?$char_traits@D@std@@V?$allocator@D@2@@std@@QAE_NPBD@Z 005d7e30 f i libcpmt:syserror.obj
 0001:001d6e6d       ?assign@?$basic_string@DU?$char_traits@D@std@@V?$allocator@D@2@@std@@QAEAAV12@ABV12@II@Z 005d7e6d f i libcpmt:syserror.obj
 0001:001d6f08       ?assign@?$basic_string@DU?$char_traits@D@std@@V?$allocator@D@2@@std@@QAEAAV12@PBDI@Z 005d7f08 f i libcpmt:syserror.obj
 0001:001d6f7f       ?assign@?$basic_string@DU?$char_traits@D@std@@V?$allocator@D@2@@std@@QAEAAV12@PBD@Z 005d7f7f f i libcpmt:syserror.obj
 0001:001d6fa0       ??0?$basic_string@DU?$char_traits@D@std@@V?$allocator@D@2@@std@@QAE@PBD@Z 005d7fa0 f i libcpmt:syserror.obj
 0001:001d6fd1       ?message@_Generic_error_category@std@@UBE?AV?$basic_string@DU?$char_traits@D@std@@V?$allocator@D@2@@2@H@Z 005d7fd1 f i libcpmt:syserror.obj
 0001:001d6ff4       ?message@_Iostream_error_category@std@@UBE?AV?$basic_string@DU?$char_traits@D@std@@V?$allocator@D@2@@2@H@Z 005d7ff4 f i libcpmt:syserror.obj
 0001:001d7024       ?_Callfns@ios_base@std@@AAEXW4event@12@@Z 005d8024 f i libcpmt:ios.obj
 0001:001d704b       ?_Tidy@ios_base@std@@AAEXXZ 005d804b f i libcpmt:ios.obj
 0001:001d708f       ?_Addstd@ios_base@std@@SAXPAV12@@Z 005d808f f   libcpmt:ios.obj
 0001:001d70e4       ?_Ios_base_dtor@ios_base@std@@CAXPAV12@@Z 005d80e4 f   libcpmt:ios.obj
 0001:001d7122       ??_U@YAPAXI@Z              005d8122 f   libcpmt:newaop.obj
 0001:001d712d       ??0logic_error@std@@QAE@PBD@Z 005d812d f i libcpmt:xthrow.obj
 0001:001d714b       ??1logic_error@std@@UAE@XZ 005d814b f i libcpmt:xthrow.obj
 0001:001d7150       ??0invalid_argument@std@@QAE@PBD@Z 005d8150 f i libcpmt:xthrow.obj
 0001:001d7174       ??1invalid_argument@std@@UAE@XZ 005d8174 f i libcpmt:xthrow.obj
 0001:001d7179       ??0length_error@std@@QAE@PBD@Z 005d8179 f i libcpmt:xthrow.obj
 0001:001d719d       ??1length_error@std@@UAE@XZ 005d819d f i libcpmt:xthrow.obj
 0001:001d71a2       ??0out_of_range@std@@QAE@PBD@Z 005d81a2 f i libcpmt:xthrow.obj
 0001:001d71c6       ??1out_of_range@std@@UAE@XZ 005d81c6 f i libcpmt:xthrow.obj
 0001:001d71cb       ??0overflow_error@std@@QAE@PBD@Z 005d81cb f i libcpmt:xthrow.obj
 0001:001d71ef       ??1overflow_error@std@@UAE@XZ 005d81ef f i libcpmt:xthrow.obj
 0001:001d71f4       ?_Xinvalid_argument@std@@YAXPBD@Z 005d81f4 f   libcpmt:xthrow.obj
 0001:001d7224       ??0logic_error@std@@QAE@ABV01@@Z 005d8224 f i libcpmt:xthrow.obj
 0001:001d7241       ?_Xlength_error@std@@YAXPBD@Z 005d8241 f   libcpmt:xthrow.obj
 0001:001d7271       ??0length_error@std@@QAE@ABV01@@Z 005d8271 f i libcpmt:xthrow.obj
 0001:001d728e       ?_Xout_of_range@std@@YAXPBD@Z 005d828e f   libcpmt:xthrow.obj
 0001:001d72be       ??0out_of_range@std@@QAE@ABV01@@Z 005d82be f i libcpmt:xthrow.obj
 0001:001d72db       ?_Xoverflow_error@std@@YAXPBD@Z 005d82db f   libcpmt:xthrow.obj
 0001:001d730b       ?_Xruntime_error@std@@YAXPBD@Z 005d830b f   libcpmt:xthrow.obj
 0001:001d733b       ??_Elogic_error@std@@UAEPAXI@Z 005d833b f i libcpmt:xthrow.obj
 0001:001d733b       ??_Glogic_error@std@@UAEPAXI@Z 005d833b f i libcpmt:xthrow.obj
 0001:001d735c       ??_Ginvalid_argument@std@@UAEPAXI@Z 005d835c f i libcpmt:xthrow.obj
 0001:001d735c       ??_Einvalid_argument@std@@UAEPAXI@Z 005d835c f i libcpmt:xthrow.obj
 0001:001d737d       ??_Glength_error@std@@UAEPAXI@Z 005d837d f i libcpmt:xthrow.obj
 0001:001d737d       ??_Elength_error@std@@UAEPAXI@Z 005d837d f i libcpmt:xthrow.obj
 0001:001d739e       ??_Gout_of_range@std@@UAEPAXI@Z 005d839e f i libcpmt:xthrow.obj
 0001:001d739e       ??_Eout_of_range@std@@UAEPAXI@Z 005d839e f i libcpmt:xthrow.obj
 0001:001d73bf       ??_Goverflow_error@std@@UAEPAXI@Z 005d83bf f i libcpmt:xthrow.obj
 0001:001d73bf       ??_Eoverflow_error@std@@UAEPAXI@Z 005d83bf f i libcpmt:xthrow.obj
 0001:001d73e0       ??0invalid_argument@std@@QAE@ABV01@@Z 005d83e0 f i libcpmt:xthrow.obj
 0001:001d73fd       ??0overflow_error@std@@QAE@ABV01@@Z 005d83fd f i libcpmt:xthrow.obj
 0001:001d741a       __Toupper                  005d841a f   libcpmt:_toupper.obj
 0001:001d752c       ??0_Mutex@std@@QAE@XZ      005d852c f   libcpmt:xmutex.obj
 0001:001d7546       ??1_Mutex@std@@QAE@XZ      005d8546 f   libcpmt:xmutex.obj
 0001:001d755d       ?_Lock@_Mutex@std@@QAEXXZ  005d855d f   libcpmt:xmutex.obj
 0001:001d7566       ?_Unlock@_Mutex@std@@QAEXXZ 005d8566 f   libcpmt:xmutex.obj
 0001:001d756f       ?_Mutex_ctor@_Mutex@std@@CAXPAV12@@Z 005d856f f   libcpmt:xmutex.obj
 0001:001d758a       ?_Mutex_dtor@_Mutex@std@@CAXPAV12@@Z 005d858a f   libcpmt:xmutex.obj
 0001:001d75a6       ?_Mutex_Lock@_Mutex@std@@CAXPAV12@@Z 005d85a6 f   libcpmt:xmutex.obj
 0001:001d75b8       ?_Mutex_Unlock@_Mutex@std@@CAXPAV12@@Z 005d85b8 f   libcpmt:xmutex.obj
 0001:001d75ca       ?_Xfsopen@std@@YAPAU_iobuf@@PBDHH@Z 005d85ca f   libcpmt:fiopen.obj
 0001:001d75e9       ?_Xfsopen@std@@YAPAU_iobuf@@PB_WHH@Z 005d85e9 f   libcpmt:fiopen.obj
 0001:001d7608       ??$_Xfiopen@D@std@@YAPAU_iobuf@@PBDHH@Z 005d8608 f i libcpmt:fiopen.obj
 0001:001d76b0       ??$_Xfiopen@_W@std@@YAPAU_iobuf@@PB_WHH@Z 005d86b0 f i libcpmt:fiopen.obj
 0001:001d7758       ?_Fiopen@std@@YAPAU_iobuf@@PBDHH@Z 005d8758 f   libcpmt:fiopen.obj
 0001:001d7763       ?_Fiopen@std@@YAPAU_iobuf@@PB_WHH@Z 005d8763 f   libcpmt:fiopen.obj
 0001:001d776e       ?_Fiopen@std@@YAPAU_iobuf@@PBGHH@Z 005d876e f   libcpmt:fiopen.obj
 0001:001d7779       __Once                     005d8779 f   libcpmt:xmtx.obj
 0001:001d77b4       __Mtxinit                  005d87b4 f   libcpmt:xmtx.obj
 0001:001d77c4       __Mtxdst                   005d87c4 f   libcpmt:xmtx.obj
 0001:001d77d4       __Mtxlock                  005d87d4 f   libcpmt:xmtx.obj
 0001:001d77e4       __Mtxunlock                005d87e4 f   libcpmt:xmtx.obj
 0001:001d77f4       ?_Atexit@@YAXP6AXXZ@Z      005d87f4 f   libcpmt:iosptrs.obj
 0001:001d7826       ??1_Init_atexit@@QAE@XZ    005d8826 f i libcpmt:iosptrs.obj
 0001:001d7870       _strchr                    005d8870 f   LIBCMT:strchr.obj
 0001:001d7876       ___from_strstr_to_strchr   005d8876     LIBCMT:strchr.obj
 0001:001d7930       _strrchr                   005d8930 f   LIBCMT:strrchr.obj
 0001:001d7960       _strstr                    005d8960 f   LIBCMT:strstr.obj
 0001:001d79f0       _memchr                    005d89f0 f   LIBCMT:memchr.obj
 0001:001d7a9d       __ctime64_s                005d8a9d f   LIBCMT:ctime64.obj
 0001:001d7b31       __ctime64                  005d8b31 f   LIBCMT:ctime64.obj
 0001:001d7b9e       __invoke_watson_if_error   005d8b9e f i LIBCMT:loctim64.obj
 0001:001d7bbf       __localtime64_s            005d8bbf f   LIBCMT:loctim64.obj
 0001:001d7e47       __localtime64              005d8e47 f   LIBCMT:loctim64.obj
 0001:001d811d       __mktime64                 005d911d f   LIBCMT:mktime64.obj
 0001:001d812f       __mkgmtime64               005d912f f   LIBCMT:mktime64.obj
 0001:001d8141       __time64                   005d9141 f   LIBCMT:time64.obj
 0001:001d81a0       _memset                    005d91a0 f   LIBCMT:memset.obj
 0001:001d821a       __fsopen                   005d921a f   LIBCMT:fopen.obj
 0001:001d82d6       _fopen                     005d92d6 f   LIBCMT:fopen.obj
 0001:001d82ed       _fopen_s                   005d92ed f   LIBCMT:fopen.obj
 0001:001d8334       __fclose_nolock            005d9334 f   LIBCMT:fclose.obj
 0001:001d83a1       _fclose                    005d93a1 f   LIBCMT:fclose.obj
 0001:001d8415       __fwrite_nolock            005d9415 f   LIBCMT:fwrite.obj
 0001:001d856c       _fwrite                    005d956c f   LIBCMT:fwrite.obj
 0001:001d85e6       __fread_nolock_s           005d95e6 f   LIBCMT:fread.obj
 0001:001d87a2       __fread_nolock             005d97a2 f   LIBCMT:fread.obj
 0001:001d87bf       _fread_s                   005d97bf f   LIBCMT:fread.obj
 0001:001d884d       _fread                     005d984d f   LIBCMT:fread.obj
 0001:001d886a       _feof                      005d986a f   LIBCMT:feoferr.obj
 0001:001d8892       _ferror                    005d9892 f   LIBCMT:feoferr.obj
 0001:001d88ba       ??0exception@std@@QAE@XZ   005d98ba f   LIBCMT:stdexcpt.obj
 0001:001d88cb       ??0exception@std@@QAE@ABQBDH@Z 005d98cb f   LIBCMT:stdexcpt.obj
 0001:001d88e8       ?what@exception@std@@UBEPBDXZ 005d98e8 f   LIBCMT:stdexcpt.obj
 0001:001d88f5       ?_Copy_str@exception@std@@AAEXPBD@Z 005d98f5 f   LIBCMT:stdexcpt.obj
 0001:001d8935       ?_Tidy@exception@std@@AAEXXZ 005d9935 f   LIBCMT:stdexcpt.obj
 0001:001d8953       ??0exception@std@@QAE@ABQBD@Z 005d9953 f   LIBCMT:stdexcpt.obj
 0001:001d897a       ??4exception@std@@QAEAAV01@ABV01@@Z 005d997a f   LIBCMT:stdexcpt.obj
 0001:001d89af       ??1exception@std@@UAE@XZ   005d99af f   LIBCMT:stdexcpt.obj
 0001:001d89ba       ??0bad_cast@std@@QAE@PBD@Z 005d99ba f   LIBCMT:stdexcpt.obj
 0001:001d89d8       ??1bad_cast@std@@UAE@XZ    005d99d8 f   LIBCMT:stdexcpt.obj
 0001:001d89e3       ??0bad_typeid@std@@QAE@PBD@Z 005d99e3 f   LIBCMT:stdexcpt.obj
 0001:001d8a01       ??1bad_typeid@std@@UAE@XZ  005d9a01 f   LIBCMT:stdexcpt.obj
 0001:001d8a0c       ??0__non_rtti_object@std@@QAE@PBD@Z 005d9a0c f   LIBCMT:stdexcpt.obj
 0001:001d8a29       ??1__non_rtti_object@std@@UAE@XZ 005d9a29 f   LIBCMT:stdexcpt.obj
 0001:001d8a34       ??_Eexception@std@@UAEPAXI@Z 005d9a34 f i LIBCMT:stdexcpt.obj
 0001:001d8a34       ??_Gexception@std@@UAEPAXI@Z 005d9a34 f i LIBCMT:stdexcpt.obj
 0001:001d8a5b       ??0exception@std@@QAE@ABV01@@Z 005d9a5b f   LIBCMT:stdexcpt.obj
 0001:001d8a80       ??_Ebad_cast@std@@UAEPAXI@Z 005d9a80 f i LIBCMT:stdexcpt.obj
 0001:001d8a80       ??_Gbad_cast@std@@UAEPAXI@Z 005d9a80 f i LIBCMT:stdexcpt.obj
 0001:001d8aa7       ??0bad_cast@std@@QAE@ABV01@@Z 005d9aa7 f   LIBCMT:stdexcpt.obj
 0001:001d8ac4       ??_Ebad_typeid@std@@UAEPAXI@Z 005d9ac4 f i LIBCMT:stdexcpt.obj
 0001:001d8ac4       ??_Gbad_typeid@std@@UAEPAXI@Z 005d9ac4 f i LIBCMT:stdexcpt.obj
 0001:001d8aeb       ??0bad_typeid@std@@QAE@ABV01@@Z 005d9aeb f   LIBCMT:stdexcpt.obj
 0001:001d8b08       ??_E__non_rtti_object@std@@UAEPAXI@Z 005d9b08 f i LIBCMT:stdexcpt.obj
 0001:001d8b08       ??_G__non_rtti_object@std@@UAEPAXI@Z 005d9b08 f i LIBCMT:stdexcpt.obj
 0001:001d8b2f       ??0__non_rtti_object@std@@QAE@ABV01@@Z 005d9b2f f   LIBCMT:stdexcpt.obj
 0001:001d8b4c       ?name@type_info@@QBEPBDPAU__type_info_node@@@Z 005d9b4c f   LIBCMT:typinfo.obj
 0001:001d8b60       ??1type_info@@UAE@XZ       005d9b60 f   LIBCMT:typinfo.obj
 0001:001d8b70       ??_Etype_info@@UAEPAXI@Z   005d9b70 f i LIBCMT:typinfo.obj
 0001:001d8b70       ??_Gtype_info@@UAEPAXI@Z   005d9b70 f i LIBCMT:typinfo.obj
 0001:001d8b91       ?_name_internal_method@type_info@@QBEPBDPAU__type_info_node@@@Z 005d9b91 f   LIBCMT:typinfo.obj
 0001:001d8ba5       ?_type_info_dtor_internal_method@type_info@@QAEXXZ 005d9ba5 f   LIBCMT:typinfo.obj
 0001:001d8baf       ??8type_info@@QBE_NABV0@@Z 005d9baf f   LIBCMT:typinfo.obj
 0001:001d8bcf       ??9type_info@@QBE_NABV0@@Z 005d9bcf f   LIBCMT:typinfo.obj
 0001:001d8bf0       ?before@type_info@@QBEHABV1@@Z 005d9bf0 f   LIBCMT:typinfo.obj
 0001:001d8c14       ?raw_name@type_info@@QBEPBDXZ 005d9c14 f   LIBCMT:typinfo.obj
 0001:001d8c18       ??0type_info@@AAE@ABV0@@Z  005d9c18 f   LIBCMT:typinfo.obj
 0001:001d8c23       ??4type_info@@AAEAAV0@ABV0@@Z 005d9c23 f   LIBCMT:typinfo.obj
 0001:001d8c28       ??3@YAXPAX@Z               005d9c28 f   LIBCMT:delete.obj
 0001:001d8c40       _memcpy                    005d9c40 f   LIBCMT:memcpy.obj
 0001:001d907b       __stat64i32                005da07b f   LIBCMT:stati32.obj
 0001:001d94d2       __purecall                 005da4d2 f   LIBCMT:purevirt.obj
 0001:001d94fc       __set_purecall_handler     005da4fc f   LIBCMT:purevirt.obj
 0001:001d9523       __get_purecall_handler     005da523 f   LIBCMT:purevirt.obj
 0001:001d9530       _free                      005da530 f   LIBCMT:free.obj
 0001:001d956a       __heap_alloc               005da56a f i LIBCMT:malloc.obj
 0001:001d95a9       _malloc                    005da5a9 f   LIBCMT:malloc.obj
 0001:001d963d       _strncmp                   005da63d f   LIBCMT:strncmp.obj
 0001:001d96fd       __ftell_nolock             005da6fd f   LIBCMT:ftell.obj
 0001:001d9891       _ftell                     005da891 f   LIBCMT:ftell.obj
 0001:001d98f6       __fseek_nolock             005da8f6 f   LIBCMT:fseek.obj
 0001:001d9980       _fseek                     005da980 f   LIBCMT:fseek.obj
 0001:001d99fc       @__security_check_cookie@4 005da9fc f   LIBCMT:secchk.obj
 0001:001d9a0b       _rename                    005daa0b f   LIBCMT:rename.obj
 0001:001d9a3e       _fprintf                   005daa3e f   LIBCMT:fprintf.obj
 0001:001d9b4a       __fprintf_l                005dab4a f   LIBCMT:fprintf.obj
 0001:001d9b66       __fprintf_s_l              005dab66 f   LIBCMT:fprintf.obj
 0001:001d9b82       _fprintf_s                 005dab82 f   LIBCMT:fprintf.obj
 0001:001d9b9d       __fprintf_p_l              005dab9d f   LIBCMT:fprintf.obj
 0001:001d9bb9       __fprintf_p                005dabb9 f   LIBCMT:fprintf.obj
 0001:001d9bd4       __snprintf                 005dabd4 f   LIBCMT:snprintf.obj
 0001:001d9c80       __snprintf_l               005dac80 f   LIBCMT:snprintf.obj
 0001:001d9c9f       _atol                      005dac9f f   LIBCMT:atox.obj
 0001:001d9cb5       __atol_l                   005dacb5 f   LIBCMT:atox.obj
 0001:001d9cce       _atoi                      005dacce f   LIBCMT:atox.obj
 0001:001d9cd9       __atoi_l                   005dacd9 f   LIBCMT:atox.obj
 0001:001d9ce4       __atoi64                   005dace4 f   LIBCMT:atox.obj
 0001:001d9cfa       __atoi64_l                 005dacfa f   LIBCMT:atox.obj
 0001:001d9d13       __get_sys_err_msg          005dad13 f i LIBCMT:strerror.obj
 0001:001d9d3b       _strerror                  005dad3b f   LIBCMT:strerror.obj
 0001:001d9da5       _strerror_s                005dada5 f   LIBCMT:strerror.obj
 0001:001d9df8       __get_errno_from_oserr     005dadf8 f   LIBCMT:dosmap.obj
 0001:001d9e3a       __errno                    005dae3a f   LIBCMT:dosmap.obj
 0001:001d9e4d       ___doserrno                005dae4d f   LIBCMT:dosmap.obj
 0001:001d9e60       __dosmaperr                005dae60 f   LIBCMT:dosmap.obj
 0001:001d9e83       __set_errno                005dae83 f   LIBCMT:dosmap.obj
 0001:001d9ea4       __get_errno                005daea4 f   LIBCMT:dosmap.obj
 0001:001d9ec9       __set_doserrno             005daec9 f   LIBCMT:dosmap.obj
 0001:001d9eea       __get_doserrno             005daeea f   LIBCMT:dosmap.obj
 0001:001d9f0f       _fgets                     005daf0f f   LIBCMT:fgets.obj
 0001:001da047       _printf                    005db047 f   LIBCMT:printf.obj
 0001:001da0ee       __printf_l                 005db0ee f   LIBCMT:printf.obj
 0001:001da107       __printf_s_l               005db107 f   LIBCMT:printf.obj
 0001:001da120       _printf_s                  005db120 f   LIBCMT:printf.obj
 0001:001da138       __printf_p_l               005db138 f   LIBCMT:printf.obj
 0001:001da151       __printf_p                 005db151 f   LIBCMT:printf.obj
 0001:001da169       __set_printf_count_output  005db169 f   LIBCMT:printf.obj
 0001:001da193       __get_printf_count_output  005db193 f   LIBCMT:printf.obj
 0001:001da1a9       ??0bad_alloc@std@@QAE@XZ   005db1a9 f i LIBCMT:new.obj
 0001:001da1cf       ??2@YAPAXI@Z               005db1cf f   LIBCMT:new.obj
 0001:001da250       _strncpy                   005db250 f   LIBCMT:strncpy.obj
 0001:001da374       ___iob_func                005db374 f   LIBCMT:_file.obj
 0001:001da37a       ___initstdio               005db37a f   LIBCMT:_file.obj
 0001:001da42b       ___endstdio                005db42b f   LIBCMT:_file.obj
 0001:001da44b       __lock_file                005db44b f   LIBCMT:_file.obj
 0001:001da48c       __lock_file2               005db48c f   LIBCMT:_file.obj
 0001:001da4be       __unlock_file              005db4be f   LIBCMT:_file.obj
 0001:001da4fa       __unlock_file2             005db4fa f   LIBCMT:_file.obj
 0001:001da529       __lseeki64_nolock          005db529 f   LIBCMT:lseeki64.obj
 0001:001da5ae       __lseeki64                 005db5ae f   LIBCMT:lseeki64.obj
 0001:001da698       _srand                     005db698 f   LIBCMT:rand.obj
 0001:001da6aa       _rand                      005db6aa f   LIBCMT:rand.obj
 0001:001da6cb       _perror                    005db6cb f   LIBCMT:perror.obj
 0001:001da760       _strcspn                   005db760 f   LIBCMT:strcspn.obj
 0001:001da7a6       _sprintf                   005db7a6 f   LIBCMT:sprintf.obj
 0001:001da82a       __sprintf_l                005db82a f   LIBCMT:sprintf.obj
 0001:001da846       _sprintf_s                 005db846 f   LIBCMT:sprintf.obj
 0001:001da864       __sprintf_s_l              005db864 f   LIBCMT:sprintf.obj
 0001:001da883       __snprintf_s               005db883 f   LIBCMT:sprintf.obj
 0001:001da8a4       __snprintf_s_l             005db8a4 f   LIBCMT:sprintf.obj
 0001:001da8c6       __sprintf_p                005db8c6 f   LIBCMT:sprintf.obj
 0001:001da8e4       __sprintf_p_l              005db8e4 f   LIBCMT:sprintf.obj
 0001:001da903       __scprintf                 005db903 f   LIBCMT:sprintf.obj
 0001:001da918       __scprintf_p               005db918 f   LIBCMT:sprintf.obj
 0001:001da92d       __scprintf_l               005db92d f   LIBCMT:sprintf.obj
 0001:001da946       __scprintf_p_l             005db946 f   LIBCMT:sprintf.obj
 0001:001da95f       ___crtCorExitProcess       005db95f f   LIBCMT:crt0dat.obj
 0001:001da98a       ___crtExitProcess          005db98a f   LIBCMT:crt0dat.obj
 0001:001da9a2       __lockexit                 005db9a2 f   LIBCMT:crt0dat.obj
 0001:001da9ab       __unlockexit               005db9ab f   LIBCMT:crt0dat.obj
 0001:001da9b4       __init_pointers            005db9b4 f   LIBCMT:crt0dat.obj
 0001:001daa04       __initterm_e               005dba04 f   LIBCMT:crt0dat.obj
 0001:001daa28       __get_wpgmptr              005dba28 f   LIBCMT:crt0dat.obj
 0001:001daa58       __get_pgmptr               005dba58 f   LIBCMT:crt0dat.obj
 0001:001daa88       __cinit                    005dba88 f   LIBCMT:crt0dat.obj
 0001:001dac5f       _exit                      005dbc5f f   LIBCMT:crt0dat.obj
 0001:001dac75       __exit                     005dbc75 f   LIBCMT:crt0dat.obj
 0001:001dac8b       __cexit                    005dbc8b f   LIBCMT:crt0dat.obj
 0001:001dac9a       __c_exit                   005dbc9a f   LIBCMT:crt0dat.obj
 0001:001daca9       __amsg_exit                005dbca9 f   LIBCMT:crt0dat.obj
 0001:001dacd0       _longjmp                   005dbcd0 f   LIBCMT:longjmp.obj
 0001:001dad90       _memmove                   005dbd90 f   LIBCMT:memmove.obj
 0001:001db0f1       __cfltcvt_init             005dc0f1 f   LIBCMT:_fpinit_.obj
 0001:001db151       ___setfflag                005dc151 f   LIBCMT:_fpinit_.obj
 0001:001db166       __fpmath                   005dc166 f   LIBCMT:_fpinit_.obj
 0001:001db180       __ftol2_sse                005dc180 f   LIBCMT:ftol2.obj
 0001:001db189       __ftol2_pentium4           005dc189 f   LIBCMT:ftol2.obj
 0001:001db19c       __ftol2_sse_excpt          005dc19c f   LIBCMT:ftol2.obj
 0001:001db1b6       __ftol2                    005dc1b6 f   LIBCMT:ftol2.obj
 0001:001db22b       ??0_LocaleUpdate@@QAE@PAUlocaleinfo_struct@@@Z 005dc22b f i LIBCMT:_ctype.obj
 0001:001db2b2       ??1_LocaleUpdate@@QAE@XZ   005dc2b2 f i LIBCMT:_ctype.obj
 0001:001db2c0       ?GetLocaleT@_LocaleUpdate@@QAEPAUlocaleinfo_struct@@XZ 005dc2c0 f i LIBCMT:_ctype.obj
 0001:001db2c3       __isalpha_l                005dc2c3 f i LIBCMT:_ctype.obj
 0001:001db319       _isalpha                   005dc319 f i LIBCMT:_ctype.obj
 0001:001db349       __isupper_l                005dc349 f i LIBCMT:_ctype.obj
 0001:001db39a       _isupper                   005dc39a f i LIBCMT:_ctype.obj
 0001:001db3c8       __islower_l                005dc3c8 f i LIBCMT:_ctype.obj
 0001:001db419       _islower                   005dc419 f i LIBCMT:_ctype.obj
 0001:001db447       __isdigit_l                005dc447 f i LIBCMT:_ctype.obj
 0001:001db498       _isdigit                   005dc498 f i LIBCMT:_ctype.obj
 0001:001db4c6       __isxdigit_l               005dc4c6 f i LIBCMT:_ctype.obj
 0001:001db51c       _isxdigit                  005dc51c f i LIBCMT:_ctype.obj
 0001:001db54c       __isspace_l                005dc54c f i LIBCMT:_ctype.obj
 0001:001db59d       _isspace                   005dc59d f i LIBCMT:_ctype.obj
 0001:001db5cb       __ispunct_l                005dc5cb f i LIBCMT:_ctype.obj
 0001:001db61c       _ispunct                   005dc61c f i LIBCMT:_ctype.obj
 0001:001db64a       __isalnum_l                005dc64a f i LIBCMT:_ctype.obj
 0001:001db6a0       _isalnum                   005dc6a0 f i LIBCMT:_ctype.obj
 0001:001db6d0       __isprint_l                005dc6d0 f i LIBCMT:_ctype.obj
 0001:001db726       _isprint                   005dc726 f i LIBCMT:_ctype.obj
 0001:001db756       __isgraph_l                005dc756 f i LIBCMT:_ctype.obj
 0001:001db7ac       _isgraph                   005dc7ac f i LIBCMT:_ctype.obj
 0001:001db7dc       __iscntrl_l                005dc7dc f i LIBCMT:_ctype.obj
 0001:001db82d       _iscntrl                   005dc82d f i LIBCMT:_ctype.obj
 0001:001db85b       ___isascii                 005dc85b f i LIBCMT:_ctype.obj
 0001:001db86d       ___toascii                 005dc86d f i LIBCMT:_ctype.obj
 0001:001db87a       __iscsymf_l                005dc87a f i LIBCMT:_ctype.obj
 0001:001db89d       ___iscsymf                 005dc89d f i LIBCMT:_ctype.obj
 0001:001db8bc       __iscsym_l                 005dc8bc f i LIBCMT:_ctype.obj
 0001:001db8df       ___iscsym                  005dc8df f i LIBCMT:_ctype.obj
 0001:001db900       __heapwalk                 005dc900 f   LIBCMT:heapwalk.obj
 0001:001dba21       __vsprintf_l               005dca21 f   LIBCMT:vsprintf.obj
 0001:001dbaa5       _vsprintf                  005dcaa5 f   LIBCMT:vsprintf.obj
 0001:001dbabf       __vscprintf_helper         005dcabf f   LIBCMT:vsprintf.obj
 0001:001dbb1b       __vscprintf                005dcb1b f   LIBCMT:vsprintf.obj
 0001:001dbb37       __vscprintf_l              005dcb37 f   LIBCMT:vsprintf.obj
 0001:001dbb54       __vscprintf_p              005dcb54 f   LIBCMT:vsprintf.obj
 0001:001dbb70       __vscprintf_p_l            005dcb70 f   LIBCMT:vsprintf.obj
 0001:001dbb8d       _fputc                     005dcb8d f   LIBCMT:fputc.obj
 0001:001dbc89       _putc                      005dcc89 f   LIBCMT:fputc.obj
 0001:001dbd85       __CxxThrowException@8      005dcd85 f   LIBCMT:throw.obj
 0001:001dbdd1       ??_V@YAXPAX@Z              005dcdd1 f   LIBCMT:delete2.obj
 0001:001dbddc       __atof_l                   005dcddc f   LIBCMT:atof.obj
 0001:001dbe87       _atof                      005dce87 f   LIBCMT:atof.obj
 0001:001dbe9a       ___strgtold12              005dce9a f   LIBCMT:atof.obj
 0001:001dbedc       ___STRINGTOLD              005dcedc f   LIBCMT:atof.obj
 0001:001dbf15       __toupper                  005dcf15 f   LIBCMT:toupper.obj
 0001:001dbf22       __toupper_l                005dcf22 f   LIBCMT:toupper.obj
 0001:001dc038       _toupper                   005dd038 f   LIBCMT:toupper.obj
 0001:001dc070       __chkstk                   005dd070 f   LIBCMT:chkstk.obj
 0001:001dc070       __alloca_probe             005dd070     LIBCMT:chkstk.obj
 0001:001dc09b       __flush                    005dd09b f   LIBCMT:fflush.obj
 0001:001dc103       __fflush_nolock            005dd103 f   LIBCMT:fflush.obj
 0001:001dc225       _fflush                    005dd225 f   LIBCMT:fflush.obj
 0001:001dc278       __flushall                 005dd278 f   LIBCMT:fflush.obj
 0001:001dc281       ?_JumpToContinuation@@YGXPAXPAUEHRegistrationNode@@@Z 005dd281 f   LIBCMT:_trnsctrl_.obj
 0001:001dc2b3       ?_CallMemberFunction0@@YGXPAX0@Z 005dd2b3 f   LIBCMT:_trnsctrl_.obj
 0001:001dc2ba       ?_CallMemberFunction1@@YGXPAX00@Z 005dd2ba f   LIBCMT:_trnsctrl_.obj
 0001:001dc2c1       ?_CallMemberFunction2@@YGXPAX00H@Z 005dd2c1 f   LIBCMT:_trnsctrl_.obj
 0001:001dc2c8       ?_UnwindNestedFrames@@YGXPAUEHRegistrationNode@@PAUEHExceptionRecord@@@Z 005dd2c8 f   LIBCMT:_trnsctrl_.obj
 0001:001dc31c       ___CxxFrameHandler         005dd31c f   LIBCMT:_trnsctrl_.obj
 0001:001dc352       ___CxxFrameHandler3        005dd352 f   LIBCMT:_trnsctrl_.obj
 0001:001dc388       ___CxxFrameHandler2        005dd388 f   LIBCMT:_trnsctrl_.obj
 0001:001dc3be       ___CxxLongjmpUnwind@4      005dd3be f   LIBCMT:_trnsctrl_.obj
 0001:001dc410       ?_CallSETranslator@@YAHPAUEHExceptionRecord@@PAUEHRegistrationNode@@PAX2PBU_s_FuncInfo@@H1@Z 005dd410 f   LIBCMT:_trnsctrl_.obj
 0001:001dc586       ?_GetRangeOfTrysToCheck@@YAPBU_s_TryBlockMapEntry@@PBU_s_FuncInfo@@HHPAI1@Z 005dd586 f   LIBCMT:_trnsctrl_.obj
 0001:001dc5f9       __CreateFrameInfo          005dd5f9 f   LIBCMT:_trnsctrl_.obj
 0001:001dc625       __IsExceptionObjectToBeDestroyed 005dd625 f   LIBCMT:_trnsctrl_.obj
 0001:001dc64c       __FindAndUnlinkFrame       005dd64c f   LIBCMT:_trnsctrl_.obj
 0001:001dc69e       ?_CallCatchBlock2@@YAPAXPAUEHRegistrationNode@@PBU_s_FuncInfo@@PAXHK@Z 005dd69e f   LIBCMT:_trnsctrl_.obj
 0001:001dc6fe       _fgetc                     005dd6fe f   LIBCMT:fgetc.obj
 0001:001dc7f2       _getc                      005dd7f2 f   LIBCMT:fgetc.obj
 0001:001dc8e6       __getc_nolock              005dd8e6 f   LIBCMT:fgetc.obj
 0001:001dc906       __ungetc_nolock            005dd906 f   LIBCMT:ungetc.obj
 0001:001dc9e9       _ungetc                    005dd9e9 f   LIBCMT:ungetc.obj
 0001:001dca52       _setvbuf                   005dda52 f   LIBCMT:setvbuf.obj
 0001:001dcbfe       ___onexitinit              005ddbfe f   LIBCMT:onexit.obj
 0001:001dcc2f       __onexit                   005ddc2f f   LIBCMT:onexit.obj
 0001:001dcc6b       _atexit                    005ddc6b f   LIBCMT:onexit.obj
 0001:001dcc82       _fputs                     005ddc82 f   LIBCMT:fputs.obj
 0001:001dcd90       __setjmp3                  005ddd90 f   LIBCMT:setjmp3.obj
 0001:001dced0       _qsort                     005dded0 f   LIBCMT:qsort.obj
 0001:001dd1c9       _sscanf                    005de1c9 f   LIBCMT:sscanf.obj
 0001:001dd1eb       __sscanf_l                 005de1eb f   LIBCMT:sscanf.obj
 0001:001dd20e       _sscanf_s                  005de20e f   LIBCMT:sscanf.obj
 0001:001dd230       __sscanf_s_l               005de230 f   LIBCMT:sscanf.obj
 0001:001dd253       __getenv_helper_nolock     005de253 f   LIBCMT:getenv.obj
 0001:001dd401       _getenv                    005de401 f   LIBCMT:getenv.obj
 0001:001dd47b       _getenv_s                  005de47b f   LIBCMT:getenv.obj
 0001:001dd548       __dupenv_s                 005de548 f   LIBCMT:getenv.obj
 0001:001dd61f       _memcpy_s                  005de61f f   LIBCMT:memcpy_s.obj
 0001:001dd694       _rewind                    005de694 f   LIBCMT:rewind.obj
 0001:001dd752       _fgetpos                   005de752 f   LIBCMT:fgetpos.obj
 0001:001dd7ad       __fseeki64_nolock          005de7ad f   LIBCMT:fseeki64.obj
 0001:001dd849       __fseeki64                 005de849 f   LIBCMT:fseeki64.obj
 0001:001dd8c8       _fsetpos                   005de8c8 f   LIBCMT:fsetpos.obj
 0001:001dd903       __invoke_watson_if_oneof   005de903 f i LIBCMT:system.obj
 0001:001dd92f       _system                    005de92f f   LIBCMT:system.obj
 0001:001dda0c       _remove                    005dea0c f   LIBCMT:unlink.obj
 0001:001dda3c       __unlink                   005dea3c f   LIBCMT:unlink.obj
 0001:001dda3c       _unlink                    005dea3c f   LIBCMT:unlink.obj
 0001:001dda47       __tolower                  005dea47 f   LIBCMT:tolower.obj
 0001:001dda54       __tolower_l                005dea54 f   LIBCMT:tolower.obj
 0001:001ddb69       _tolower                   005deb69 f   LIBCMT:tolower.obj
 0001:001ddb95       __MarkAllocaS              005deb95 f i LIBCMT:strftime.obj
 0001:001ddbab       __freea                    005debab f i LIBCMT:strftime.obj
 0001:001ddbcb       __Getdays_l                005debcb f   LIBCMT:strftime.obj
 0001:001ddcb3       __Getdays                  005decb3 f   LIBCMT:strftime.obj
 0001:001ddcbc       __Getmonths_l              005decbc f   LIBCMT:strftime.obj
 0001:001dddac       __Getmonths                005dedac f   LIBCMT:strftime.obj
 0001:001dddb5       __Gettnames_l              005dedb5 f   LIBCMT:strftime.obj
 0001:001de09f       __Gettnames                005df09f f   LIBCMT:strftime.obj
 0001:001de98b       __Strftime_l               005df98b f   LIBCMT:strftime.obj
 0001:001deb17       __strftime_l               005dfb17 f   LIBCMT:strftime.obj
 0001:001deb37       _strftime                  005dfb37 f   LIBCMT:strftime.obj
 0001:001deb56       __Strftime                 005dfb56 f   LIBCMT:strftime.obj
 0001:001deb80       __alldiv                   005dfb80 f   LIBCMT:lldiv.obj
 0001:001dec30       __allrem                   005dfc30 f   LIBCMT:llrem.obj
 0001:001decf0       __allmul                   005dfcf0 f   LIBCMT:llmul.obj
 0001:001ded30       __alldvrm                  005dfd30 f   LIBCMT:lldvrm.obj
 0001:001dee10       __allshl                   005dfe10 f   LIBCMT:llshl.obj
 0001:001dee30       __aulldvrm                 005dfe30 f   LIBCMT:ulldvrm.obj
 0001:001deed0       __aullrem                  005dfed0 f   LIBCMT:ullrem.obj
 0001:001def50       __aulldiv                  005dff50 f   LIBCMT:ulldiv.obj
 0001:001defb8       _realloc                   005dffb8 f   LIBCMT:realloc.obj
 0001:001df070       __aullshr                  005e0070 f   LIBCMT:ullshr.obj
 0001:001df090       _pow                       005e0090 f   LIBCMT:_pow_.obj
 0001:001df0d0       __CIpow                    005e00d0 f   LIBCMT:_pow_.obj
 0001:001df10b       __CIpow_default            005e010b f   LIBCMT:_pow_.obj
 0001:001df124       __pow_default              005e0124     LIBCMT:_pow_.obj
 0001:001df320       _floor                     005e0320 f   LIBCMT:_floor_pentium4_.obj
 0001:001df360       __floor_pentium4           005e0360 f   LIBCMT:_floor_pentium4_.obj
 0001:001df66c       _strtol                    005e066c f   LIBCMT:strtol.obj
 0001:001df697       __strtol_l                 005e0697 f   LIBCMT:strtol.obj
 0001:001df6b4       _strtoul                   005e06b4 f   LIBCMT:strtol.obj
 0001:001df6e0       __strtoul_l                005e06e0 f   LIBCMT:strtol.obj
 0001:001df6fd       __strtod_l                 005e06fd f   LIBCMT:strtod.obj
 0001:001df820       _strtod                    005e0820 f   LIBCMT:strtod.obj
 0001:001df840       _strncat                   005e0840 f   LIBCMT:strncat.obj
 0001:001df975       __strcoll_l                005e0975 f   LIBCMT:strcoll.obj
 0001:001dfa13       _strcoll                   005e0a13 f   LIBCMT:strcoll.obj
 0001:001dfa2a       _vfscanf                   005e0a2a f   LIBCMT:fscanf.obj
 0001:001dfb24       _fscanf                    005e0b24 f   LIBCMT:fscanf.obj
 0001:001dfb44       __fscanf_l                 005e0b44 f   LIBCMT:fscanf.obj
 0001:001dfb65       _fscanf_s                  005e0b65 f   LIBCMT:fscanf.obj
 0001:001dfb85       __fscanf_s_l               005e0b85 f   LIBCMT:fscanf.obj
 0001:001dfba6       __difftime64               005e0ba6 f   LIBCMT:difftm64.obj
 0001:001dfbe9       __gmtime64_s               005e0be9 f   LIBCMT:gmtime64.obj
 0001:001dfe22       __gmtime64                 005e0e22 f   LIBCMT:gmtime64.obj
 0001:001dfe49       _clock                     005e0e49 f   LIBCMT:clock.obj
 0001:001dfe83       ___inittime                005e0e83 f   LIBCMT:clock.obj
 0001:001dfff3       ___inc_tmpoff              005e0ff3 f   LIBCMT:tmpfile.obj
 0001:001dfffa       __tmpnam_helper            005e0ffa f   LIBCMT:tmpfile.obj
 0001:001e0136       _tmpnam_s                  005e1136 f   LIBCMT:tmpfile.obj
 0001:001e0171       _tmpnam                    005e1171 f   LIBCMT:tmpfile.obj
 0001:001e0198       __tmpfile_helper           005e1198 f   LIBCMT:tmpfile.obj
 0001:001e038b       _tmpfile                   005e138b f   LIBCMT:tmpfile.obj
 0001:001e03a7       _tmpfile_s                 005e13a7 f   LIBCMT:tmpfile.obj
 0001:001e03ba       _localeconv                005e13ba f   LIBCMT:lconv.obj
 0001:001e043e       __popen                    005e143e f   LIBCMT:popen.obj
 0001:001e0906       __pclose                   005e1906 f   LIBCMT:popen.obj
 0001:001e09d1       _clearerr_s                005e19d1 f   LIBCMT:clearerr.obj
 0001:001e0a75       _clearerr                  005e1a75 f   LIBCMT:clearerr.obj
 0001:001e0a80       _sin                       005e1a80 f   LIBCMT:_sin_.obj
 0001:001e0ac0       __CIsin                    005e1ac0 f   LIBCMT:_sin_.obj
 0001:001e0afb       __CIsin_default            005e1afb f   LIBCMT:_sin_.obj
 0001:001e0b0f       __sin_default              005e1b0f     LIBCMT:_sin_.obj
 0001:001e0bb0       _sinh                      005e1bb0 f   LIBCMT:_87ctrigh_.obj
 0001:001e0bba       _cosh                      005e1bba f   LIBCMT:_87ctrigh_.obj
 0001:001e0bc1       _tanh                      005e1bc1 f   LIBCMT:_87ctrigh_.obj
 0001:001e0bc8       __CIsinh                   005e1bc8 f   LIBCMT:_87ctrigh_.obj
 0001:001e0bd2       __CIcosh                   005e1bd2 f   LIBCMT:_87ctrigh_.obj
 0001:001e0bd9       __CItanh                   005e1bd9 f   LIBCMT:_87ctrigh_.obj
 0001:001e0be0       _cos                       005e1be0 f   LIBCMT:_cos_.obj
 0001:001e0c20       __CIcos                    005e1c20 f   LIBCMT:_cos_.obj
 0001:001e0c5b       __CIcos_default            005e1c5b f   LIBCMT:_cos_.obj
 0001:001e0c6f       __cos_default              005e1c6f     LIBCMT:_cos_.obj
 0001:001e0d10       _tan                       005e1d10 f   LIBCMT:_tan_.obj
 0001:001e0d50       __CItan                    005e1d50 f   LIBCMT:_tan_.obj
 0001:001e0d8b       __CItan_default            005e1d8b f   LIBCMT:_tan_.obj
 0001:001e0d9f       __tan_default              005e1d9f     LIBCMT:_tan_.obj
 0001:001e0e40       _asin                      005e1e40 f   LIBCMT:_asin_.obj
 0001:001e0e80       __CIasin                   005e1e80 f   LIBCMT:_asin_.obj
 0001:001e0ebb       __CIasin_default           005e1ebb f   LIBCMT:_asin_.obj
 0001:001e0ecf       __asin_default             005e1ecf     LIBCMT:_asin_.obj
 0001:001e0f90       _acos                      005e1f90 f   LIBCMT:_acos_.obj
 0001:001e0fd0       __CIacos                   005e1fd0 f   LIBCMT:_acos_.obj
 0001:001e100b       __CIacos_default           005e200b f   LIBCMT:_acos_.obj
 0001:001e101f       __acos_default             005e201f     LIBCMT:_acos_.obj
 0001:001e10e0       _atan                      005e20e0 f   LIBCMT:_atan_.obj
 0001:001e1120       __CIatan                   005e2120 f   LIBCMT:_atan_.obj
 0001:001e115b       __CIatan_default           005e215b f   LIBCMT:_atan_.obj
 0001:001e116f       __atan_default             005e216f     LIBCMT:_atan_.obj
 0001:001e1200       _atan2                     005e2200 f   LIBCMT:_87ctriga_.obj
 0001:001e120a       __CIatan2                  005e220a f   LIBCMT:_87ctriga_.obj
 0001:001e1220       _ceil                      005e2220 f   LIBCMT:_ceil_pentium4_.obj
 0001:001e1260       __ceil_pentium4            005e2260 f   LIBCMT:_ceil_pentium4_.obj
 0001:001e1340       _fmod                      005e2340 f   LIBCMT:_87fmod_.obj
 0001:001e134a       __CIfmod                   005e234a f   LIBCMT:_87fmod_.obj
 0001:001e1370       _modf                      005e2370 f   LIBCMT:_modf_pentium4_.obj
 0001:001e13b0       __modf_pentium4            005e23b0 f   LIBCMT:_modf_pentium4_.obj
 0001:001e14c0       __CIsqrt                   005e24c0 f   LIBCMT:_sqrt_.obj
 0001:001e14d4       _sqrt                      005e24d4     LIBCMT:_sqrt_.obj
 0001:001e1580       _log                       005e2580 f   LIBCMT:_log_.obj
 0001:001e15c0       __CIlog                    005e25c0 f   LIBCMT:_log_.obj
 0001:001e15fb       __CIlog_default            005e25fb f   LIBCMT:_log_.obj
 0001:001e160f       __log_default              005e260f     LIBCMT:_log_.obj
 0001:001e16d0       _log10                     005e26d0 f   LIBCMT:_log10_.obj
 0001:001e1710       __CIlog10                  005e2710 f   LIBCMT:_log10_.obj
 0001:001e174b       __CIlog10_default          005e274b f   LIBCMT:_log10_.obj
 0001:001e175f       __log10_default            005e275f     LIBCMT:_log10_.obj
 0001:001e1820       _exp                       005e2820 f   LIBCMT:_87ctran_.obj
 0001:001e185c       __CIexp                    005e285c f   LIBCMT:_87ctran_.obj
 0001:001e1897       __exp_default              005e2897 f   LIBCMT:_87ctran_.obj
 0001:001e18a1       __CIexp_default            005e28a1 f   LIBCMT:_87ctran_.obj
 0001:001e18ab       _frexp                     005e28ab f   LIBCMT:_frexp_.obj
 0001:001e1979       _ldexp                     005e2979 f   LIBCMT:_ldexp_.obj
 0001:001e1b30       _strpbrk                   005e2b30 f   LIBCMT:strpbrk.obj
 0001:001e1b70       ____setlc_active_func      005e2b70 f   LIBCMT:setlocal.obj
 0001:001e1b76       ____unguarded_readlc_active_add_func 005e2b76 f   LIBCMT:setlocal.obj
 0001:001e1ba2       __configthreadlocale       005e2ba2 f   LIBCMT:setlocal.obj
 0001:001e1c29       __free_locale              005e2c29 f   LIBCMT:setlocal.obj
 0001:001e1ceb       ___free_locale             005e2ceb f   LIBCMT:setlocal.obj
 0001:001e1cf6       __get_current_locale       005e2cf6 f   LIBCMT:setlocal.obj
 0001:001e1da5       ___get_current_locale      005e2da5 f   LIBCMT:setlocal.obj
 0001:001e1daa       ___init_dummy              005e2daa f   LIBCMT:setlocal.obj
 0001:001e1dad       __strcats                  005e2dad f   LIBCMT:setlocal.obj
 0001:001e1dee       ___lc_strtolc              005e2dee f   LIBCMT:setlocal.obj
 0001:001e1f0d       ___lc_lctostr              005e2f0d f   LIBCMT:setlocal.obj
 0001:001e20dd       __expandlocale             005e30dd f   LIBCMT:setlocal.obj
 0001:001e2854       __create_locale            005e3854 f   LIBCMT:setlocal.obj
 0001:001e2949       ___create_locale           005e3949 f   LIBCMT:setlocal.obj
 0001:001e2954       _setlocale                 005e3954 f   LIBCMT:setlocal.obj
 0001:001e2ad0       __freopen_helper           005e3ad0 f   LIBCMT:freopen.obj
 0001:001e2ba1       _freopen                   005e3ba1 f   LIBCMT:freopen.obj
 0001:001e2bc7       _freopen_s                 005e3bc7 f   LIBCMT:freopen.obj
 0001:001e2be7       _abort                     005e3be7 f   LIBCMT:abort.obj
 0001:001e2c1a       __set_abort_behavior       005e3c1a f   LIBCMT:abort.obj
 0001:001e2c3b       _vfprintf_helper           005e3c3b f   LIBCMT:vfprintf.obj
 0001:001e2d46       __vfprintf_l               005e3d46 f   LIBCMT:vfprintf.obj
 0001:001e2d66       __vfprintf_s_l             005e3d66 f   LIBCMT:vfprintf.obj
 0001:001e2d86       __vfprintf_p_l             005e3d86 f   LIBCMT:vfprintf.obj
 0001:001e2da6       _vfprintf                  005e3da6 f   LIBCMT:vfprintf.obj
 0001:001e2dc5       _vfprintf_s                005e3dc5 f   LIBCMT:vfprintf.obj
 0001:001e2de4       __vfprintf_p               005e3de4 f   LIBCMT:vfprintf.obj
 0001:001e2e21       __wassert                  005e3e21 f   LIBCMT:wassert.obj
 0001:001e3486       _strtok                    005e4486 f   LIBCMT:strtok.obj
 0001:001e3714       _mainCRTStartup            005e4714 f   LIBCMT:crt0.obj
 0001:001e3923       ___crtLCMapStringA         005e4923 f   LIBCMT:a_map.obj
 0001:001e3969       ___pwctype_func            005e4969 f   LIBCMT:ctype.obj
 0001:001e396f       ___pctype_func             005e496f f   LIBCMT:ctype.obj
 0001:001e3998       ___init_ctype              005e4998 f   LIBCMT:initctyp.obj
 0001:001e3d3f       ____mb_cur_max_func        005e4d3f f   LIBCMT:initctyp.obj
 0001:001e3d68       ____mb_cur_max_l_func      005e4d68 f   LIBCMT:initctyp.obj
 0001:001e3d84       ____lc_codepage_func       005e4d84 f   LIBCMT:initctyp.obj
 0001:001e3daa       ____lc_collate_cp_func     005e4daa f   LIBCMT:initctyp.obj
 0001:001e3dd0       ____lc_handle_func         005e4dd0 f   LIBCMT:initctyp.obj
 0001:001e3df6       _wait_a_bit                005e4df6 f i LIBCMT:crtheap.obj
 0001:001e3e1c       __set_malloc_crt_max_wait  005e4e1c f   LIBCMT:crtheap.obj
 0001:001e3e31       __malloc_crt               005e4e31 f   LIBCMT:crtheap.obj
 0001:001e3e76       __calloc_crt               005e4e76 f   LIBCMT:crtheap.obj
 0001:001e3ec2       __realloc_crt              005e4ec2 f   LIBCMT:crtheap.obj
 0001:001e3f10       __recalloc_crt             005e4f10 f   LIBCMT:crtheap.obj
 0001:001e3f62       __EH_prolog3               005e4f62 f   LIBCMT:ehprolg3.obj
 0001:001e3f95       __EH_prolog3_catch         005e4f95 f   LIBCMT:ehprolg3.obj
 0001:001e3fcb       __EH_prolog3_GS            005e4fcb f   LIBCMT:ehprolg3.obj
 0001:001e4001       __EH_prolog3_catch_GS      005e5001 f   LIBCMT:ehprolg3.obj
 0001:001e403a       __EH_epilog3               005e503a f   LIBCMT:ehprolg3.obj
 0001:001e404e       __EH_epilog3_GS            005e504e f   LIBCMT:ehprolg3.obj
 0001:001e405d       __EH_epilog3_catch_GS      005e505d f   LIBCMT:ehprolg3.obj
 0001:001e4070       _strlen                    005e5070 f   LIBCMT:strlen.obj
 0001:001e40fb       __wfsopen                  005e50fb f   LIBCMT:wfopen.obj
 0001:001e41b9       __wfopen                   005e51b9 f   LIBCMT:wfopen.obj
 0001:001e41d0       __wfopen_s                 005e51d0 f   LIBCMT:wfopen.obj
 0001:001e422f       _asctime_s                 005e522f f   LIBCMT:asctime.obj
 0001:001e43fe       _asctime                   005e53fe f   LIBCMT:asctime.obj
 0001:001e45dc       __initp_misc_invarg        005e55dc f   LIBCMT:invarg.obj
 0001:001e45eb       __call_reportfault         005e55eb f   LIBCMT:invarg.obj
 0001:001e4714       __set_invalid_parameter_handler 005e5714 f   LIBCMT:invarg.obj
 0001:001e473b       __get_invalid_parameter_handler 005e573b f   LIBCMT:invarg.obj
 0001:001e4748       __invoke_watson            005e5748 f   LIBCMT:invarg.obj
 0001:001e476d       ?_invoke_watson@@YAXPBG00II@Z 005e576d f   LIBCMT:invarg.obj
 0001:001e4787       __invalid_parameter        005e5787 f   LIBCMT:invarg.obj
 0001:001e47b4       __invalid_parameter_noinfo 005e57b4 f   LIBCMT:invarg.obj
 0001:001e47c4       __invalid_parameter_noinfo_noreturn 005e57c4 f   LIBCMT:invarg.obj
 0001:001e47f2       ?_invalid_parameter@@YAXPBG00II@Z 005e57f2 f   LIBCMT:invarg.obj
 0001:001e47fd       __set_daylight             005e57fd f i LIBCMT:tzset.obj
 0001:001e480e       __set_dstbias              005e580e f i LIBCMT:tzset.obj
 0001:001e481f       __set_timezone             005e581f f i LIBCMT:tzset.obj
 0001:001e4f11       ___tzset                   005e5f11 f   LIBCMT:tzset.obj
 0001:001e4f60       __tzset                    005e5f60 f   LIBCMT:tzset.obj
 0001:001e4f98       __isindst                  005e5f98 f   LIBCMT:tzset.obj
 0001:001e4fd9       __get_daylight             005e5fd9 f   LIBCMT:timeset.obj
 0001:001e5006       __get_dstbias              005e6006 f   LIBCMT:timeset.obj
 0001:001e5033       __get_timezone             005e6033 f   LIBCMT:timeset.obj
 0001:001e5060       __get_tzname               005e6060 f   LIBCMT:timeset.obj
 0001:001e50f2       ___daylight                005e60f2 f   LIBCMT:timeset.obj
 0001:001e50f8       ___dstbias                 005e60f8 f   LIBCMT:timeset.obj
 0001:001e50fe       ___timezone                005e60fe f   LIBCMT:timeset.obj
 0001:001e5104       ___tzname                  005e6104 f   LIBCMT:timeset.obj
 0001:001e510a       __gmtime32_s               005e610a f   LIBCMT:gmtime.obj
 0001:001e524a       ___getgmtimebuf            005e624a f   LIBCMT:gmtime.obj
 0001:001e5281       __gmtime32                 005e6281 f   LIBCMT:gmtime.obj
 0001:001e52a8       __VEC_memzero              005e62a8 f   LIBCMT:p4_memset.obj
 0001:001e5362       ___sse2_available_init     005e6362 f   LIBCMT:cpu_disp.obj
 0001:001e5372       __openfile                 005e6372 f   LIBCMT:_open.obj
 0001:001e5609       __getstream                005e6609 f   LIBCMT:stream.obj
 0001:001e5740       __SEH_prolog4              005e6740 f   LIBCMT:sehprolg4.obj
 0001:001e5785       __SEH_epilog4              005e6785 f   LIBCMT:sehprolg4.obj
 0001:001e57d0       __except_handler4          005e67d0 f   LIBCMT:chandler4.obj
 0001:001e5960       __local_unwind4            005e6960 f   LIBCMT:exsup4.obj
 0001:001e5a36       __seh_longjmp_unwind4@4    005e6a36 f   LIBCMT:exsup4.obj
 0001:001e5a52       @_EH4_CallFilterFunc@8     005e6a52 f   LIBCMT:exsup4.obj
 0001:001e5a69       @_EH4_TransferToHandler@8  005e6a69 f   LIBCMT:exsup4.obj
 0001:001e5a82       @_EH4_GlobalUnwind2@8      005e6a82 f   LIBCMT:exsup4.obj
 0001:001e5a9b       @_EH4_LocalUnwind@16       005e6a9b f   LIBCMT:exsup4.obj
 0001:001e5ab2       __close_nolock             005e6ab2 f   LIBCMT:close.obj
 0001:001e5b4e       __close                    005e6b4e f   LIBCMT:close.obj
 0001:001e5b4e       _close                     005e6b4e f   LIBCMT:close.obj
 0001:001e5c12       __fileno                   005e6c12 f   LIBCMT:fileno.obj
 0001:001e5c12       _fileno                    005e6c12 f   LIBCMT:fileno.obj
 0001:001e5c38       __freebuf                  005e6c38 f   LIBCMT:_freebuf.obj
 0001:001e5c69       __flsbuf                   005e6c69 f   LIBCMT:_flsbuf.obj
 0001:001e5dcd       __write_nolock             005e6dcd f   LIBCMT:write.obj
 0001:001e64ca       _write                     005e74ca f   LIBCMT:write.obj
 0001:001e64ca       __write                    005e74ca f   LIBCMT:write.obj
 0001:001e659e       __filbuf                   005e759e f   LIBCMT:_filbuf.obj
 0001:001e66c0       __read_nolock              005e76c0 f   LIBCMT:read.obj
 0001:001e6c77       _read                      005e7c77 f   LIBCMT:read.obj
 0001:001e6c77       __read                     005e7c77 f   LIBCMT:read.obj
 0001:001e6d6d       _strcpy_s                  005e7d6d f   LIBCMT:strcpy_s.obj
 0001:001e6dcc       ?_Type_info_dtor@type_info@@CAXPAV1@@Z 005e7dcc f   LIBCMT:typname.obj
 0001:001e6e3c       ?_Name_base@type_info@@CAPBDPBV1@PAU__type_info_node@@@Z 005e7e3c f   LIBCMT:typname.obj
 0001:001e6f2e       ?_Type_info_dtor_internal@type_info@@CAXPAV1@@Z 005e7f2e f   LIBCMT:typname.obj
 0001:001e6f9e       ___unDNameHelper           005e7f9e f   LIBCMT:typname.obj
 0001:001e6fd1       ?_Name_base_internal@type_info@@CAPBDPBV1@PAU__type_info_node@@@Z 005e7fd1 f   LIBCMT:typname.obj
 0001:001e70dd       ___clean_type_info_names_internal 005e80dd f   LIBCMT:typname.obj
 0001:001e7130       _strcmp                    005e8130 f   LIBCMT:strcmp.obj
 0001:001e71b8       __VEC_memcpy               005e81b8 f   LIBCMT:p4_memcpy.obj
 0001:001e72bb       __fullpath                 005e82bb f   LIBCMT:fullpath.obj
 0001:001e73b2       ___dtoxmode                005e83b2 f   LIBCMT:stat.obj
 0001:001e7549       __stat32                   005e8549 f   LIBCMT:stat.obj
 0001:001e7973       __fstat64i32               005e8973 f   LIBCMT:fstati32.obj
 0001:001e83f9       __open                     005e93f9 f   LIBCMT:open.obj
 0001:001e83f9       _open                      005e93f9 f   LIBCMT:open.obj
 0001:001e84a7       __sopen_helper             005e94a7 f   LIBCMT:open.obj
 0001:001e856b       __sopen                    005e956b f   LIBCMT:open.obj
 0001:001e856b       _sopen                     005e956b f   LIBCMT:open.obj
 0001:001e859d       __sopen_s                  005e959d f   LIBCMT:open.obj
 0001:001e85bd       ___loctotime64_t           005e95bd f   LIBCMT:dtoxtm64.obj
 0001:001e8824       __getdrive                 005e9824 f   LIBCMT:drive.obj
 0001:001e88f2       __chdrive                  005e98f2 f   LIBCMT:drive.obj
 0001:001e898e       __mbctolower_l             005e998e f   LIBCMT:mbtolwr.obj
 0001:001e8a34       __mbctolower               005e9a34 f   LIBCMT:mbtolwr.obj
 0001:001e8a47       __mbspbrk_l                005e9a47 f   LIBCMT:mbspbrk.obj
 0001:001e8b0c       __mbspbrk                  005e9b0c f   LIBCMT:mbspbrk.obj
 0001:001e8b23       __GET_RTERRMSG             005e9b23 f   LIBCMT:crt0msg.obj
 0001:001e8b49       __NMSG_WRITE               005e9b49 f   LIBCMT:crt0msg.obj
 0001:001e8cf8       __FF_MSGBANNER             005e9cf8 f   LIBCMT:crt0msg.obj
 0001:001e8d31       ___getlocaleinfo           005e9d31 f   LIBCMT:inithelp.obj
 0001:001e8edd       __initp_misc_purevirt      005e9edd f   LIBCMT:inithelp.obj
 0001:001e8eec       __heap_init                005e9eec f   LIBCMT:heapinit.obj
 0001:001e8f0a       __heap_term                005e9f0a f   LIBCMT:heapinit.obj
 0001:001e8f1e       __get_heap_handle          005e9f1e f   LIBCMT:heapinit.obj
 0001:001e8f24       __initp_heap_handler       005e9f24 f   LIBCMT:handler.obj
 0001:001e8f33       ?_set_new_handler@@YAP6AHI@ZP6AHI@Z@Z 005e9f33 f   LIBCMT:handler.obj
 0001:001e8f6a       ?_set_new_handler@@YAP6AHI@ZH@Z 005e9f6a f   LIBCMT:handler.obj
 0001:001e8f73       ?_query_new_handler@@YAP6AHI@ZXZ 005e9f73 f   LIBCMT:handler.obj
 0001:001e8f80       __callnewh                 005e9f80 f   LIBCMT:handler.obj
 0001:001e8fa8       __ioinit                   005e9fa8 f   LIBCMT:ioinit.obj
 0001:001e91ed       __ioterm                   005ea1ed f   LIBCMT:ioinit.obj
 0001:001e9240       __lseek_nolock             005ea240 f   LIBCMT:lseek.obj
 0001:001e92b5       __lseek                    005ea2b5 f   LIBCMT:lseek.obj
 0001:001e92b5       _lseek                     005ea2b5 f   LIBCMT:lseek.obj
 0001:001e9389       ___report_gsfailure        005ea389 f   LIBCMT:gs_report.obj
 0001:001e948f       __stbuf                    005ea48f f   LIBCMT:_sftbuf.obj
 0001:001e952b       __ftbuf                    005ea52b f   LIBCMT:_sftbuf.obj
 0001:001e962c       _get_int_arg               005ea62c f i LIBCMT:output.obj
 0001:001e963e       _get_int64_arg             005ea63e f i LIBCMT:output.obj
 0001:001e9653       _get_short_arg             005ea653 f i LIBCMT:output.obj
 0001:001e9666       __output_l                 005ea666 f   LIBCMT:output.obj
 0001:001ea212       __vsnprintf_l              005eb212 f   LIBCMT:vsnprint.obj
 0001:001ea2be       __vsnprintf                005eb2be f   LIBCMT:vsnprint.obj
 0001:001ea578       __strtoi64                 005eb578 f   LIBCMT:strtoq.obj
 0001:001ea5a3       __strtoi64_l               005eb5a3 f   LIBCMT:strtoq.obj
 0001:001ea5c0       __strtoui64                005eb5c0 f   LIBCMT:strtoq.obj
 0001:001ea5ec       __strtoui64_l              005eb5ec f   LIBCMT:strtoq.obj
 0001:001ea609       ___sys_nerr                005eb609 f   LIBCMT:syserr.obj
 0001:001ea60f       ___sys_errlist             005eb60f f   LIBCMT:syserr.obj
 0001:001ea615       __encoded_null             005eb615 f   LIBCMT:tidtable.obj
 0001:001ea61e       ___crtTlsAlloc@4           005eb61e f   LIBCMT:tidtable.obj
 0001:001ea627       ___fls_getvalue@4          005eb627 f   LIBCMT:tidtable.obj
 0001:001ea641       ___get_flsindex            005eb641 f   LIBCMT:tidtable.obj
 0001:001ea647       ___set_flsgetvalue         005eb647 f   LIBCMT:tidtable.obj
 0001:001ea67b       ___fls_setvalue@8          005eb67b f   LIBCMT:tidtable.obj
 0001:001ea698       __mtterm                   005eb698 f   LIBCMT:tidtable.obj
 0001:001ea6d5       __initptd                  005eb6d5 f   LIBCMT:tidtable.obj
 0001:001ea789       __getptd_noexit            005eb789 f   LIBCMT:tidtable.obj
 0001:001ea802       __getptd                   005eb802 f   LIBCMT:tidtable.obj
 0001:001ea81c       __freefls@4                005eb81c f   LIBCMT:tidtable.obj
 0001:001ea94b       __freeptd                  005eb94b f   LIBCMT:tidtable.obj
 0001:001ea9b9       ___threadid                005eb9b9 f   LIBCMT:tidtable.obj
 0001:001ea9bf       ___threadhandle            005eb9bf f   LIBCMT:tidtable.obj
 0001:001ea9c5       __mtinit                   005eb9c5 f   LIBCMT:tidtable.obj
 0001:001eab40       _strncpy_s                 005ebb40 f   LIBCMT:strncpy_s.obj
 0001:001eabf5       _vprintf_helper            005ebbf5 f   LIBCMT:vprintf.obj
 0001:001eac7a       __vprintf_l                005ebc7a f   LIBCMT:vprintf.obj
 0001:001eac97       __vprintf_s_l              005ebc97 f   LIBCMT:vprintf.obj
 0001:001eacb4       __vprintf_p_l              005ebcb4 f   LIBCMT:vprintf.obj
 0001:001eacd1       _vprintf                   005ebcd1 f   LIBCMT:vprintf.obj
 0001:001eaced       _vprintf_s                 005ebced f   LIBCMT:vprintf.obj
 0001:001ead09       __vprintf_p                005ebd09 f   LIBCMT:vprintf.obj
 0001:001ead25       __fcloseall                005ebd25 f   LIBCMT:closeall.obj
 0001:001eadc1       __mtinitlocks              005ebdc1 f   LIBCMT:mlock.obj
 0001:001eae0b       __mtdeletelocks            005ebe0b f   LIBCMT:mlock.obj
 0001:001eae62       __unlock                   005ebe62 f   LIBCMT:mlock.obj
 0001:001eae79       __lockerr_exit             005ebe79 f   LIBCMT:mlock.obj
 0001:001eae91       __mtinitlocknum            005ebe91 f   LIBCMT:mlock.obj
 0001:001eaf53       __lock                     005ebf53 f   LIBCMT:mlock.obj
 0001:001eaf86       __set_osfhnd               005ebf86 f   LIBCMT:osfinfo.obj
 0001:001eb007       __free_osfhnd              005ec007 f   LIBCMT:osfinfo.obj
 0001:001eb08d       __get_osfhandle            005ec08d f   LIBCMT:osfinfo.obj
 0001:001eb0f6       ___lock_fhandle            005ec0f6 f   LIBCMT:osfinfo.obj
 0001:001eb195       __unlock_fhandle           005ec195 f   LIBCMT:osfinfo.obj
 0001:001eb1bc       __alloc_osfhnd             005ec1bc f   LIBCMT:osfinfo.obj
 0001:001eb355       __open_osfhandle           005ec355 f   LIBCMT:osfinfo.obj
 0001:001eb46b       __vsnprintf_helper         005ec46b f   LIBCMT:vsnprnc.obj
 0001:001eb535       __vsnprintf_c              005ec535 f   LIBCMT:vsnprnc.obj
 0001:001eb55e       __vsnprintf_c_l            005ec55e f   LIBCMT:vsnprnc.obj
 0001:001eb588       __vsprintf_s_l             005ec588 f   LIBCMT:vsnprnc.obj
 0001:001eb5ff       _vsprintf_s                005ec5ff f   LIBCMT:vsnprnc.obj
 0001:001eb61c       __vsnprintf_s_l            005ec61c f   LIBCMT:vsnprnc.obj
 0001:001eb708       __vsnprintf_s              005ec708 f   LIBCMT:vsnprnc.obj
 0001:001eb728       __vsprintf_p               005ec728 f   LIBCMT:vsnprnc.obj
 0001:001eb751       __vsprintf_p_l             005ec751 f   LIBCMT:vsnprnc.obj
 0001:001eb77b       ?terminate@@YAXXZ          005ec77b f   LIBCMT:hooks.obj
 0001:001eb7b4       ?unexpected@@YAXXZ         005ec7b4 f   LIBCMT:hooks.obj
 0001:001eb7c7       ?_inconsistency@@YAXXZ     005ec7c7 f   LIBCMT:hooks.obj
 0001:001eb7ff       __initp_eh_hooks           005ec7ff f   LIBCMT:hooks.obj
 0001:001eb810       __initp_misc_winsig        005ec810 f   LIBCMT:winsig.obj
 0001:001eb901       ___get_sigabrt             005ec901 f   LIBCMT:winsig.obj
 0001:001eb90e       ___fpecode                 005ec90e f   LIBCMT:winsig.obj
 0001:001eb917       ___pxcptinfoptrs           005ec917 f   LIBCMT:winsig.obj
 0001:001eb920       _signal                    005ec920 f   LIBCMT:winsig.obj
 0001:001ebb60       _raise                     005ecb60 f   LIBCMT:winsig.obj
 0001:001ebd03       __initp_misc_rand_s        005ecd03 f   LIBCMT:rand_s.obj
 0001:001ebd12       _rand_s                    005ecd12 f   LIBCMT:rand_s.obj
 0001:001ebe02       __RTC_Initialize           005ece02 f   LIBCMT:_initsect_.obj
 0001:001ebe28       __RTC_Terminate            005ece28 f   LIBCMT:_initsect_.obj
 0001:001ebe4e       __initp_misc_cfltcvt_tab   005ece4e f   LIBCMT:cmiscdat.obj
 0001:001ebe80       __ValidateImageBase        005ece80 f   LIBCMT:pesect.obj
 0001:001ebec0       __FindPESection            005ecec0 f   LIBCMT:pesect.obj
 0001:001ebf10       __IsNonwritableInCurrentImage 005ecf10 f   LIBCMT:pesect.obj
 0001:001ebfd0       __global_unwind2           005ecfd0 f   LIBCMT:exsup.obj
 0001:001ec035       __local_unwind2            005ed035 f   LIBCMT:exsup.obj
 0001:001ec0b9       __abnormal_termination     005ed0b9 f   LIBCMT:exsup.obj
 0001:001ec0dc       __NLG_Notify1              005ed0dc f   LIBCMT:exsup.obj
 0001:001ec0e5       __NLG_Notify               005ed0e5 f   LIBCMT:exsup.obj
 0001:001ec0fc       __NLG_Dispatch2            005ed0fc     LIBCMT:exsup.obj
 0001:001ec0fc       __NLG_Dispatch             005ed0fc     LIBCMT:exsup.obj
 0001:001ec104       __NLG_Call                 005ed104 f   LIBCMT:exsup.obj
 0001:001ec106       __NLG_Return2              005ed106     LIBCMT:exsup.obj
 0001:001ec107       __rt_probe_read4@4         005ed107 f   LIBCMT:sehsupp.obj
 0001:001ec152       __forcdecpt_l              005ed152 f   LIBCMT:cvt.obj
 0001:001ec1c6       __cropzeros_l              005ed1c6 f   LIBCMT:cvt.obj
 0001:001ec248       __positive                 005ed248 f   LIBCMT:cvt.obj
 0001:001ec264       __fassign_l                005ed264 f   LIBCMT:cvt.obj
 0001:001ec2a6       __fassign                  005ed2a6 f   LIBCMT:cvt.obj
 0001:001ec2df       __forcdecpt                005ed2df f   LIBCMT:cvt.obj
 0001:001ec2f2       __cropzeros                005ed2f2 f   LIBCMT:cvt.obj
 0001:001ec466       __cftoe_l                  005ed466 f   LIBCMT:cvt.obj
 0001:001ec52d       __cftoe                    005ed52d f   LIBCMT:cvt.obj
 0001:001ec54d       __cftoa_l                  005ed54d f   LIBCMT:cvt.obj
 0001:001ec8c3       __cftoa                    005ed8c3 f   LIBCMT:cvt.obj
 0001:001ec9e6       __cftof_l                  005ed9e6 f   LIBCMT:cvt.obj
 0001:001ecaa7       __cftof                    005edaa7 f   LIBCMT:cvt.obj
 0001:001ecac4       __cftog_l                  005edac4 f   LIBCMT:cvt.obj
 0001:001ecbb1       __cftog                    005edbb1 f   LIBCMT:cvt.obj
 0001:001ecbd1       __cfltcvt_l                005edbd1 f   LIBCMT:cvt.obj
 0001:001ecc59       __cfltcvt                  005edc59 f   LIBCMT:cvt.obj
 0001:001ecc7c       __setdefaultprecision      005edc7c f   LIBCMT:fp8.obj
 0001:001ecec7       ___updatetmbcinfo          005edec7 f   LIBCMT:mbctype.obj
 0001:001ecfe7       __setmbcp_nolock           005edfe7 f   LIBCMT:mbctype.obj
 0001:001ed1d0       __getmbcp                  005ee1d0 f   LIBCMT:mbctype.obj
 0001:001ed20e       __setmbcp                  005ee20e f   LIBCMT:mbctype.obj
 0001:001ed3a8       ___initmbctable            005ee3a8 f   LIBCMT:mbctype.obj
 0001:001ed3c6       ___addlocaleref            005ee3c6 f   LIBCMT:localref.obj
 0001:001ed455       ___removelocaleref         005ee455 f   LIBCMT:localref.obj
 0001:001ed4ee       ___freetlocinfo            005ee4ee f   LIBCMT:localref.obj
 0001:001ed639       __updatetlocinfoEx_nolock  005ee639 f   LIBCMT:localref.obj
 0001:001ed686       ___updatetlocinfo          005ee686 f   LIBCMT:localref.obj
 0001:001ed6ff       __isctype_l                005ee6ff f   LIBCMT:isctype.obj
 0001:001ed7b7       __isctype                  005ee7b7 f   LIBCMT:isctype.obj
 0001:001ed7e9       __validate_param_reuseA    005ee7e9 f   LIBCMT:outputp.obj
 0001:001ed9e1       _get_crtdouble_arg         005ee9e1 f i LIBCMT:outputp.obj
 0001:001ed9f6       __output_p_l               005ee9f6 f   LIBCMT:outputp.obj
 0001:001eece2       __fltin2                   005efce2 f   LIBCMT:_cfin_.obj
 0001:001eed89       ___addl                    005efd89 f i LIBCMT:_strgtold_.obj
 0001:001eedad       ___shl_12                  005efdad f i LIBCMT:_strgtold_.obj
 0001:001eede0       ___shr_12                  005efde0 f i LIBCMT:_strgtold_.obj
 0001:001eee12       ___ld12mul                 005efe12 f i LIBCMT:_strgtold_.obj
 0001:001ef08d       ___multtenpow12            005f008d f i LIBCMT:_strgtold_.obj
 0001:001ef38c       ___strgtold12_l            005f038c f   LIBCMT:_strgtold_.obj
 0001:001efa68       ___STRINGTOLD_L            005f0a68 f   LIBCMT:_strgtold_.obj
 0001:001efac3       __isleadbyte_l             005f0ac3 f i LIBCMT:_wctype.obj
 0001:001efafb       _isleadbyte                005f0afb f i LIBCMT:_wctype.obj
 0001:001efb0e       __iswalpha_l               005f0b0e f i LIBCMT:_wctype.obj
 0001:001efb24       _iswalpha                  005f0b24 f i LIBCMT:_wctype.obj
 0001:001efb3a       __iswupper_l               005f0b3a f i LIBCMT:_wctype.obj
 0001:001efb4d       _iswupper                  005f0b4d f i LIBCMT:_wctype.obj
 0001:001efb60       __iswlower_l               005f0b60 f i LIBCMT:_wctype.obj
 0001:001efb73       _iswlower                  005f0b73 f i LIBCMT:_wctype.obj
 0001:001efb86       __iswdigit_l               005f0b86 f i LIBCMT:_wctype.obj
 0001:001efb99       _iswdigit                  005f0b99 f i LIBCMT:_wctype.obj
 0001:001efbac       __iswxdigit_l              005f0bac f i LIBCMT:_wctype.obj
 0001:001efbc2       _iswxdigit                 005f0bc2 f i LIBCMT:_wctype.obj
 0001:001efbd8       __iswspace_l               005f0bd8 f i LIBCMT:_wctype.obj
 0001:001efbeb       _iswspace                  005f0beb f i LIBCMT:_wctype.obj
 0001:001efbfe       __iswpunct_l               005f0bfe f i LIBCMT:_wctype.obj
 0001:001efc11       _iswpunct                  005f0c11 f i LIBCMT:_wctype.obj
 0001:001efc24       __iswalnum_l               005f0c24 f i LIBCMT:_wctype.obj
 0001:001efc3a       _iswalnum                  005f0c3a f i LIBCMT:_wctype.obj
 0001:001efc50       __iswprint_l               005f0c50 f i LIBCMT:_wctype.obj
 0001:001efc66       _iswprint                  005f0c66 f i LIBCMT:_wctype.obj
 0001:001efc7c       __iswgraph_l               005f0c7c f i LIBCMT:_wctype.obj
 0001:001efc92       _iswgraph                  005f0c92 f i LIBCMT:_wctype.obj
 0001:001efca8       __iswcntrl_l               005f0ca8 f i LIBCMT:_wctype.obj
 0001:001efcbb       _iswcntrl                  005f0cbb f i LIBCMT:_wctype.obj
 0001:001efcce       _iswascii                  005f0cce f i LIBCMT:_wctype.obj
 0001:001efce2       __iswcsym_l                005f0ce2 f i LIBCMT:_wctype.obj
 0001:001efd08       ___iswcsym                 005f0d08 f i LIBCMT:_wctype.obj
 0001:001efd2e       __iswcsymf_l               005f0d2e f i LIBCMT:_wctype.obj
 0001:001efd54       ___iswcsymf                005f0d54 f i LIBCMT:_wctype.obj
 0001:001efd7a       __commit                   005f0d7a f   LIBCMT:commit.obj
 0001:001efe53       ??0bad_exception@std@@QAE@PBD@Z 005f0e53 f i LIBCMT:frame.obj
 0001:001efe71       ??1bad_exception@std@@UAE@XZ 005f0e71 f i LIBCMT:frame.obj
 0001:001efe7c       ??_Ebad_exception@std@@UAEPAXI@Z 005f0e7c f i LIBCMT:frame.obj
 0001:001efe7c       ??_Gbad_exception@std@@UAEPAXI@Z 005f0e7c f i LIBCMT:frame.obj
 0001:001efea3       ___TypeMatch               005f0ea3 f   LIBCMT:frame.obj
 0001:001eff02       ___FrameUnwindFilter       005f0f02 f   LIBCMT:frame.obj
 0001:001eff51       ___FrameUnwindToState      005f0f51 f   LIBCMT:frame.obj
 0001:001f0072       ___DestructExceptionObject 005f1072 f   LIBCMT:frame.obj
 0001:001f00c7       ___AdjustPointer           005f10c7 f   LIBCMT:frame.obj
 0001:001f00f0       ?__uncaught_exception@@YA_NXZ 005f10f0 f   LIBCMT:frame.obj
 0001:001f0101       ___CxxRegisterExceptionObject 005f1101 f   LIBCMT:frame.obj
 0001:001f01b7       ___CxxDetectRethrow        005f11b7 f   LIBCMT:frame.obj
 0001:001f0208       ___CxxUnregisterExceptionObject 005f1208 f   LIBCMT:frame.obj
 0001:001f0346       ___CxxQueryExceptionSize   005f1346 f   LIBCMT:frame.obj
 0001:001f034a       ___CxxCallUnwindDtor       005f134a f   LIBCMT:frame.obj
 0001:001f037c       ___CxxCallUnwindDelDtor    005f137c f   LIBCMT:frame.obj
 0001:001f03af       ___CxxCallUnwindStdDelDtor 005f13af f   LIBCMT:frame.obj
 0001:001f03e1       ___CxxCallUnwindVecDtor    005f13e1 f   LIBCMT:frame.obj
 0001:001f0512       ?_is_exception_typeof@@YAHABVtype_info@@PAU_EXCEPTION_POINTERS@@@Z 005f1512 f   LIBCMT:frame.obj
 0001:001f0734       ___BuildCatchObjectHelper  005f1734 f   LIBCMT:frame.obj
 0001:001f08b3       ___BuildCatchObject        005f18b3 f   LIBCMT:frame.obj
 0001:001f0945       ___CxxExceptionFilter      005f1945 f   LIBCMT:frame.obj
 0001:001f0f7d       ??0bad_exception@std@@QAE@ABV01@@Z 005f1f7d f i LIBCMT:frame.obj
 0001:001f0f9a       ___InternalCxxFrameHandler 005f1f9a f   LIBCMT:frame.obj
 0001:001f1080       __CallSettingFrame@12      005f2080 f   LIBCMT:lowhelpr.obj
 0001:001f10a7       __NLG_Return               005f20a7     LIBCMT:lowhelpr.obj
 0001:001f10cc       __getbuf                   005f20cc f   LIBCMT:_getbuf.obj
 0001:001f1115       __msize                    005f2115 f   LIBCMT:msize.obj
 0001:001f119f       __INTRN_LOCALE_CONV        005f219f f i LIBCMT:input.obj
 0001:001f1224       __input_l                  005f2224 f   LIBCMT:input.obj
 0001:001f22f2       __input_s_l                005f32f2 f   LIBCMT:inputs.obj
 0001:001f3415       __mbsnbicoll_l             005f4415 f   LIBCMT:mbsnbico.obj
 0001:001f34f3       __mbsnbicoll               005f44f3 f   LIBCMT:mbsnbico.obj
 0001:001f350d       ___wtomb_environ           005f450d f   LIBCMT:wtombenv.obj
 0001:001f35a4       _calloc                    005f45a4 f   LIBCMT:calloc.obj
 0001:001f35e4       __ftelli64_nolock          005f45e4 f   LIBCMT:ftelli64.obj
 0001:001f392e       __ftelli64                 005f492e f   LIBCMT:ftelli64.obj
 0001:001f399b       __spawnvpe                 005f499b f   LIBCMT:spawnvpe.obj
 0001:001f3c79       __spawnve                  005f4c79 f   LIBCMT:spawnve.obj
 0001:001f3e62       __access_s                 005f4e62 f   LIBCMT:access.obj
 0001:001f3ee1       __access                   005f4ee1 f   LIBCMT:access.obj
 0001:001f3ef9       ___ascii_stricmp           005f4ef9 f   LIBCMT:stricmp.obj
 0001:001f3f32       __stricmp_l                005f4f32 f   LIBCMT:stricmp.obj
 0001:001f3ff2       __stricmp                  005f4ff2 f   LIBCMT:stricmp.obj
 0001:001f3ff2       _stricmp                   005f4ff2 f   LIBCMT:stricmp.obj
 0001:001f4040       __alloca_probe_16          005f5040 f   LIBCMT:alloca16.obj
 0001:001f4056       __alloca_probe_8           005f5056     LIBCMT:alloca16.obj
 0001:001f406c       __set_SSE2_enable          005f506c f   LIBCMT:_mathfcns_.obj
 0001:001f4085       __sse2_mathfcns_init       005f5085 f   LIBCMT:_mathfcns_.obj
 0001:001f40a0       __CIpow_pentium4           005f50a0 f   LIBCMT:_pow_pentium4_.obj
 0001:001f40b9       __pow_pentium4             005f50b9     LIBCMT:_pow_pentium4_.obj
 0001:001f4c11       __fFEXP                    005f5c11     LIBCMT:_87tran_.obj
 0001:001f4c68       __rtinfpopse               005f5c68     LIBCMT:_87tran_.obj
 0001:001f4c6a       __rtinfnpopse              005f5c6a     LIBCMT:_87tran_.obj
 0001:001f4c7a       __fFLN                     005f5c7a     LIBCMT:_87tran_.obj
 0001:001f4d2f       __rtinfpop                 005f5d2f     LIBCMT:_87tran_.obj
 0001:001f4d31       __rtinfnpop                005f5d31     LIBCMT:_87tran_.obj
 0001:001f4d4e       __ffexpm1                  005f5d4e     LIBCMT:_87tran_.obj
 0001:001f4e00       __trandisp1                005f5e00 f   LIBCMT:_87disp_.obj
 0001:001f4e67       __trandisp2                005f5e67 f   LIBCMT:_87disp_.obj
 0001:001f4ef3       __rttospopde               005f5ef3     LIBCMT:_87disp_.obj
 0001:001f4ef8       __rttospop                 005f5ef8     LIBCMT:_87disp_.obj
 0001:001f4efa       __rtnospop                 005f5efa     LIBCMT:_87disp_.obj
 0001:001f4efc       __rttosnpop                005f5efc     LIBCMT:_87disp_.obj
 0001:001f4efd       __rtnospopde               005f5efd     LIBCMT:_87disp_.obj
 0001:001f4f04       __rtzeropop                005f5f04     LIBCMT:_87disp_.obj
 0001:001f4f06       __rtzeronpop               005f5f06     LIBCMT:_87disp_.obj
 0001:001f4f0b       __rtonepop                 005f5f0b     LIBCMT:_87disp_.obj
 0001:001f4f0d       __rtonenpop                005f5f0d     LIBCMT:_87disp_.obj
 0001:001f4f12       __tosnan1                  005f5f12     LIBCMT:_87disp_.obj
 0001:001f4f3d       __nosnan2                  005f5f3d     LIBCMT:_87disp_.obj
 0001:001f4f3f       __tosnan2                  005f5f3f     LIBCMT:_87disp_.obj
 0001:001f4f67       __nan2                     005f5f67     LIBCMT:_87disp_.obj
 0001:001f4fa6       __rtindfpop                005f5fa6     LIBCMT:_87disp_.obj
 0001:001f4fa8       __rtindfnpop               005f5fa8     LIBCMT:_87disp_.obj
 0001:001f4fb9       __rttosnpopde              005f5fb9     LIBCMT:_87disp_.obj
 0001:001f4fc3       __rtchsifneg               005f5fc3     LIBCMT:_87disp_.obj
 0001:001f4fd0       __startTwoArgErrorHandling 005f5fd0 f   LIBCMT:_genexcep_.obj
 0001:001f4fe7       __startOneArgErrorHandling 005f5fe7 f   LIBCMT:_genexcep_.obj
 0001:001f5030       __twoToTOS                 005f6030 f   LIBCMT:_common_.obj
 0001:001f5045       __load_CW                  005f6045 f   LIBCMT:_common_.obj
 0001:001f505c       __convertTOStoQNaN         005f605c f   LIBCMT:_common_.obj
 0001:001f5075       __fload_withFB             005f6075 f   LIBCMT:_common_.obj
 0001:001f50b8       __checkTOS_withFB          005f60b8 f   LIBCMT:_common_.obj
 0001:001f50ce       __fast_exit                005f60ce f   LIBCMT:_common_.obj
 0001:001f50db       __math_exit                005f60db f   LIBCMT:_common_.obj
 0001:001f5105       __check_overflow_exit      005f6105 f   LIBCMT:_common_.obj
 0001:001f5119       __check_range_exit         005f6119 f   LIBCMT:_common_.obj
 0001:001f51bc       __d_inttype                005f61bc f   LIBCMT:_powhlp_.obj
 0001:001f5226       __powhlp                   005f6226 f   LIBCMT:_powhlp_.obj
 0001:001f5351       ___libm_setusermatherr     005f6351 f   LIBCMT:_libm_error_.obj
 0001:001f537f       ___libm_error_support      005f637f f   LIBCMT:_libm_error_.obj
 0001:001f564b       __floor_default            005f664b f   LIBCMT:_floor_.obj
 0001:001f59af       ___crtCompareStringA       005f69af f   LIBCMT:a_cmp.obj
 0001:001f59f1       _strcat_s                  005f69f1 f   LIBCMT:strcat_s.obj
 0001:001f5b18       __itoa_s                   005f6b18 f   LIBCMT:xtoas.obj
 0001:001f5b42       __ltoa_s                   005f6b42 f   LIBCMT:xtoas.obj
 0001:001f5b69       __ultoa_s                  005f6b69 f   LIBCMT:xtoas.obj
 0001:001f5c6f       __i64toa_s                 005f6c6f f   LIBCMT:xtoas.obj
 0001:001f5ca4       __ui64toa_s                005f6ca4 f   LIBCMT:xtoas.obj
 0001:001f5cc3       __getpid                   005f6cc3 f   LIBCMT:getpid.obj
 0001:001f5cc9       __mbsrchr_l                005f6cc9 f   LIBCMT:mbsrchr.obj
 0001:001f5d73       __mbsrchr                  005f6d73 f   LIBCMT:mbsrchr.obj
 0001:001f5d8a       __rmtmp                    005f6d8a f   LIBCMT:rmtmp.obj
 0001:001f5e33       _strdup                    005f6e33 f   LIBCMT:strdup.obj
 0001:001f5e33       __strdup                   005f6e33 f   LIBCMT:strdup.obj
 0001:001f5e85       __getpath                  005f6e85 f   LIBCMT:getpath.obj
 0001:001f5f1a       __fdopen                   005f6f1a f   LIBCMT:fdopen.obj
 0001:001f6090       __pipe                     005f7090 f   LIBCMT:pipe.obj
 0001:001f6336       __cwait                    005f7336 f   LIBCMT:wait.obj
 0001:001f63d0       __CIsin_pentium4           005f73d0 f   LIBCMT:_sin_pentium4_.obj
 0001:001f63e8       __sin_pentium4             005f73e8     LIBCMT:_sin_pentium4_.obj
 0001:001f65a0       __fFSINH                   005f75a0     LIBCMT:_87trigh_.obj
 0001:001f65f2       __fFCOSH                   005f75f2     LIBCMT:_87trigh_.obj
 0001:001f66a0       __cintrindisp2             005f76a0 f   LIBCMT:_87cdisp_.obj
 0001:001f66de       __cintrindisp1             005f76de f   LIBCMT:_87cdisp_.obj
 0001:001f671b       __ctrandisp2               005f771b f   LIBCMT:_87cdisp_.obj
 0001:001f68aa       __ctrandisp1               005f78aa f   LIBCMT:_87cdisp_.obj
 0001:001f68dd       __fload                    005f78dd f   LIBCMT:_87cdisp_.obj
 0001:001f6920       __CIcos_pentium4           005f7920 f   LIBCMT:_cos_pentium4_.obj
 0001:001f6938       __cos_pentium4             005f7938     LIBCMT:_cos_pentium4_.obj
 0001:001f6ad0       __CItan_pentium4           005f7ad0 f   LIBCMT:_tan_pentium4_.obj
 0001:001f6ae8       __tan_pentium4             005f7ae8     LIBCMT:_tan_pentium4_.obj
 0001:001f6d30       __CIasin_pentium4          005f7d30 f   LIBCMT:_asin_pentium4_.obj
 0001:001f6d48       __asin_pentium4            005f7d48     LIBCMT:_asin_pentium4_.obj
 0001:001f72b0       __CIacos_pentium4          005f82b0 f   LIBCMT:_acos_pentium4_.obj
 0001:001f72c8       __acos_pentium4            005f82c8     LIBCMT:_acos_pentium4_.obj
 0001:001f7810       __CIatan_pentium4          005f8810 f   LIBCMT:_atan_pentium4_.obj
 0001:001f7828       __atan_pentium4            005f8828     LIBCMT:_atan_pentium4_.obj
 0001:001f7b1c       __fFATN2                   005f8b1c     LIBCMT:_87triga_.obj
 0001:001f7b6c       __rtpiby2                  005f8b6c     LIBCMT:_87triga_.obj
 0001:001f7ba8       __ceil_default             005f8ba8 f   LIBCMT:_ceil_.obj
 0001:001f7c80       __modf_default             005f8c80 f   LIBCMT:_modf_.obj
 0001:001f7da0       __CIlog_pentium4           005f8da0 f   LIBCMT:_log_pentium4_.obj
 0001:001f7db8       __log_pentium4             005f8db8     LIBCMT:_log_pentium4_.obj
 0001:001f8010       __CIlog10_pentium4         005f9010 f   LIBCMT:_log10_pentium4_.obj
 0001:001f8028       __log10_pentium4           005f9028     LIBCMT:_log10_pentium4_.obj
 0001:001f82a0       __CIexp_pentium4           005f92a0 f   LIBCMT:_exp_pentium4_.obj
 0001:001f82b8       __exp_pentium4             005f92b8     LIBCMT:_exp_pentium4_.obj
 0001:001f8560       __set_exp                  005f9560 f   LIBCMT:_util_.obj
 0001:001f858d       __get_exp                  005f958d f   LIBCMT:_util_.obj
 0001:001f85a6       __add_exp                  005f95a6 f   LIBCMT:_util_.obj
 0001:001f85d4       __set_bexp                 005f95d4 f   LIBCMT:_util_.obj
 0001:001f85fc       __sptype                   005f95fc f   LIBCMT:_util_.obj
 0001:001f8662       __decomp                   005f9662 f   LIBCMT:_util_.obj
 0001:001f8725       __raise_exc_ex             005f9725 f   LIBCMT:_fpexcept_.obj
 0001:001f8a01       __raise_exc                005f9a01 f   LIBCMT:_fpexcept_.obj
 0001:001f8a24       __raise_excf               005f9a24 f   LIBCMT:_fpexcept_.obj
 0001:001f8a47       __handle_exc               005f9a47 f   LIBCMT:_fpexcept_.obj
 0001:001f8c2b       __set_errno_from_matherr   005f9c2b f   LIBCMT:_fpexcept_.obj
 0001:001f8c7e       __errcode                  005f9c7e f   LIBCMT:_fpexcept_.obj
 0001:001f8cb2       __umatherr                 005f9cb2 f   LIBCMT:_fpexcept_.obj
 0001:001f8d52       __handle_qnan1             005f9d52 f   LIBCMT:_fpexcept_.obj
 0001:001f8da7       __handle_qnan2             005f9da7 f   LIBCMT:_fpexcept_.obj
 0001:001f8e08       __except1                  005f9e08 f   LIBCMT:_fpexcept_.obj
 0001:001f8ed2       __except2                  005f9ed2 f   LIBCMT:_fpexcept_.obj
 0001:001f8fac       __statfp                   005f9fac f   LIBCMT:_fpctrl_.obj
 0001:001f8fbc       __clrfp                    005f9fbc f   LIBCMT:_fpctrl_.obj
 0001:001f8fcd       __ctrlfp                   005f9fcd f   LIBCMT:_fpctrl_.obj
 0001:001f8ff8       __set_statfp               005f9ff8 f   LIBCMT:_fpctrl_.obj
 0001:001f9050       ___get_fpsr_sse2           005fa050 f   LIBCMT:_fpctrl_.obj
 0001:001f906e       ___set_fpsr_sse2           005fa06e f   LIBCMT:_fpctrl_.obj
 0001:001f90e0       ___fclrf_sse2              005fa0e0 f   LIBCMT:_fpctrl_.obj
 0001:001f90fd       ___statfp_sse2             005fa0fd f   LIBCMT:_fpctrl_.obj
 0001:001f9110       ___clrfp_sse2              005fa110 f   LIBCMT:_fpctrl_.obj
 0001:001f9128       ___ctrlfp_sse2             005fa128 f   LIBCMT:_fpctrl_.obj
 0001:001f915f       ___set_statfp_sse2         005fa15f f   LIBCMT:_fpctrl_.obj
 0001:001f917a       __copysign                 005fa17a f   LIBCMT:_ieeemisc_.obj
 0001:001f91a2       __chgsign                  005fa1a2 f   LIBCMT:_ieeemisc_.obj
 0001:001f91cf       __scalb                    005fa1cf f   LIBCMT:_ieeemisc_.obj
 0001:001f91e9       __logb                     005fa1e9 f   LIBCMT:_ieeemisc_.obj
 0001:001f92d2       __nextafter                005fa2d2 f   LIBCMT:_ieeemisc_.obj
 0001:001f9584       __finite                   005fa584 f   LIBCMT:_ieeemisc_.obj
 0001:001f95a0       __isnan                    005fa5a0 f   LIBCMT:_ieeemisc_.obj
 0001:001f95d8       __fpclass                  005fa5d8 f   LIBCMT:_ieeemisc_.obj
 0001:001f9e74       ___free_lc_time            005fae74 f   LIBCMT:inittime.obj
 0001:001fa1eb       ___init_time               005fb1eb f   LIBCMT:inittime.obj
 0001:001fa298       ___free_lconv_num          005fb298 f   LIBCMT:initnum.obj
 0001:001fa301       ___init_numeric            005fb301 f   LIBCMT:initnum.obj
 0001:001fa521       ___free_lconv_mon          005fb521 f   LIBCMT:initmon.obj
 0001:001fa61f       ___init_monetary           005fb61f f   LIBCMT:initmon.obj
 0001:001fa97f       ___init_collate            005fb97f f   LIBCMT:initcoll.obj
 0001:001faf4f       ___get_qualified_locale    005fbf4f f   LIBCMT:getqloc.obj
 0001:001fc65a       _memcmp                    005fd65a f   LIBCMT:memcmp.obj
 0001:001fdc95       ___crtGetStringTypeA       005fec95 f   LIBCMT:a_str.obj
 0001:001fdda2       __output_s_l               005feda2 f   LIBCMT:outputs.obj
 0001:001fe972       __vswprintf_helper         005ff972 f   LIBCMT:vswprnc.obj
 0001:001fea68       __vswprintf_c              005ffa68 f   LIBCMT:vswprnc.obj
 0001:001fea91       __vswprintf_c_l            005ffa91 f   LIBCMT:vswprnc.obj
 0001:001feabb       __vswprintf_s_l            005ffabb f   LIBCMT:vswprnc.obj
 0001:001feb34       _vswprintf_s               005ffb34 f   LIBCMT:vswprnc.obj
 0001:001feb51       __vsnwprintf_s_l           005ffb51 f   LIBCMT:vswprnc.obj
 0001:001fec41       __vsnwprintf_s             005ffc41 f   LIBCMT:vswprnc.obj
 0001:001fec61       __vswprintf_p              005ffc61 f   LIBCMT:vswprnc.obj
 0001:001fec8a       __vswprintf_p_l            005ffc8a f   LIBCMT:vswprnc.obj
 0001:001fecb4       _fwprintf                  005ffcb4 f   LIBCMT:fwprintf.obj
 0001:001fed40       __fwprintf_l               005ffd40 f   LIBCMT:fwprintf.obj
 0001:001fed5c       __fwprintf_s_l             005ffd5c f   LIBCMT:fwprintf.obj
 0001:001fed78       _fwprintf_s                005ffd78 f   LIBCMT:fwprintf.obj
 0001:001fed93       __fwprintf_p_l             005ffd93 f   LIBCMT:fwprintf.obj
 0001:001fedaf       __fwprintf_p               005ffdaf f   LIBCMT:fwprintf.obj
 0001:001fedca       ___crtMessageBoxW          005ffdca f   LIBCMT:crtmboxw.obj
 0001:001ff015       __itow_s                   00600015 f   LIBCMT:xtows.obj
 0001:001ff03f       __ltow_s                   0060003f f   LIBCMT:xtows.obj
 0001:001ff066       __ultow_s                  00600066 f   LIBCMT:xtows.obj
 0001:001ff17f       __i64tow_s                 0060017f f   LIBCMT:xtows.obj
 0001:001ff1b4       __ui64tow_s                006001b4 f   LIBCMT:xtows.obj
 0001:001ff1d3       _wcsncat_s                 006001d3 f   LIBCMT:wcsncat_s.obj
 0001:001ff2a9       _wcsncpy_s                 006002a9 f   LIBCMT:wcsncpy_s.obj
 0001:001ff376       _wcslen                    00600376 f   LIBCMT:wcslen.obj
 0001:001ff391       _wcscat_s                  00600391 f   LIBCMT:wcscat_s.obj
 0001:001ff406       _wcscpy_s                  00600406 f   LIBCMT:wcscpy_s.obj
 0001:001ff469       __set_error_mode           00600469 f   LIBCMT:errmode.obj
 0001:001ff4a8       ___set_app_type            006004a8 f   LIBCMT:errmode.obj
 0001:001ff4b7       ?__CxxUnhandledExceptionFilter@@YGJPAU_EXCEPTION_POINTERS@@@Z 006004b7 f   LIBCMT:unhandld.obj
 0001:001ff4f9       ___CxxSetUnhandledExceptionFilter 006004f9 f   LIBCMT:unhandld.obj
 0001:001ff52d       __XcptFilter               0060052d f   LIBCMT:winxfltr.obj
 0001:001ff677       ___CppXcptFilter           00600677 f   LIBCMT:winxfltr.obj
 0001:001ff697       __setenvp                  00600697 f   LIBCMT:stdenvp.obj
 0001:001ff773       __set_pgmptr               00600773 f i LIBCMT:stdargv.obj
 0001:001ff91c       __setargv                  0060091c f   LIBCMT:stdargv.obj
 0001:001ff9d7       ___crtGetEnvironmentStringsA 006009d7 f   LIBCMT:a_env.obj
 0001:001ffa6e       ___security_init_cookie    00600a6e f   LIBCMT:gs_support.obj
 0001:001ffb09       __calloc_impl              00600b09 f   LIBCMT:calloc_impl.obj
 0001:001ffb8b       __recalloc                 00600b8b f   LIBCMT:recalloc.obj
 0001:001ffbf9       __wopenfile                00600bf9 f   LIBCMT:_wopen.obj
 0001:001ffeb2       __crt_debugger_hook        00600eb2 f   LIBCMT:dbghook.obj
 0001:001ffeba       __mbsnbicmp_l              00600eba f   LIBCMT:mbsnbicm.obj
 0001:002000be       __mbsnbicmp                006010be f   LIBCMT:mbsnbicm.obj
 0001:002000d8       __mbsnbcmp_l               006010d8 f   LIBCMT:mbsnbcmp.obj
 0001:00200224       __mbsnbcmp                 00601224 f   LIBCMT:mbsnbcmp.obj
 0001:0020023e       __isatty                   0060123e f   LIBCMT:isatty.obj
 0001:00200294       __putwch_nolock            00601294 f   LIBCMT:putwch.obj
 0001:002002d6       __putwch                   006012d6 f   LIBCMT:putwch.obj
 0001:0020031c       __mbtowc_l                 0060131c f   LIBCMT:mbtowc.obj
 0001:00200432       _mbtowc                    00601432 f   LIBCMT:mbtowc.obj
 0001:0020044c       ??0Block@_HeapManager@@QAE@XZ 0060144c f i LIBCMT:undname.obj
 0001:00200452       ?Constructor@_HeapManager@@QAEXP6APAXI@ZP6AXPAX@Z@Z 00601452 f i LIBCMT:undname.obj
 0001:00200471       ?Destructor@_HeapManager@@QAEXXZ 00601471 f i LIBCMT:undname.obj
 0001:00200499       ?getNumberOfDimensions@UnDecorator@@CAHXZ 00601499 f   LIBCMT:undname.obj
 0001:002004fb       ?getTypeEncoding@UnDecorator@@CAHXZ 006014fb f i LIBCMT:undname.obj
 0001:002009df       ?doUnderScore@UnDecorator@@SAHXZ 006019df f i LIBCMT:undname.obj
 0001:002009ea       ?doMSKeywords@UnDecorator@@SAHXZ 006019ea f i LIBCMT:undname.obj
 0001:002009f7       ?doPtr64@UnDecorator@@SAHXZ 006019f7 f i LIBCMT:undname.obj
 0001:00200a05       ?doFunctionReturns@UnDecorator@@SAHXZ 00601a05 f i LIBCMT:undname.obj
 0001:00200a13       ?doAllocationModel@UnDecorator@@SAHXZ 00601a13 f i LIBCMT:undname.obj
 0001:00200a21       ?doAllocationLanguage@UnDecorator@@SAHXZ 00601a21 f i LIBCMT:undname.obj
 0001:00200a2f       ?doThisTypes@UnDecorator@@SAHXZ 00601a2f f i LIBCMT:undname.obj
 0001:00200a41       ?doAccessSpecifiers@UnDecorator@@SAHXZ 00601a41 f i LIBCMT:undname.obj
 0001:00200a4f       ?doThrowTypes@UnDecorator@@SAHXZ 00601a4f f i LIBCMT:undname.obj
 0001:00200a5d       ?doMemberTypes@UnDecorator@@SAHXZ 00601a5d f i LIBCMT:undname.obj
 0001:00200a6b       ?doNameOnly@UnDecorator@@SAHXZ 00601a6b f i LIBCMT:undname.obj
 0001:00200a76       ?doTypeOnly@UnDecorator@@SAHXZ 00601a76 f i LIBCMT:undname.obj
 0001:00200a81       ?haveTemplateParameters@UnDecorator@@SAHXZ 00601a81 f i LIBCMT:undname.obj
 0001:00200a8c       ?doEcsu@UnDecorator@@SAHXZ 00601a8c f i LIBCMT:undname.obj
 0001:00200a9a       ?doNoIdentCharCheck@UnDecorator@@SAHXZ 00601a9a f i LIBCMT:undname.obj
 0001:00200aa5       ?doEllipsis@UnDecorator@@SAHXZ 00601aa5 f i LIBCMT:undname.obj
 0001:00200ab3       ?UScore@UnDecorator@@SAPBDW4Tokens@@@Z 00601ab3 f   LIBCMT:undname.obj
 0001:00200ad2       ?getMemory@_HeapManager@@QAEPAXIH@Z 00601ad2 f   LIBCMT:undname.obj
 0001:00200b5a       ??0DName@@QAE@XZ           00601b5a f i LIBCMT:undname.obj
 0001:00200b6b       ??0DName@@QAE@ABV0@@Z      00601b6b f i LIBCMT:undname.obj
 0001:00200b83       ?isValid@DName@@QBEHXZ     00601b83 f i LIBCMT:undname.obj
 0001:00200b8d       ?isEmpty@DName@@QBEHXZ     00601b8d f i LIBCMT:undname.obj
 0001:00200b95       ?status@DName@@QBE?AW4DNameStatus@@XZ 00601b95 f i LIBCMT:undname.obj
 0001:00200b9a       ?setPtrRef@DName@@QAEAAV1@XZ 00601b9a f i LIBCMT:undname.obj
 0001:00200ba4       ?isPtrRef@DName@@QBEHXZ    00601ba4 f i LIBCMT:undname.obj
 0001:00200bae       ?isUDC@DName@@QBEHXZ       00601bae f i LIBCMT:undname.obj
 0001:00200bbf       ?setIsUDC@DName@@QAEXXZ    00601bbf f i LIBCMT:undname.obj
 0001:00200bcc       ?isUDTThunk@DName@@QBEHXZ  00601bcc f i LIBCMT:undname.obj
 0001:00200bdd       ?setIsArray@DName@@QAEXXZ  00601bdd f i LIBCMT:undname.obj
 0001:00200be5       ?isArray@DName@@QBEHXZ     00601be5 f i LIBCMT:undname.obj
 0001:00200bef       ?isNoTE@DName@@QBEHXZ      00601bef f i LIBCMT:undname.obj
 0001:00200bf9       ?setIsNoTE@DName@@QAEXXZ   00601bf9 f i LIBCMT:undname.obj
 0001:00200c01       ?isPinPtr@DName@@QBEHXZ    00601c01 f i LIBCMT:undname.obj
 0001:00200c0b       ?setIsPinPtr@DName@@QAEXXZ 00601c0b f i LIBCMT:undname.obj
 0001:00200c13       ?isComArray@DName@@QBEHXZ  00601c13 f i LIBCMT:undname.obj
 0001:00200c1d       ?setIsComArray@DName@@QAEXXZ 00601c1d f i LIBCMT:undname.obj
 0001:00200c25       ?isVCallThunk@DName@@QBEHXZ 00601c25 f i LIBCMT:undname.obj
 0001:00200c2f       ?setIsVCallThunk@DName@@QAEXXZ 00601c2f f i LIBCMT:undname.obj
 0001:00200c37       ?length@DName@@QBEHXZ      00601c37 f i LIBCMT:undname.obj
 0001:00200c44       ?getLastChar@DName@@QBEDXZ 00601c44 f i LIBCMT:undname.obj
 0001:00200c52       ?getString@DName@@QBEPADPAD0@Z 00601c52 f i LIBCMT:undname.obj
 0001:00200c6a       ??_5DName@@QAEAAV0@ABV0@@Z 00601c6a f   LIBCMT:undname.obj
 0001:00200c89       ??4DName@@QAEAAV0@ABV0@@Z  00601c89 f   LIBCMT:undname.obj
 0001:00200ca1       ?isFull@Replicator@@QBEHXZ 00601ca1 f i LIBCMT:undname.obj
 0001:00200caa       ??0Replicator@@QAE@XZ      00601caa f i LIBCMT:undname.obj
 0001:00200cb0       ??0DNameNode@@IAE@XZ       00601cb0 f   LIBCMT:undname.obj
 0001:00200cb9       ??0charNode@@QAE@D@Z       00601cb9 f   LIBCMT:undname.obj
 0001:00200cd0       ?length@charNode@@UBEHXZ   00601cd0 f i LIBCMT:undname.obj
 0001:00200cd4       ?getLastChar@charNode@@UBEDXZ 00601cd4 f i LIBCMT:undname.obj
 0001:00200cd8       ?getString@charNode@@UBEPADPAD0@Z 00601cd8 f i LIBCMT:undname.obj
 0001:00200cef       ??0pDNameNode@@QAE@PAVDName@@@Z 00601cef f   LIBCMT:undname.obj
 0001:00200d19       ?length@pDNameNode@@UBEHXZ 00601d19 f i LIBCMT:undname.obj
 0001:00200d2f       ?getLastChar@pDNameNode@@UBEDXZ 00601d2f f i LIBCMT:undname.obj
 0001:00200d46       ?getString@pDNameNode@@UBEPADPAD0@Z 00601d46 f i LIBCMT:undname.obj
 0001:00200d67       ??0DNameStatusNode@@AAE@W4DNameStatus@@@Z 00601d67 f   LIBCMT:undname.obj
 0001:00200d8c       ?length@DNameStatusNode@@UBEHXZ 00601d8c f i LIBCMT:undname.obj
 0001:00200d90       ?getLastChar@DNameStatusNode@@UBEDXZ 00601d90 f i LIBCMT:undname.obj
 0001:00200d9c       ?make@DNameStatusNode@@SAPAV1@W4DNameStatus@@@Z 00601d9c f i LIBCMT:undname.obj
 0001:00200e22       ??0pairNode@@QAE@PAVDNameNode@@0@Z 00601e22 f   LIBCMT:undname.obj
 0001:00200e43       ?length@pairNode@@UBEHXZ   00601e43 f i LIBCMT:undname.obj
 0001:00200e6e       ?getLastChar@pairNode@@UBEDXZ 00601e6e f i LIBCMT:undname.obj
 0001:00200e8a       ?getString@pairNode@@UBEPADPAD0@Z 00601e8a f i LIBCMT:undname.obj
 0001:00200f04       ??0UnDecorator@@QAE@PADPBDHP6APADJ@ZK@Z 00601f04 f i LIBCMT:undname.obj
 0001:00200f73       ?getDataIndirectType@UnDecorator@@CA?AVDName@@XZ 00601f73 f i LIBCMT:undname.obj
 0001:00200fac       ?getThisType@UnDecorator@@CA?AVDName@@XZ 00601fac f i LIBCMT:undname.obj
 0001:00200fe6       ??2@YAPAXIAAV_HeapManager@@H@Z 00601fe6 f i LIBCMT:undname.obj
 0001:00200ffd       ?getStringHelper@@YAPADPAD00H@Z 00601ffd f i LIBCMT:undname.obj
 0001:00201034       ??0DName@@QAE@PAV0@@Z      00602034 f   LIBCMT:undname.obj
 0001:00201087       ??0DName@@QAE@W4DNameStatus@@@Z 00602087 f   LIBCMT:undname.obj
 0001:002010cc       ?getString@DName@@QBEPADPADH@Z 006020cc f i LIBCMT:undname.obj
 0001:0020112b       ?append@DName@@AAEXPAVDNameNode@@@Z 0060212b f   LIBCMT:undname.obj
 0001:00201173       ??4DName@@QAEAAV0@PAV0@@Z  00602173 f   LIBCMT:undname.obj
 0001:002011c0       ??4DName@@QAEAAV0@W4DNameStatus@@@Z 006021c0 f   LIBCMT:undname.obj
 0001:002011f7       ??YReplicator@@QAEAAV0@ABVDName@@@Z 006021f7 f   LIBCMT:undname.obj
 0001:00201241       ??AReplicator@@QBE?AVDName@@H@Z 00602241 f   LIBCMT:undname.obj
 0001:00201290       ??0pcharNode@@QAE@PBDH@Z   00602290 f   LIBCMT:undname.obj
 0001:002012e7       ?length@pcharNode@@UBEHXZ  006022e7 f i LIBCMT:undname.obj
 0001:002012eb       ?getLastChar@pcharNode@@UBEDXZ 006022eb f i LIBCMT:undname.obj
 0001:002012fd       ?getString@pcharNode@@UBEPADPAD0@Z 006022fd f i LIBCMT:undname.obj
 0001:0020131a       ?getString@DNameStatusNode@@UBEPADPAD0@Z 0060231a f i LIBCMT:undname.obj
 0001:00201343       ?getReturnType@UnDecorator@@CA?AVDName@@PAV2@@Z 00602343 f   LIBCMT:undname.obj
 0001:00201374       ?getStorageConvention@UnDecorator@@CA?AVDName@@XZ 00602374 f i LIBCMT:undname.obj
 0001:00201387       ??YDName@@QAEAAV0@W4DNameStatus@@@Z 00602387 f   LIBCMT:undname.obj
 0001:002013c9       ?doPchar@DName@@AAEXPBDH@Z 006023c9 f   LIBCMT:undname.obj
 0001:0020144c       ??0DName@@QAE@D@Z          0060244c f   LIBCMT:undname.obj
 0001:00201479       ??0DName@@QAE@PBD@Z        00602479 f   LIBCMT:undname.obj
 0001:002014b6       ??0DName@@QAE@AAPBDD@Z     006024b6 f   LIBCMT:undname.obj
 0001:00201575       ??0DName@@QAE@_K@Z         00602575 f   LIBCMT:undname.obj
 0001:002015e3       ??0DName@@QAE@_J@Z         006025e3 f   LIBCMT:undname.obj
 0001:0020167e       ??HDName@@QBE?AV0@W4DNameStatus@@@Z 0060267e f   LIBCMT:undname.obj
 0001:002016a2       ??YDName@@QAEAAV0@ABV0@@Z  006026a2 f   LIBCMT:undname.obj
 0001:002016e5       ??YDName@@QAEAAV0@PAV0@@Z  006026e5 f   LIBCMT:undname.obj
 0001:0020174c       ??4DName@@QAEAAV0@D@Z      0060274c f i LIBCMT:undname.obj
 0001:00201779       ??4DName@@QAEAAV0@PBD@Z    00602779 f   LIBCMT:undname.obj
 0001:002017ae       ?getCallingConvention@UnDecorator@@CA?AVDName@@XZ 006027ae f   LIBCMT:undname.obj
 0001:00201876       ?getVCallThunkType@UnDecorator@@CA?AVDName@@XZ 00602876 f i LIBCMT:undname.obj
 0001:002018c1       ??HDName@@QBE?AV0@ABV0@@Z  006028c1 f   LIBCMT:undname.obj
 0001:002018e5       ??HDName@@QBE?AV0@PAV0@@Z  006028e5 f   LIBCMT:undname.obj
 0001:00201909       ??YDName@@QAEAAV0@D@Z      00602909 f   LIBCMT:undname.obj
 0001:0020195b       ??YDName@@QAEAAV0@PBD@Z    0060295b f   LIBCMT:undname.obj
 0001:002019bf       ?getArgumentList@UnDecorator@@CA?AVDName@@XZ 006029bf f   LIBCMT:undname.obj
 0001:00201ac5       ?getVdispMapType@UnDecorator@@CA?AVDName@@ABV2@@Z 00602ac5 f i LIBCMT:undname.obj
 0001:00201b19       ??H@YA?AVDName@@DABV0@@Z   00602b19 f i LIBCMT:undname.obj
 0001:00201b3d       ??H@YA?AVDName@@W4DNameStatus@@ABV0@@Z 00602b3d f i LIBCMT:undname.obj
 0001:00201b61       ??H@YA?AVDName@@PBDABV0@@Z 00602b61 f i LIBCMT:undname.obj
 0001:00201b85       ??HDName@@QBE?AV0@D@Z      00602b85 f   LIBCMT:undname.obj
 0001:00201ba9       ??HDName@@QBE?AV0@PBD@Z    00602ba9 f   LIBCMT:undname.obj
 0001:00201bcd       ?getDimension@UnDecorator@@CA?AVDName@@_N@Z 00602bcd f   LIBCMT:undname.obj
 0001:00201d13       ?getEnumType@UnDecorator@@CA?AVDName@@XZ 00602d13 f i LIBCMT:undname.obj
 0001:00201dff       ?getArgumentTypes@UnDecorator@@CA?AVDName@@XZ 00602dff f   LIBCMT:undname.obj
 0001:00201edf       ?getThrowTypes@UnDecorator@@CA?AVDName@@XZ 00602edf f   LIBCMT:undname.obj
 0001:00201f69       ?getExtendedDataIndirectType@UnDecorator@@CA?AVDName@@AAPBDAA_NH@Z 00602f69 f   LIBCMT:undname.obj
 0001:00202131       ?getArrayType@UnDecorator@@CA?AVDName@@ABV2@@Z 00603131 f i LIBCMT:undname.obj
 0001:00202327       ?getLexicalFrame@UnDecorator@@CA?AVDName@@XZ 00603327 f i LIBCMT:undname.obj
 0001:00202364       ?getDisplacement@UnDecorator@@CA?AVDName@@XZ 00603364 f i LIBCMT:undname.obj
 0001:0020237a       ?getCallIndex@UnDecorator@@CA?AVDName@@XZ 0060337a f i LIBCMT:undname.obj
 0001:00202390       ?getGuardNumber@UnDecorator@@CA?AVDName@@XZ 00603390 f i LIBCMT:undname.obj
 0001:002023a6       ?getVfTableType@UnDecorator@@CA?AVDName@@ABV2@@Z 006033a6 f i LIBCMT:undname.obj
 0001:00202505       ?getStringEncoding@UnDecorator@@CA?AVDName@@PADH@Z 00603505 f   LIBCMT:undname.obj
 0001:002025b8       ?getSignedDimension@UnDecorator@@CA?AVDName@@XZ 006035b8 f   LIBCMT:undname.obj
 0001:0020260a       ?getTemplateConstant@UnDecorator@@CA?AVDName@@XZ 0060360a f   LIBCMT:undname.obj
 0001:002028fa       ?getPtrRefDataType@UnDecorator@@CA?AVDName@@ABV2@H@Z 006038fa f i LIBCMT:undname.obj
 0001:002029e1       ?getVbTableType@UnDecorator@@CA?AVDName@@ABV2@@Z 006039e1 f i LIBCMT:undname.obj
 0001:002029f8       ?getTemplateArgumentList@UnDecorator@@CA?AVDName@@XZ 006039f8 f   LIBCMT:undname.obj
 0001:00202c07       ?getOperatorName@UnDecorator@@CA?AVDName@@_NPA_N@Z 00603c07 f i LIBCMT:undname.obj
 0001:002031dd       ?getTemplateName@UnDecorator@@CA?AVDName@@_N@Z 006041dd f   LIBCMT:undname.obj
 0001:00203334       ?getZName@UnDecorator@@CA?AVDName@@_N0@Z 00604334 f   LIBCMT:undname.obj
 0001:0020354a       ?getScopedName@UnDecorator@@CA?AVDName@@XZ 0060454a f   LIBCMT:undname.obj
 0001:0020362b       ?getECSUName@UnDecorator@@CA?AVDName@@XZ 0060462b f i LIBCMT:undname.obj
 0001:0020363e       ?getECSUDataType@UnDecorator@@CA?AVDName@@XZ 0060463e f   LIBCMT:undname.obj
 0001:0020374e       ?getSymbolName@UnDecorator@@CA?AVDName@@XZ 0060474e f i LIBCMT:undname.obj
 0001:00203798       ?getBasedType@UnDecorator@@CA?AVDName@@XZ 00604798 f   LIBCMT:undname.obj
 0001:00203834       ?composeDeclaration@UnDecorator@@CA?AVDName@@ABV2@@Z 00604834 f i LIBCMT:undname.obj
 0001:002044ee       ?getDecoratedName@UnDecorator@@CA?AVDName@@XZ 006054ee f   LIBCMT:undname.obj
 0001:0020475c       ?getScope@UnDecorator@@CA?AVDName@@XZ 0060575c f   LIBCMT:undname.obj
 0001:00204a13       ?getFunctionIndirectType@UnDecorator@@CA?AVDName@@ABV2@@Z 00605a13 f   LIBCMT:undname.obj
 0001:00204df2       ?getDataIndirectType@UnDecorator@@CA?AVDName@@ABV2@PBD0H@Z 00605df2 f   LIBCMT:undname.obj
 0001:00205391       ??BUnDecorator@@QAEPADXZ   00606391 f i LIBCMT:undname.obj
 0001:002054d0       ?getPtrRefType@UnDecorator@@CA?AVDName@@ABV2@0PBD@Z 006064d0 f   LIBCMT:undname.obj
 0001:002055c9       ?getPointerType@UnDecorator@@CA?AVDName@@ABV2@0@Z 006065c9 f i LIBCMT:undname.obj
 0001:002055e9       ?getPointerTypeArray@UnDecorator@@CA?AVDName@@ABV2@0@Z 006065e9 f i LIBCMT:undname.obj
 0001:00205609       ?getReferenceType@UnDecorator@@CA?AVDName@@ABV2@0PBD@Z 00606609 f i LIBCMT:undname.obj
 0001:00205627       ___unDName                 00606627 f   LIBCMT:undname.obj
 0001:002056c1       ___unDNameEx               006066c1 f   LIBCMT:undname.obj
 0001:0020575b       ?getBasicDataType@UnDecorator@@CA?AVDName@@ABV2@@Z 0060675b f   LIBCMT:undname.obj
 0001:00205b1e       ?getPrimaryDataType@UnDecorator@@CA?AVDName@@ABV2@@Z 00606b1e f   LIBCMT:undname.obj
 0001:00205ccf       ?getDataType@UnDecorator@@CA?AVDName@@PAV2@@Z 00606ccf f   LIBCMT:undname.obj
 0001:00205d9e       ?getExternalDataType@UnDecorator@@CA?AVDName@@ABV2@@Z 00606d9e f i LIBCMT:undname.obj
 0001:00205e17       __validdrive               00606e17 f   LIBCMT:getcwd.obj
 0001:00205e71       __getdcwd_nolock           00606e71 f   LIBCMT:getcwd.obj
 0001:00205f95       __getcwd                   00606f95 f   LIBCMT:getcwd.obj
 0001:00205fde       __getdcwd                  00606fde f   LIBCMT:getcwd.obj
 0001:00206028       __mbsicmp_l                00607028 f   LIBCMT:mbsicmp.obj
 0001:0020621f       __mbsicmp                  0060721f f   LIBCMT:mbsicmp.obj
 0001:00206236       __fstat32                  00607236 f   LIBCMT:fstat.obj
 0001:00206562       ___loctotime32_t           00607562 f   LIBCMT:dtoxtime.obj
 0001:00206770       __SEH_prolog4_GS           00607770 f   LIBCMT:sehprolg4gs.obj
 0001:002067b8       __SEH_epilog4_GS           006077b8 f   LIBCMT:sehprolg4gs.obj
 0001:002067c7       __chsize_nolock            006077c7 f   LIBCMT:chsize.obj
 0001:0020697d       __chsize_s                 0060797d f   LIBCMT:chsize.obj
 0001:00206a64       _chsize                    00607a64 f   LIBCMT:chsize.obj
 0001:00206a64       __chsize                   00607a64 f   LIBCMT:chsize.obj
 0001:00206a80       __setmode_nolock           00607a80 f   LIBCMT:setmode.obj
 0001:00206b3b       __set_fmode                00607b3b f   LIBCMT:setmode.obj
 0001:00206b7d       __get_fmode                00607b7d f   LIBCMT:setmode.obj
 0001:00206baa       __setmode                  00607baa f   LIBCMT:setmode.obj
 0001:00206baa       _setmode                   00607baa f   LIBCMT:setmode.obj
 0001:00206d6f       ___crtGetLocaleInfoA       00607d6f f   LIBCMT:a_loc.obj
 0001:00206da9       __wctomb_s_l               00607da9 f   LIBCMT:wctomb.obj
 0001:00206efe       _wctomb_s                  00607efe f   LIBCMT:wctomb.obj
 0001:00206f1b       __wctomb_l                 00607f1b f   LIBCMT:wctomb.obj
 0001:00206f6c       _wctomb                    00607f6c f   LIBCMT:wctomb.obj
 0001:00206f9e       __fptrap                   00607f9e f   LIBCMT:crt0fp.obj
 0001:00206fa7       __atodbl_l                 00607fa7 f   LIBCMT:atodbl.obj
 0001:0020704f       __atodbl                   0060804f f   LIBCMT:atodbl.obj
 0001:00207066       __atoldbl_l                00608066 f   LIBCMT:atodbl.obj
 0001:0020710f       __atoldbl                  0060810f f   LIBCMT:atodbl.obj
 0001:00207126       __atoflt_l                 00608126 f   LIBCMT:atodbl.obj
 0001:002071ce       __atoflt                   006081ce f   LIBCMT:atodbl.obj
 0001:002071e5       __set_output_format        006081e5 f   LIBCMT:outputformat.obj
 0001:00207217       __get_output_format        00608217 f   LIBCMT:outputformat.obj
 0001:0020721d       __fptostr                  0060821d f   LIBCMT:_fptostr.obj
 0001:002072d0       ___dtold                   006082d0 f   LIBCMT:_cfout_.obj
 0001:00207383       __fltout2                  00608383 f   LIBCMT:_cfout_.obj
 0001:00207411       __controlfp_s              00608411 f   LIBCMT:_contrlfp_.obj
 0001:00207470       __ZeroTail                 00608470 f i LIBCMT:_intrncvt_.obj
 0001:002074b9       __IncMan                   006084b9 f i LIBCMT:_intrncvt_.obj
 0001:00207526       __RoundMan                 00608526 f i LIBCMT:_intrncvt_.obj
 0001:00207612       __CopyMan                  00608612 f i LIBCMT:_intrncvt_.obj
 0001:00207631       __FillZeroMan              00608631 f i LIBCMT:_intrncvt_.obj
 0001:00207642       __IsZeroMan                00608642 f i LIBCMT:_intrncvt_.obj
 0001:00207661       __ShrMan                   00608661 f i LIBCMT:_intrncvt_.obj
 0001:002076f9       __ld12cvt                  006086f9 f i LIBCMT:_intrncvt_.obj
 0001:00207c48       __ld12tod                  00608c48 f   LIBCMT:_intrncvt_.obj
 0001:00208199       __ld12tof                  00609199 f   LIBCMT:_intrncvt_.obj
 0001:002086ea       __ld12told                 006096ea f   LIBCMT:_intrncvt_.obj
 0001:002087c7       ___add_12                  006097c7 f i LIBCMT:_mantold_.obj
 0001:00208838       ___mtold12                 00609838 f   LIBCMT:_mantold_.obj
 0001:00208a1c       _iswctype                  00609a1c f   LIBCMT:iswctype.obj
 0001:00208a71       _is_wctype                 00609a71 f   LIBCMT:iswctype.obj
 0001:00208a7c       __iswctype_l               00609a7c f   LIBCMT:iswctype.obj
 0001:00208a90       ?_ValidateRead@@YAHPBXI@Z  00609a90 f   LIBCMT:validate.obj
 0001:00208aa2       ?_ValidateWrite@@YAHPAXI@Z 00609aa2 f   LIBCMT:validate.obj
 0001:00208ab4       ?_ValidateExecute@@YAHP6GHXZ@Z 00609ab4 f   LIBCMT:validate.obj
 0001:00208ac6       __strnicoll_l              00609ac6 f   LIBCMT:strnicol.obj
 0001:00208bb0       __strnicoll                00609bb0 f   LIBCMT:strnicol.obj
 0001:00208c8b       ___crtsetenv               00609c8b f   LIBCMT:setenv.obj
 0001:00208ecd       __mbschr_l                 00609ecd f   LIBCMT:mbschr.obj
 0001:00208f7d       __mbschr                   00609f7d f   LIBCMT:mbschr.obj
 0001:00208f94       __dospawn                  00609f94 f   LIBCMT:dospawn.obj
 0001:00209198       __cenvarg                  0060a198 f   LIBCMT:cenvarg.obj
 0001:00209534       __87except                 0060a534 f   LIBCMT:_87except_.obj
 0001:00209673       __frnd                     0060a673 f   LIBCMT:_frnd_.obj
 0001:00209687       __matherr                  0060a687 f   LIBCMT:_matherr_.obj
 0001:0020968a       __strnicmp_l               0060a68a f   LIBCMT:strnicmp.obj
 0001:0020976c       _strnicmp                  0060a76c f   LIBCMT:strnicmp.obj
 0001:0020976c       __strnicmp                 0060a76c f   LIBCMT:strnicmp.obj
 0001:0020988e       __woutput_l                0060a88e f   LIBCMT:woutput.obj
 0001:0020a521       __woutput_s_l              0060b521 f   LIBCMT:woutputs.obj
 0001:0020b0d5       __validate_param_reuseW    0060c0d5 f   LIBCMT:woutputp.obj
 0001:0020b2ef       __woutput_p_l              0060c2ef f   LIBCMT:woutputp.obj
 0001:0020c58f       _vfwprintf_helper          0060d58f f   LIBCMT:vfwprint.obj
 0001:0020c619       __vfwprintf_l              0060d619 f   LIBCMT:vfwprint.obj
 0001:0020c639       __vfwprintf_s_l            0060d639 f   LIBCMT:vfwprint.obj
 0001:0020c659       __vfwprintf_p_l            0060d659 f   LIBCMT:vfwprint.obj
 0001:0020c679       _vfwprintf                 0060d679 f   LIBCMT:vfwprint.obj
 0001:0020c698       _vfwprintf_s               0060d698 f   LIBCMT:vfwprint.obj
 0001:0020c6b7       __vfwprintf_p              0060d6b7 f   LIBCMT:vfwprint.obj
 0001:0020c729       __ismbbkalnum_l            0060d729 f   LIBCMT:ismbbyte.obj
 0001:0020c742       __ismbbkalnum              0060d742 f   LIBCMT:ismbbyte.obj
 0001:0020c75a       __ismbbkprint_l            0060d75a f   LIBCMT:ismbbyte.obj
 0001:0020c773       __ismbbkprint              0060d773 f   LIBCMT:ismbbyte.obj
 0001:0020c78b       __ismbbkpunct_l            0060d78b f   LIBCMT:ismbbyte.obj
 0001:0020c7a4       __ismbbkpunct              0060d7a4 f   LIBCMT:ismbbyte.obj
 0001:0020c7bc       __ismbbalnum_l             0060d7bc f   LIBCMT:ismbbyte.obj
 0001:0020c7d8       __ismbbalnum               0060d7d8 f   LIBCMT:ismbbyte.obj
 0001:0020c7f3       __ismbbalpha_l             0060d7f3 f   LIBCMT:ismbbyte.obj
 0001:0020c80f       __ismbbalpha               0060d80f f   LIBCMT:ismbbyte.obj
 0001:0020c82a       __ismbbgraph_l             0060d82a f   LIBCMT:ismbbyte.obj
 0001:0020c846       __ismbbgraph               0060d846 f   LIBCMT:ismbbyte.obj
 0001:0020c861       __ismbbprint_l             0060d861 f   LIBCMT:ismbbyte.obj
 0001:0020c87d       __ismbbprint               0060d87d f   LIBCMT:ismbbyte.obj
 0001:0020c898       __ismbbpunct_l             0060d898 f   LIBCMT:ismbbyte.obj
 0001:0020c8b1       __ismbbpunct               0060d8b1 f   LIBCMT:ismbbyte.obj
 0001:0020c8c9       __ismbblead_l              0060d8c9 f   LIBCMT:ismbbyte.obj
 0001:0020c8e2       __ismbblead                0060d8e2 f   LIBCMT:ismbbyte.obj
 0001:0020c8fa       __ismbbtrail_l             0060d8fa f   LIBCMT:ismbbyte.obj
 0001:0020c913       __ismbbtrail               0060d913 f   LIBCMT:ismbbyte.obj
 0001:0020c92b       __ismbbkana_l              0060d92b f   LIBCMT:ismbbyte.obj
 0001:0020c980       __ismbbkana                0060d980 f   LIBCMT:ismbbyte.obj
 0001:0020d0c8       __wopen                    0060e0c8 f   LIBCMT:wopen.obj
 0001:0020d176       __wsopen_helper            0060e176 f   LIBCMT:wopen.obj
 0001:0020d23a       __wsopen                   0060e23a f   LIBCMT:wopen.obj
 0001:0020d26c       __wsopen_s                 0060e26c f   LIBCMT:wopen.obj
 0001:0020d28c       __wcsnicmp_l               0060e28c f   LIBCMT:wcsnicmp.obj
 0001:0020d371       __wcsnicmp                 0060e371 f   LIBCMT:wcsnicmp.obj
 0001:0020d40f       _wcsncmp                   0060e40f f   LIBCMT:wcsncmp.obj
 0001:0020d448       ___initconout              0060e448 f   LIBCMT:initcon.obj
 0001:0020d467       ___termconout              0060e467 f   LIBCMT:initcon.obj
 0001:0020d47e       _$I10_OUTPUT               0060e47e f   LIBCMT:_x10fout_.obj
 0001:0020dd76       __set_controlfp            0060ed76 f   LIBCMT:_ieee87_.obj
 0001:0020e0e8       __statusfp                 0060f0e8 f   LIBCMT:_ieee87_.obj
 0001:0020e17a       __fpreset                  0060f17a f   LIBCMT:_ieee87_.obj
 0001:0020e3b3       __statusfp2                0060f3b3 f   LIBCMT:_ieee87_.obj
 0001:0020e40d       __clearfp                  0060f40d f   LIBCMT:_ieee87_.obj
 0001:0020e4e6       ___control87_2             0060f4e6 f   LIBCMT:_ieee87_.obj
 0001:0020e7fd       __control87                0060f7fd f i LIBCMT:_ieee87_.obj
 0001:0020eb0f       __controlfp                0060fb0f f   LIBCMT:_ieee87_.obj
 0001:0020ee24       __mbsnicmp_l               0060fe24 f   LIBCMT:mbsnicmp.obj
 0001:0020efef       __mbsnicmp                 0060ffef f   LIBCMT:mbsnicmp.obj
 0001:0020f010       ___ascii_strnicmp          00610010 f   LIBCMT:_strnicm.obj
 0001:0020f071       __fputwc_nolock            00610071 f   LIBCMT:fputwc.obj
 0001:0020f1f8       _fputwc                    006101f8 f   LIBCMT:fputwc.obj
 0001:0020f268       _putwc                     00610268 f   LIBCMT:fputwc.obj
 0001:0020f435       _wcstol                    00610435 f   LIBCMT:wcstol.obj
 0001:0020f44f       __wcstol_l                 0061044f f   LIBCMT:wcstol.obj
 0001:0020f469       _wcstoul                   00610469 f   LIBCMT:wcstol.obj
 0001:0020f483       __wcstoul_l                00610483 f   LIBCMT:wcstol.obj
 0001:0020f49d       __towlower_l               0061049d f   LIBCMT:towlower.obj
 0001:0020f53d       _towlower                  0061053d f   LIBCMT:towlower.obj
 0001:0020f550       __flswbuf                  00610550 f   LIBCMT:_flswbuf.obj
 0001:0020f6c4       __wchartodigit             006106c4 f   LIBCMT:wchtodig.obj
 0001:0020f864       ___crtLCMapStringW         00610864 f   LIBCMT:w_map.obj
 0001:0020f893       _wcsnlen                   00610893 f   LIBCMT:wcslen_s.obj
 0001:0020f8b4       _InterlockedIncrement@4    006108b4 f   kernel32:KERNEL32.dll
 0001:0020f8ba       _InterlockedDecrement@4    006108ba f   kernel32:KERNEL32.dll
 0001:0020f8c0       _InterlockedExchange@8     006108c0 f   kernel32:KERNEL32.dll
 0001:0020f8c6       _EncodePointer@4           006108c6 f   kernel32:KERNEL32.dll
 0001:0020f8cc       _DecodePointer@4           006108cc f   kernel32:KERNEL32.dll
 0001:0020f8d2       _FileTimeToSystemTime@8    006108d2 f   kernel32:KERNEL32.dll
 0001:0020f8d8       _FileTimeToLocalFileTime@8 006108d8 f   kernel32:KERNEL32.dll
 0001:0020f8de       _GetDriveTypeA@4           006108de f   kernel32:KERNEL32.dll
 0001:0020f8e4       _FindFirstFileExA@24       006108e4 f   kernel32:KERNEL32.dll
 0001:0020f8ea       _MoveFileA@8               006108ea f   kernel32:KERNEL32.dll
 0001:0020f8f0       _GetModuleHandleW@4        006108f0 f   kernel32:KERNEL32.dll
 0001:0020f8f6       _ExitProcess@4             006108f6 f   kernel32:KERNEL32.dll
 0001:0020f8fc       _RtlUnwind@16              006108fc f   kernel32:KERNEL32.dll
 0001:0020f902       _HeapWalk@8                00610902 f   kernel32:KERNEL32.dll
 0001:0020f908       _RaiseException@16         00610908 f   kernel32:KERNEL32.dll
 0001:0020f90e       _GetTimeFormatA@24         0061090e f   kernel32:KERNEL32.dll
 0001:0020f914       _GetDateFormatA@24         00610914 f   kernel32:KERNEL32.dll
 0001:0020f91a       _DuplicateHandle@28        0061091a f   kernel32:KERNEL32.dll
 0001:0020f920       _GetCurrentProcess@0       00610920 f   kernel32:KERNEL32.dll
 0001:0020f926       _WriteConsoleW@20          00610926 f   kernel32:KERNEL32.dll
 0001:0020f92c       _GetFileType@4             0061092c f   kernel32:KERNEL32.dll
 0001:0020f932       _GetStdHandle@4            00610932 f   kernel32:KERNEL32.dll
 0001:0020f938       _GetModuleFileNameW@12     00610938 f   kernel32:KERNEL32.dll
 0001:0020f93e       _GetCommandLineA@0         0061093e f   kernel32:KERNEL32.dll
 0001:0020f944       _HeapSetInformation@16     00610944 f   kernel32:KERNEL32.dll
 0001:0020f94a       _LCMapStringW@24           0061094a f   kernel32:KERNEL32.dll
 0001:0020f950       _GetCPInfo@8               00610950 f   kernel32:KERNEL32.dll
 0001:0020f956       _UnhandledExceptionFilter@4 00610956 f   kernel32:KERNEL32.dll
 0001:0020f95c       _SetUnhandledExceptionFilter@4 0061095c f   kernel32:KERNEL32.dll
 0001:0020f962       _IsDebuggerPresent@0       00610962 f   kernel32:KERNEL32.dll
 0001:0020f968       _TerminateProcess@8        00610968 f   kernel32:KERNEL32.dll
 0001:0020f96e       _GetTimeZoneInformation@4  0061096e f   kernel32:KERNEL32.dll
 0001:0020f974       _IsProcessorFeaturePresent@4 00610974 f   kernel32:KERNEL32.dll
 0001:0020f97a       _InitializeCriticalSectionAndSpinCount@8 0061097a f   kernel32:KERNEL32.dll
 0001:0020f980       _GetConsoleCP@0            00610980 f   kernel32:KERNEL32.dll
 0001:0020f986       _GetConsoleMode@8          00610986 f   kernel32:KERNEL32.dll
 0001:0020f98c       _GetFileInformationByHandle@8 0061098c f   kernel32:KERNEL32.dll
 0001:0020f992       _PeekNamedPipe@24          00610992 f   kernel32:KERNEL32.dll
 0001:0020f998       _GetCurrentDirectoryW@8    00610998 f   kernel32:KERNEL32.dll
 0001:0020f99e       _SetCurrentDirectoryW@4    0061099e f   kernel32:KERNEL32.dll
 0001:0020f9a4       _GetLocaleInfoW@16         006109a4 f   kernel32:KERNEL32.dll
 0001:0020f9aa       _SetHandleCount@4          006109aa f   kernel32:KERNEL32.dll
 0001:0020f9b0       _GetStartupInfoW@4         006109b0 f   kernel32:KERNEL32.dll
 0001:0020f9b6       _TlsAlloc@0                006109b6 f   kernel32:KERNEL32.dll
 0001:0020f9bc       _TlsGetValue@4             006109bc f   kernel32:KERNEL32.dll
 0001:0020f9c2       _TlsSetValue@8             006109c2 f   kernel32:KERNEL32.dll
 0001:0020f9c8       _TlsFree@4                 006109c8 f   kernel32:KERNEL32.dll
 0001:0020f9ce       _SetLastError@4            006109ce f   kernel32:KERNEL32.dll
 0001:0020f9d4       _GetCurrentThreadId@0      006109d4 f   kernel32:KERNEL32.dll
 0001:0020f9da       _GetCurrentThread@0        006109da f   kernel32:KERNEL32.dll
 0001:0020f9e0       _FatalAppExitA@8           006109e0 f   kernel32:KERNEL32.dll
 0001:0020f9e6       _SetStdHandle@8            006109e6 f   kernel32:KERNEL32.dll
 0001:0020f9ec       _SetConsoleCtrlHandler@8   006109ec f   kernel32:KERNEL32.dll
 0001:0020f9f2       _GetACP@0                  006109f2 f   kernel32:KERNEL32.dll
 0001:0020f9f8       _GetOEMCP@0                006109f8 f   kernel32:KERNEL32.dll
 0001:0020f9fe       _IsValidCodePage@4         006109fe f   kernel32:KERNEL32.dll
 0001:0020fa04       _CompareStringW@24         00610a04 f   kernel32:KERNEL32.dll
 0001:0020fa0a       _CreatePipe@16             00610a0a f   kernel32:KERNEL32.dll
 0001:0020fa10       _GetExitCodeProcess@8      00610a10 f   kernel32:KERNEL32.dll
 0001:0020fa16       _GetUserDefaultLCID@0      00610a16 f   kernel32:KERNEL32.dll
 0001:0020fa1c       _GetLocaleInfoA@16         00610a1c f   kernel32:KERNEL32.dll
 0001:0020fa22       _EnumSystemLocalesA@8      00610a22 f   kernel32:KERNEL32.dll
 0001:0020fa28       _IsValidLocale@8           00610a28 f   kernel32:KERNEL32.dll
 0001:0020fa2e       _GetStringTypeW@16         00610a2e f   kernel32:KERNEL32.dll
 0001:0020fa34       _FreeEnvironmentStringsW@4 00610a34 f   kernel32:KERNEL32.dll
 0001:0020fa3a       _GetEnvironmentStringsW@0  00610a3a f   kernel32:KERNEL32.dll
 0001:0020fa40       _GetDriveTypeW@4           00610a40 f   kernel32:KERNEL32.dll
 0001:0020fa46       __eof                      00610a46 f   LIBCMT:eof.obj
 0001:0020fa46       _eof                       00610a46 f   LIBCMT:eof.obj
 0001:0020fb5a       __memicmp_l                00610b5a f   LIBCMT:memicmp.obj
 0001:0020fc25       _memicmp                   00610c25 f   LIBCMT:memicmp.obj
 0001:0020fc25       __memicmp                  00610c25 f   LIBCMT:memicmp.obj
 0001:0020fc79       ?_strlwr_s_l_stat@@YAHPADIPAUlocaleinfo_struct@@@Z 00610c79 f   LIBCMT:strlwr.obj
 0001:0020fdf7       __strlwr_s_l               00610df7 f   LIBCMT:strlwr.obj
 0001:0020fe2b       __strlwr_s                 00610e2b f   LIBCMT:strlwr.obj
 0001:0020fe42       __strlwr_l                 00610e42 f   LIBCMT:strlwr.obj
 0001:0020fe5c       __strlwr                   00610e5c f   LIBCMT:strlwr.obj
 0001:0020fe5c       _strlwr                    00610e5c f   LIBCMT:strlwr.obj
 0001:0020feb9       _creat                     00610eb9 f   LIBCMT:creat.obj
 0001:0020feb9       __creat                    00610eb9 f   LIBCMT:creat.obj
 0001:0021005e       __strupr_s_l               0061105e f   LIBCMT:strupr.obj
 0001:00210093       __strupr_s                 00611093 f   LIBCMT:strupr.obj
 0001:002100aa       __strupr_l                 006110aa f   LIBCMT:strupr.obj
 0001:002100c4       __strupr                   006110c4 f   LIBCMT:strupr.obj
 0001:002100c4       _strupr                    006110c4 f   LIBCMT:strupr.obj
 0001:00210121       __mkdir                    00611121 f   LIBCMT:mkdir.obj
 0001:00210121       _mkdir                     00611121 f   LIBCMT:mkdir.obj
 0001:00210153       __rmdir                    00611153 f   LIBCMT:rmdir.obj
 0001:00210153       _rmdir                     00611153 f   LIBCMT:rmdir.obj
 0001:00210183       _spawnlpe                  00611183 f   LIBCMT:spawnlpe.obj
 0001:00210183       __spawnlpe                 00611183 f   LIBCMT:spawnlpe.obj
 0001:002101d5       __ungetch_nolock           006111d5 f   LIBCMT:getch.obj
 0001:002101fc       __getextendedkeycode       006111fc f   LIBCMT:getch.obj
 0001:002102af       __getch_nolock             006112af f   LIBCMT:getch.obj
 0001:00210388       __getche_nolock            00611388 f   LIBCMT:getch.obj
 0001:002103bf       __kbhit_nolock             006113bf f   LIBCMT:getch.obj
 0001:002104e7       __ungetch                  006114e7 f   LIBCMT:getch.obj
 0001:0021052b       _getch                     0061152b f   LIBCMT:getch.obj
 0001:0021052b       __getch                    0061152b f   LIBCMT:getch.obj
 0001:00210569       __getche                   00611569 f   LIBCMT:getch.obj
 0001:002105a7       __kbhit                    006115a7 f   LIBCMT:getch.obj
 0001:002105f0       ___ascii_memicmp           006115f0 f   LIBCMT:_memicmp.obj
 0001:00210649       ___initconin               00611649 f   LIBCMT:initconin.obj
 0001:00210668       ___termconin               00611668 f   LIBCMT:initconin.obj
 0001:0021067f       __putch_nolock             0061167f f   LIBCMT:putch.obj
 0001:002106fb       __putch                    006116fb f   LIBCMT:putch.obj
 0001:0021073e       _CreateDirectoryA@8        0061173e f   kernel32:KERNEL32.dll
 0001:00210744       _RemoveDirectoryA@4        00611744 f   kernel32:KERNEL32.dll
 0001:0021074a       _ReadConsoleInputA@16      0061174a f   kernel32:KERNEL32.dll
 0001:00210750       _SetConsoleMode@8          00611750 f   kernel32:KERNEL32.dll
 0001:00210756       _PeekConsoleInputA@16      00611756 f   kernel32:KERNEL32.dll
 0001:0021075c       _GetNumberOfConsoleInputEvents@8 0061175c f   kernel32:KERNEL32.dll
 0001:002298b0       ??__FacrInstance@?1??GetInstance@ACRNemaMap@@SAPAV1@XZ@YAXXZ 0062a8b0 f i total.obj
 0001:002298f0       ??__FiniInstance@?1??GetInstance@IniValue@@SAPAV1@XZ@YAXXZ 0062a8f0 f i total.obj
 0002:00000000       ___xc_a                    0062c000     LIBCMT:crt0init.obj
 0002:00000464       ___xc_z                    0062c464     LIBCMT:crt0init.obj
 0002:00000568       ___xi_a                    0062c568     LIBCMT:crt0init.obj
 0002:0000088c       ___xi_z                    0062c88c     LIBCMT:crt0init.obj
 0002:00000990       ___xp_a                    0062c990     LIBCMT:crt0init.obj
 0002:00000ca8       ___xp_z                    0062cca8     LIBCMT:crt0init.obj
 0002:00000dac       ___xt_a                    0062cdac     LIBCMT:crt0init.obj
 0002:00000eb0       ___xt_z                    0062ceb0     LIBCMT:crt0init.obj
 0002:00000fdc       ??_C@_06FIONAGJL@unpack?$AA@ 0062cfdc     total.obj
 0002:00000fe4       ??_C@_04IPANLPFO@pack?$AA@ 0062cfe4     total.obj
 0002:00000fec       ??_C@_0BH@HLPCKIL@1?42?4840?410008?41?42?44?491?$AA@ 0062cfec     total.obj
 0002:00001008       ??_C@_0BH@BOKEBLMK@1?42?4840?410008?41?42?44?490?$AA@ 0062d008     total.obj
 0002:00001024       ??_C@_0BH@GHNEALM@1?42?4840?410008?41?42?44?481?$AA@ 0062d024     total.obj
 0002:00001040       ??_C@_0BH@BPGGHBPN@1?42?4840?410008?41?42?44?480?$AA@ 0062d040     total.obj
 0002:0000105c       ??_C@_0BH@BEDKDGMA@1?42?4840?410008?41?42?44?470?$AA@ 0062d05c     total.obj
 0002:00001078       ??_C@_0BH@EDKCPLHB@1?42?4840?410008?41?42?44?466?$AA@ 0062d078     total.obj
 0002:00001094       ??_C@_0BH@GIIPKILC@1?42?4840?410008?41?42?44?465?$AA@ 0062d094     total.obj
 0002:000010b0       ??_C@_0BH@HBJEJJPD@1?42?4840?410008?41?42?44?464?$AA@ 0062d0b0     total.obj
 0002:000010cc       ??_C@_0BH@DONFAPDE@1?42?4840?410008?41?42?44?463?$AA@ 0062d0cc     total.obj
 0002:000010e8       ??_C@_0BH@CHMODOHF@1?42?4840?410008?41?42?44?462?$AA@ 0062d0e8     total.obj
 0002:00001104       ??_C@_0BH@MODGNLG@1?42?4840?410008?41?42?44?461?$AA@ 0062d104     total.obj
 0002:00001120       ??_C@_0BH@BFPIFMPH@1?42?4840?410008?41?42?44?460?$AA@ 0062d120     total.obj
 0002:0000113c       ??_C@_0BH@MGHMFJOH@1?42?4840?410008?41?42?44?459?$AA@ 0062d13c     total.obj
 0002:00001158       ??_C@_0BH@NPGHGIKG@1?42?4840?410008?41?42?44?458?$AA@ 0062d158     total.obj
 0002:00001174       ??_C@_0BH@FIPPHEGJ@1?42?4840?410008?41?42?44?457?$AA@ 0062d174     total.obj
 0002:00001190       ??_C@_0BH@EBOEEFCI@1?42?4840?410008?41?42?44?456?$AA@ 0062d190     total.obj
 0002:000011ac       ??_C@_0BH@GKMJBGOL@1?42?4840?410008?41?42?44?455?$AA@ 0062d1ac     total.obj
 0002:000011c8       ??_C@_0BH@HDNCCHKK@1?42?4840?410008?41?42?44?454?$AA@ 0062d1c8     total.obj
 0002:000011e4       ??_C@_0BH@DMJDLBGN@1?42?4840?410008?41?42?44?453?$AA@ 0062d1e4     total.obj
 0002:00001200       ??_C@_0BH@CFIIIACM@1?42?4840?410008?41?42?44?452?$AA@ 0062d200     total.obj
 0002:0000121c       ??_C@_0BH@OKFNDOP@1?42?4840?410008?41?42?44?451?$AA@ 0062d21c     total.obj
 0002:00001238       ??_C@_0BH@BHLOOCKO@1?42?4840?410008?41?42?44?450?$AA@ 0062d238     total.obj
 0002:00001254       ??_C@_0BE@LBDPDJDP@1?42?4840?410008?41?42?45?$AA@ 0062d254     total.obj
 0002:0000126c       ??_C@_0BE@POHOKPPI@1?42?4840?410008?41?42?42?$AA@ 0062d26c     total.obj
 0002:00001284       ??_C@_0BE@NFFDPMDL@1?42?4840?410008?41?42?41?$AA@ 0062d284     total.obj
 0002:0000129c       ??_C@_0BC@GCBEMKJD@1?42?4840?410008?41?42?$AA@ 0062d29c     total.obj
 0002:000012b4       ??_C@_01LOCGONAA@?$AA?$AA@ 0062d2b4     total.obj
 0002:000012b8       ??_C@_0P@CEBAKLIE@DT_ENDSEQUENCE?$AA@ 0062d2b8     total.obj
 0002:000012cc       ??_C@_0BB@JANMFPEP@DT_STARTSEQUENCE?$AA@ 0062d2cc     total.obj
 0002:000012e0       ??_C@_05GEALBLKK@DT_FD?$AA@ 0062d2e0     total.obj
 0002:000012e8       ??_C@_05KMNCJBKC@DT_FL?$AA@ 0062d2e8     total.obj
 0002:000012f0       ??_C@_05MPMFHIMO@DT_UI?$AA@ 0062d2f0     total.obj
 0002:000012f8       ??_C@_07MDILEAGI@DT_TIME?$AA@ 0062d2f8     total.obj
 0002:00001304       ??_C@_09BJNHCNJC@DT_UINT32?$AA@ 0062d304     total.obj
 0002:00001310       ??_C@_09HODPDMPI@DT_UINT16?$AA@ 0062d310     total.obj
 0002:0000131c       ??_C@_07HFCIGHPK@DT_DATE?$AA@ 0062d31c     total.obj
 0002:00001328       ??_C@_07IHKLBOAJ@DT_MSTR?$AA@ 0062d328     total.obj
 0002:00001334       ??_C@_06MFALHKOG@DT_STR?$AA@ 0062d334     total.obj
 0002:0000133c       ??_C@_0L@HHAJCAAC@SQL_C_DATE?$AA@ 0062d33c     total.obj
 0002:0000134c       ??_C@_0L@KHEPFGJF@SQL_C_CHAR?$AA@ 0062d34c     total.obj
 0002:0000135c       ??_C@_01BJJEKLCA@?$CC?$AA@ 0062d35c     total.obj
 0002:00001360       ??_C@_01IHBHIGKO@?0?$AA@   0062d360     total.obj
 0002:00001364       ??_C@_01CELHOKLL@?$HN?$AA@ 0062d364     total.obj
 0002:00001368       ??_C@_01HCONENDN@?$HL?$AA@ 0062d368     total.obj
 0002:0000136c       ??_C@_0L@OGDMBIAL@?$CKWorkList?$CK?$AA@ 0062d36c     total.obj
 0002:0000137c       ??_C@_07LEEGCGIC@?$CKImage?$CK?$AA@ 0062d37c     total.obj
 0002:00001388       ??_C@_08OLOCNAON@?$CKSeries?$CK?$AA@ 0062d388     total.obj
 0002:00001394       ??_C@_07MBNIHCOJ@?$CKStudy?$CK?$AA@ 0062d394     total.obj
 0002:000013a0       ??_C@_09KLHNDLMA@?$CKPatient?$CK?$AA@ 0062d3a0     total.obj
 0002:000013ac       ??_C@_02CHHINNLG@?$CK?1?$AA@ 0062d3ac     total.obj
 0002:000013b0       ??_C@_02FMMEOLBI@?1?$CK?$AA@ 0062d3b0     total.obj
 0002:000013b4       ?has_denorm@_Num_base@std@@2W4float_denorm_style@2@B 0062d3b4     total.obj
 0002:000013b8       ?has_denorm_loss@_Num_base@std@@2_NB 0062d3b8     total.obj
 0002:000013b9       ?has_infinity@_Num_base@std@@2_NB 0062d3b9     total.obj
 0002:000013ba       ?has_quiet_NaN@_Num_base@std@@2_NB 0062d3ba     total.obj
 0002:000013bb       ?has_signaling_NaN@_Num_base@std@@2_NB 0062d3bb     total.obj
 0002:000013bc       ?is_bounded@_Num_base@std@@2_NB 0062d3bc     total.obj
 0002:000013bd       ?is_exact@_Num_base@std@@2_NB 0062d3bd     total.obj
 0002:000013be       ?is_iec559@_Num_base@std@@2_NB 0062d3be     total.obj
 0002:000013bf       ?is_integer@_Num_base@std@@2_NB 0062d3bf     total.obj
 0002:000013c0       ?is_modulo@_Num_base@std@@2_NB 0062d3c0     total.obj
 0002:000013c1       ?is_signed@_Num_base@std@@2_NB 0062d3c1     total.obj
 0002:000013c2       ?is_specialized@_Num_base@std@@2_NB 0062d3c2     total.obj
 0002:000013c3       ?tinyness_before@_Num_base@std@@2_NB 0062d3c3     total.obj
 0002:000013c4       ?traps@_Num_base@std@@2_NB 0062d3c4     total.obj
 0002:000013c8       ?round_style@_Num_base@std@@2W4float_round_style@2@B 0062d3c8     total.obj
 0002:000013cc       ?digits@_Num_base@std@@2HB 0062d3cc     total.obj
 0002:000013d0       ?digits10@_Num_base@std@@2HB 0062d3d0     total.obj
 0002:000013d4       ?max_digits10@_Num_base@std@@2HB 0062d3d4     total.obj
 0002:000013d8       ?max_exponent@_Num_base@std@@2HB 0062d3d8     total.obj
 0002:000013dc       ?max_exponent10@_Num_base@std@@2HB 0062d3dc     total.obj
 0002:000013e0       ?min_exponent@_Num_base@std@@2HB 0062d3e0     total.obj
 0002:000013e4       ?min_exponent10@_Num_base@std@@2HB 0062d3e4     total.obj
 0002:000013e8       ?radix@_Num_base@std@@2HB  0062d3e8     total.obj
 0002:000013ec       ?is_bounded@_Num_int_base@std@@2_NB 0062d3ec     total.obj
 0002:000013ed       ?is_exact@_Num_int_base@std@@2_NB 0062d3ed     total.obj
 0002:000013ee       ?is_integer@_Num_int_base@std@@2_NB 0062d3ee     total.obj
 0002:000013ef       ?is_modulo@_Num_int_base@std@@2_NB 0062d3ef     total.obj
 0002:000013f0       ?is_specialized@_Num_int_base@std@@2_NB 0062d3f0     total.obj
 0002:000013f4       ?radix@_Num_int_base@std@@2HB 0062d3f4     total.obj
 0002:000013f8       ?has_denorm@_Num_float_base@std@@2W4float_denorm_style@2@B 0062d3f8     total.obj
 0002:000013fc       ?has_denorm_loss@_Num_float_base@std@@2_NB 0062d3fc     total.obj
 0002:000013fd       ?has_infinity@_Num_float_base@std@@2_NB 0062d3fd     total.obj
 0002:000013fe       ?has_quiet_NaN@_Num_float_base@std@@2_NB 0062d3fe     total.obj
 0002:000013ff       ?has_signaling_NaN@_Num_float_base@std@@2_NB 0062d3ff     total.obj
 0002:00001400       ?is_bounded@_Num_float_base@std@@2_NB 0062d400     total.obj
 0002:00001401       ?is_exact@_Num_float_base@std@@2_NB 0062d401     total.obj
 0002:00001402       ?is_iec559@_Num_float_base@std@@2_NB 0062d402     total.obj
 0002:00001403       ?is_integer@_Num_float_base@std@@2_NB 0062d403     total.obj
 0002:00001404       ?is_modulo@_Num_float_base@std@@2_NB 0062d404     total.obj
 0002:00001405       ?is_signed@_Num_float_base@std@@2_NB 0062d405     total.obj
 0002:00001406       ?is_specialized@_Num_float_base@std@@2_NB 0062d406     total.obj
 0002:00001407       ?tinyness_before@_Num_float_base@std@@2_NB 0062d407     total.obj
 0002:00001408       ?traps@_Num_float_base@std@@2_NB 0062d408     total.obj
 0002:0000140c       ?round_style@_Num_float_base@std@@2W4float_round_style@2@B 0062d40c     total.obj
 0002:00001410       ?radix@_Num_float_base@std@@2HB 0062d410     total.obj
 0002:00001414       ?is_signed@?$numeric_limits@D@std@@2_NB 0062d414     total.obj
 0002:00001418       ?digits@?$numeric_limits@D@std@@2HB 0062d418     total.obj
 0002:0000141c       ?digits10@?$numeric_limits@D@std@@2HB 0062d41c     total.obj
 0002:00001420       ?max_digits10@?$numeric_limits@D@std@@2HB 0062d420     total.obj
 0002:00001424       ?is_signed@?$numeric_limits@_W@std@@2_NB 0062d424     total.obj
 0002:00001428       ?digits@?$numeric_limits@_W@std@@2HB 0062d428     total.obj
 0002:0000142c       ?digits10@?$numeric_limits@_W@std@@2HB 0062d42c     total.obj
 0002:00001430       ?max_digits10@?$numeric_limits@_W@std@@2HB 0062d430     total.obj
 0002:00001434       ?is_modulo@?$numeric_limits@_N@std@@2_NB 0062d434     total.obj
 0002:00001435       ?is_signed@?$numeric_limits@_N@std@@2_NB 0062d435     total.obj
 0002:00001438       ?digits@?$numeric_limits@_N@std@@2HB 0062d438     total.obj
 0002:0000143c       ?digits10@?$numeric_limits@_N@std@@2HB 0062d43c     total.obj
 0002:00001440       ?max_digits10@?$numeric_limits@_N@std@@2HB 0062d440     total.obj
 0002:00001444       ?is_signed@?$numeric_limits@C@std@@2_NB 0062d444     total.obj
 0002:00001448       ?digits@?$numeric_limits@C@std@@2HB 0062d448     total.obj
 0002:0000144c       ?digits10@?$numeric_limits@C@std@@2HB 0062d44c     total.obj
 0002:00001450       ?max_digits10@?$numeric_limits@C@std@@2HB 0062d450     total.obj
 0002:00001454       ?is_signed@?$numeric_limits@E@std@@2_NB 0062d454     total.obj
 0002:00001458       ?digits@?$numeric_limits@E@std@@2HB 0062d458     total.obj
 0002:0000145c       ?digits10@?$numeric_limits@E@std@@2HB 0062d45c     total.obj
 0002:00001460       ?max_digits10@?$numeric_limits@E@std@@2HB 0062d460     total.obj
 0002:00001464       ?is_signed@?$numeric_limits@F@std@@2_NB 0062d464     total.obj
 0002:00001468       ?digits@?$numeric_limits@F@std@@2HB 0062d468     total.obj
 0002:0000146c       ?digits10@?$numeric_limits@F@std@@2HB 0062d46c     total.obj
 0002:00001470       ?max_digits10@?$numeric_limits@F@std@@2HB 0062d470     total.obj
 0002:00001474       ?is_signed@?$numeric_limits@G@std@@2_NB 0062d474     total.obj
 0002:00001478       ?digits@?$numeric_limits@G@std@@2HB 0062d478     total.obj
 0002:0000147c       ?digits10@?$numeric_limits@G@std@@2HB 0062d47c     total.obj
 0002:00001480       ?max_digits10@?$numeric_limits@G@std@@2HB 0062d480     total.obj
 0002:00001484       ?is_signed@?$numeric_limits@H@std@@2_NB 0062d484     total.obj
 0002:00001488       ?digits@?$numeric_limits@H@std@@2HB 0062d488     total.obj
 0002:0000148c       ?digits10@?$numeric_limits@H@std@@2HB 0062d48c     total.obj
 0002:00001490       ?max_digits10@?$numeric_limits@H@std@@2HB 0062d490     total.obj
 0002:00001494       ?is_signed@?$numeric_limits@I@std@@2_NB 0062d494     total.obj
 0002:00001498       ?digits@?$numeric_limits@I@std@@2HB 0062d498     total.obj
 0002:0000149c       ?digits10@?$numeric_limits@I@std@@2HB 0062d49c     total.obj
 0002:000014a0       ?max_digits10@?$numeric_limits@I@std@@2HB 0062d4a0     total.obj
 0002:000014a4       ?is_signed@?$numeric_limits@J@std@@2_NB 0062d4a4     total.obj
 0002:000014a8       ?digits@?$numeric_limits@J@std@@2HB 0062d4a8     total.obj
 0002:000014ac       ?digits10@?$numeric_limits@J@std@@2HB 0062d4ac     total.obj
 0002:000014b0       ?max_digits10@?$numeric_limits@J@std@@2HB 0062d4b0     total.obj
 0002:000014b4       ?is_signed@?$numeric_limits@K@std@@2_NB 0062d4b4     total.obj
 0002:000014b8       ?digits@?$numeric_limits@K@std@@2HB 0062d4b8     total.obj
 0002:000014bc       ?digits10@?$numeric_limits@K@std@@2HB 0062d4bc     total.obj
 0002:000014c0       ?max_digits10@?$numeric_limits@K@std@@2HB 0062d4c0     total.obj
 0002:000014c4       ?is_signed@?$numeric_limits@_J@std@@2_NB 0062d4c4     total.obj
 0002:000014c8       ?digits@?$numeric_limits@_J@std@@2HB 0062d4c8     total.obj
 0002:000014cc       ?digits10@?$numeric_limits@_J@std@@2HB 0062d4cc     total.obj
 0002:000014d0       ?max_digits10@?$numeric_limits@_J@std@@2HB 0062d4d0     total.obj
 0002:000014d4       ?is_signed@?$numeric_limits@_K@std@@2_NB 0062d4d4     total.obj
 0002:000014d8       ?digits@?$numeric_limits@_K@std@@2HB 0062d4d8     total.obj
 0002:000014dc       ?digits10@?$numeric_limits@_K@std@@2HB 0062d4dc     total.obj
 0002:000014e0       ?max_digits10@?$numeric_limits@_K@std@@2HB 0062d4e0     total.obj
 0002:000014e4       ?digits@?$numeric_limits@M@std@@2HB 0062d4e4     total.obj
 0002:000014e8       ?digits10@?$numeric_limits@M@std@@2HB 0062d4e8     total.obj
 0002:000014ec       ?max_digits10@?$numeric_limits@M@std@@2HB 0062d4ec     total.obj
 0002:000014f0       ?max_exponent@?$numeric_limits@M@std@@2HB 0062d4f0     total.obj
 0002:000014f4       ?max_exponent10@?$numeric_limits@M@std@@2HB 0062d4f4     total.obj
 0002:000014f8       ?min_exponent@?$numeric_limits@M@std@@2HB 0062d4f8     total.obj
 0002:000014fc       ?min_exponent10@?$numeric_limits@M@std@@2HB 0062d4fc     total.obj
 0002:00001500       ?digits@?$numeric_limits@N@std@@2HB 0062d500     total.obj
 0002:00001504       ?digits10@?$numeric_limits@N@std@@2HB 0062d504     total.obj
 0002:00001508       ?max_digits10@?$numeric_limits@N@std@@2HB 0062d508     total.obj
 0002:0000150c       ?max_exponent@?$numeric_limits@N@std@@2HB 0062d50c     total.obj
 0002:00001510       ?max_exponent10@?$numeric_limits@N@std@@2HB 0062d510     total.obj
 0002:00001514       ?min_exponent@?$numeric_limits@N@std@@2HB 0062d514     total.obj
 0002:00001518       ?min_exponent10@?$numeric_limits@N@std@@2HB 0062d518     total.obj
 0002:0000151c       ?digits@?$numeric_limits@O@std@@2HB 0062d51c     total.obj
 0002:00001520       ?digits10@?$numeric_limits@O@std@@2HB 0062d520     total.obj
 0002:00001524       ?max_digits10@?$numeric_limits@O@std@@2HB 0062d524     total.obj
 0002:00001528       ?max_exponent@?$numeric_limits@O@std@@2HB 0062d528     total.obj
 0002:0000152c       ?max_exponent10@?$numeric_limits@O@std@@2HB 0062d52c     total.obj
 0002:00001530       ?min_exponent@?$numeric_limits@O@std@@2HB 0062d530     total.obj
 0002:00001534       ?min_exponent10@?$numeric_limits@O@std@@2HB 0062d534     total.obj
 0002:00001538       ?value@?$integral_constant@_N$0A@@tr1@std@@2_NB 0062d538     total.obj
 0002:00001539       ?value@?$integral_constant@_N$00@tr1@std@@2_NB 0062d539     total.obj
 0002:0000153c       ?value@?$integral_constant@I$0A@@tr1@std@@2IB 0062d53c     total.obj
 0002:00001540       ?_Rank@?$_Arithmetic_traits@_N@std@@2HB 0062d540     total.obj
 0002:00001544       ?_Rank@?$_Arithmetic_traits@D@std@@2HB 0062d544     total.obj
 0002:00001548       ?_Rank@?$_Arithmetic_traits@C@std@@2HB 0062d548     total.obj
 0002:0000154c       ?_Rank@?$_Arithmetic_traits@E@std@@2HB 0062d54c     total.obj
 0002:00001550       ?_Rank@?$_Arithmetic_traits@F@std@@2HB 0062d550     total.obj
 0002:00001554       ?_Rank@?$_Arithmetic_traits@G@std@@2HB 0062d554     total.obj
 0002:00001558       ?_Rank@?$_Arithmetic_traits@H@std@@2HB 0062d558     total.obj
 0002:0000155c       ?_Rank@?$_Arithmetic_traits@I@std@@2HB 0062d55c     total.obj
 0002:00001560       ?_Rank@?$_Arithmetic_traits@J@std@@2HB 0062d560     total.obj
 0002:00001564       ?_Rank@?$_Arithmetic_traits@K@std@@2HB 0062d564     total.obj
 0002:00001568       ?_Rank@?$_Arithmetic_traits@_J@std@@2HB 0062d568     total.obj
 0002:0000156c       ?_Rank@?$_Arithmetic_traits@_K@std@@2HB 0062d56c     total.obj
 0002:00001570       ?_Rank@?$_Arithmetic_traits@M@std@@2HB 0062d570     total.obj
 0002:00001574       ?_Rank@?$_Arithmetic_traits@N@std@@2HB 0062d574     total.obj
 0002:00001578       ?_Rank@?$_Arithmetic_traits@O@std@@2HB 0062d578     total.obj
 0002:0000157c       ?collate@?$_Locbase@H@std@@2HB 0062d57c     total.obj
 0002:00001580       ?ctype@?$_Locbase@H@std@@2HB 0062d580     total.obj
 0002:00001584       ?monetary@?$_Locbase@H@std@@2HB 0062d584     total.obj
 0002:00001588       ?numeric@?$_Locbase@H@std@@2HB 0062d588     total.obj
 0002:0000158c       ?time@?$_Locbase@H@std@@2HB 0062d58c     total.obj
 0002:00001590       ?messages@?$_Locbase@H@std@@2HB 0062d590     total.obj
 0002:00001594       ?all@?$_Locbase@H@std@@2HB 0062d594     total.obj
 0002:00001598       ?none@?$_Locbase@H@std@@2HB 0062d598     total.obj
 0002:0000159c       ?table_size@?$ctype@D@std@@2IB 0062d59c     total.obj
 0002:000015a0       ?skipws@?$_Iosb@H@std@@2W4_Fmtflags@12@B 0062d5a0     total.obj
 0002:000015a4       ?unitbuf@?$_Iosb@H@std@@2W4_Fmtflags@12@B 0062d5a4     total.obj
 0002:000015a8       ?uppercase@?$_Iosb@H@std@@2W4_Fmtflags@12@B 0062d5a8     total.obj
 0002:000015ac       ?showbase@?$_Iosb@H@std@@2W4_Fmtflags@12@B 0062d5ac     total.obj
 0002:000015b0       ?showpoint@?$_Iosb@H@std@@2W4_Fmtflags@12@B 0062d5b0     total.obj
 0002:000015b4       ?showpos@?$_Iosb@H@std@@2W4_Fmtflags@12@B 0062d5b4     total.obj
 0002:000015b8       ?left@?$_Iosb@H@std@@2W4_Fmtflags@12@B 0062d5b8     total.obj
 0002:000015bc       ?right@?$_Iosb@H@std@@2W4_Fmtflags@12@B 0062d5bc     total.obj
 0002:000015c0       ?internal@?$_Iosb@H@std@@2W4_Fmtflags@12@B 0062d5c0     total.obj
 0002:000015c4       ?dec@?$_Iosb@H@std@@2W4_Fmtflags@12@B 0062d5c4     total.obj
 0002:000015c8       ?oct@?$_Iosb@H@std@@2W4_Fmtflags@12@B 0062d5c8     total.obj
 0002:000015cc       ?hex@?$_Iosb@H@std@@2W4_Fmtflags@12@B 0062d5cc     total.obj
 0002:000015d0       ?scientific@?$_Iosb@H@std@@2W4_Fmtflags@12@B 0062d5d0     total.obj
 0002:000015d4       ?fixed@?$_Iosb@H@std@@2W4_Fmtflags@12@B 0062d5d4     total.obj
 0002:000015d8       ?hexfloat@?$_Iosb@H@std@@2W4_Fmtflags@12@B 0062d5d8     total.obj
 0002:000015dc       ?boolalpha@?$_Iosb@H@std@@2W4_Fmtflags@12@B 0062d5dc     total.obj
 0002:000015e0       ?_Stdio@?$_Iosb@H@std@@2W4_Fmtflags@12@B 0062d5e0     total.obj
 0002:000015e4       ?adjustfield@?$_Iosb@H@std@@2W4_Fmtflags@12@B 0062d5e4     total.obj
 0002:000015e8       ?basefield@?$_Iosb@H@std@@2W4_Fmtflags@12@B 0062d5e8     total.obj
 0002:000015ec       ?floatfield@?$_Iosb@H@std@@2W4_Fmtflags@12@B 0062d5ec     total.obj
 0002:000015f0       ?goodbit@?$_Iosb@H@std@@2W4_Iostate@12@B 0062d5f0     total.obj
 0002:000015f4       ?eofbit@?$_Iosb@H@std@@2W4_Iostate@12@B 0062d5f4     total.obj
 0002:000015f8       ?failbit@?$_Iosb@H@std@@2W4_Iostate@12@B 0062d5f8     total.obj
 0002:000015fc       ?badbit@?$_Iosb@H@std@@2W4_Iostate@12@B 0062d5fc     total.obj
 0002:00001600       ?_Hardfail@?$_Iosb@H@std@@2W4_Iostate@12@B 0062d600     total.obj
 0002:00001604       ?in@?$_Iosb@H@std@@2W4_Openmode@12@B 0062d604     total.obj
 0002:00001608       ?out@?$_Iosb@H@std@@2W4_Openmode@12@B 0062d608     total.obj
 0002:0000160c       ?ate@?$_Iosb@H@std@@2W4_Openmode@12@B 0062d60c     total.obj
 0002:00001610       ?app@?$_Iosb@H@std@@2W4_Openmode@12@B 0062d610     total.obj
 0002:00001614       ?trunc@?$_Iosb@H@std@@2W4_Openmode@12@B 0062d614     total.obj
 0002:00001618       ?_Nocreate@?$_Iosb@H@std@@2W4_Openmode@12@B 0062d618     total.obj
 0002:0000161c       ?_Noreplace@?$_Iosb@H@std@@2W4_Openmode@12@B 0062d61c     total.obj
 0002:00001620       ?binary@?$_Iosb@H@std@@2W4_Openmode@12@B 0062d620     total.obj
 0002:00001624       ?beg@?$_Iosb@H@std@@2W4_Seekdir@12@B 0062d624     total.obj
 0002:00001628       ?cur@?$_Iosb@H@std@@2W4_Seekdir@12@B 0062d628     total.obj
 0002:0000162c       ?end@?$_Iosb@H@std@@2W4_Seekdir@12@B 0062d62c     total.obj
 0002:00001b1c       ??_C@_02JDPG@rb?$AA@       0062db1c     total.obj
 0002:00001b20       ??_C@_02GMLFBBN@wb?$AA@    0062db20     total.obj
 0002:00001b28       ??_7bad_alloc@std@@6B@     0062db28     total.obj
 0002:00001b38       ??_7runtime_error@std@@6B@ 0062db38     total.obj
 0002:00001b48       ??_7facet@locale@std@@6B@  0062db48     total.obj
 0002:00001b54       ??_7codecvt_base@std@@6B@  0062db54     total.obj
 0002:00001b6c       ??_7ctype_base@std@@6B@    0062db6c     total.obj
 0002:00001b78       ??_7ios_base@std@@6B@      0062db78     total.obj
 0002:00001b84       ??_7DriverApp@@6B@         0062db84     total.obj
 0002:00001b8c       ??_C@_07CIFAGBMG@unknown?$AA@ 0062db8c     total.obj
 0002:00001b98       ??_C@_0BD@BAPKJDDP@?$CFs?3?$CF02d?3?$CF02d?3?$CF02d?6?$AA@ 0062db98     total.obj
 0002:00001bb0       ??_C@_0CF@LKELGPBM@Could?5not?5allocate?5?$CFd?5bytes?5for?5@ 0062dbb0     total.obj
 0002:00001bdc       ??_C@_0CF@NELNDJED@Error?5renaming?5the?5file?5?$CFs?5to?5?$CFs@ 0062dbdc     total.obj
 0002:00001c08       ??_C@_0BP@JNNEJPHJ@Error?5deleting?5the?5file?5?$CFs?3?5?$CFs?$AA@ 0062dc08     total.obj
 0002:00001c30       ??_C@_0BO@BNJNDDCB@Error?5closing?5the?5file?5?$CFs?3?5?$CFs?$AA@ 0062dc30     total.obj
 0002:00001c54       ??_C@_0N@BFFBAPFO@Thread?5Error?$AA@ 0062dc54     total.obj
 0002:00001c64       ??_C@_0DB@FNNDDKKM@Only?5wrote?5?$CFld?5bytes?5of?5?$CFld?5to?5t@ 0062dc64     total.obj
 0002:00001ca0       ??_C@_04MLLLIHIP@null?$AA@ 0062dca0     total.obj
 0002:00001ca8       ??_C@_0M@NJALGCHB@Application?$AA@ 0062dca8     total.obj
 0002:00001cb8       ??_C@_08LGNJOGGB@transfer?$AA@ 0062dcb8     total.obj
 0002:00001cc4       ??_C@_08IMFJLGFD@abstract?$AA@ 0062dcc4     total.obj
 0002:00001cd0       ??_C@_03MLIFNKHK@sop?$AA@  0062dcd0     total.obj
 0002:00001cd4       ??_C@_07DOIFPMDN@LocalAE?$AA@ 0062dcd4     total.obj
 0002:00001ce0       ??_C@_08DCGGKBFN@RemoteAE?$AA@ 0062dce0     total.obj
 0002:00001cec       ??_C@_01KDCPPGHE@r?$AA@    0062dcec     total.obj
 0002:00001cf4       ??_7AAssociateRJ@@6B@      0062dcf4     total.obj
 0002:00001d00       ??_7AReleaseRQ@@6B@        0062dd00     total.obj
 0002:00001d0c       ??_7AReleaseRP@@6B@        0062dd0c     total.obj
 0002:00001d18       ??_7AAbortRQ@@6B@          0062dd18     total.obj
 0002:00001d20       ??_C@_0N@PKKIJDHK@DICOM?5ERROR?5?$AA@ 0062dd20     total.obj
 0002:00001d30       ??_C@_0CH@HECCNILG@VR?3?5out?5of?5memory?5allocating?5?$CFd?5@ 0062dd30     total.obj
 0002:00001d60       ??_C@_0BA@EJOLBKMG@?$FL?$FLRGB_TO_MONO?$FN?$FN?$AA@ 0062dd60     total.obj
 0002:00001d74       ??_C@_0BF@MEKPLDCK@?$FL?$FLRGB_TO_MONO_PLUS?$FN?$FN?$AA@ 0062dd74     total.obj
 0002:00001d90       ??_C@_0M@KFCCMGML@?$FL?$FLFIX_TMS?$FN?$FN?$AA@ 0062dd90     total.obj
 0002:00001da4       ??_7Socket@@6B@            0062dda4     total.obj
 0002:00001dbc       ??_C@_0BL@FOJILJIC@Connected?5by?5address?3?5?$CF08x?$AA@ 0062ddbc     total.obj
 0002:00001ddc       ??_C@_0BI@MHLAJIKA@Could?5not?5resolve?5port?6?$AA@ 0062dddc     total.obj
 0002:00001df8       ??_C@_0BI@JAIJHPDD@Could?5not?5resolve?5host?6?$AA@ 0062ddf8     total.obj
 0002:00001e14       ??_C@_0DA@CNOKHGHP@Bufferspace?3?5out?5of?5memory?5alloc@ 0062de14     total.obj
 0002:00001e50       ??_C@_0L@CJMJKKPC@dbase_open?$AA@ 0062de50     total.obj
 0002:00001e60       ??_C@_01ICJEACDI@?$DL?$AA@ 0062de60     total.obj
 0002:00001e64       ??_C@_04FDGMDGHG@?$CF?9?$CKs?$AA@ 0062de64     total.obj
 0002:00001e6c       ??_C@_03HIJPJGOM@?$CF?$CKs?$AA@ 0062de6c     total.obj
 0002:00001e70       ??_C@_06BCLENCFB@OLDUID?$AA@ 0062de70     total.obj
 0002:00001e78       ??_C@_0L@GKBMPOLF@ACCESSIONN?$AA@ 0062de78     total.obj
 0002:00001e88       ??_C@_0EP@CHNOHBBG@?$CK?$CK?$CK?5Fatal?5error?3?5could?5not?5load?5@ 0062de88     total.obj
 0002:00001ee8       ??_C@_09JAEFCFEE@dgate?4exe?$AA@ 0062dee8     total.obj
 0002:00001ef4       ??_C@_0BE@EMLDCCDH@mysql_fetch_lengths?$AA@ 0062def4     total.obj
 0002:00001f0c       ??_C@_0BJ@EGBIINKF@mysql_fetch_field_direct?$AA@ 0062df0c     total.obj
 0002:00001f2c       ??_C@_0M@FLFICPJP@mysql_error?$AA@ 0062df2c     total.obj
 0002:00001f3c       ??_C@_0BA@IAHNCKJL@mysql_fetch_row?$AA@ 0062df3c     total.obj
 0002:00001f50       ??_C@_0BB@HACKKJNO@mysql_num_fields?$AA@ 0062df50     total.obj
 0002:00001f64       ??_C@_0P@KKHGNBMG@mysql_num_rows?$AA@ 0062df64     total.obj
 0002:00001f78       ??_C@_0BD@DIJMDHNC@mysql_store_result?$AA@ 0062df78     total.obj
 0002:00001f90       ??_C@_0M@ELPLDFMM@mysql_query?$AA@ 0062df90     total.obj
 0002:00001fa0       ??_C@_0BC@EPIDFEML@mysql_free_result?$AA@ 0062dfa0     total.obj
 0002:00001fb8       ??_C@_0BA@DIBKOPFD@mysql_select_db?$AA@ 0062dfb8     total.obj
 0002:00001fcc       ??_C@_0BD@NPCAJHLL@mysql_real_connect?$AA@ 0062dfcc     total.obj
 0002:00001fe4       ??_C@_0L@FOPABAIC@mysql_init?$AA@ 0062dfe4     total.obj
 0002:00001ff4       ??_C@_0M@OABNLEKB@mysql_close?$AA@ 0062dff4     total.obj
 0002:00002004       ??_C@_0BB@FJMNLIDC@x64?2libmysql?4dll?$AA@ 0062e004     total.obj
 0002:00002018       ??_C@_0P@DLNLGAAH@libmysql64?4dll?$AA@ 0062e018     total.obj
 0002:0000202c       ??_C@_0N@PEFODMOF@libmysql?4dll?$AA@ 0062e02c     total.obj
 0002:0000203c       ??_C@_0DO@IOJMAJEC@?$CK?$CK?$CK?5Fatal?5error?3?5could?5not?5load?5@ 0062e03c     total.obj
 0002:00002088       ??_C@_0EI@FLJIFJHJ@?$CK?$CK?$CK?5Fatal?5error?3?5libpq?4dll?5for?5a@ 0062e088     total.obj
 0002:000020e0       ??_C@_0P@BBLBJIFE@PQerrorMessage?$AA@ 0062e0e0     total.obj
 0002:000020f4       ??_C@_0BF@GGILJBKN@PQresultErrorMessage?$AA@ 0062e0f4     total.obj
 0002:00002110       ??_C@_0M@GGLELKDN@PQgetlength?$AA@ 0062e110     total.obj
 0002:00002120       ??_C@_0L@EAFHAFAI@PQgetvalue?$AA@ 0062e120     total.obj
 0002:00002130       ??_C@_06BLLAJNOJ@PQfmod?$AA@ 0062e130     total.obj
 0002:00002138       ??_C@_09KJFKCIHP@PQnfields?$AA@ 0062e138     total.obj
 0002:00002144       ??_C@_09IEMNBFLN@PQntuples?$AA@ 0062e144     total.obj
 0002:00002150       ??_C@_0P@HKMCCKH@PQresultStatus?$AA@ 0062e150     total.obj
 0002:00002164       ??_C@_06HJABFDIF@PQexec?$AA@ 0062e164     total.obj
 0002:0000216c       ??_C@_07MABPGLLJ@PQclear?$AA@ 0062e16c     total.obj
 0002:00002178       ??_C@_0N@JCGHFBEK@PQsetdbLogin?$AA@ 0062e178     total.obj
 0002:00002188       ??_C@_08KJDMDFKG@PQstatus?$AA@ 0062e188     total.obj
 0002:00002194       ??_C@_08KOAKDIDB@PQfinish?$AA@ 0062e194     total.obj
 0002:000021a0       ??_C@_0O@PCJGMGHH@x64?2libpq?4dll?$AA@ 0062e1a0     total.obj
 0002:000021b0       ??_C@_0M@NBMIAEDP@libpq64?4dll?$AA@ 0062e1b0     total.obj
 0002:000021c0       ??_C@_09NLIGAKNP@libpq?4dll?$AA@ 0062e1c0     total.obj
 0002:000021d4       ??_7Database@@6B@          0062e1d4     total.obj
 0002:0000224c       ??_7CMoveRQ@@6B@           0062e24c     total.obj
 0002:00002258       ??_7CMoveRSP@@6B@          0062e258     total.obj
 0002:00002260       __real@3ffc5a1cac083127    0062e260     total.obj
 0002:00002270       __real@3fe6da3c21187e7c    0062e270     total.obj
 0002:00002280       __real@3fd60663c74fb54a    0062e280     total.obj
 0002:00002290       __real@3ff66e978d4fdf3b    0062e290     total.obj
 0002:0000229c       ??_C@_0BF@LMBCHBBP@1?42?4840?410008?41?42?44?4?$AA@ 0062e29c     total.obj
 0002:000022b8       ??_C@_0L@GEHENBCM@scriptdata?$AA@ 0062e2b8     total.obj
 0002:000022c8       ??_C@_02GMHACPFF@?$CFu?$AA@ 0062e2c8     total.obj
 0002:000022cc       ??_C@_03MKLPJJFP@DDO?$AA@  0062e2cc     total.obj
 0002:000022d0       ??_C@_06JGMANLDI@Thread?$AA@ 0062e2d0     total.obj
 0002:000022d8       ??_C@_0M@PCENNPGA@?$CFd?4?$CFd?4?$CFd?4?$CFd?$AA@ 0062e2d8     total.obj
 0002:000022e8       ??_C@_0M@MJPEJEJJ@ConnectedIP?$AA@ 0062e2e8     total.obj
 0002:000022f8       ??_C@_06LGGHOGAF@Called?$AA@ 0062e2f8     total.obj
 0002:00002300       ??_C@_07BNCBFEGH@Calling?$AA@ 0062e300     total.obj
 0002:0000230c       ??_C@_0N@MGHDCBMD@bad?5code?5?$GA?$DP?8?$AA@ 0062e30c     total.obj
 0002:00002320       __real@41f0000000000000    0062e320     total.obj
 0002:00002329       ??_C@_00CNPNBAHC@?$AA@     0062e329     total.obj
 0002:00002330       __real@3ff0000000000000    0062e330     total.obj
 0002:0000233c       ??_C@_06ICGJLFIM@string?$AA@ 0062e33c     total.obj
 0002:00002344       ??_C@_0BL@BHPDEMIM@?$CK?$CK?$CK?5ERROR?5?9?5bad?5heap?5node?6?$AA@ 0062e344     total.obj
 0002:00002364       ??_C@_0BM@CKKPHOJH@?$CK?$CK?$CK?5ERROR?5?9?5bad?5heap?5start?6?$AA@ 0062e364     total.obj
 0002:00002388       ??_C@_0BK@GCBHHFH@?$CK?$CK?$CK?5ERROR?5?9?5bad?5heap?5ptr?6?$AA@ 0062e388     total.obj
 0002:000023a8       ??_C@_0BC@CNLHFBDB@OK?5?9?5end?5of?5heap?6?$AA@ 0062e3a8     total.obj
 0002:000023c0       ??_C@_0BB@MLAPJDL@OK?5?9?5empty?5heap?6?$AA@ 0062e3c0     total.obj
 0002:000023d4       ??_C@_0CN@CDOPENFI@?$CFd?5small?5?$CI?$CFd?$CJ?$DL?5?$CFd?5medium?5?$CI?$CFd?$CJ?5?$CFd@ 0062e3d4     total.obj
 0002:0000240c       ??_C@_07LMEPGMD@?$CI?$CFd?$HM?$CFx?$CJ?$AA@ 0062e40c     total.obj
 0002:00002418       ??_C@_07GCEINMEC@?$FL?$CFd?$HM?$CFx?$FN?$AA@ 0062e418     total.obj
 0002:00002424       ??_C@_05ECFJDLDC@?$CF2?42x?$AA@ 0062e424     total.obj
 0002:0000242c       ??_C@_09OJDNCNKB@?$CF2?42x?$CI?$CFc?$CJ?$AA@ 0062e42c     total.obj
 0002:00002438       ??_C@_04OEDFLLKD@?$CC?$CFs?$CC?$AA@ 0062e438     total.obj
 0002:00002440       ??_C@_03IOOJPBPG@?$CFu?5?$AA@ 0062e440     total.obj
 0002:00002444       ??_C@_05NKLPODEL@?$CC?$CFs?$CC?5?$AA@ 0062e444     total.obj
 0002:0000244c       ??_C@_03JDANDILB@?$CFd?5?$AA@ 0062e44c     total.obj
 0002:00002450       ??_C@_06KOCDJANI@?$CF4?44x?5?$AA@ 0062e450     total.obj
 0002:00002458       ??_C@_06FNBBCMBJ@?$CF2?42x?5?$AA@ 0062e458     total.obj
 0002:00002460       ??_C@_0BA@DLLIMFJK@?$CI?$CF4?44x?0?5?$CF4?44x?$CJ?5?$AA@ 0062e460     total.obj
 0002:00002474       ??_C@_07NPEDDNID@?$CIempty?$CJ?$AA@ 0062e474     total.obj
 0002:00002480       ??_C@_0O@FKLAHHOF@Sequence?5Item?$AA@ 0062e480     total.obj
 0002:00002490       ??_C@_07BDFBBAOJ@?9?9bad?9?9?$AA@ 0062e490     total.obj
 0002:0000249c       ??_C@_0N@KGPPEGAN@End?5sequence?$AA@ 0062e49c     total.obj
 0002:000024ac       ??_C@_0P@MGFMPEKI@Start?5sequence?$AA@ 0062e4ac     total.obj
 0002:000024c0       ??_C@_0L@MLPMMKAO@DT_FD?5?$CIFD?$CJ?$AA@ 0062e4c0     total.obj
 0002:000024d0       ??_C@_0L@PGAANFNB@DT_FL?5?$CIFL?$CJ?$AA@ 0062e4d0     total.obj
 0002:000024e0       ??_C@_0L@BCGLPGCE@DT_UI?5?$CIUI?$CJ?$AA@ 0062e4e0     total.obj
 0002:000024f0       ??_C@_0P@NNFAPMBC@DT_UINT32?5?$CIUL?$CJ?$AA@ 0062e4f0     total.obj
 0002:00002504       ??_C@_0P@HMEADLDB@DT_UINT16?5?$CIUS?$CJ?$AA@ 0062e504     total.obj
 0002:00002518       ??_C@_0N@BHBGMLCI@DT_DATE?5?$CIDA?$CJ?$AA@ 0062e518     total.obj
 0002:0000252c       ??_7CStoreRQ@@6B@          0062e52c     total.obj
 0002:00002538       ??_7CStoreRSP@@6B@         0062e538     total.obj
 0002:00002540       ??_C@_0EO@NAJAFGMH@?5?5?5?5?9?9dolua?3chunk?5?5?5?5?5?5?5?5?5?5?5?5?5?5?5@ 0062e540     total.obj
 0002:000025a0       ??_C@_0FB@JLLJIKLN@?5?5?5?5?9?9luastart?3chunk?5?5?5?5?5?5?5?5?5?5?5?5@ 0062e5a0     total.obj
 0002:00002608       ??_C@_0FB@NGPHLLBA@?5?5?5?5?9?9lua?3chunk?5?5?5?5?5?5?5?5?5?5?5?5?5?5?5?5?5@ 0062e608     total.obj
 0002:0000266c       ??_C@_0BE@FAEEELGO@Scripting?5options?3?6?$AA@ 0062e66c     total.obj
 0002:00002684       ??_C@_0DN@DOBHEAIJ@?5?5?5?5?9?9restoremagflags?3?5?5?5?5?5?5?5?5?5?5@ 0062e684     total.obj
 0002:000026d0       ??_C@_0FA@JOKFCKAM@?5?5?5?5?9?9comparebunchafterburning?3d@ 0062e6d0     total.obj
 0002:00002730       ??_C@_0FB@FNOANEFL@?5?5?5?5?9?9deletebunchafterburning?3de@ 0062e730     total.obj
 0002:00002798       ??_C@_0EN@NHJGFIBJ@?5?5?5?5?9?9preparebunchforburning?3to?0@ 0062e798     total.obj
 0002:000027f8       ??_C@_0FB@ODGDIPFI@?5?5?5?5?9?9selectseriestomove?3device?0@ 0062e7f8     total.obj
 0002:00002860       ??_C@_0FB@GENAGGJD@?5?5?5?5?9?9selectlruforarchival?3kb?0de@ 0062e860     total.obj
 0002:000028c8       ??_C@_0FA@CDBPECBP@?5?5?5?5?9?9moveseriestodevice?3to?0from@ 0062e8c8     total.obj
 0002:00002928       ??_C@_0FC@PJGGNEFI@?5?5?5?5?9?9movedatatodevice?3to?0from?5?5@ 0062e928     total.obj
 0002:00002990       ??_C@_0EI@ENJNLAMN@?5?5?5?5?9?9testimages?3device?5?5?5?5?5?5?5?5?5@ 0062e990     total.obj
 0002:000029e8       ??_C@_0FA@DABHPMJN@?5?5?5?5?9?9verifymirrordisk?3device?5?5?5@ 0062e9e8     total.obj
 0002:00002a48       ??_C@_0ED@HIFEPFN@?5?5?5?5?9?9renamedevice?3from?0to?5?5?5?5?5?5@ 0062ea48     total.obj
 0002:00002a98       ??_C@_0BD@NEIOEFPK@Archival?5options?3?6?$AA@ 0062ea98     total.obj
 0002:00002ab0       ??_C@_0EA@FHHDJCLN@?5?5?5?5?9?9indexdbf?3?5?5?5?5?5?5?5?5?5?5?5?5?5?5?5?5?5@ 0062eab0     total.obj
 0002:00002b00       ??_C@_0EO@GKCMJCKL@?5?5?5?5?9?9packdbf?3?5?5?5?5?5?5?5?5?5?5?5?5?5?5?5?5?5?5@ 0062eb00     total.obj
 0002:00002b60       ??_C@_0BM@DCBOEFNP@For?5DbaseIII?5without?5ODBC?3?6?$AA@ 0062eb60     total.obj
 0002:00002b88       ??_C@_0EC@JCABBKLA@?5?5?5?5?9?9deleterecord?3table?0where?5?5@ 0062eb88     total.obj
 0002:00002bd8       ??_C@_0EN@JBICPHMK@?5?5?5?5?9?9addrecord?3table?$HMflds?$HMvalue@ 0062ebd8     total.obj
 0002:00002c38       ??_C@_0EN@MIKKNCPG@?5?5?5?5?9?9extract?3?5?5?5?5?5?5?5?5?5?5?5?5?5?5?5?5?5?5@ 0062ec38     total.obj
 0002:00002c98       ??_C@_0EJ@DGMNNAMD@?5?5?5?5?9?9extract?3PatientID?5?$DN?5?8id?8?5?5@ 0062ec98     total.obj
 0002:00002cf0       ??_C@_0EI@FNNBOCHB@?5?5?5?5?9?9imagelister?3srv?$HMpat?$HMser?$HMfm@ 0062ecf0     total.obj
 0002:00002d48       ??_C@_0EA@JFIGFOAE@?5?5?5?5?9?9serieslister?3srv?$HMpat?$HMstu?$HMf@ 0062ed48     total.obj
 0002:00002d94       ??_C@_0DP@MJEFCPJ@?5?5?5?5?9?9imagefinder?3srv?$HMstr?$HMfmt?$HMfi@ 0062ed94     total.obj
 0002:00002de0       ??_C@_0DP@MIGELDBM@?5?5?5?5?9?9seriesfinder?3srv?$HMstr?$HMfmt?$HMf@ 0062ede0     total.obj
 0002:00002e30       ??_C@_0EA@IJGGDGHG@?5?5?5?5?9?9studyfinder?3srv?$HMstr?$HMfmt?$HMfi@ 0062ee30     total.obj
 0002:00002e80       ??_C@_0EB@GIDODNBE@?5?5?5?5?9?9patientfinder?3srv?$HMstr?$HMfmt?$HM@ 0062ee80     total.obj
 0002:00002ed0       ??_C@_0EL@JGEHIGLC@?5?5?5?5?9?9query2?3tab?$HMfld?$HMwhe?$HMfmt?$HMmax@ 0062eed0     total.obj
 0002:00002f30       ??_C@_0EI@EGOJPMBB@?5?5?5?5?9?9query?3table?$HMfields?$HMwhere?$HMf@ 0062ef30     total.obj
 0002:00002f88       ??_C@_0BD@FAOALLIA@Database?5options?3?6?$AA@ 0062ef88     total.obj
 0002:00002fa0       ??_C@_0DP@HKBHCING@?5?5?5?5?9?9wadorequest?3parameters?5?5?5?5@ 0062efa0     total.obj
 0002:00002fec       ??_C@_0DL@EOAPBNNI@?5?5?5?5?9?9uncompress?3file?0out?5?5?5?5?5?5?5@ 0062efec     total.obj
 0002:00003038       ??_C@_0EI@FNADLOKG@?5?5?5?5?9?9count_frames?3file?5?5?5?5?5?5?5?5?5@ 0062f038     total.obj
 0002:00003090       ??_C@_0EG@DPBGHKDF@?5?5?5?5?9?9extract_frames?3file?0out?0fi@ 0062f090     total.obj
 0002:000030e8       ??_C@_0EI@PGHPAJGG@?5?5?5?5?9?9convert_to_dicom?3file?0size@ 0062f0e8     total.obj
 0002:00003140       ??_C@_0EM@LEJMLIPG@?5?5?5?5?9?9convert_to_jpg?3file?0size?0o@ 0062f140     total.obj
 0002:000031a0       ??_C@_0EM@CPKLFIME@?5?5?5?5?9?9convert_to_bmp?3file?0size?0o@ 0062f1a0     total.obj
 0002:00003200       ??_C@_0EL@BOBGGPLO@?5?5?5?5?9?9convert_to_gif?3file?0size?0o@ 0062f200     total.obj
 0002:0000325c       ??_C@_0BF@ENGDPKLK@Conversion?5options?3?6?$AA@ 0062f25c     total.obj
 0002:00003278       ??_C@_0EF@KMDMFLM@?5?5?5?5?9?9clonedb?3AE?5?5?5?5?5?5?5?5?5?5?5?5?5?5?5?5@ 0062f278     total.obj
 0002:000032d0       ??_C@_0FA@DFJPBGEK@?5?5?5?5?9?9testcompress?3file?5?5?5?5?5?5?5?5?5@ 0062f2d0     total.obj
 0002:00003330       ??_C@_0DM@DHDOJGCJ@?5?5?5?5?9?9checksum?3string?5?5?5?5?5?5?5?5?5?5?5@ 0062f330     total.obj
 0002:00003378       ??_C@_0EK@OGNAGNDG@?5?5?5?5?9?9changeuidback?3UID?5?5?5?5?5?5?5?5?5@ 0062f378     total.obj
 0002:000033d0       ??_C@_0EM@JHCCMOOJ@?5?5?5?5?9?9changeuid?3UID?5?5?5?5?5?5?5?5?5?5?5?5?5@ 0062f3d0     total.obj
 0002:0000342c       ??_C@_0DE@DPMHLHCG@?5?5?5?5?9?9genuid?3?5?5?5?5?5?5?5?5?5?5?5?5?5?5?5?5?5?5?5@ 0062f42c     total.obj
 0002:0000346c       ??_C@_0P@BBBLEAHC@Test?5options?3?6?$AA@ 0062f46c     total.obj
 0002:00003480       ??_C@_0EG@NHKHKAAM@?5?5?5?5?9?9scheduletransfer?3options?5?5@ 0062f480     total.obj
 0002:000034d8       ??_C@_0EG@MENMABAF@?5?5?5?5?9?9export?3p?0st?0ser?0sop?0file?0s@ 0062f4d8     total.obj
 0002:00003530       ??_C@_0EC@BPADLONP@?5?5?5?5?9?9submit?3p?0s?0s?0s?0target?0pw?0s@ 0062f530     total.obj
 0002:00003580       ??_C@_0EC@GLGKMBHA@?5?5?5?5?9?9browsepatient?3searchstring@ 0062f580     total.obj
 0002:000035d0       ??_C@_0EL@INDLPOMG@?5?5?5?5?9?9prefetch?3patientid?5?5?5?5?5?5?5?5@ 0062f5d0     total.obj
 0002:00003630       ??_C@_0EC@KAGNPJJG@?5?5?5?5?9?9grabimagesfromserver?3AE?0da@ 0062f630     total.obj
 0002:00003680       ??_C@_0EJ@GJDOGIGM@?5?5?5?5?9?9forward?3file?0mode?0server?5?5@ 0062f680     total.obj
 0002:000036d8       ??_C@_0DP@FCGDCIOD@?5?5?5?5?9?9dump_header?3filein?0fileout@ 0062f6d8     total.obj
 0002:00003728       ??_C@_0EA@IHEKIEAF@?5?5?5?5?9?9loadhl7?3file?5?5?5?5?5?5?5?5?5?5?5?5?5?5@ 0062f728     total.obj
 0002:00003778       ??_C@_0EI@PKKNNHIM@?5?5?5?5?9?9loadanddeletedir?3dir?0patid@ 0062f778     total.obj
 0002:000037d0       ??_C@_0FA@OEGFAPIG@?5?5?5?5?9?9addlocalfile?3file?0patid?5?5?5@ 0062f7d0     total.obj
 0002:00003830       ??_C@_0FA@MKIBNGEE@?5?5?5?5?9?9addimagefile?3file?0patid?5?5?5@ 0062f830     total.obj
 0002:00003890       ??_C@_0BI@MIICOABF@Communication?5options?3?6?$AA@ 0062f890     total.obj
 0002:000038b0       ??_C@_0EC@CACHFDIH@?5?5?5?5?9?9get_sqldef?3level?0in?0fmt?5Li@ 0062f8b0     total.obj
 0002:00003900       ??_C@_0DO@IOFLCGDK@?5?5?5?5?9?9get_dic?3index?0fmt?5?5?5?5?5?5?5Li@ 0062f900     total.obj
 0002:0000394c       ??_C@_0DP@IHFDBCB@?5?5?5?5?9?9delete_remoteae?3index?5?5?5De@ 0062f94c     total.obj
 0002:00003998       ??_C@_0EC@GBIHPFKA@?5?5?5?5?9?9put_remoteae?3in?0AE?0name?5Wr@ 0062f998     total.obj
 0002:000039e8       ??_C@_0EB@JKKKDJGA@?5?5?5?5?9?9get_remoteae?3index?0fmt?5?5Li@ 0062f9e8     total.obj
 0002:00003a38       ??_C@_0DO@FAGMGNJA@?5?5?5?5?9?9delete_localae?3index?5?5?5?5De@ 0062fa38     total.obj
 0002:00003a88       ??_C@_0EB@FONPPJLA@?5?5?5?5?9?9put_localae?3in?0AE?0name?5?5Wr@ 0062fa88     total.obj
 0002:00003ad8       ??_C@_0EA@MIHHHOCG@?5?5?5?5?9?9get_localae?3index?0fmt?5?5?5Li@ 0062fad8     total.obj
 0002:00003b24       ??_C@_0DP@MJFCEMCL@?5?5?5?5?9?9delete_application?3inde?5De@ 0062fb24     total.obj
 0002:00003b70       ??_C@_0EC@EBIABAAJ@?5?5?5?5?9?9put_application?3i?0U?0n?5?5?5Wr@ 0062fb70     total.obj
 0002:00003bc0       ??_C@_0EB@IPGPFBJI@?5?5?5?5?9?9get_application?3idx?0fmt?5Li@ 0062fbc0     total.obj
 0002:00003c10       ??_C@_0DP@HOMKDID@?5?5?5?5?9?9delete_transfer?3index?5?5?5De@ 0062fc10     total.obj
 0002:00003c60       ??_C@_0EC@LJEEOEKE@?5?5?5?5?9?9put_transfer?3in?0UID?0nam?5Wr@ 0062fc60     total.obj
 0002:00003cb0       ??_C@_0EB@JNFHAEBG@?5?5?5?5?9?9get_transfer?3index?0fmt?5?5Li@ 0062fcb0     total.obj
 0002:00003d00       ??_C@_0EB@HOJPJMD@?5?5?5?5?9?9delete_sop?3index?5?5?5?5?5?5?5?5De@ 0062fd00     total.obj
 0002:00003d50       ??_C@_0EE@INJJLCEB@?5?5?5?5?9?9put_sop?3index?0UID?0name?5?5Wr@ 0062fd50     total.obj
 0002:00003da8       ??_C@_0ED@MMLGOGCH@?5?5?5?5?9?9get_sop?3index?0fmt?5?5?5?5?5?5?5Li@ 0062fda8     total.obj
 0002:00003df8       ??_C@_0EH@LMABDMDF@?5?5?5?5?9?9read_amap?3?5?5?5?5?5?5?5?5?5?5?5?5?5?5Re@ 0062fdf8     total.obj
 0002:00003e50       ??_C@_0EF@EHLEEIB@?5?5?5?5?9?9write_amap?3?5?5?5?5?5?5?5?5?5?5?5?5?5Wr@ 0062fe50     total.obj
 0002:00003ea8       ??_C@_0EG@JAOGGMLD@?5?5?5?5?9?9delete_amap?3index?5?5?5?5?5?5?5De@ 0062fea8     total.obj
 0002:00003f00       ??_C@_0EF@NLELCLOP@?5?5?5?5?9?9put_amap?3i?0AE?0ip?0p?$CD?0cmp?5Wr@ 0062ff00     total.obj
 0002:00003f58       ??_C@_0EB@NKKIHEFE@?5?5?5?5?9?9get_amaps?3fmt?5?5?5?5?5?5?5?5?5?5?5Li@ 0062ff58     total.obj
 0002:00003fa8       ??_C@_0DP@ILNIMOAK@?5?5?5?5?9?9get_amap?3index?0fmt?5?5?5?5?5?5Li@ 0062ffa8     total.obj
 0002:00003ff8       ??_C@_0EF@GPKMKLHE@?5?5?5?5?9?9read_ini?3?5?5?5?5?5?5?5?5?5?5?5?5?5?5?5Re@ 0062fff8     total.obj
 0002:00004050       ??_C@_0ED@MJNMKOMP@?5?5?5?5?9?9delete_param?3name?5?5?5?5?5?5?5De@ 00630050     total.obj
 0002:000040a0       ??_C@_0EA@JNGKNOOA@?5?5?5?5?9?9put_param?3name?0value?5?5?5?5Wr@ 006300a0     total.obj
 0002:000040ec       ??_C@_0DP@EMPANMAC@?5?5?5?5?9?9get_ini?3fmt?5?5?5?5?5?5?5?5?5?5?5?5?5Li@ 006300ec     total.obj
 0002:00004138       ??_C@_0DN@IHBLDOFA@?5?5?5?5?9?9get_ini_num?3index?0fmt?5?5?5Li@ 00630138     total.obj
 0002:00004188       ??_C@_0EB@CKGPCKPL@?5?5?5?5?9?9get_ini_param?3name?0fmt?5?5Re@ 00630188     total.obj
 0002:000041d8       ??_C@_0EB@HFOCMFLK@?5?5?5?5?9?9get_param?3name?0fmt?5?5?5?5?5?5Re@ 006301d8     total.obj
 0002:00004228       ??_C@_0BI@OAAILKPP@Configuration?5options?3?6?$AA@ 00630228     total.obj
 0002:00004244       ??_C@_0DK@GBONBNKC@?5?5?5?5?9?9echo?3AE?0file?5?5?5?5?5?5?5?5?5?5?5?5Ec@ 00630244     total.obj
 0002:0000428c       ??_C@_0DL@JFEEDGLG@?5?5?5?5?9?9testmode?3?$CD?5?5?5?5?5?5?5?5?5?5?5?5?5?5Ap@ 0063028c     total.obj
 0002:000042d4       ??_C@_0DJ@FNHJEIEF@?5?5?5?5?9?9get_freestore?3dev?0fmt?5?5?5Re@ 006302d4     total.obj
 0002:00004318       ??_C@_0EB@EPLLHJOO@?5?5?5?5?9?9checklargestmalloc?3?5?5?5?5?5Es@ 00630318     total.obj
 0002:00004368       ??_C@_0EJ@LADFLINH@?5?5?5?5?9?9status_string?3file?5?5?5?5?5?5Di@ 00630368     total.obj
 0002:000043c0       ??_C@_0DF@MACABEII@?5?5?5?5?9?9display_status?3file?5?5?5?5?5Di@ 006303c0     total.obj
 0002:00004400       ??_C@_0DH@IFDPELFB@?5?5?5?5?9?9debuglevel?3?$CD?5?5?5?5?5?5?5?5?5?5?5?5Se@ 00630400     total.obj
 0002:00004444       ??_C@_0DE@KCAFDKBM@?5?5?5?5?9?9log_on?3file?1port?1pipe?5?5?5St@ 00630444     total.obj
 0002:00004484       ??_C@_0DD@DLLHLGCN@?5?5?5?5?9?9debuglog_on?3file?1port?5?5?5St@ 00630484     total.obj
 0002:000044c4       ??_C@_0BC@JPKDHLG@Logging?5options?3?6?$AA@ 006304c4     total.obj
 0002:000044dc       ??_C@_0DP@NPDLHGNL@?5?5?5?5?9?9safequit?3?5?5?5?5?5?5?5?5?5?5?5?5?5?5?5St@ 006304dc     total.obj
 0002:00004528       ??_C@_0CP@KNBCKLDD@?5?5?5?5?9?9quit?3?5?5?5?5?5?5?5?5?5?5?5?5?5?5?5?5?5?5?5St@ 00630528     total.obj
 0002:00004560       ??_C@_0EF@DGODGCGM@?5?5?5?5?9?9makespace?3?$CD?5?5?5?5?5?5?5?5?5?5?5?5?5De@ 00630560     total.obj
 0002:000045b4       ??_C@_0DP@CCLLKEAP@?5?5?5?5?9?9regenfile?3file?5?5?5?5?5?5?5?5?5?5Re@ 006305b4     total.obj
 0002:00004600       ??_C@_0EJ@NNLBLLJN@?5?5?5?5?9?9regendir?3device?0dir?5?5?5?5?5Re@ 00630600     total.obj
 0002:00004658       ??_C@_0EG@KDPHNCJN@?5?5?5?5?9?9regendevice?3device?5?5?5?5?5?5Re@ 00630658     total.obj
 0002:000046ac       ??_C@_0DL@GGLEGIEM@?5?5?5?5?9?9regen?3?5?5?5?5?5?5?5?5?5?5?5?5?5?5?5?5?5?5Re@ 006306ac     total.obj
 0002:000046f8       ??_C@_0EC@CJMKFLJA@?5?5?5?5?9?9initializetables?32?5?5?5?5?5?5Cl@ 006306f8     total.obj
 0002:00004748       ??_C@_0EJ@MGLADHPB@?5?5?5?5?9?9initializetables?31?5?5?5?5?5?5Cl@ 00630748     total.obj
 0002:000047a0       ??_C@_0DJ@PFFPHAFC@?5?5?5?5?9?9initializetables?3?5?5?5?5?5?5?5Cl@ 006307a0     total.obj
 0002:000047e4       ??_C@_0BG@ENDFNKJI@Maintenance?5options?3?6?$AA@ 006307e4     total.obj
 0002:00004800       ??_C@_0ED@MBJMLFGO@?5?5?5?5?9?9attachrtplantortstruct?3pla@ 00630800     total.obj
 0002:00004850       ??_C@_0FB@DINHFJHK@?5?5?5?5?9?9attachanytoseries?3any?0samp@ 00630850     total.obj
 0002:000048b8       ??_C@_0EO@CEKOBNND@?5?5?5?5?9?9attachanytostudy?3any?0sampl@ 006308b8     total.obj
 0002:00004918       ??_C@_0EN@KJFOCFOM@?5?5?5?5?9?9attachanytopatient?3any?0sam@ 00630918     total.obj
 0002:00004978       ??_C@_0EB@HOHEKEEN@?5?5?5?5?9?9mergeseriesfile?3file?5?5?5?5Us@ 00630978     total.obj
 0002:000049c8       ??_C@_0EK@EDKEAAGI@?5?5?5?5?9?9mergeseries?3uid?0uid?0?4?4?5?5St@ 006309c8     total.obj
 0002:00004a20       ??_C@_0EB@IJGIBCB@?5?5?5?5?9?9mergestudyfile?3file?5?5?5?5?5Us@ 00630a20     total.obj
 0002:00004a70       ??_C@_0EK@PLCMMCKG@?5?5?5?5?9?9mergestudy?3uid?0uid?0?4?4?5?5?5St@ 00630a70     total.obj
 0002:00004ac8       ??_C@_0DE@JJPNPGLM@?5?5?5?5?9?9modifyimage?3file?0script?5Ch@ 00630ac8     total.obj
 0002:00004b08       ??_C@_0DG@OPOJANDE@?5?5?5?5?9?9modifyseries?3p?0s?0script?5Ch@ 00630b08     total.obj
 0002:00004b48       ??_C@_0EA@DEJPFANJ@?5?5?5?5?9?9modifystudy?3p?0s?0script?5?5Ch@ 00630b48     total.obj
 0002:00004b94       ??_C@_0DE@KCKNGBLC@?5?5?5?5?9?9anonymize?3patid?0file?5?5?5?5An@ 00630b94     total.obj
 0002:00004bd4       ??_C@_0DK@FKEAJJNH@?5?5?5?5?9?9modifypatid?3patid?0file?5?5Ch@ 00630bd4     total.obj
 0002:00004c1c       ??_C@_0CA@GCPBJEKB@Modification?5of?5dicom?5objects?3?6?$AA@ 00630c1c     total.obj
 0002:00004c48       ??_C@_0EJ@GJJLHLKN@?5?5?5?5?9?9moveseries?3src?0dst?0patid?3s@ 00630c48     total.obj
 0002:00004ca0       ??_C@_0EC@CLKKBGMF@?5?5?5?5?9?9movestudies?3source?0dest?0da@ 00630ca0     total.obj
 0002:00004cf0       ??_C@_0EJ@BPMFHHLD@?5?5?5?5?9?9movestudy?3source?0dest?0pati@ 00630cf0     total.obj
 0002:00004d48       ??_C@_0EP@MMNBKKOD@?5?5?5?5?9?9movepatient?3source?0dest?0pa@ 00630d48     total.obj
 0002:00004da8       ??_C@_0BF@LEILPPAB@DICOM?5move?5options?3?6?$AA@ 00630da8     total.obj
 0002:00004dc8       ??_C@_0FB@MLFCNPCH@?5?5?5?5?9?9deletesopfromdb?3pat?0study?0@ 00630dc8     total.obj
 0002:00004e30       ??_C@_0EM@HIMBMIG@?5?5?5?5?9?9deleteimagefromdb?3file?5?5?5?5@ 00630e30     total.obj
 0002:00004e90       ??_C@_0EN@EBOEFHPL@?5?5?5?5?9?9deleteseries?3patid?3seriesu@ 00630e90     total.obj
 0002:00004ef0       ??_C@_0FA@EEEHEMDM@?5?5?5?5?9?9deletestudies?3date?$CIrange?$CJ?5@ 00630ef0     total.obj
 0002:00004f50       ??_C@_0EM@PNJJBIKD@?5?5?5?5?9?9deletestudy?3patid?3studyuid@ 00630f50     total.obj
 0002:00004fb0       ??_C@_0EO@EIOPFMDN@?5?5?5?5?9?9deletepatient?3patid?5?5?5?5?5?5?5@ 00630fb0     total.obj
 0002:00005010       ??_C@_0FB@PKGDKFFI@?5?5?5?5?9?9deleteimagefile?3file?5?5?5?5?5?5@ 00631010     total.obj
 0002:00005074       ??_C@_0BB@ILJBGKBP@Delete?5options?3?6?$AA@ 00631074     total.obj
 0002:00005088       ??_C@_0EA@FDMHELMI@?5?5?5?5?5?5?5?5?5?5?5?5?5?5?5?5?5?5?5?5?5?5?5?5?5?5?5?5?5?5?$CIw@ 00631088     total.obj
 0002:000050d8       ??_C@_0EO@JNHLGAEA@?5?5?5?5?5?5?5?5?5?5?5?5?5?5?5?5?5?5?5?5?5?5?5?5?5?5?5?5?5?5Se@ 006310d8     total.obj
 0002:00005138       ??_C@_0CP@CNKBIPKD@?$CI3?$CJ?5DGATE?5?$DM?9pPORT?$DO?5?$DM?9qIP?$DO?5?9?9comm@ 00631138     total.obj
 0002:00005170       ??_C@_0EL@DKDHCGHP@?$CI2?$CJ?5DGATE?5FileMapping?5?5?5?5?5?5?5?5?5Ru@ 00631170     total.obj
 0002:000051d0       ??_C@_0EM@DBGDIDAI@?5?5?5?5?5?5?5?5?5?5?5?5?5?5?5?5?5?5?5?5?5?5?5?5?5?5?5?5?5?5Ot@ 006311d0     total.obj
 0002:00005230       ??_C@_0EL@MNFFLHPC@?5?5?5?5?5?5?5?5?5?5?$FL?9gSERVER?0DATE?$FN?5?5?5?5?5gr@ 00631230     total.obj
 0002:00005290       ??_C@_0EC@HIMJGMFP@?5?5?5?5?5?5?5?5?5?5?$FL?9ff?$CD?$FN?5?5?5?5?5?5?5?5?5?5?5?5?5?5De@ 00631290     total.obj
 0002:000052e0       ??_C@_0EO@INMGDNHE@?5?5?5?5?5?5?5?5?5?5?$FL?9f?$DPfile?$HM?9fu?$HM?9c?$CD?$FN?5?5?5ge@ 006312e0     total.obj
 0002:00005340       ??_C@_0EN@IAOAGHFP@?5?5?5?5?5?5?5?5?5?5?$FL?9f?$DMc?$HMk?$DOPATID?0file?$FN?5Ch@ 00631340     total.obj
 0002:000053a0       ??_C@_0EE@HANLKKGL@?5?5?5?5?5?5?5?5?5?5?$FL?9frDEVICE?0DIR?$FN?5?5?5?5?5Re@ 006313a0     total.obj
 0002:000053f4       ??_C@_0DE@KKKCEGHH@?5?5?5?5?5?5?5?5?5?5?$FL?9zID?$FN?5?5?5?5?5?5?5?5?5?5?5?5?5?5De@ 006313f4     total.obj
 0002:00005438       ??_C@_0EL@JCDPAMHF@?5?5?5?5?5?5?5?5?5?5?$FL?9faFILE?$DM?0ID?$DO?$FN?5?5?5?5?5?5Ad@ 00631438     total.obj
 0002:00005498       ??_C@_0EI@OPJAOGIE@?5?5?5?5?5?5?5?5?5?5?$FL?9f?$DMe?$HMd?$HMz?$DOfile?$FN?5?5?5?5?5En@ 00631498     total.obj
 0002:000054f0       ??_C@_0EL@DDCHEGDO@?5?5?5?5?5?5?5?5?5?5?$FL?9f?$DMp?$HMt?$HMs?$HMi?$DOID?$FN?5?5?5?5?5De@ 006314f0     total.obj
 0002:00005550       ??_C@_0EM@GCAKLGJK@?5?5?5?5?5?5?5?5?5?5?$FL?9adJUKEBOX1?42?$FN?5?5?5?5?5Ve@ 00631550     total.obj
 0002:000055b0       ??_C@_0EE@CNECALOG@?5?5?5?5?5?5?5?5?5?5?$FL?9acJUKEBOX1?42?$FN?5?5?5?5?5Ve@ 006315b0     total.obj
 0002:00005608       ??_C@_0EM@LMFKIAKO@?5?5?5?5?5?5?5?5?5?5?$FL?9abJUKEBOX1?42?0N?$FN?5?5?5Ma@ 00631608     total.obj
 0002:00005668       ??_C@_0EN@BGEBNPCB@?5?5?5?5?5?5?5?5?5?5?$FL?9av?$HM?9atDEVICE?$FN?5?5?5?5?5Ve@ 00631668     total.obj
 0002:000056c8       ??_C@_0EH@INBEPDON@?5?5?5?5?5?5?5?5?5?5?$FL?9au?$HM?9aeFROM?0TO?$FN?5?5?5?5Un@ 006316c8     total.obj
 0002:00005720       ??_C@_0EN@OBAOPIOF@?5?5?5?5?5?5?5?5?5?5?$FL?9as?$CD?0N?$HM?9amFROM?0TO?$FN?5Se@ 00631720     total.obj
 0002:0000577c       ??_C@_0DF@DDPBBGLE@?5?5?5?5?5?5?5?5?5?5?$FL?9j?$CK?$CD?$CD?$HM?9j?9?$CD?$CDFILE?$FN?5?5?5Re@ 0063177c     total.obj
 0002:000057c0       ??_C@_0EJ@PNDCIJEE@?5?5?5?5?5?5?5?5?5?5?$FL?9nd?$HM?9nc?$CD?$HM?9jd?$HM?9jc?$CD?$FN?5NK@ 006317c0     total.obj
 0002:00005818       ??_C@_0EO@DEJJLDNJ@?5?5?5?5?5?5?5?5?5?5?$FL?9sOpt?$HM?9esap?5d?5u?5p?$FN?5Cr@ 00631818     total.obj
 0002:00005878       ??_C@_0DK@HMLLAACH@?5?5?5?5?5?5?5?5?5?5?$FL?9t?$HM?9o?$FN?5?5?5?5?5?5?5?5?5?5?5?5?5Te@ 00631878     total.obj
 0002:000058c0       ??_C@_0EM@KELMDCLP@?5?5?5?5?5?5?5?5?5?5?$FL?9d?$HM?9m?$HM?9k?$FN?5?5?5?5?5?5?5?5?5?5Li@ 006318c0     total.obj
 0002:00005920       ??_C@_0EL@IBGEN@?5?5?5?5?5?5?5?5?5?5?$FL?9i?$HM?9r?$HM?9arDEVICE?$FN?5?5?5In@ 00631920     total.obj
 0002:00005980       ??_C@_0FA@PJIBHANP@?5?5?5?5?5?5?5?5?5?5?$FL?9wDIR?$FN?5?5?5?5?5?5?5?5?5?5?5?5?5Se@ 00631980     total.obj
 0002:000059e0       ??_C@_0EO@LEIILONB@?5?5?5?5?5?5?5?5?5?5?$FL?9p?$CD?$HM?9qIP?$HM?9b?$FN?5?5?5?5?5?5?5Se@ 006319e0     total.obj
 0002:00005a40       ??_C@_0EO@ICDJLIP@?$CI1?$CJ?5DGATE?5?$DM?9?$CB?$CD?$HM?9v?$HM?9u?$CD?$HM?9?$FO?$CD?$DO?5?5?5?5Re@ 00631a40     total.obj
 0002:00005aa0       ??_C@_07GNMKOPNN@Usage?3?6?$AA@ 00631aa0     total.obj
 0002:00005ab0       ??_C@_0EG@MJHDCFND@DGATE?3?5UCDMC?1NKI?5DICOM?5server?5th@ 00631ab0     total.obj
 0002:00005b04       ??_C@_08LJGKCPPM@1?44?418a3?$AA@ 00631b04     total.obj
 0002:00005b10       ??_C@_01EEMJAFIK@?6?$AA@   00631b10     total.obj
 0002:00005b18       ??_7CFindRQ@@6B@           00631b18     total.obj
 0002:00005b24       ??_7CFindRSP@@6B@          00631b24     total.obj
 0002:00005b30       ??_7UnknownStorage@@6BCStoreRSP@@@ 00631b30     total.obj
 0002:00005b3c       ??_7UnknownStorage@@6BCStoreRQ@@@ 00631b3c     total.obj
 0002:00005b4c       ??_7NCreateRQ@@6B@         00631b4c     total.obj
 0002:00005b58       ??_7NCreateRSP@@6B@        00631b58     total.obj
 0002:00005b64       ??_7NDeleteRQ@@6B@         00631b64     total.obj
 0002:00005b70       ??_7NDeleteRSP@@6B@        00631b70     total.obj
 0002:00005b7c       ??_7NSetRQ@@6B@            00631b7c     total.obj
 0002:00005b88       ??_7NSetRSP@@6B@           00631b88     total.obj
 0002:00005b94       ??_7NActionRQ@@6B@         00631b94     total.obj
 0002:00005ba0       ??_7NActionRSP@@6B@        00631ba0     total.obj
 0002:00005bac       ??_7NGetRQ@@6B@            00631bac     total.obj
 0002:00005bb8       ??_7NGetRSP@@6B@           00631bb8     total.obj
 0002:00005bc4       ??_7NEventReportRQ@@6B@    00631bc4     total.obj
 0002:00005bd0       ??_7NEventReportRSP@@6B@   00631bd0     total.obj
 0002:00005bdc       ??_7ASCPRQ@@6B@            00631bdc     total.obj
 0002:00005be8       ??_7ASCPRSP@@6B@           00631be8     total.obj
 0002:00005bf4       ??_7ESCPRQ@@6B@            00631bf4     total.obj
 0002:00005c00       ??_7ESCPRSP@@6B@           00631c00     total.obj
 0002:00005c08       ??_C@_02KEGNLNML@?0?5?$AA@ 00631c08     total.obj
 0002:00005c0c       ??_C@_03GBOLEDH@?4gz?$AA@  00631c0c     total.obj
 0002:00005c10       ??_C@_04GIHENEBL@?4hl7?$AA@ 00631c10     total.obj
 0002:00005c18       ??_C@_03CDFKLIHN@?4v2?$AA@ 00631c18     total.obj
 0002:00005c1c       ??_C@_04GJKKJJEA@?4dcm?$AA@ 00631c1c     total.obj
 0002:00005c28       ??_7MyBridgeStorage@@6BCStoreRSP@@@ 00631c28     total.obj
 0002:00005c34       ??_7MyBridgeStorage@@6BCStoreRQ@@@ 00631c34     total.obj
 0002:00005c44       ??_7CEchoRQ@@6B@           00631c44     total.obj
 0002:00005c50       ??_7CEchoRSP@@6B@          00631c50     total.obj
 0002:00005c5c       ??_7StandardRetrieve@@6BCMoveRSP@@@ 00631c5c     total.obj
 0002:00005c68       ??_7StandardRetrieve@@6BCMoveRQ@@@ 00631c68     total.obj
 0002:00005c90       ??_7StorageApp@@6B@        00631c90     total.obj
 0002:00005c9c       ??_7?$Array@PAVBufferSpace@@@@6B@ 00631c9c     total.obj
 0002:00005ca8       ??_7?$Array@PAVVR@@@@6B@   00631ca8     total.obj
 0002:00005cb4       ??_7?$Array@PAVVRGroupPQueue@@@@6B@ 00631cb4     total.obj
 0002:00005cc0       ??_7?$Array@VTransferSyntax@@@@6B@ 00631cc0     total.obj
 0002:00005ccc       ??_7?$Array@VPresentationContext@@@@6B@ 00631ccc     total.obj
 0002:00005cd8       ??_7?$Array@VPresentationContextAccept@@@@6B@ 00631cd8     total.obj
 0002:00005ce4       ??_7?$Array@VAbstractSyntax@@@@6B@ 00631ce4     total.obj
 0002:00005cf0       ??_7?$basic_istream@DU?$char_traits@D@std@@@std@@6B@ 00631cf0     total.obj
 0002:00005cfc       ??_7?$Array@PAVDICOMDataObject@@@@6B@ 00631cfc     total.obj
 0002:00005d08       ??_7?$Array@PAD@@6B@       00631d08     total.obj
 0002:00005d14       ??_7?$Array@PAJ@@6B@       00631d14     total.obj
 0002:00005d20       ??_7?$Array@PAUDBENTRY@@@@6B@ 00631d20     total.obj
 0002:00005d2c       ??_7?$Array@H@@6B@         00631d2c     total.obj
 0002:00005d38       ??_7?$Array@UDBENTRY@@@@6B@ 00631d38     total.obj
 0002:00005d44       ??_7?$Array@PAU_ACRNemaAddress@@@@6B@ 00631d44     total.obj
 0002:00005d50       ??_7?$Array@PAH@@6B@       00631d50     total.obj
 0002:00005d5c       ??_7?$Array@PAU_sectionTable@@@@6B@ 00631d5c     total.obj
 0002:00005d68       ??_7?$Array@PAU_iniTable@@@@6B@ 00631d68     total.obj
 0002:00005d74       ??_7?$Array@U_RTCElement@@@@6B@ 00631d74     total.obj
 0002:00005d80       ??_7?$Array@PAVDICOMObject@@@@6B@ 00631d80     total.obj
 0002:00005d8c       ??_7?$basic_ios@DU?$char_traits@D@std@@@std@@6B@ 00631d8c     total.obj
 0002:00005d94       ??_C@_0BA@JFNIOLAK@string?5too?5long?$AA@ 00631d94     total.obj
 0002:00005dac       ??_7?$Array@V?$FixedArrayElement@IU_RTCElement@@@@@@6B@ 00631dac     total.obj
 0002:00005db8       ??_7?$PQueueOfPtr@PAVVR@@@@6B@ 00631db8     total.obj
 0002:00005dc4       ??_7?$ctype@D@std@@6B@     00631dc4     total.obj
 0002:00005df4       ??_7system_error@std@@6B@  00631df4     total.obj
 0002:00005e04       ??_7failure@ios_base@std@@6B@ 00631e04     total.obj
 0002:00005e10       ??_C@_0BF@OOHOMBOF@ios_base?3?3eofbit?5set?$AA@ 00631e10     total.obj
 0002:00005e2c       ??_C@_0BG@FMKFHCIL@ios_base?3?3failbit?5set?$AA@ 00631e2c     total.obj
 0002:00005e48       ??_C@_0BF@PHHKMMFD@ios_base?3?3badbit?5set?$AA@ 00631e48     total.obj
 0002:00005e64       ??_C@_01LFCBOECM@?4?$AA@   00631e64     total.obj
 0002:00005e68       ??_C@_0BI@CJNBCHJI@?$CF?917s?5?$CF?930s?5?$CF?910s?5?$CF?916s?$AA@ 00631e68     total.obj
 0002:00005e84       ??_C@_0BL@PJIIEOLN@?$CK?$CK?7AE?5?1?5IP?9PORT?5Map?5dump?6?6?$AA@ 00631e84     total.obj
 0002:00005ea8       ??_C@_0EPO@IGCNPMFK@?1?$CK?5?$CK?$CK?$CK?$CK?$CK?$CK?$CK?$CK?$CK?$CK?$CK?$CK?$CK?$CK?$CK?$CK?$CK?$CK?$CK?$CK?$CK?$CK?$CK?$CK?$CK?$CK?$CK?$CK?$CK@ 00631ea8     total.obj
 0002:000064a8       ??_C@_02BKFDOEMK@wt?$AA@   006324a8     total.obj
 0002:000064ac       ??_C@_02DKCKIIND@?$CFs?$AA@ 006324ac     total.obj
 0002:000064b0       ??_C@_0P@DFKNHONL@DicomIni?5Table?$AA@ 006324b0     total.obj
 0002:000064c4       ??_C@_0CP@PKAIDEGP@Could?5not?5allocate?5?$CFld?5bytes?5for@ 006324c4     total.obj
 0002:000064fc       ??_C@_0L@GPCGFJNE@?$CFs?$CFd?5?$DN?5?$CFs?6?$AA@ 006324fc     total.obj
 0002:0000650c       ??_C@_0M@KOCGDFOD@StationName?$AA@ 0063250c     total.obj
 0002:0000651c       ??_C@_08DEFICJOJ@Modality?$AA@ 0063251c     total.obj
 0002:00006528       ??_C@_09MMJIDKPF@Converter?$AA@ 00632528     total.obj
 0002:00006534       ??_C@_09LKOMCJBL@CallingAE?$AA@ 00632534     total.obj
 0002:00006540       ??_C@_08MIEIFJNI@CalledAE?$AA@ 00632540     total.obj
 0002:0000654c       ??_C@_0BC@PMIDIMHA@?$CK?$CK?$CK?5?$CFs?5Group?5?$CK?$CK?$CK?6?$AA@ 0063254c     total.obj
 0002:00006564       ??_C@_0L@HGEPOMCB@?$CFs?$CFd?5?$DN?5?$CFd?6?$AA@ 00632564     total.obj
 0002:00006574       ??_C@_05BFIAAOOA@ource?$AA@ 00632574     total.obj
 0002:0000657c       ??_C@_03MCFGOBKC@ine?$AA@  0063257c     total.obj
 0002:00006580       ??_C@_05FFAHOMKD@eader?$AA@ 00632580     total.obj
 0002:00006588       ??_C@_06LGPJFOKD@aption?$AA@ 00632588     total.obj
 0002:00006590       ??_C@_05JFOJHCGJ@iewer?$AA@ 00632590     total.obj
 0002:00006598       ??_C@_0L@CMBPLCIJ@tudyviewer?$AA@ 00632598     total.obj
 0002:000065a8       ??_C@_03NJHJOKAO@ize?$AA@  006325a8     total.obj
 0002:000065ac       ??_C@_03KBNIMHHK@ort?$AA@  006325ac     total.obj
 0002:000065b0       ??_C@_07DCAJIFBK@consize?$AA@ 006325b0     total.obj
 0002:000065bc       ??_C@_06NEFKMKJE@raphic?$AA@ 006325bc     total.obj
 0002:000065c4       ??_C@_04IAGNFIBA@size?$AA@ 006325c4     total.obj
 0002:000065cc       ??_C@_07KPBKPKMH@ompress?$AA@ 006325cc     total.obj
 0002:000065d8       ??_C@_06FDEAENJJ@ddress?$AA@ 006325d8     total.obj
 0002:000065e0       ??_C@_0L@DEFAOFJI@tationname?$AA@ 006325e0     total.obj
 0002:000065f0       ??_C@_07JIKOAGHO@odality?$AA@ 006325f0     total.obj
 0002:000065fc       ??_C@_05IKEMLPPG@ilter?$AA@ 006325fc     total.obj
 0002:00006604       ??_C@_08LMJGPKIO@onverter?$AA@ 00632604     total.obj
 0002:00006610       ??_C@_08GHCLILCC@allingae?$AA@ 00632610     total.obj
 0002:0000661c       ??_C@_07BLFMPJP@alledae?$AA@ 0063261c     total.obj
 0002:00006628       ??_C@_0N@KOIONPME@export?5group?$AA@ 00632628     total.obj
 0002:00006638       ??_C@_09FKIPBNGJ@put_param?$AA@ 00632638     total.obj
 0002:00006644       ??_C@_0CG@HNBMKDPM@Failed?5to?5open?5temporary?5file?5?$CFs@ 00632644     total.obj
 0002:00006674       ??_C@_04LCLHPPEN@?4new?$AA@ 00632674     total.obj
 0002:0000667c       ??_C@_0BI@EBMAIPPK@?$CFs?5is?5not?5a?5directory?4?6?$AA@ 0063267c     total.obj
 0002:00006698       ??_C@_0CD@KJIGPAEF@Base?5directory?5?$CFs?5does?5not?5exist@ 00632698     total.obj
 0002:000066c4       ??_C@_0BO@NAEOGENA@The?5basePath?5is?5length?5is?50?4?6?$AA@ 006326c4     total.obj
 0002:000066e8       ??_C@_0DC@EHKCMEJP@The?5basePath?5is?5to?5long?5to?5appen@ 006326e8     total.obj
 0002:00006724       ??_C@_02KAJCLHKP@no?$AA@   00632724     total.obj
 0002:00006728       ??_C@_05LAPONLG@false?$AA@ 00632728     total.obj
 0002:00006730       ??_C@_03ICICOMAL@yes?$AA@  00632730     total.obj
 0002:00006734       ??_C@_04LOAJBDKD@true?$AA@ 00632734     total.obj
 0002:0000673c       ??_C@_0DA@EGHLIGFG@Configuration?5file?5?$CFs?5not?5found?0@ 0063273c     total.obj
 0002:00006778       ??_C@_09GNOAJMIE@dicom?4ini?$AA@ 00632778     total.obj
 0002:00006784       ??_C@_01KICIPPFI@?2?$AA@   00632784     total.obj
 0002:00006788       ??_C@_0M@HGBLHFJI@?4?2dicom?4ini?$AA@ 00632788     total.obj
 0002:00006798       ??_C@_04PHHEBHMK@?4ini?$AA@ 00632798     total.obj
 0002:000067a0       ??_C@_08HOGDNJKK@?$CFs?5?$DN?5?$CFs?6?$AA@ 006327a0     total.obj
 0002:000067ac       ??_C@_0CA@OHHDLOAD@?$CK?$CK?$CK?5Unknown?5table?5section?4?5?$CK?$CK?$CK?6?$AA@ 006327ac     total.obj
 0002:000067d4       ??_C@_02PCIJFNDE@?$AN?6?$AA@ 006327d4     total.obj
 0002:000067d8       ??_C@_0BC@NGNLPEDH@?5by?5put_param?5on?5?$AA@ 006327d8     total.obj
 0002:000067f0       ??_C@_02KPDBPKPG@?$CD?5?$AA@ 006327f0     total.obj
 0002:000067f4       ??_C@_0N@EFKBAAKI@unKnown?5tine?$AA@ 006327f4     total.obj
 0002:00006804       ??_C@_05CFGAKADK@?$CF?416g?$AA@ 00632804     total.obj
 0002:0000680c       ??_C@_0BM@CPOBIPBF@1?42?4840?410008?45?41?44?41?42?41?41?$AA@ 0063280c     total.obj
 0002:00006830       ??_C@_0BM@EMMNMNG@1?42?4840?410008?45?41?44?41?42?41?42?$AA@ 00632830     total.obj
 0002:00006854       ??_C@_0BM@DNFECAPL@1?42?4840?410008?45?41?44?41?42?42?41?$AA@ 00632854     total.obj
 0002:00006878       ??_C@_0BM@BGHJHDDI@1?42?4840?410008?45?41?44?41?42?42?42?$AA@ 00632878     total.obj
 0002:0000689c       ??_C@_0BM@IFOIEHJO@1?42?4840?410008?45?41?44?41?42?43?41?$AA@ 0063289c     total.obj
 0002:000068c0       ??_C@_0BM@KOMFBEFN@1?42?4840?410008?45?41?44?41?42?43?42?$AA@ 006328c0     total.obj
 0002:000068e4       ??_C@_0BH@GGCMOEMM@1?42?4840?410008?45?41?44?431?$AA@ 006328e4     total.obj
 0002:00006900       ??_C@_0BK@IDBOGHIN@1?42?4840?410008?45?41?44?41?41?41?$AA@ 00632900     total.obj
 0002:00006920       ??_C@_0BK@KIDDDEEO@1?42?4840?410008?45?41?44?41?41?42?$AA@ 00632920     total.obj
 0002:00006940       ??_C@_0BK@LBCIAFAP@1?42?4840?410008?45?41?44?41?41?43?$AA@ 00632940     total.obj
 0002:00006960       ??_C@_0BK@POGJJDMI@1?42?4840?410008?45?41?44?41?41?44?$AA@ 00632960     total.obj
 0002:00006980       ??_C@_0BK@OHHCKCIJ@1?42?4840?410008?45?41?44?41?41?45?$AA@ 00632980     total.obj
 0002:000069a0       ??_C@_0BK@MMFPPBEK@1?42?4840?410008?45?41?44?41?41?46?$AA@ 006329a0     total.obj
 0002:000069c0       ??_C@_0BK@NFEEMAAL@1?42?4840?410008?45?41?44?41?41?47?$AA@ 006329c0     total.obj
 0002:000069e0       ??_C@_0BK@FCNMNMME@1?42?4840?410008?45?41?44?41?41?48?$AA@ 006329e0     total.obj
 0002:00006a00       ??_C@_0BK@ELMHONIF@1?42?4840?410008?45?41?44?41?41?49?$AA@ 00632a00     total.obj
 0002:00006a20       ??_C@_0BL@EMMMNHAJ@1?42?4840?410008?45?41?44?41?41?410?$AA@ 00632a20     total.obj
 0002:00006a40       ??_C@_0BL@FFNHOGEI@1?42?4840?410008?45?41?44?41?41?411?$AA@ 00632a40     total.obj
 0002:00006a60       ??_C@_0BD@NHFHEGHF@1?42?4840?4113619?44?42?$AA@ 00632a60     total.obj
 0002:00006a78       ??_C@_0BD@MOEMHHDE@1?42?4840?4113619?44?43?$AA@ 00632a78     total.obj
 0002:00006a90       ??_C@_0BC@EJDJJJFA@1?42?4840?410008?41?41?$AA@ 00632a90     total.obj
 0002:00006aac       ??_7?$PQueueOfPtr@PAVVRGroupPQueue@@@@6B@ 00632aac     total.obj
 0002:00006ab4       ??_C@_01CLKCMJKC@?5?$AA@   00632ab4     total.obj
 0002:00006ab8       ??_C@_0CM@JNLLLEIH@VR?3SetIf?5out?5of?5memory?5allocatin@ 00632ab8     total.obj
 0002:00006aec       ??_C@_0CO@DMPHOMCB@VR?3ReAlloc?5out?5of?5memory?5allocat@ 00632aec     total.obj
 0002:00006b28       ??_7Buffer@@6B@            00632b28     total.obj
 0002:00006b38       ??_C@_08KPJCDDHF@?$CF?910?410s?$AA@ 00632b38     total.obj
 0002:00006b48       ??_7StandardRetrieveNKI@@6BCMoveRSP@@@ 00632b48     total.obj
 0002:00006b54       ??_7StandardRetrieveNKI@@6BCMoveRQ@@@ 00632b54     total.obj
 0002:00006b78       ??_C@_0CN@IOHIKILC@1?42?4826?40?41?43680043?42?4135?41066?45@ 00632b78     total.obj
 0002:00006bb0       ??_C@_0CN@JMMNAHFM@1?42?4826?40?41?43680043?42?4135?41066?45@ 00632bb0     total.obj
 0002:00006be8       ??_C@_0CN@CEHBGADJ@1?42?4826?40?41?43680043?42?4135?41066?45@ 00632be8     total.obj
 0002:00006c20       ??_C@_03ICFFBAI@RGB?$AA@   00632c20     total.obj
 0002:00006c24       ??_C@_05GIBJPIFE@owned?$AA@ 00632c24     total.obj
 0002:00006c2c       ??_C@_04EIEKMAKH@ADDO?$AA@ 00632c2c     total.obj
 0002:00006c34       ??_C@_0BP@FKJKPHDD@Dicom?5sequence?5with?5?$CFd?5entries?$AA@ 00632c34     total.obj
 0002:00006c5c       ??_C@_0BC@HDMAFCDI@Dicom?5Data?5Object?$AA@ 00632c5c     total.obj
 0002:00006c78       ??_7StandardStorage@@6BCStoreRSP@@@ 00632c78     total.obj
 0002:00006c84       ??_7StandardStorage@@6BCStoreRQ@@@ 00632c84     total.obj
 0002:00006c98       ??_7StandardQuery@@6BCFindRSP@@@ 00632c98     total.obj
 0002:00006ca4       ??_7StandardQuery@@6BCFindRQ@@@ 00632ca4     total.obj
 0002:00006cc8       ??_7MyUnknownStorage@@6BCStoreRSP@@@ 00632cc8     total.obj
 0002:00006cd4       ??_7MyUnknownStorage@@6BCStoreRQ@@@ 00632cd4     total.obj
 0002:00006ce4       ??_7CFSRQ@@6B@             00632ce4     total.obj
 0002:00006cec       ??_C@_0BG@HOOJJEFA@1?42?4840?410008?45?41?41?41?$AA@ 00632cec     total.obj
 0002:00006d0c       ??_7CFSRSP@@6B@            00632d0c     total.obj
 0002:00006d18       ??_7DFSRQ@@6B@             00632d18     total.obj
 0002:00006d24       ??_7DFSRSP@@6B@            00632d24     total.obj
 0002:00006d30       ??_7SFSRQ@@6B@             00632d30     total.obj
 0002:00006d3c       ??_7SFSRSP@@6B@            00632d3c     total.obj
 0002:00006d48       ??_7AFSRQ@@6B@             00632d48     total.obj
 0002:00006d54       ??_7AFSRSP@@6B@            00632d54     total.obj
 0002:00006d60       ??_7CFBRQ@@6B@             00632d60     total.obj
 0002:00006d68       ??_C@_0BG@FFMEMHJD@1?42?4840?410008?45?41?41?42?$AA@ 00632d68     total.obj
 0002:00006d88       ??_7CFBRSP@@6B@            00632d88     total.obj
 0002:00006d94       ??_7DFBRQ@@6B@             00632d94     total.obj
 0002:00006da0       ??_7DFBRSP@@6B@            00632da0     total.obj
 0002:00006dac       ??_7AFBRQ@@6B@             00632dac     total.obj
 0002:00006db8       ??_7AFBRSP@@6B@            00632db8     total.obj
 0002:00006dc4       ??_7SFBRQ@@6B@             00632dc4     total.obj
 0002:00006dd0       ??_7SFBRSP@@6B@            00632dd0     total.obj
 0002:00006ddc       ??_7SBGIBRQ@@6B@           00632ddc     total.obj
 0002:00006de4       ??_C@_0BG@DJOGABF@1?42?4840?410008?45?41?41?44?$AA@ 00632de4     total.obj
 0002:00006e04       ??_7SBGIBRRSP@@6B@         00632e04     total.obj
 0002:00006e10       ??_7SBCIBRQ@@6B@           00632e10     total.obj
 0002:00006e18       ??_C@_0BI@IOIJOIIK@1?42?4840?410008?45?41?41?44?41?$AA@ 00632e18     total.obj
 0002:00006e38       ??_7SBCIBRRSP@@6B@         00632e38     total.obj
 0002:00006e44       ??_7GPRQ@@6B@              00632e44     total.obj
 0002:00006e4c       ??_C@_0BH@OCAJCJBF@1?42?4840?410008?45?41?41?416?$AA@ 00632e4c     total.obj
 0002:00006e6c       ??_7GPRSP@@6B@             00632e6c     total.obj
 0002:00006e78       ??_7EPRQ@@6B@              00632e78     total.obj
 0002:00006e84       ??_7EPRSP@@6B@             00632e84     total.obj
 0002:00006e8c       ??_C@_0BF@NADPHJIL@1?42?4840?410008?41?420?41?$AA@ 00632e8c     total.obj
 0002:00006eac       ??_7Verification@@6BCEchoRSP@@@ 00632eac     total.obj
 0002:00006eb8       ??_7Verification@@6BCEchoRQ@@@ 00632eb8     total.obj
 0002:00006ec4       ??_7PatientRootRetrieve@@6BCMoveRSP@@@ 00632ec4     total.obj
 0002:00006ed0       ??_7PatientRootRetrieve@@6BCMoveRQ@@@ 00632ed0     total.obj
 0002:00006ef8       ??_7PatientRootRetrieveNKI@@6BCMoveRSP@@@ 00632ef8     total.obj
 0002:00006f04       ??_7PatientRootRetrieveNKI@@6BCMoveRQ@@@ 00632f04     total.obj
 0002:00006f2c       ??_7PatientRootRetrieveGeneric@@6BCMoveRSP@@@ 00632f2c     total.obj
 0002:00006f38       ??_7PatientRootRetrieveGeneric@@6BCMoveRQ@@@ 00632f38     total.obj
 0002:00006f60       ??_7StudyRootRetrieve@@6BCMoveRSP@@@ 00632f60     total.obj
 0002:00006f6c       ??_7StudyRootRetrieve@@6BCMoveRQ@@@ 00632f6c     total.obj
 0002:00006f94       ??_7StudyRootRetrieveNKI@@6BCMoveRSP@@@ 00632f94     total.obj
 0002:00006fa0       ??_7StudyRootRetrieveNKI@@6BCMoveRQ@@@ 00632fa0     total.obj
 0002:00006fc8       ??_7StudyRootRetrieveGeneric@@6BCMoveRSP@@@ 00632fc8     total.obj
 0002:00006fd4       ??_7StudyRootRetrieveGeneric@@6BCMoveRQ@@@ 00632fd4     total.obj
 0002:00006ffc       ??_7PatientStudyOnlyQuery@@6BCFindRSP@@@ 00632ffc     total.obj
 0002:00007008       ??_7PatientStudyOnlyQuery@@6BCFindRQ@@@ 00633008     total.obj
 0002:0000702c       ??_7PatientStudyOnlyRetrieve@@6BCMoveRSP@@@ 0063302c     total.obj
 0002:00007038       ??_7PatientStudyOnlyRetrieve@@6BCMoveRQ@@@ 00633038     total.obj
 0002:00007060       ??_7PatientStudyOnlyRetrieveNKI@@6BCMoveRSP@@@ 00633060     total.obj
 0002:0000706c       ??_7PatientStudyOnlyRetrieveNKI@@6BCMoveRQ@@@ 0063306c     total.obj
 0002:00007094       ??_7PatientStudyOnlyRetrieveGeneric@@6BCMoveRSP@@@ 00633094     total.obj
 0002:000070a0       ??_7PatientStudyOnlyRetrieveGeneric@@6BCMoveRQ@@@ 006330a0     total.obj
 0002:000070c4       ??_C@_06HOBIMJIM@GIF89a?$AA@ 006330c4     total.obj
 0002:000070cc       ??_C@_0CK@GCBHLBDF@WriteGIFHeader?3?5file?5not?5open?5fo@ 006330cc     total.obj
 0002:00007100       ??_C@_0BO@ICAJCGNH@WriteGIFHeader?3?5out?5of?5memory?$AA@ 00633100     total.obj
 0002:0000712c       ??_7?$basic_streambuf@DU?$char_traits@D@std@@@std@@6B@ 0063312c     total.obj
 0002:00007178       ??_7?$codecvt@DDH@std@@6B@ 00633178     total.obj
 0002:000071a4       ??_7VRGroupPQueue@@6B@     006331a4     total.obj
 0002:000071b0       ??_7LinkedBuffer@@6B@      006331b0     total.obj
 0002:000071c4       ??_7FileBuffer@@6B@        006331c4     total.obj
 0002:000071d4       ??_C@_0BD@GJGENGDE@1?42?4840?410008?41?42?$AA?$AA@ 006331d4     total.obj
 0002:000071ec       ??_C@_04EFLJODAN@DICM?$AA@ 006331ec     total.obj
 0002:000071f4       ??_C@_0BA@ELKIONDK@bad?5locale?5name?$AA@ 006331f4     total.obj
 0002:00007208       ??_C@_02KJPKMKHP@un?$AA@   00633208     total.obj
 0002:0000720c       ??_C@_0BF@PBHAONCI@a?5small?5array?5string?$AA@ 0063320c     total.obj
 0002:00007228       ??_C@_0O@OFLFKGKB@DICOMWorkList?$AA@ 00633228     total.obj
 0002:00007238       ??_C@_0O@PMKNNGMO@Administrator?$AA@ 00633238     total.obj
 0002:00007248       ??_C@_0N@HNPGJFKI@PacsUser?4log?$AA@ 00633248     total.obj
 0002:00007258       ??_C@_0L@JJOEGFOC@UIDToMOPID?$AA@ 00633258     total.obj
 0002:00007268       ??_C@_0L@HODHPNAI@UIDToCDRID?$AA@ 00633268     total.obj
 0002:00007278       ??_C@_0BP@GHHAKKID@1?42?4826?40?41?43680043?42?4135?41066?$AA@ 00633278     total.obj
 0002:000072a0       ??_C@_0BA@DEGGLMEG@PacsTrouble?4log?$AA@ 006332a0     total.obj
 0002:000072b4       ??_C@_0N@NHEANOCH@DICOMStudies?$AA@ 006332b4     total.obj
 0002:000072c4       ??_C@_0N@FMOBDAFI@dgatesop?4lst?$AA@ 006332c4     total.obj
 0002:000072d4       ??_C@_09IPAEKDAI@localhost?$AA@ 006332d4     total.obj
 0002:000072e0       ??_C@_0M@BJECHACH@DICOMSeries?$AA@ 006332e0     total.obj
 0002:000072f0       ??_C@_0BB@NHNDNMOM@RegisteredMOPIDs?$AA@ 006332f0     total.obj
 0002:00007304       ??_C@_0O@KBEOLIOF@DICOMPatients?$AA@ 00633304     total.obj
 0002:00007314       ??_C@_08NLHBPEGP@password?$AA@ 00633314     total.obj
 0002:00007320       ??_C@_09KDDBDKCO@MicroPACS?$AA@ 00633320     total.obj
 0002:0000732c       ??_C@_04CGFJFPFD@none?$AA@ 0063332c     total.obj
 0002:00007334       ??_C@_0M@PBCAKLKL@DICOMImages?$AA@ 00633334     total.obj
 0002:00007344       ??_C@_02ENLJKNMP@as?$AA@   00633344     total.obj
 0002:00007348       ??_C@_07BOCFEEAE@?4?2data?2?$AA@ 00633348     total.obj
 0002:00007354       ??_C@_0BJ@DADLPAIG@?2?2?4?2pipe?2MicroPACSStatus?$AA@ 00633354     total.obj
 0002:00007374       ??_C@_0M@CDLCNCGL@?4?2dicom?4sql?$AA@ 00633374     total.obj
 0002:00007384       ??_C@_0M@HILMMFPM@?4?2dgate?4dic?$AA@ 00633384     total.obj
 0002:00007394       ??_C@_0O@MHACMDHI@?4?2acrnema?4map?$AA@ 00633394     total.obj
 0002:000073a4       ??_C@_0L@LFFHDMFC@source?3?$CFs?6?$AA@ 006333a4     total.obj
 0002:000073b4       ??_C@_0BP@ENGKBMIE@Has?5no?5Source?5or?5Lines?5values?6?$AA@ 006333b4     total.obj
 0002:000073dc       ??_C@_0L@BJFJMDNM@header?3?$CFs?6?$AA@ 006333dc     total.obj
 0002:000073ec       ??_C@_0M@EBDLPBMP@caption?3?$CFs?6?$AA@ 006333ec     total.obj
 0002:000073fc       ??_C@_0BH@BGNDFOMJ@?6?$CK?$CK?$CK?$CK?5?$CFs?5Section?5?$CK?$CK?$CK?$CK?6?$AA@ 006333fc     total.obj
 0002:00007418       ??_C@_02DPKJAMEF@?$CFd?$AA@ 00633418     total.obj
 0002:0000741c       ??_C@_0CO@PMPFINBK@Error?3?5?$CFd?5is?5greater?5the?5the?5gro@ 0063341c     total.obj
 0002:00007454       ??_C@_01GBGANLPD@0?$AA@    00633454     total.obj
 0002:00007458       ??_C@_0P@PLMNPDMB@?$CF02d?3?$CF02d?3?$CF02d?$AA@ 00633458     total.obj
 0002:0000746c       ??_C@_0N@DHFDMBCA@orklistquery?$AA@ 0063346c     total.obj
 0002:0000747c       ??_C@_06KDFGFPGP@tartup?$AA@ 0063347c     total.obj
 0002:00007484       ??_C@_0N@OIANLKOP@ejectedimage?$AA@ 00633484     total.obj
 0002:00007494       ??_C@_0BF@PJAKNCEN@ejectedimageworklist?$AA@ 00633494     total.obj
 0002:000074b0       ??_C@_07IMDHEPLG@etrieve?$AA@ 006334b0     total.obj
 0002:000074bc       ??_C@_0O@FICAAGOA@etrieveresult?$AA@ 006334bc     total.obj
 0002:000074cc       ??_C@_04KNJPBOON@uery?$AA@ 006334cc     total.obj
 0002:000074d4       ??_C@_0L@IKEKAFJC@ueryresult?$AA@ 006334d4     total.obj
 0002:000074e4       ??_C@_06JLGDONOJ@ightly?$AA@ 006334e4     total.obj
 0002:000074ec       ??_C@_09GCEMGNJG@ovedevice?$AA@ 006334ec     total.obj
 0002:000074f8       ??_C@_0BL@BFPKABFH@odalityworklistqueryresult?$AA@ 006334f8     total.obj
 0002:00007518       ??_C@_0M@LGNPKGJL@ergestudies?$AA@ 00633518     total.obj
 0002:00007528       ??_C@_0L@ONMFBPPJ@ergeseries?$AA@ 00633528     total.obj
 0002:00007538       ??_C@_05HMOGEFIO@mport?$AA@ 00633538     total.obj
 0002:00007540       ??_C@_0P@DLCPMGKL@xportconverter?$AA@ 00633540     total.obj
 0002:00007554       ??_C@_0O@JMLAMOAB@ndassociation?$AA@ 00633554     total.obj
 0002:00007564       ??_C@_0L@HJAKACJK@ompression?$AA@ 00633564     total.obj
 0002:00007574       ??_C@_06KOHGLBK@ommand?$AA@ 00633574     total.obj
 0002:0000757c       ??_C@_0L@GMGJDFDE@lienterror?$AA@ 0063357c     total.obj
 0002:0000758c       ??_C@_09MGJPNPFB@ackground?$AA@ 0063358c     total.obj
 0002:00007598       ??_C@_06DAJOJDHC@rchive?$AA@ 00633598     total.obj
 0002:000075a0       ??_C@_0L@BMHHEMCM@ssociation?$AA@ 006335a0     total.obj
 0002:000075b0       ??_C@_06GFGGBNGB@iptime?$AA@ 006335b0     total.obj
 0002:000075b8       ??_C@_0BB@LKFMJCFJ@orklisttablename?$AA@ 006335b8     total.obj
 0002:000075cc       ??_C@_0BF@HDOCIKOP@orklistreturnsiso_ir?$AA@ 006335cc     total.obj
 0002:000075e8       ??_C@_0BJ@MOADGKGN@orklistreturnsiso_ir_100?$AA@ 006335e8     total.obj
 0002:00007608       ??_C@_0M@DMNGDKKK@orklistmode?$AA@ 00633608     total.obj
 0002:00007618       ??_C@_0M@MNMAJGAN@ebserverfor?$AA@ 00633618     total.obj
 0002:00007628       ??_C@_0BA@KKPFNON@ebscriptaddress?$AA@ 00633628     total.obj
 0002:0000763c       ??_C@_0L@OHLIHPOC@ebreadonly?$AA@ 0063363c     total.obj
 0002:0000764c       ??_C@_06KAIBGKFF@ebpush?$AA@ 0063364c     total.obj
 0002:00007654       ??_C@_0O@FPKKDOJB@ebmag0address?$AA@ 00633654     total.obj
 0002:00007664       ??_C@_0L@FFJKEON@ebcodebase?$AA@ 00633664     total.obj
 0002:00007674       ??_C@_0L@DGDHAIJB@atchfolder?$AA@ 00633674     total.obj
 0002:00007684       ??_C@_0BG@NKJBGIGB@irtualserverperseries?$AA@ 00633684     total.obj
 0002:000076a0       ??_C@_0BA@BFCGBAOD@irtualserverfor?$AA@ 006336a0     total.obj
 0002:000076b4       ??_C@_0P@KOEBFMLI@idtomopidtable?$AA@ 006336b4     total.obj
 0002:000076c8       ??_C@_0P@CKCBKEMP@idtocdridtable?$AA@ 006336c8     total.obj
 0002:000076dc       ??_C@_08PIGKFNLN@idprefix?$AA@ 006336dc     total.obj
 0002:000076e8       ??_C@_07NKHLOHLG@sername?$AA@ 006336e8     total.obj
 0002:000076f4       ??_C@_0L@PMHDHPFO@serlogfile?$AA@ 006336f4     total.obj
 0002:00007704       ??_C@_09KGLBNKFH@seopenjpg?$AA@ 00633704     total.obj
 0002:00007710       ??_C@_0BI@EOFGFODM@seescapestringconstants?$AA@ 00633710     total.obj
 0002:0000772c       ??_C@_0O@KPPIOLGK@sebuiltinjpeg?$AA@ 0063372c     total.obj
 0002:0000773c       ??_C@_0BG@GFMNGLMK@sebuiltindecompressor?$AA@ 0063373c     total.obj
 0002:00007758       ??_C@_0BC@DLJIIMLK@runcatefieldnames?$AA@ 00633758     total.obj
 0002:00007770       ??_C@_0O@IDOICGGL@roublelogfile?$AA@ 00633770     total.obj
 0002:00007780       ??_C@_07MCHPKCGD@sempdir?$AA@ 00633780     total.obj
 0002:0000778c       ??_C@_06FFFOHMGO@cpport?$AA@ 0063378c     total.obj
 0002:00007794       ??_C@_0M@FBDFLKAN@cpiptimeout?$AA@ 00633794     total.obj
 0002:000077a4       ??_C@_0O@BLCBHPJA@tudytablename?$AA@ 006337a4     total.obj
 0002:000077b4       ??_C@_0BD@OBINAKCB@tudyquerysortorder?$AA@ 006337b4     total.obj
 0002:000077cc       ??_C@_0BG@FGPDCMKH@toragefailederrorcode?$AA@ 006337cc     total.obj
 0002:000077e8       ??_C@_05NPNNPNJD@qlite?$AA@ 006337e8     total.obj
 0002:000077f0       ??_C@_08GCIAIDDM@qlserver?$AA@ 006337f0     total.obj
 0002:000077fc       ??_C@_06IAFJIFBN@qlhost?$AA@ 006337fc     total.obj
 0002:00007804       ??_C@_0M@OLDGAIBL@opclasslist?$AA@ 00633804     total.obj
 0002:00007814       ??_C@_0P@MDIFLOKE@eriestablename?$AA@ 00633814     total.obj
 0002:00007828       ??_C@_0BE@OMENCHKP@eriesquerysortorder?$AA@ 00633828     total.obj
 0002:00007840       ??_C@_0P@GHJDHME@enduppercaseae?$AA@ 00633840     total.obj
 0002:00007854       ??_C@_0BC@NDDFMNHM@etryforwardfailed?$AA@ 00633854     total.obj
 0002:0000786c       ??_C@_09BFNOFHBD@etrydelay?$AA@ 0063386c     total.obj
 0002:00007878       ??_C@_0BI@JEHLJMNF@egisteredmopidtablename?$AA@ 00633878     total.obj
 0002:00007894       ??_C@_0BI@HEOIPGKF@egisteredmopdevicetable?$AA@ 00633894     total.obj
 0002:000078b0       ??_C@_09DNFAMEEF@ueryesult?$AA@ 006338b0     total.obj
 0002:000078bc       ??_C@_08GEBAPCID@ueuesize?$AA@ 006338bc     total.obj
 0002:000078c8       ??_C@_09NEJBEDKA@refetcher?$AA@ 006338c8     total.obj
 0002:000078d4       ??_C@_07HOAPPHFE@ostgres?$AA@ 006338d4     total.obj
 0002:000078e0       ??_C@_0BA@HJMEKBFA@atienttablename?$AA@ 006338e0     total.obj
 0002:000078f4       ??_C@_0BF@DGPBDHDO@atientquerysortorder?$AA@ 006338f4     total.obj
 0002:00007910       ??_C@_07KIPJPMHN@assword?$AA@ 00633910     total.obj
 0002:0000791c       ??_C@_0O@GKHKGOOB@adaewithzeros?$AA@ 0063391c     total.obj
 0002:0000792c       ??_C@_07EMGJDHHP@acsname?$AA@ 0063392c     total.obj
 0002:00007938       ??_C@_06ODGAOPED@ackdbf?$AA@ 00633938     total.obj
 0002:00007940       ??_C@_0BB@GPLNADB@verlapvirtualget?$AA@ 00633940     total.obj
 0002:00007954       ??_C@_0P@GKAHJOBF@peratorconsole?$AA@ 00633954     total.obj
 0002:00007968       ??_C@_0M@HCBFKDOG@odicomcheck?$AA@ 00633968     total.obj
 0002:00007978       ??_C@_0BG@BIDIIKBI@ightlycleanthreshhold?$AA@ 00633978     total.obj
 0002:00007994       ??_C@_04CIOOKDOC@ysql?$AA@ 00633994     total.obj
 0002:0000799c       ??_C@_08LDBAAIMA@yacrnema?$AA@ 0063399c     total.obj
 0002:000079a8       ??_C@_08HDBLIFNG@opdevice?$AA@ 006339a8     total.obj
 0002:000079b4       ??_C@_09GLNBEGFB@opdevices?$AA@ 006339b4     total.obj
 0002:000079c0       ??_C@_0M@ENOLLIGE@irrordevice?$AA@ 006339c0     total.obj
 0002:000079d0       ??_C@_08BMMCIJO@icropacs?$AA@ 006339d0     total.obj
 0002:000079dc       ??_C@_0BB@GLHBKCAN@axfilenamelength?$AA@ 006339dc     total.obj
 0002:000079f0       ??_C@_0O@IAKPKKND@axfieldlength?$AA@ 006339f0     total.obj
 0002:00007a00       ??_C@_0BE@NGNMJGKA@aximumexportretries?$AA@ 00633a00     total.obj
 0002:00007a18       ??_C@_0CB@DANPHADL@aximumdelayedfetchforwardretries@ 00633a18     total.obj
 0002:00007a40       ??_C@_0BD@KAIFDNOJ@agdevicethreshhold?$AA@ 00633a40     total.obj
 0002:00007a58       ??_C@_08MNKHGGHG@agdevice?$AA@ 00633a58     total.obj
 0002:00007a64       ??_C@_0BH@BEBIOPED@agdevicefullthreshhold?$AA@ 00633a64     total.obj
 0002:00007a80       ??_C@_06IDJKAAHH@rusort?$AA@ 00633a80     total.obj
 0002:00007a88       ??_C@_0M@FCLJCHIF@ossyquality?$AA@ 00633a88     total.obj
 0002:00007a98       ??_C@_0M@ELALNOLB@ongquerydbf?$AA@ 00633a98     total.obj
 0002:00007aa8       ??_C@_0L@GNMHFICJ@factorfile?$AA@ 00633aa8     total.obj
 0002:00007ab8       ??_C@_0N@EDAJCFOJ@ukeboxdevice?$AA@ 00633ab8     total.obj
 0002:00007ac8       ??_C@_07HNGOHMDF@ndexdbf?$AA@ 00633ac8     total.obj
 0002:00007ad4       ??_C@_0BD@OABDKCFP@ncomingcompression?$AA@ 00633ad4     total.obj
 0002:00007aec       ??_C@_0BH@GGPPIOFB@mportexportdraganddrop?$AA@ 00633aec     total.obj
 0002:00007b08       ??_C@_0O@HEAJPEAM@magetablename?$AA@ 00633b08     total.obj
 0002:00007b18       ??_C@_0BD@BLBIJBDK@magequerysortorder?$AA@ 00633b18     total.obj
 0002:00007b30       ??_C@_0BH@OBFAPMNP@gnoreoutofmemoryerrors?$AA@ 00633b30     total.obj
 0002:00007b4c       ??_C@_0BJ@CPCNFMPM@gnoremagdevicethreshhold?$AA@ 00633b4c     total.obj
 0002:00007b6c       ??_C@_0BD@FAOKMIJ@orwardcollectdelay?$AA@ 00633b6c     total.obj
 0002:00007b84       ??_C@_0BJ@NIEHDOCK@orwardassociationrelease?$AA@ 00633b84     total.obj
 0002:00007ba4       ??_C@_0BO@LIPIAANO@orwardassociationrefreshdelay?$AA@ 00633ba4     total.obj
 0002:00007bc8       ??_C@_0BM@KABHAFCL@orwardassociationclosedelay?$AA@ 00633bc8     total.obj
 0002:00007bec       ??_C@_0BH@LAIPGDNK@orwardassociationlevel?$AA@ 00633bec     total.obj
 0002:00007c08       ??_C@_09LABHENO@ixphilips?$AA@ 00633c08     total.obj
 0002:00007c14       ??_C@_07IIPHGJGA@ixkodak?$AA@ 00633c14     total.obj
 0002:00007c20       ??_C@_0O@LMNGKOAB@ilenamesyntax?$AA@ 00633c20     total.obj
 0002:00007c30       ??_C@_0BA@DPOGHJBM@ilecompressmode?$AA@ 00633c30     total.obj
 0002:00007c44       ??_C@_0L@ODELFPKJ@ailholdoff?$AA@ 00633c44     total.obj
 0002:00007c54       ??_C@_05CPPNNGKG@xport?$AA@ 00633c54     total.obj
 0002:00007c5c       ??_C@_0BF@JLKBNBIL@nablereadaheadthread?$AA@ 00633c5c     total.obj
 0002:00007c78       ??_C@_0BE@EHCMEJBL@nablecomputedfields?$AA@ 00633c78     total.obj
 0002:00007c90       ??_C@_06MABICCFH@dition?$AA@ 00633c90     total.obj
 0002:00007c98       ??_C@_06CBCDKNAL@umpini?$AA@ 00633c98     total.obj
 0002:00007ca0       ??_C@_0BD@PNHCKPE@oublebackslashtodb?$AA@ 00633ca0     total.obj
 0002:00007cb8       ??_C@_0BG@FAJKILHC@roppedfilecompression?$AA@ 00633cb8     total.obj
 0002:00007cd4       ??_C@_0O@LCMEEFOG@marktablename?$AA@ 00633cd4     total.obj
 0002:00007ce4       ??_C@_09JHOPAJEK@ictionary?$AA@ 00633ce4     total.obj
 0002:00007cf0       ??_C@_0BH@NJDLHEKP@ecompressnon16bitsjpeg?$AA@ 00633cf0     total.obj
 0002:00007d0c       ??_C@_09BEGLPJDM@ebuglevel?$AA@ 00633d0c     total.obj
 0002:00007d18       ??_C@_08LDGLBMHG@drdevice?$AA@ 00633d18     total.obj
 0002:00007d24       ??_C@_0BA@LCBKPIKE@achevirtualdata?$AA@ 00633d24     total.obj
 0002:00007d38       ??_C@_0L@FCFIEJJ@achedevice?$AA@ 00633d38     total.obj
 0002:00007d48       ??_C@_0BC@LJPGOAHI@rchivecompression?$AA@ 00633d48     total.obj
 0002:00007d60       ??_C@_06LKGNHJNO@nypage?$AA@ 00633d60     total.obj
 0002:00007d68       ??_C@_0N@EHMNFAEJ@llowtruncate?$AA@ 00633d68     total.obj
 0002:00007d78       ??_C@_09FLEBKHCE@crnemamap?$AA@ 00633d78     total.obj
 0002:00007d84       ??_C@_0N@HIBBACLP@ccessupdates?$AA@ 00633d84     total.obj
 0002:00007d94       ??_C@_0CH@KMFDFGPE@Cound?5not?5create?5new?5ini?5table?5a@ 00633d94     total.obj
 0002:00007dc4       ??_C@_0CA@CBEMGPMK@Ini?5name?5?$CFs?5has?5no?5equal?5sign?4?6?$AA@ 00633dc4     total.obj
 0002:00007dec       ??_C@_0BP@IIGJFCOJ@ini?5table?5for?5unknown?5ini?5data?$AA@ 00633dec     total.obj
 0002:00007e14       ??_C@_09MLGAJAED@undefined?$AA@ 00633e14     total.obj
 0002:00007e20       ??_C@_0CP@IODPKGCI@Testing?5transfer?3?5?8?$CFs?8?5against?5l@ 00633e20     total.obj
 0002:00007e58       ??_C@_0CD@DLKKAON@1?42?4826?40?41?43680043?42?4135?41066?41@ 00633e58     total.obj
 0002:00007e84       ??_C@_0N@LACKHJCB@1?44?418?1WIN32?$AA@ 00633e84     total.obj
 0002:00007e98       ??_7MemoryBuffer@@6B@      00633e98     total.obj
 0002:00007eac       ??_7PDataTF@@6B@           00633eac     total.obj
 0002:00007eb8       ??_7DICOMObject@@6B@       00633eb8     total.obj
 0002:00007ed0       ??_C@_06OLJJCGEE@ELSCIN?$AA@ 00633ed0     total.obj
 0002:00007ed8       ??_C@_06DFFEGOAP@ACUSON?$AA@ 00633ed8     total.obj
 0002:00007ee0       ??_C@_03FCEBNIND@?2?$CFf?$AA@ 00633ee0     total.obj
 0002:00007ee4       ??_C@_05IDNELAAE@?$CFf?2?$CFf?$AA@ 00633ee4     total.obj
 0002:00007eec       __real@00000000            00633eec     total.obj
 0002:00007ef0       ??_C@_0N@EKLDIJPL@MONOCHROME2?5?$AA@ 00633ef0     total.obj
 0002:00007f04       ??_7RunTimeClassStorage@@6BCStoreRSP@@@ 00633f04     total.obj
 0002:00007f10       ??_7RunTimeClassStorage@@6BCStoreRQ@@@ 00633f10     total.obj
 0002:00007f24       ??_7PatientRootQuery@@6BCFindRSP@@@ 00633f24     total.obj
 0002:00007f30       ??_7PatientRootQuery@@6BCFindRQ@@@ 00633f30     total.obj
 0002:00007f54       ??_7StudyRootQuery@@6BCFindRSP@@@ 00633f54     total.obj
 0002:00007f60       ??_7StudyRootQuery@@6BCFindRQ@@@ 00633f60     total.obj
 0002:00007f84       ??_7ModalityWorkListQuery@@6BCFindRSP@@@ 00633f84     total.obj
 0002:00007f90       ??_7ModalityWorkListQuery@@6BCFindRQ@@@ 00633f90     total.obj
 0002:00007fb4       ??_7MyPatientRootRetrieve@@6BCMoveRSP@@@ 00633fb4     total.obj
 0002:00007fc0       ??_7MyPatientRootRetrieve@@6BCMoveRQ@@@ 00633fc0     total.obj
 0002:00007fe8       ??_7MyPatientRootRetrieveNKI@@6BCMoveRSP@@@ 00633fe8     total.obj
 0002:00007ff4       ??_7MyPatientRootRetrieveNKI@@6BCMoveRQ@@@ 00633ff4     total.obj
 0002:0000801c       ??_7MyPatientRootRetrieveGeneric@@6BCMoveRSP@@@ 0063401c     total.obj
 0002:00008028       ??_7MyPatientRootRetrieveGeneric@@6BCMoveRQ@@@ 00634028     total.obj
 0002:00008050       ??_7MyStudyRootRetrieve@@6BCMoveRSP@@@ 00634050     total.obj
 0002:0000805c       ??_7MyStudyRootRetrieve@@6BCMoveRQ@@@ 0063405c     total.obj
 0002:00008084       ??_7MyStudyRootRetrieveNKI@@6BCMoveRSP@@@ 00634084     total.obj
 0002:00008090       ??_7MyStudyRootRetrieveNKI@@6BCMoveRQ@@@ 00634090     total.obj
 0002:000080b8       ??_7MyStudyRootRetrieveGeneric@@6BCMoveRSP@@@ 006340b8     total.obj
 0002:000080c4       ??_7MyStudyRootRetrieveGeneric@@6BCMoveRQ@@@ 006340c4     total.obj
 0002:000080ec       ??_7MyPatientStudyOnlyQuery@@6BCFindRSP@@@ 006340ec     total.obj
 0002:000080f8       ??_7MyPatientStudyOnlyQuery@@6BCFindRQ@@@ 006340f8     total.obj
 0002:0000811c       ??_7MyPatientStudyOnlyRetrieve@@6BCMoveRSP@@@ 0063411c     total.obj
 0002:00008128       ??_7MyPatientStudyOnlyRetrieve@@6BCMoveRQ@@@ 00634128     total.obj
 0002:00008150       ??_7MyPatientStudyOnlyRetrieveNKI@@6BCMoveRSP@@@ 00634150     total.obj
 0002:0000815c       ??_7MyPatientStudyOnlyRetrieveNKI@@6BCMoveRQ@@@ 0063415c     total.obj
 0002:00008184       ??_7MyPatientStudyOnlyRetrieveGeneric@@6BCMoveRSP@@@ 00634184     total.obj
 0002:00008190       ??_7MyPatientStudyOnlyRetrieveGeneric@@6BCMoveRQ@@@ 00634190     total.obj
 0002:000081b4       ??_C@_08EPJLHIJG@bad?5cast?$AA@ 006341b4     total.obj
 0002:000081c4       ??_7?$PQueue@V?$FixedArrayElement@IU_RTCElement@@@@@@6B@ 006341c4     total.obj
 0002:000081cc       ??_C@_0M@BICMBGPD@?$CFs?5section?6?$AA@ 006341cc     total.obj
 0002:000081dc       ??_C@_0BP@PFAKIPOL@?6?$CK?$CK?$CK?$CK?5Unknoun?5section?$CIs?$CJ?5?$CK?$CK?$CK?$CK?6?$AA@ 006341dc     total.obj
 0002:00008204       ??_C@_0BB@KEPJNDDL@studyviewer?3?7?$CFs?6?$AA@ 00634204     total.obj
 0002:00008218       ??_C@_0M@LHHBJMPJ@viewer?3?7?$CFs?6?$AA@ 00634218     total.obj
 0002:00008228       ??_C@_09IGJAFHMC@size?3?7?$CFs?6?$AA@ 00634228     total.obj
 0002:00008234       ??_C@_09MPBBJIE@port?3?7?$CFs?6?$AA@ 00634234     total.obj
 0002:00008240       ??_C@_0O@HNHHMOMN@iconsize?3?7?$CFs?6?$AA@ 00634240     total.obj
 0002:00008250       ??_C@_0N@CNGNFPBB@graphic?3?7?$CFs?6?$AA@ 00634250     total.obj
 0002:00008260       ??_C@_0L@OOJAGLOC@dsize?3?7?$CFs?6?$AA@ 00634260     total.obj
 0002:00008270       ??_C@_0O@DHPGPGAK@compress?3?7?$CFs?6?$AA@ 00634270     total.obj
 0002:00008280       ??_C@_0N@GAOFOCNF@address?3?7?$CFs?6?$AA@ 00634280     total.obj
 0002:00008290       ??_C@_0CA@DDCMFOAG@?6?$CK?$CK?$CK?$CK?5WebDefaults?5section?5?$CK?$CK?$CK?$CK?6?$AA@ 00634290     total.obj
 0002:000082b8       ??_C@_0M@FKJFDCPC@bridge?3?7?$CFs?6?$AA@ 006342b8     total.obj
 0002:000082c8       ??_C@_0CA@JHJMPPGM@?6?$CK?$CK?$CK?$CK?5WadoServers?5section?5?$CK?$CK?$CK?$CK?6?$AA@ 006342c8     total.obj
 0002:000082f0       ??_C@_0BM@KJKPLMCK@?6?$CK?$CK?$CK?$CK?5Scripts?5section?5?$CK?$CK?$CK?$CK?6?$AA@ 006342f0     total.obj
 0002:00008314       ??_C@_0N@FMNPLJIP@shoppingcart?$AA@ 00634314     total.obj
 0002:00008324       ??_C@_09HIJGMLNB@markstudy?$AA@ 00634324     total.obj
 0002:00008330       ??_C@_0L@GIECNBFL@markseries?$AA@ 00634330     total.obj
 0002:00008340       ??_C@_0M@JMOGOHPI@MergeSeries?$AA@ 00634340     total.obj
 0002:00008350       ??_C@_0O@JKPEDDAI@ExportConvter?$AA@ 00634350     total.obj
 0002:00008360       ??_C@_0BP@FCMNLOLO@?$CK?$CK?$CK?5Import?5export?5arrays?4?5?$CK?$CK?$CK?6?$AA@ 00634360     total.obj
 0002:00008388       ??_C@_0N@IFMNPFNC@startup?3?7?$CFs?6?$AA@ 00634388     total.obj
 0002:00008398       ??_C@_0N@MKAEGLNF@nightly?3?7?$CFs?6?$AA@ 00634398     total.obj
 0002:000083a8       ??_C@_0BE@PBEONOFG@endassociation?3?7?$CFs?6?$AA@ 006343a8     total.obj
 0002:000083c0       ??_C@_0BB@ILHEFDIG@clienterror?3?7?$CFs?6?$AA@ 006343c0     total.obj
 0002:000083d4       ??_C@_0BA@GGHAHNC@background?3?7?$CFs?6?$AA@ 006343d4     total.obj
 0002:000083e8       ??_C@_0BB@CAGIAHJI@association?3?7?$CFs?6?$AA@ 006343e8     total.obj
 0002:000083fc       ??_C@_0BI@PDPEMBDG@?6?$CK?$CK?$CK?$CK?5lua?5section?5?$CK?$CK?$CK?$CK?6?$AA@ 006343fc     total.obj
 0002:00008418       ??_C@_0M@NHKDIFON@DefaultPage?$AA@ 00634418     total.obj
 0002:00008428       ??_C@_0BB@IMMBNCLD@DefaultPage?3?7?$CFs?6?$AA@ 00634428     total.obj
 0002:0000843c       ??_C@_07GGNFJELO@AnyPage?$AA@ 0063443c     total.obj
 0002:00008448       ??_C@_0N@LGHFNMEJ@AnyPage?3?7?$CFs?6?$AA@ 00634448     total.obj
 0002:00008458       ??_C@_0O@ODKLJJNO@WorkListQuery?$AA@ 00634458     total.obj
 0002:00008468       ??_C@_0O@PHALIPKM@RejectedImage?$AA@ 00634468     total.obj
 0002:00008478       ??_C@_0BG@NDJKNDFP@RejectedImageWorkList?$AA@ 00634478     total.obj
 0002:00008494       ??_C@_08FDLIONIB@Retrieve?$AA@ 00634494     total.obj
 0002:000084a0       ??_C@_0P@LHOKBAPP@RetrieveResult?$AA@ 006344a0     total.obj
 0002:000084b4       ??_C@_05BNKNJDAB@Query?$AA@ 006344b4     total.obj
 0002:000084bc       ??_C@_0M@PCHLFNOO@QueryResult?$AA@ 006344bc     total.obj
 0002:000084cc       ??_C@_0L@DICANJHI@MoveDevice?$AA@ 006344cc     total.obj
 0002:000084dc       ??_C@_0BM@DCANELNO@ModalityWorkListQueryResult?$AA@ 006344dc     total.obj
 0002:00008500       ??_C@_0N@MBKJLFPF@MergeStudies?$AA@ 00634500     total.obj
 0002:00008510       ??_C@_0L@CGONHBEC@MergeSerie?$AA@ 00634510     total.obj
 0002:00008520       ??_C@_06IBNLALPJ@Import?$AA@ 00634520     total.obj
 0002:00008528       ??_C@_06BFGAPCKF@Export?$AA@ 00634528     total.obj
 0002:00008530       ??_C@_0M@COKFBABJ@Compression?$AA@ 00634530     total.obj
 0002:00008540       ??_C@_07CNOHFBBG@Archive?$AA@ 00634540     total.obj
 0002:0000854c       ??_C@_0CB@OELIDDGF@?$CK?$CK?$CK?$CK?5Import?5export?5arrays?4?5?$CK?$CK?$CK?$CK?6@ 0063454c     total.obj
 0002:00008574       ??_C@_0BH@HOLFFBPC@VirtualServerPerSeries?$AA@ 00634574     total.obj
 0002:00008590       ??_C@_0BB@DCDOENGE@VirtualServerFor?$AA@ 00634590     total.obj
 0002:000085a4       ??_C@_0N@KGCBEHMK@MIRRORDevice?$AA@ 006345a4     total.obj
 0002:000085b4       ??_C@_09BHFKEPNH@MAGDevice?$AA@ 006345b4     total.obj
 0002:000085c0       ??_C@_0O@NIPMPCKF@JUKEBOXDevice?$AA@ 006345c0     total.obj
 0002:000085d0       ??_C@_0M@CPHBMDHE@CACHEDevice?$AA@ 006345d0     total.obj
 0002:000085e0       ??_C@_0BH@DKEHHCF@?$CK?$CK?$CK?$CK?5Ini?5arrays?4?5?$CK?$CK?$CK?$CK?6?$AA@ 006345e0     total.obj
 0002:000085fc       ??_C@_07KALIJACO@ziptime?$AA@ 006345fc     total.obj
 0002:00008608       ??_C@_0BH@IDBHOLGK@WorkListTableName?3?7?$CFs?6?$AA@ 00634608     total.obj
 0002:00008624       ??_C@_0BP@DKMJPMAE@WorkListReturnsISO_IR_100?3?7?$CFd?6?$AA@ 00634624     total.obj
 0002:0000864c       ??_C@_0BL@FEPGGGJE@WorkListReturnsISO_IR?3?7?$CFd?6?$AA@ 0063464c     total.obj
 0002:0000866c       ??_C@_0BC@IMBHFOKL@WorkListMode?3?7?$CFd?6?$AA@ 0063466c     total.obj
 0002:00008684       ??_C@_0BC@MNMFMGGO@WebServerFor?3?7?$CFs?6?$AA@ 00634684     total.obj
 0002:0000869c       ??_C@_0BG@CIBKBPLP@WebScriptAddress?3?7?$CFs?6?$AA@ 0063469c     total.obj
 0002:000086b8       ??_C@_0BD@JMOKKMCK@WebReadOnly?3FALSE?6?$AA@ 006346b8     total.obj
 0002:000086d0       ??_C@_0BC@CIHKLAAF@WebReadOnly?3TRUE?6?$AA@ 006346d0     total.obj
 0002:000086e8       ??_C@_0P@CNHJEEGB@WebPush?3FALSE?6?$AA@ 006346e8     total.obj
 0002:000086fc       ??_C@_0O@LAHLNPDO@WebPush?3TRUE?6?$AA@ 006346fc     total.obj
 0002:0000870c       ??_C@_0BE@GFJLPMIE@WebMAG0Address?3?7?$CFs?6?$AA@ 0063470c     total.obj
 0002:00008724       ??_C@_0BB@FCPKAKFB@WebCodeBase?3?7?$CFs?6?$AA@ 00634724     total.obj
 0002:00008738       ??_C@_0CC@JMCOIKFM@monitorfolder2?5?$CCWatchFolder?$CC?3?7?$CFs@ 00634738     total.obj
 0002:00008760       ??_C@_0CL@LLNPEINO@UIDToMOPIDTableName?5?$CCUIDToMOPIDT@ 00634760     total.obj
 0002:00008794       ??_C@_0CL@FDEAONEJ@UIDToCDRIDTableName?5?$CCUIDToCDRIDT@ 00634794     total.obj
 0002:000087c8       ??_C@_0P@GANNBOA@UIDPrefix?3?7?$CFs?6?$AA@ 006347c8     total.obj
 0002:000087dc       ??_C@_0O@FGCDJAEB@UserName?3?7?$CFs?6?$AA@ 006347dc     total.obj
 0002:000087ec       ??_C@_0CA@MIMBMGKH@UseEscapeStringConstants?3FALSE?6?$AA@ 006347ec     total.obj
 0002:00008814       ??_C@_0BP@NNEHBEPD@UseEscapeStringConstants?3TRUE?6?$AA@ 00634814     total.obj
 0002:0000883c       ??_C@_0BG@HICCLPAC@UseBuiltInJPEG?3FALSE?6?$AA@ 0063483c     total.obj
 0002:00008858       ??_C@_0BF@OOKGJDIJ@UseBuiltInJPEG?3TRUE?6?$AA@ 00634858     total.obj
 0002:00008874       ??_C@_0BL@BNKMCFKM@TruncateFieldNamesLen?3?7?$CFd?6?$AA@ 00634874     total.obj
 0002:00008894       ??_C@_0BI@MIBFIMJP@TruncateFieldNames?3?7?$CFd?6?$AA@ 00634894     total.obj
 0002:000088b0       ??_C@_0N@EACIKOIJ@TempDir?3?7?$CFs?6?$AA@ 006348b0     total.obj
 0002:000088c0       ??_C@_0BE@IGJKJLDJ@Port?5?$CCTCPPort?$CC?3?7?$CFs?6?$AA@ 006348c0     total.obj
 0002:000088d8       ??_C@_0BC@PNLDLAPI@TCPIPTimeOut?3?7?$CFd?6?$AA@ 006348d8     total.obj
 0002:000088f0       ??_C@_0BE@IJHEHOPH@StudyTableName?3?7?$CFs?6?$AA@ 006348f0     total.obj
 0002:00008908       ??_C@_0BJ@CGKNKELC@StudyQuerySortOrder?3?7?$CFs?6?$AA@ 00634908     total.obj
 0002:00008928       ??_C@_0BM@EHAIFKOA@StorageFailedErrorCode?3?7?$CFd?6?$AA@ 00634928     total.obj
 0002:0000894c       ??_C@_0BM@LIADIBHO@DataSource?5?$CCSQLServer?$CC?3?7?$CFs?6?$AA@ 0063494c     total.obj
 0002:00008970       ??_C@_0BI@JLPJDBGH@DataHost?5?$CCSQLHost?$CC?3?7?$CFs?6?$AA@ 00634970     total.obj
 0002:0000898c       ??_C@_0CB@NBLGCBKD@SOPClassFile?5?$CCSOPClassList?$CC?3?7?$CFs?6@ 0063498c     total.obj
 0002:000089b4       ??_C@_0BF@KBDEMEJK@SeriesTableName?3?7?$CFs?6?$AA@ 006349b4     total.obj
 0002:000089d0       ??_C@_0BK@BIAHJKNK@SeriesQuerySortOrder?3?7?$CFs?6?$AA@ 006349d0     total.obj
 0002:000089f0       ??_C@_0BH@EBMLIJCP@SendUpperCaseAE?3FALSE?6?$AA@ 006349f0     total.obj
 0002:00008a0c       ??_C@_0BG@ECDHMGK@SendUpperCaseAE?3TRUE?6?$AA@ 00634a0c     total.obj
 0002:00008a28       ??_C@_0BK@IDAEGIKH@RetryForwardFailed?3FALSE?6?$AA@ 00634a28     total.obj
 0002:00008a48       ??_C@_0BJ@BMDNFDNG@RetryForwardFailed?3TRUE?6?$AA@ 00634a48     total.obj
 0002:00008a68       ??_C@_0BA@LJBJJMMF@RetryDelay?3?7?$CFd?6?$AA@ 00634a68     total.obj
 0002:00008a7c       ??_C@_0BO@OMMJFMIB@RegisteredMOPIDTableName?3?7?$CFs?6?$AA@ 00634a7c     total.obj
 0002:00008aa0       ??_C@_0P@DDOFMNFH@QueueSize?3?7?$CFd?6?$AA@ 00634aa0     total.obj
 0002:00008ab4       ??_C@_0BA@JJBOKIIP@Prefetcher?3?7?$CFd?6?$AA@ 00634ab4     total.obj
 0002:00008ac8       ??_C@_0BG@HLNGEKBO@PatientTableName?3?7?$CFs?6?$AA@ 00634ac8     total.obj
 0002:00008ae4       ??_C@_0BL@IAFGGENL@PatientQuerySortOrder?3?7?$CFs?6?$AA@ 00634ae4     total.obj
 0002:00008b04       ??_C@_0O@HLLICADC@Password?3?7?$CFs?6?$AA@ 00634b04     total.obj
 0002:00008b14       ??_C@_0BL@HACJKOOH@ServerName?5?$CCPACSName?$CC?3?7?$CFs?6?$AA@ 00634b14     total.obj
 0002:00008b34       ??_C@_0P@DDBPKLAE@PackDBF?3FALSE?6?$AA@ 00634b34     total.obj
 0002:00008b48       ??_C@_0O@NHGGNCKM@PackDBF?3TRUE?6?$AA@ 00634b48     total.obj
 0002:00008b58       ??_C@_0BH@ODHPCPBK@OverlapVirtualGet?3?7?$CFd?6?$AA@ 00634b58     total.obj
 0002:00008b74       ??_C@_0CC@GPNNKDPN@OCPipeName?5?$CCOperatorConsole?$CC?3?7?$CFs@ 00634b74     total.obj
 0002:00008b9c       ??_C@_0BE@LOPMKOEE@NoDicomCheck?3FALSE?6?$AA@ 00634b9c     total.obj
 0002:00008bb4       ??_C@_0BD@DMGOGHLD@NoDicomCheck?3TRUE?6?$AA@ 00634bb4     total.obj
 0002:00008bcc       ??_C@_0BM@IPKKOOLE@NightlyCleanThreshhold?3?7?$CFd?6?$AA@ 00634bcc     total.obj
 0002:00008bf0       ??_C@_0P@DODJNGFB@MyACRNema?3?7?$CFs?6?$AA@ 00634bf0     total.obj
 0002:00008c04       ??_C@_0BH@BHMDEDIP@MaxFileNameLength?3?7?$CFd?6?$AA@ 00634c04     total.obj
 0002:00008c20       ??_C@_0BE@OPOOPBGF@MaxFieldLength?3?7?$CFd?6?$AA@ 00634c20     total.obj
 0002:00008c38       ??_C@_0BK@LOHCOKGJ@MaximumExportRetries?3?7?$CFd?6?$AA@ 00634c38     total.obj
 0002:00008c58       ??_C@_0CH@CNLJNAMJ@MaximumDelayedFetchForwardRetrie@ 00634c58     total.obj
 0002:00008c88       ??_C@_0BJ@ELIAHMAI@MAGDeviceThreshHold?3?7?$CFd?6?$AA@ 00634c88     total.obj
 0002:00008ca8       ??_C@_0BN@HMFFLPI@MAGDeviceFullThreshHold?3?7?$CFd?6?$AA@ 00634ca8     total.obj
 0002:00008ccc       ??_C@_0N@LKPLBCAG@LRUSort?3?7?$CFs?6?$AA@ 00634ccc     total.obj
 0002:00008cdc       ??_C@_0BC@DHDDLMID@LossyQuality?3?7?$CFd?6?$AA@ 00634cdc     total.obj
 0002:00008cf4       ??_C@_0BC@PAGJCMK@LongQueryDBF?3?7?$CFd?6?$AA@ 00634cf4     total.obj
 0002:00008d0c       ??_C@_0BB@KOMHFJHD@kFactorFile?3?7?$CFs?6?$AA@ 00634d0c     total.obj
 0002:00008d20       ??_C@_0O@JPMGLFBO@IndexDBF?3?7?$CFd?6?$AA@ 00634d20     total.obj
 0002:00008d30       ??_C@_0BJ@NIHKCOHB@IncomingCompression?3?7?$CFs?6?$AA@ 00634d30     total.obj
 0002:00008d50       ??_C@_0BP@FDHFEFFC@ImportExportDragAndDrop?3FALSE?6?$AA@ 00634d50     total.obj
 0002:00008d78       ??_C@_0BO@NAGFBDD@ImportExportDragAndDrop?3TRUE?6?$AA@ 00634d78     total.obj
 0002:00008d9c       ??_C@_0BE@MEDCOOPH@ImageTableName?3?7?$CFs?6?$AA@ 00634d9c     total.obj
 0002:00008db4       ??_C@_0BJ@KKCNIFCM@ImageQuerySortOrder?3?7?$CFs?6?$AA@ 00634db4     total.obj
 0002:00008dd4       ??_C@_0BP@KGDINHJA@IgnoreOutOfMemoryErrors?3FALSE?6?$AA@ 00634dd4     total.obj
 0002:00008dfc       ??_C@_0BO@EPFAMEGE@IgnoreOutOfMemoryErrors?3TRUE?6?$AA@ 00634dfc     total.obj
 0002:00008e20       ??_C@_0CB@PGFJOBFD@IgnoreMAGDeviceThreshHold?3FALSE?6@ 00634e20     total.obj
 0002:00008e48       ??_C@_0CA@CLBHDLBE@IgnoreMAGDeviceThreshHold?3TRUE?6?$AA@ 00634e48     total.obj
 0002:00008e70       ??_C@_0BJ@HKMDLMG@ForwardCollectDelay?3?7?$CFd?6?$AA@ 00634e70     total.obj
 0002:00008e90       ??_C@_0CB@GANOPANF@ForwardAssociationRelease?3FALSE?6@ 00634e90     total.obj
 0002:00008eb8       ??_C@_0CA@KFKODDFO@ForwardAssociationRelease?3TRUE?6?$AA@ 00634eb8     total.obj
 0002:00008ee0       ??_C@_0CE@LPHBOJGA@ForwardAssociationRefreshDelay?3?7@ 00634ee0     total.obj
 0002:00008f0c       ??_C@_0CC@OHBPABGE@ForwardAssociationCloseDelay?3?7?$CFd@ 00634f0c     total.obj
 0002:00008f34       ??_C@_0CF@LAEHHFHG@Level?5?$CCForwardAssociationLevel?$CC?3@ 00634f34     total.obj
 0002:00008f60       ??_C@_0BC@CMDJDBGP@FixPhilips?3FALSE?6?$AA@ 00634f60     total.obj
 0002:00008f78       ??_C@_0BB@CLHPNHHP@FixPhilips?3TRUE?6?$AA@ 00634f78     total.obj
 0002:00008f8c       ??_C@_0BA@LMJKPICN@FixKodak?3FALSE?6?$AA@ 00634f8c     total.obj
 0002:00008fa0       ??_C@_0P@DHKLAEHA@FixKodak?3TRUE?6?$AA@ 00634fa0     total.obj
 0002:00008fb4       ??_C@_0BK@OHPCBCCF@FileNameSyntaxString?3?7?$CFs?6?$AA@ 00634fb4     total.obj
 0002:00008fd4       ??_C@_0BG@IPDDDHLH@FileCompressMode?3?7?$CFd?6?$AA@ 00634fd4     total.obj
 0002:00008ff0       ??_C@_0BB@IDEABDJP@FailHoldOff?3?7?$CFd?6?$AA@ 00634ff0     total.obj
 0002:00009004       ??_C@_0BM@MFEHNEOD@EnableComputedFields?3FALSE?6?$AA@ 00635004     total.obj
 0002:00009028       ??_C@_0BL@DGDPGOHJ@EnableComputedFields?3TRUE?6?$AA@ 00635028     total.obj
 0002:00009048       ??_C@_0BN@GLFLPACC@EnableReadAheadThread?3FALSE?6?$AA@ 00635048     total.obj
 0002:0000906c       ??_C@_0BM@PLHBOFJB@EnableReadAheadThread?3TRUE?6?$AA@ 0063506c     total.obj
 0002:00009090       ??_C@_0BL@HAOFIOGH@DoubleBackSlashToDB?3FALSE?6?$AA@ 00635090     total.obj
 0002:000090b0       ??_C@_0BK@EEKKNLME@DoubleBackSlashToDB?3TRUE?6?$AA@ 006350b0     total.obj
 0002:000090d0       ??_C@_0BM@CIPJEEJO@DroppedFileCompression?3?7?$CFs?6?$AA@ 006350d0     total.obj
 0002:000090f4       ??_C@_0BA@KBJHFBNI@Dictionary?3?7?$CFs?6?$AA@ 006350f4     total.obj
 0002:00009108       ??_C@_0BL@GHAFLDEI@DebugVRs?5?$CCDebugLevel?$CC?3?7?$CFd?6?$AA@ 00635108     total.obj
 0002:00009128       ??_C@_0N@ENLOOCLO@db_type?3?7?$CFd?6?$AA@ 00635128     total.obj
 0002:00009138       ??_C@_0BI@HJMPBBLE@CacheVirtualData?3FALSE?6?$AA@ 00635138     total.obj
 0002:00009154       ??_C@_0BH@NIHJCDMI@CacheVirtualData?3TRUE?6?$AA@ 00635154     total.obj
 0002:00009170       ??_C@_0BI@FAONJEJM@ArchiveCompression?3?7?$CFs?6?$AA@ 00635170     total.obj
 0002:0000918c       ??_C@_0BD@MBHJNMPE@AllowTruncate?3?7?$CFs?6?$AA@ 0063518c     total.obj
 0002:000091a4       ??_C@_0BA@JAPPEMOM@ACRNemaMap?3?7?$CFs?6?$AA@ 006351a4     total.obj
 0002:000091b8       ??_C@_0N@HOIGBHN@Edition?3?7?$CFd?6?$AA@ 006351b8     total.obj
 0002:000091c8       ??_C@_0P@NCKBMOBI@MicroPACS?3?7?$CFs?6?$AA@ 006351c8     total.obj
 0002:000091dc       ??_C@_0BJ@CGFNGMJM@?$CK?$CK?$CK?5sscscp?5section?5?$CK?$CK?$CK?3?6?$AA@ 006351dc     total.obj
 0002:000091fc       ??_C@_0CG@FDDLMBIF@?5?5?5?5?5with?5a?5working?5directory?5of@ 006351fc     total.obj
 0002:0000922c       ??_C@_0CA@BIMJBOI@?$CK?$CK?$CK?5A?5dump?5of?5the?5?$CFs?5file?4?5?$CK?$CK?$CK?6?$AA@ 0063522c     total.obj
 0002:00009254       ??_C@_0CE@BHPHEANO@DumpIni?5set?5to?5true?0?5dgate?5exiti@ 00635254     total.obj
 0002:00009280       ??_C@_0M@OFDHBBB@defaultpage?$AA@ 00635280     total.obj
 0002:00009290       ??_C@_07FOGCNJOM@anypage?$AA@ 00635290     total.obj
 0002:0000929c       ??_C@_02FCBLCILD@?5?$DN?$AA@ 0063529c     total.obj
 0002:000092a0       ??_C@_0BH@BLFGCGIL@No?5webdefaults?5section?$AA@ 006352a0     total.obj
 0002:000092bc       ??_C@_0M@IFALKJDG@webdefaults?$AA@ 006352bc     total.obj
 0002:000092cc       ??_C@_06ENCEOGKI@bridge?$AA@ 006352cc     total.obj
 0002:000092d4       ??_C@_0BI@MPFHNLOK@No?5wado?5servers?5section?$AA@ 006352d4     total.obj
 0002:000092f0       ??_C@_0M@IKMCCPMC@wadoservers?$AA@ 006352f0     total.obj
 0002:00009300       ??_C@_0BD@JGJJLNAJ@No?5scripts?5section?$AA@ 00635300     total.obj
 0002:00009318       ??_C@_07OMEBBDEO@scripts?$AA@ 00635318     total.obj
 0002:00009324       ??_C@_0P@PPNCGBJI@No?5lua?5section?$AA@ 00635324     total.obj
 0002:00009338       ??_C@_03IBJHJIAF@lua?$AA@  00635338     total.obj
 0002:0000933c       ??_C@_08HMEBKAKE@Unknown?$CB?$AA@ 0063533c     total.obj
 0002:00009348       ??_C@_0O@HKCINDAA@No?5?$CFs?5section?$AA@ 00635348     total.obj
 0002:00009358       ??_C@_06JGBJPOPP@Global?$AA@ 00635358     total.obj
 0002:00009360       ??_C@_08LEBHHPDM@Sopclass?$AA@ 00635360     total.obj
 0002:0000936c       ??_C@_05NBEAGECF@Image?$AA@ 0063536c     total.obj
 0002:00009374       ??_C@_06KHKFGFJK@Series?$AA@ 00635374     total.obj
 0002:0000937c       ??_C@_05CFLHJDOH@Study?$AA@ 0063537c     total.obj
 0002:00009384       ??_C@_07ODEJJDAD@Patient?$AA@ 00635384     total.obj
 0002:00009390       ??_C@_08EFCIFPIF@Personal?$AA@ 00635390     total.obj
 0002:0000939c       ??_C@_0L@DCNJHNHF@Enterprise?$AA@ 0063539c     total.obj
 0002:000093ac       ??_C@_09CLAAHCGK@Workgroup?$AA@ 006353ac     total.obj
 0002:000093b8       ??_C@_0BI@BNDAEEEL@Not?5an?5dicom?4ini?5option?$AA@ 006353b8     total.obj
 0002:000093d4       ??_C@_07HGLGJNMP@Unused?$CB?$AA@ 006353d4     total.obj
 0002:000093e0       ??_C@_0N@OKDJDEOD@lua?5ini?5data?$AA@ 006353e0     total.obj
 0002:000093f0       ??_C@_0BJ@JOCHEIMJ@Content?9type?3?5text?1html?6?$AA@ 006353f0     total.obj
 0002:00009410       ??_C@_0BI@GBOIHPMF@data?5structure?5ini?5data?$AA@ 00635410     total.obj
 0002:00009430       ??_C@_0EM@PPCAKFHF@A?5second?5MicroPACS?5entry?5was?5fou@ 00635430     total.obj
 0002:0000948c       ??_C@_06FJKEMHGD@global?$AA@ 0063548c     total.obj
 0002:00009494       ??_C@_08DGOGPNJP@sopclass?$AA@ 00635494     total.obj
 0002:000094a0       ??_C@_05NGOMGBBD@image?$AA@ 006354a0     total.obj
 0002:000094a8       ??_C@_06GIBIFMAG@series?$AA@ 006354a8     total.obj
 0002:000094b0       ??_C@_05CCBLJGNB@study?$AA@ 006354b0     total.obj
 0002:000094b8       ??_C@_07BKDPPBFF@patient?$AA@ 006354b8     total.obj
 0002:000094c4       ??_C@_0L@LEEFPCKC@enterprise?$AA@ 006354c4     total.obj
 0002:000094d4       ??_C@_08MHNJNNCG@personal?$AA@ 006354d4     total.obj
 0002:000094e0       ??_C@_0BG@CFILMBDJ@Unknown?5section?5table?$AA@ 006354e0     total.obj
 0002:000094fc       ??_C@_05HNKDMFLJ@ridge?$AA@ 006354fc     total.obj
 0002:00009504       ??_C@_0N@OBCDENHJ@Wado?5servers?$AA@ 00635504     total.obj
 0002:00009514       ??_C@_0N@KMLPONBL@seriesviewer?$AA@ 00635514     total.obj
 0002:00009524       ??_C@_04IEEOGCNJ@5124?$AA@ 00635524     total.obj
 0002:0000952c       ??_C@_02DEEDNHFK@48?$AA@   0063552c     total.obj
 0002:00009530       ??_C@_02PJNNDDDA@n4?$AA@   00635530     total.obj
 0002:00009534       ??_C@_0N@NGAEKJIP@Web?5defaults?$AA@ 00635534     total.obj
 0002:00009548       ??_7MyPatientRootQuery@@6BCFindRSP@@@ 00635548     total.obj
 0002:00009554       ??_7MyPatientRootQuery@@6BCFindRQ@@@ 00635554     total.obj
 0002:00009578       ??_7MyStudyRootQuery@@6BCFindRSP@@@ 00635578     total.obj
 0002:00009584       ??_7MyStudyRootQuery@@6BCFindRQ@@@ 00635584     total.obj
 0002:000095a8       ??_7MyModalityWorkListQuery@@6BCFindRSP@@@ 006355a8     total.obj
 0002:000095b4       ??_7MyModalityWorkListQuery@@6BCFindRQ@@@ 006355b4     total.obj
 0002:000095dc       ??_7?$basic_filebuf@DU?$char_traits@D@std@@@std@@6B@ 006355dc     total.obj
 0002:00009624       ??_C@_0BI@CFPLBAOH@invalid?5string?5position?$AA@ 00635624     total.obj
 0002:00009640       ??_C@_0BG@BDCFHGIH@Unknown?5SQL?5Type?3?5?$CFs?6?$AA@ 00635640     total.obj
 0002:0000965c       ??_C@_0BI@MLNCMBFI@Unknown?5DICOM?5Type?3?5?$CFs?6?$AA@ 0063565c     total.obj
 0002:00009678       ??_C@_0CA@LAFDEJEK@Got?5?$HL?5?$CFs?0?5?$CFs?0?5?$CFs?0?5?$CFs?0?5?$CFs?0?5?$CFs?5?$HN?6?$AA@ 00635678     total.obj
 0002:000096a0       ??_C@_0EB@FMGKHDDL@Expected?5?$HL?5Group?0?5Element?0?5Colum@ 006356a0     total.obj
 0002:000096f0       ??_C@_0BM@IDLKHJFB@Expected?3?5Database?5?5?$HL?5?3?5?$CFs?6?$AA@ 006356f0     total.obj
 0002:00009714       ??_C@_01MCMALHOG@a?$AA@    00635714     total.obj
 0002:00009718       ??_C@_03ELIFGAKH@?$CK?$CK?$CK?$AA@ 00635718     total.obj
 0002:0000971c       ??_C@_0BN@EPGKMGPL@?$CF04d?$CF02d?$CF02d?5?$CF02d?3?$CF02d?3?$CF02d?5?$AA@ 0063571c     total.obj
 0002:00009740       ??_C@_05KJDPJACP@?$FL?$CFs?$FN?5?$AA@ 00635740     total.obj
 0002:00009748       ??_C@_0CL@IDGNCPI@?$CK?$CK?$CKError?5getting?5free?5store?5for?5@ 00635748     total.obj
 0002:0000977c       ??_C@_0BJ@HAGFJCGF@FreeStore?5Left?5?$CFd?5on?5?$CFs?6?$AA@ 0063577c     total.obj
 0002:0000979c       ??_C@_02HDBGODGB@?2?2?$AA@ 0063579c     total.obj
 0002:000097a0       ??_C@_07JOFIJICC@JUKEBOX?$AA@ 006357a0     total.obj
 0002:000097ac       ??_C@_05NIEEMHIM@CACHE?$AA@ 006357ac     total.obj
 0002:000097b4       ??_C@_06LPIEMBDF@MIRROR?$AA@ 006357b4     total.obj
 0002:000097bc       ??_C@_03HEFOFDEK@mag?$AA@  006357bc     total.obj
 0002:000097c0       ??_C@_0DC@LEAEGLLP@?$CK?$CK?$CKLocated?5file?5on?5wrong?5device?3@ 006357c0     total.obj
 0002:000097fc       ??_C@_05KBLMHMDL@MAG?$CFd?$AA@ 006357fc     total.obj
 0002:00009804       ??_C@_07KNCBHCLI@CACHE?$CFd?$AA@ 00635804     total.obj
 0002:00009810       ??_C@_03KBEBNCEG@?4?$CFd?$AA@ 00635810     total.obj
 0002:00009814       ??_C@_09GGHBOJKG@JUKEBOX?$CFd?$AA@ 00635814     total.obj
 0002:00009820       ??_C@_0DD@HMMGLJLH@?$CK?$CK?$CKLocated?5file?5on?5mirror?5device@ 00635820     total.obj
 0002:00009860       ??_C@_08HBEFKFLM@MIRROR?$CFd?$AA@ 00635860     total.obj
 0002:0000986c       ??_C@_03HJKFJODG@MAG?$AA@  0063586c     total.obj
 0002:00009870       ??_C@_0BF@CHPOOIBF@Locating?5file?3?$CFs?5?$CFs?6?$AA@ 00635870     total.obj
 0002:00009890       __real@3fe0000000000000    00635890     total.obj
 0002:000098a0       __real@3f50000000000000    006358a0     total.obj
 0002:000098ac       ??_C@_03POBHGEJB@BIN?$AA@  006358ac     total.obj
 0002:000098b0       ??_C@_02DJGKEECL@?4?4?$AA@ 006358b0     total.obj
 0002:000098b4       ??_C@_08FPHOKLMI@INCOMING?$AA@ 006358b4     total.obj
 0002:000098c0       ??_C@_03EMIMMIHL@?$CK?4?$CK?$AA@ 006358c0     total.obj
 0002:000098c8       __real@0000000000000000    006358c8     total.obj
 0002:000098d4       ??_C@_04PKMKHFNF@?$DN?5?$CFs?$AA@ 006358d4     total.obj
 0002:000098dc       ??_C@_07FKFGOLAI@LIKE?5?$CFs?$AA@ 006358dc     total.obj
 0002:000098e8       ??_C@_0EA@MGOJHPJA@Archival?3?5?$CK?$CK?$CK?5to?9device?5?$CI?$CFs?$CJ?5sho@ 006358e8     total.obj
 0002:00009934       ??_C@_0BN@DIMBHHMC@Located?5cache?5directory?3?5?$CFs?6?$AA@ 00635934     total.obj
 0002:00009958       ??_C@_0DG@JOCKJLOM@Archival?3?5?$CK?$CK?$CK?5could?5not?5find?5cac@ 00635958     total.obj
 0002:00009998       ??_C@_0O@GHAONBLD@CACHE?$CFd?4?$CFd?4?$CFd?$AA@ 00635998     total.obj
 0002:000099a8       ??_C@_0DJ@CMHAGBLF@Archival?3?5?$CK?$CK?$CK?5to?9device?5?$CI?$CFs?$CJ?5has@ 006359a8     total.obj
 0002:000099ec       ??_C@_0CC@CCBKJPEG@Fiximage?3?5Fixed?5Kodak?5patient?5ID@ 006359ec     total.obj
 0002:00009a14       ??_C@_0CE@MLCJKCAI@Fiximage?3?5Fixed?5Philips?5patient?5@ 00635a14     total.obj
 0002:00009a40       ??_C@_0CC@HAGCAOCE@Fiximage?3?5Fixed?5empty?5patient?5ID@ 00635a40     total.obj
 0002:00009a68       ??_C@_0BM@IDDIMJPE@Fiximage?3?5Added?5patient?5ID?6?$AA@ 00635a68     total.obj
 0002:00009a8c       ??_C@_08LEDEEJEF@00000000?$AA@ 00635a8c     total.obj
 0002:00009a98       ??_C@_0DI@INEMEIPH@Fiximage?3?5truncated?5?$CFd?5trailing?5@ 00635a98     total.obj
 0002:00009adc       ??_C@_0BO@JDOCGGJE@Fiximage?3?5Added?5patient?5name?6?$AA@ 00635adc     total.obj
 0002:00009b00       ??_C@_07CCACIMEM@NO?5NAME?$AA@ 00635b00     total.obj
 0002:00009b0c       ??_C@_0M@JGEIBMIN@?$CFs?4?$CFu?4?$CFd?4?$CFu?$AA@ 00635b0c     total.obj
 0002:00009b1c       ??_C@_02KCGKONDD@?47?$AA@  00635b1c     total.obj
 0002:00009b20       ??_C@_02OHHJMEON@?8?8?$AA@ 00635b20     total.obj
 0002:00009b28       ??_C@_0EB@JKLGPPGK@?$CK?$CK?$CK?$FLNewDeleteFromDB?$FN?5?9FAILED?3?5DD@ 00635b28     total.obj
 0002:00009b78       ??_C@_0BI@HPEALGJI@DICOMWorkList?4PatientID?$AA@ 00635b78     total.obj
 0002:00009b94       ??_C@_0BN@MFOJONGP@DICOMWorkList?4PatientID?5?$DN?5?$CFs?$AA@ 00635b94     total.obj
 0002:00009bb8       ??_C@_0BH@FHFHAAEG@DICOMStudies?4PatientID?$AA@ 00635bb8     total.obj
 0002:00009bd4       ??_C@_0BN@OGHFPACC@DICOMPatients?4PatientID?5?$DN?5?$CFs?$AA@ 00635bd4     total.obj
 0002:00009bf8       ??_C@_0BM@IPABCGEO@DICOMStudies?4PatientID?5?$DN?5?$CFs?$AA@ 00635bf8     total.obj
 0002:00009c1c       ??_C@_0BH@OKCEDCNP@DICOMSeries?4StudyInsta?$AA@ 00635c1c     total.obj
 0002:00009c38       ??_C@_0DN@IDNOIEBN@DICOMStudies?4StudyInsta?5?$DN?5?$CFs?5and@ 00635c38     total.obj
 0002:00009c84       ??_C@_0BM@OOJFFPJ@DICOMSeries?4StudyInsta?5?$DN?5?$CFs?$AA@ 00635c84     total.obj
 0002:00009ca8       ??_C@_0DL@IBDJGCK@DICOMSeries?4StudyInsta?5?$DN?5?$CFs?5and?5@ 00635ca8     total.obj
 0002:00009cf0       ??_C@_0BH@MDHBLKLH@DICOMImages?4SeriesInst?$AA@ 00635cf0     total.obj
 0002:00009d0c       ??_C@_0DM@BGOFAKAI@DICOMSeries?4SeriesInst?5?$DN?5?$CFs?5and?5@ 00635d0c     total.obj
 0002:00009d58       ??_C@_0FL@PEBFEFPF@DICOMSeries?4SeriesInst?5?$DN?5?$CFs?5and?5@ 00635d58     total.obj
 0002:00009dc8       ??_C@_0BM@KBHHIEBB@DICOMImages?4SeriesInst?5?$DN?5?$CFs?$AA@ 00635dc8     total.obj
 0002:00009dec       ??_C@_0DK@DLOANBNM@DICOMImages?4SeriesInst?5?$DN?5?$CFs?5and?5@ 00635dec     total.obj
 0002:00009e34       ??_C@_0BH@BBHLOMIA@DICOMImages?4SopInstanc?$AA@ 00635e34     total.obj
 0002:00009e50       ??_C@_0DM@CJFOHIKE@DICOMImages?4SopInstanc?5?$DN?5?$CFs?5and?5@ 00635e50     total.obj
 0002:00009e98       ??_C@_0FK@COMFDJA@DICOMImages?4SopInstanc?5?$DN?5?$CFs?5and?5@ 00635e98     total.obj
 0002:00009f04       ??_C@_09FLNGGKIK@?5?$CFs?5?$DN?5?$CFs?5?$AA@ 00635f04     total.obj
 0002:00009f10       ??_C@_05OMGAMCPJ@?5and?5?$AA@ 00635f10     total.obj
 0002:00009f18       ??_C@_0BH@PCGEACLH@?$CI?$CF4?44x?0?5?$CF4?44x?$CJ?5?$CFs?0?5?$CFd?6?$AA@ 00635f18     total.obj
 0002:00009f34       ??_C@_0BB@HOLMOBKK@?$CInull?5table?$CJ?5?$CFs?6?$AA@ 00635f34     total.obj
 0002:00009f48       ??_C@_0BG@KEMMDHC@Unknown?5SQL?5Type?3?5?$CFd?6?$AA@ 00635f48     total.obj
 0002:00009f64       ??_C@_0O@JIMBKHHG@?5?5varchar?$CI?$CFd?$CJ?$AA@ 00635f64     total.obj
 0002:00009f74       ??_C@_09DINFJEOL@?5char?$CI8?$CJ?5?$AA@ 00635f74     total.obj
 0002:00009f80       ??_C@_0BG@MLOKGAOO@?5PRIMARY?5KEY?5not?5null?$AA@ 00635f80     total.obj
 0002:00009f9c       ??_C@_09LDPOJFLM@Keyword?$DN?$CC?$AA@ 00635f9c     total.obj
 0002:00009fa8       ??_C@_04GEILMFED@VR?$DN?$CC?$AA@ 00635fa8     total.obj
 0002:00009fb0       ??_C@_08JMNOJJJC@?$CD?$CBBinRTC?$AA@ 00635fb0     total.obj
 0002:00009fbc       ??_C@_0DN@LAJGKFBO@Internal?5error?5during?5load?5of?5DC@ 00635fbc     total.obj
 0002:0000a008       ??_C@_0EN@CPPKNJGE@no?5UID?5associated?5with?5PCID?5?$CFd?5d@ 00636008     total.obj
 0002:0000a068       ??_7AAssociateAC@@6B@      00636068     total.obj
 0002:0000a070       ??_C@_0DK@KGEPGAAO@Index?5for?5?$CFs?5finished?5in?5?$CFd?5ms?$DL?5@ 00636070     total.obj
 0002:0000a0b8       ??_C@_0CD@GJIFKKJD@Indexing?5?$CFs?3?5?$CFd?5records?5processe@ 006360b8     total.obj
 0002:0000a0e4       ??_C@_0DD@KIGFBIJN@Creating?5index?5on?5field?5?$CFd?5for?5?$CF@ 006360e4     total.obj
 0002:0000a128       __real@4014000000000000    00636128     total.obj
 0002:0000a138       __real@411e848000000000    00636138     total.obj
 0002:0000a148       ??_C@_0EI@JOGKMFND@?$CK?$CK?$CKIndex?5for?5?$CFs?5is?5full?5?9?5speed?5@ 00636148     total.obj
 0002:0000a1a0       ??_C@_0BN@PIECGJOH@?$CK?$CK?$CKFailed?5to?5SQLAllocStmt?$CI?$CJ?6?$AA@ 006361a0     total.obj
 0002:0000a1c4       ??_C@_0BL@LDAILNJC@?$CK?$CK?$CKFailed?5to?5SQLConnect?$CI?$CJ?6?$AA@ 006361c4     total.obj
 0002:0000a1e4       ??_C@_0CA@EAAGOIFE@?$CK?$CK?$CKFailed?5to?5SQLAllocConnect?$CI?$CJ?6?$AA@ 006361e4     total.obj
 0002:0000a20c       ??_C@_0BM@IGKNLFOH@?$CK?$CK?$CKMySQL?5Error?5message?3?5?$CFs?6?$AA@ 0063620c     total.obj
 0002:0000a230       ??_C@_0CH@GOOKOJBM@?$CK?$CK?$CKCannot?5connect?5to?5MySQL?5on?5po@ 00636230     total.obj
 0002:0000a260       ??_C@_0CE@EKIPCBCK@?$CK?$CK?$CKCannot?5select?5MySQL?5database?5@ 00636260     total.obj
 0002:0000a28c       ??_C@_07MFOEFAAB@?$CK?$CK?$CK?5?$CFs?6?$AA@ 0063628c     total.obj
 0002:0000a298       ??_C@_0CB@DGGCBMAP@?$CK?$CK?$CK?5Open?5dbase?5?$CFs?5error?5code?5?$CFd?6@ 00636298     total.obj
 0002:0000a2c0       ??_C@_0BF@JKOLFOAE@Packing?5database?5?$CFs?6?$AA@ 006362c0     total.obj
 0002:0000a2dc       ??_C@_05FKELFKFC@?$CK?4dbf?$AA@ 006362dc     total.obj
 0002:0000a2e4       ??_C@_0BJ@CAHLJJCF@PRAGMA?5synchronous?5?$DN?5OFF?$AA@ 006362e4     total.obj
 0002:0000a304       ??_C@_0CK@KICHPINE@?$CK?$CK?$CK?5cannot?5connect?5to?5sqlite?5dat@ 00636304     total.obj
 0002:0000a338       ??_C@_0DL@FDKDENBL@?$CK?$CK?$CK?5cannot?5use?5DoubleBackSlashTo@ 00636338     total.obj
 0002:0000a380       ??_C@_0BK@BNMCCKEN@?$CK?$CK?$CKFailed?5to?5SQLTables?$CI?$CJ?6?$AA@ 00636380     total.obj
 0002:0000a3a0       ??_C@_0BJ@CHOKDCKD@?$CK?$CK?$CKSQLITEExec?5error?3?5?$CFs?6?$AA@ 006363a0     total.obj
 0002:0000a3c0       ??_C@_0BH@JOMNJHEC@Order?5?5?5?5?5?5?5?3?5?$CF?41000s?6?$AA@ 006363c0     total.obj
 0002:0000a3dc       ??_C@_0BH@GGMGMJIA@Where?5?5?5?5?5?5?5?3?5?$CF?41000s?6?$AA@ 006363dc     total.obj
 0002:0000a3f8       ??_C@_0BH@OKNBCEAF@Columns?5?5?5?5?5?3?5?$CF?41000s?6?$AA@ 006363f8     total.obj
 0002:0000a414       ??_C@_0BH@FGGGIDLF@Query?5Tables?3?5?$CF?41000s?6?$AA@ 00636414     total.obj
 0002:0000a430       ??_C@_0CD@EEOPMOJG@?$CK?$CK?$CKFailed?5SQLExecDirect?5?3?5?$CF?41000@ 00636430     total.obj
 0002:0000a45c       ??_C@_01PKGAHCOL@?$CJ?$AA@ 0063645c     total.obj
 0002:0000a460       ??_C@_0M@MEIJJJFF@?5ORDER?5BY?5?$CI?$AA@ 00636460     total.obj
 0002:0000a470       ??_C@_0L@NNGGEFAD@?5ORDER?5BY?5?$AA@ 00636470     total.obj
 0002:0000a480       ??_C@_07HEBAGGGB@?5WHERE?5?$AA@ 00636480     total.obj
 0002:0000a48c       ??_C@_0BC@CEGJHFDJ@SELECT?5?$CFs?5FROM?5?$CFs?$AA@ 0063648c     total.obj
 0002:0000a4a4       ??_C@_09IHPJOHED@SeriesPat?$AA@ 006364a4     total.obj
 0002:0000a4b0       ??_C@_09KJHFEODK@PatientID?$AA@ 006364b0     total.obj
 0002:0000a4bc       ??_C@_06MKNELLDG@?8?5and?5?$AA@ 006364bc     total.obj
 0002:0000a4c4       ??_C@_01NEMOKFLO@?$DN?$AA@ 006364c4     total.obj
 0002:0000a4c8       ??_C@_04PLNGDCJO@?5?$DM?$DN?5?$AA@ 006364c8     total.obj
 0002:0000a4d0       ??_C@_04FBNPPKBF@?5?$DO?$DN?5?$AA@ 006364d0     total.obj
 0002:0000a4d8       ??_C@_04PBIALEDJ@?5IN?5?$AA@ 006364d8     total.obj
 0002:0000a4e0       ??_C@_04GJPPFNOH@?5in?5?$AA@ 006364e0     total.obj
 0002:0000a4e8       ??_C@_06HBIFJOGL@?5like?5?$AA@ 006364e8     total.obj
 0002:0000a4f0       ??_C@_06CPJHFNIH@?5LIKE?5?$AA@ 006364f0     total.obj
 0002:0000a4f8       ??_C@_03MHLONNLM@?5?$DN?5?$AA@ 006364f8     total.obj
 0002:0000a4fc       ??_C@_05LFNOAECD@?5AND?5?$AA@ 006364fc     total.obj
 0002:0000a504       ??_C@_0L@DNILGNLM@seriespat?5?$AA@ 00636504     total.obj
 0002:0000a514       ??_C@_0L@ENMCOOFH@patientid?5?$AA@ 00636514     total.obj
 0002:0000a524       ??_C@_09CKPGAGOA@imagepat?5?$AA@ 00636524     total.obj
 0002:0000a530       ??_C@_09GIJGELKN@seriespat?$AA@ 00636530     total.obj
 0002:0000a53c       ??_C@_09ELOBCPKI@patientid?$AA@ 0063653c     total.obj
 0002:0000a548       ??_C@_08KCEDFEDD@imagepat?$AA@ 00636548     total.obj
 0002:0000a554       ??_C@_04ILJMCKLM@?4dbf?$AA@ 00636554     total.obj
 0002:0000a55c       ??_C@_0BL@LKIHDNGJ@SELECT?5DISTINCT?5?$CFs?5FROM?5?$CFs?$AA@ 0063655c     total.obj
 0002:0000a57c       ??_C@_0CA@GMGGIHNK@Order?5?5?5?5?5?5?5?5?5?5?5?5?5?5?5?5?3?5?$CF?41000s?6?$AA@ 0063657c     total.obj
 0002:0000a5a4       ??_C@_0CA@EBDNICGO@Where?5?5?5?5?5?5?5?5?5?5?5?5?5?5?5?5?3?5?$CF?41000s?6?$AA@ 006365a4     total.obj
 0002:0000a5cc       ??_C@_0CA@LOCBIBDN@Columns?5?5?5?5?5?5?5?5?5?5?5?5?5?5?3?5?$CF?41000s?6?$AA@ 006365cc     total.obj
 0002:0000a5f4       ??_C@_0CA@PJLDIMKK@Query?5Distinct?5Tables?3?5?$CF?41000s?6?$AA@ 006365f4     total.obj
 0002:0000a61c       ??_C@_0CA@EHEFBAPP@?$CK?$CK?$CKFailed?5SQLITEExec?5?3?5?$CF?41000s?6?$AA@ 0063661c     total.obj
 0002:0000a644       ??_C@_0BP@DBKOBHMJ@?$CK?$CK?$CKFailed?5MYSQLExec?5?3?5?$CF?41000s?6?$AA@ 00636644     total.obj
 0002:0000a66c       ??_C@_0BP@CLKFGLDE@?$CK?$CK?$CKFailed?5PGSQLExec?5?3?5?$CF?41000s?6?$AA@ 0063666c     total.obj
 0002:0000a694       ??_C@_0CA@IIFPPHAG@INSERT?5INTO?5?$CFs?5?$CI?$CFs?$CJ?5VALUES?5?$CI?$CFs?$CJ?$AA@ 00636694     total.obj
 0002:0000a6bc       ??_C@_02EINBNCG@?8?0?$AA@  006366bc     total.obj
 0002:0000a6c0       ??_C@_0DD@EKKCLENN@?$CK?$CK?$CK?5AddRecord?3?5DbaseIII?5read?5onl@ 006366c0     total.obj
 0002:0000a700       ??_C@_0BB@DDCLCCJM@Values?3?5?$CF?41000s?6?$AA@ 00636700     total.obj
 0002:0000a714       ??_C@_0BC@BMOIMJLE@Columns?3?5?$CF?41000s?6?$AA@ 00636714     total.obj
 0002:0000a72c       ??_C@_0BH@DAJDJNCK@Add?5to?5Table?3?5?$CF?41000s?6?$AA@ 0063672c     total.obj
 0002:0000a748       ??_C@_0P@IPDAGFHO@DELETE?5FROM?5?$CFs?$AA@ 00636748     total.obj
 0002:0000a75c       ??_C@_0BI@BJDJGGOL@DELETE?5FROM?5?$CFs?5WHERE?5?$CFs?$AA@ 0063675c     total.obj
 0002:0000a778       ??_C@_0DG@HKFAGGAG@?$CK?$CK?$CK?5DeleteRecord?3?5DbaseIII?5read?5@ 00636778     total.obj
 0002:0000a7b8       ??_C@_0BO@NIEDFFNE@Where?5?5?5?5?5?5?5?5?5?5?5?5?5?5?3?5?$CF?41000s?6?$AA@ 006367b8     total.obj
 0002:0000a7dc       ??_C@_0BO@DOGMAPCB@Delete?5Record?5Table?3?5?$CF?41000s?6?$AA@ 006367dc     total.obj
 0002:0000a800       ??_C@_0BM@GJKLEHCK@?$CK?$CK?$CKMode?5not?5Query?5?1?5Insert?6?$AA@ 00636800     total.obj
 0002:0000a824       ??_C@_0BL@GFGHBOED@?$CK?$CK?$CKFailed?5to?5SQLBindCol?$CI?$CJ?6?$AA@ 00636824     total.obj
 0002:0000a844       ??_C@_0CJ@IIOHFHKC@Normal?5?5query?5in?5?$CFs?5?$CFs?5took?5long@ 00636844     total.obj
 0002:0000a878       ??_C@_0CJ@JNHOJBNO@Indexed?5query?5in?5?$CFs?5?$CFs?5took?5long@ 00636878     total.obj
 0002:0000a8ac       ??_C@_0CJ@DMENDCNJ@Hashed?5?5query?5in?5?$CFs?5?$CFs?5took?5long@ 006368ac     total.obj
 0002:0000a8e0       ??_C@_0N@MOKCAADH@?5?$CFd?9unknown?$DL?$AA@ 006368e0     total.obj
 0002:0000a8f0       ??_C@_0O@PPBEMLCC@?5?$CFd?9multiple?$DL?$AA@ 006368f0     total.obj
 0002:0000a900       ??_C@_0L@JCGOFDOH@?5?$CFd?9range?$DL?$AA@ 00636900     total.obj
 0002:0000a910       ??_C@_07POOGCMOA@?5?$CFd?9?$DM?$DN?$DL?$AA@ 00636910     total.obj
 0002:0000a91c       ??_C@_07FEOPOEGL@?5?$CFd?9?$DO?$DN?$DL?$AA@ 0063691c     total.obj
 0002:0000a928       ??_C@_0O@FCOILGIC@?5?$CFd?9starting?$DL?$AA@ 00636928     total.obj
 0002:0000a938       ??_C@_0P@OGCMAEPB@?5?$CFd?9substring?$DL?$AA@ 00636938     total.obj
 0002:0000a94c       ??_C@_0L@EBIGLDF@?5?$CFd?9exact?$DL?$AA@ 0063694c     total.obj
 0002:0000a95c       ??_C@_0N@DNJOGACI@?5?$CFd?9indexed?$DL?$AA@ 0063695c     total.obj
 0002:0000a96c       ??_C@_08OLNEAHGB@?$CIfields?3?$AA@ 0063696c     total.obj
 0002:0000a978       ??_C@_0BG@BPKGCHPK@CREATE?5TABLE?5?5?$CFs?5?$CI?$CFs?$CJ?$AA@ 00636978     total.obj
 0002:0000a994       ??_C@_04IGGHOHMA@?4DBF?$AA@ 00636994     total.obj
 0002:0000a99c       ??_C@_04GEPKHFLO@?3C?$CFd?$AA@ 0063699c     total.obj
 0002:0000a9a4       ??_C@_05DNINDDHI@?5char?$AA@ 006369a4     total.obj
 0002:0000a9ac       ??_C@_08OOAPHCGM@?5varchar?$AA@ 006369ac     total.obj
 0002:0000a9b8       ??_C@_04KBACOGEC@?3C10?$AA@ 006369b8     total.obj
 0002:0000a9c0       ??_C@_04LHCIMFLH@?5int?$AA@ 006369c0     total.obj
 0002:0000a9c8       ??_C@_0BH@NLMDIDED@Create?5Table?3?5?$CF?41000s?6?$AA@ 006369c8     total.obj
 0002:0000a9e4       ??_C@_0BL@OOOGOJPA@CREATE?5INDEX?5?$CFs?5ON?5?$CFs?5?$CI?$CFs?$CJ?$AA@ 006369e4     total.obj
 0002:0000aa04       ??_C@_0BN@NKONFAOD@Column?5?5?5?5?5?5?5?5?5?5?5?5?3?5?$CF?41000s?6?$AA@ 00636a04     total.obj
 0002:0000aa28       ??_C@_0BN@JJJGDOCG@Index?5?5?5?5?5?5?5?5?5?5?5?5?5?3?5?$CF?41000s?6?$AA@ 00636a28     total.obj
 0002:0000aa4c       ??_C@_0BN@KLDIEPFF@Create?5Index?5Table?3?5?$CF?41000s?6?$AA@ 00636a4c     total.obj
 0002:0000aa70       ??_C@_0CC@DGDMCMFC@CREATE?5UNIQUE?5INDEX?5?$CFs?5ON?5?$CFs?5?$CI?$CFs@ 00636a70     total.obj
 0002:0000aa98       ??_C@_0CE@LJMBKLBA@Column?5?5?5?5?5?5?5?5?5?5?5?5?5?5?5?5?5?5?5?3?5?$CF?4100@ 00636a98     total.obj
 0002:0000aac4       ??_C@_0CE@BCLJFDBL@Index?5?5?5?5?5?5?5?5?5?5?5?5?5?5?5?5?5?5?5?5?3?5?$CF?4100@ 00636ac4     total.obj
 0002:0000aaf0       ??_C@_0CE@FNEGAEJN@Create?5Unique?5Index?5Table?3?5?$CF?4100@ 00636af0     total.obj
 0002:0000ab1c       ??_C@_0O@BKBCAOK@DROP?5TABLE?5?$CFs?$AA@ 00636b1c     total.obj
 0002:0000ab2c       ??_C@_0BK@EJOHLEE@UPDATE?5?$CFs?5SET?5?$CFs?5WHERE?5?$CFs?$AA@ 00636b2c     total.obj
 0002:0000ab4c       ??_C@_03EHINCMEC@?8?0?5?$AA@ 00636b4c     total.obj
 0002:0000ab50       ??_C@_0DH@MNMAMAIE@?$CK?$CK?$CK?5UpdateRecords?3?5DbaseIII?5read@ 00636b50     total.obj
 0002:0000ab94       ??_C@_0BH@MIALBOIB@Updates?5?5?5?5?5?3?5?$CF?41000s?6?$AA@ 00636b94     total.obj
 0002:0000abb0       ??_C@_0BH@IGPBDNGL@Update?5Table?3?5?$CF?41000s?6?$AA@ 00636bb0     total.obj
 0002:0000abcc       ??_C@_0BK@LDFMEFNE@Filename?5?5?5?5?5?5?5?3?5?$CF?41000s?6?$AA@ 00636bcc     total.obj
 0002:0000abec       ??_C@_0BK@GEFAONEI@Where?5?5?5?5?5?5?5?5?5?5?3?5?$CF?41000s?6?$AA@ 00636bec     total.obj
 0002:0000ac0c       ??_C@_0BK@DJLJIMPJ@Extract?5Records?3?5?$CF?41000s?6?$AA@ 00636c0c     total.obj
 0002:0000ac2c       ??_C@_0BG@CBCIGPMJ@?$CK?$CK?$CKError?3?5?$CFd?3?5?$CFs?3?5?$CFs?6?$AA@ 00636c2c     total.obj
 0002:0000ac48       ??_C@_0O@OMGOCIDP@?$CK?$CK?$CKError?3?5?$CFs?6?$AA@ 00636c48     total.obj
 0002:0000ac58       ??_C@_0CE@OACIAKGJ@?$CK?$CK?$CKError?3?5I?5fell?5into?5a?5black?5ho@ 00636c58     total.obj
 0002:0000ac84       ??_C@_0BL@FBFAICA@exec?5sp_changedbowner?5?8?$CFs?8?$AA@ 00636c84     total.obj
 0002:0000aca4       ??_C@_06JKABFJFP@use?5?$CFs?$AA@ 00636ca4     total.obj
 0002:0000acac       ??_C@_0CA@BIBNEPMA@exec?5sp_addlogin?5?8?$CFs?8?0?8?$CFs?8?0?8?$CFs?8?$AA@ 00636cac     total.obj
 0002:0000acd4       ??_C@_0BD@FFPCMKCK@CREATE?5DATABASE?5?$CFs?$AA@ 00636cd4     total.obj
 0002:0000acec       ??_C@_0BM@NBFKNMPP@CREATE?5DATABASE?5?$CFs?5OWNER?5?$CFs?$AA@ 00636cec     total.obj
 0002:0000ad10       ??_C@_0EG@LLLMBGCG@CREATE?5ROLE?5?$CFs?5LOGIN?5UNENCRYPTED@ 00636d10     total.obj
 0002:0000ad64       ??_C@_0CN@KJABJLMJ@Create?5Database?3?5?$CFs?0?5user?3?5?$CFs?0?5p@ 00636d64     total.obj
 0002:0000ad9c       ??_C@_0BH@FEMGKGCE@?$CK?$CK?$CK?$FLJPEG?5Library?$FN?3?5?$CFs?6?$AA@ 00636d9c     total.obj
 0002:0000adb8       ??_C@_0CJ@EGEGNAEP@?$CK?$CK?$CK?$FLLIBJPEG?$FN?3?5Ran?5out?5of?5data?5in@ 00636db8     total.obj
 0002:0000adec       ??_C@_0DI@GGDHHJG@?$CK?$CK?$CK?$FLLIBJPEG?$FN?3?5Tried?5to?5skip?5past@ 00636dec     total.obj
 0002:0000ae30       ??_C@_0CJ@KKAHLKKM@?$CK?$CK?$CK?$FLDecompressJPEGL?$FN?3?5No?5image?5V@ 00636e30     total.obj
 0002:0000ae64       ??_C@_0CC@EDKLCNHC@JPEG?5decompress?5time?5?$CFu?5seconds?4@ 00636e64     total.obj
 0002:0000ae8c       ??_C@_0BF@LBNOLKNI@1?42?4840?410008?41?42?41?$AA?$AA@ 00636e8c     total.obj
 0002:0000aea8       ??_C@_04ONDKNGD@RGB?$AA?$AA@ 00636ea8     total.obj
 0002:0000aeb0       ??_C@_0CP@PNBCIMAN@Warn?$FLDecompressJPEGL?$FN?3?5Found?5?$CFd?5@ 00636eb0     total.obj
 0002:0000aee8       ??_C@_0EH@NACFOLOA@?$CK?$CK?$CK?$FLDecompressJPEGL?$FN?3?5Libjpeg?5co@ 00636ee8     total.obj
 0002:0000af40       ??_C@_0EF@HHNPBJED@?$CK?$CK?$CK?$FLDecompressJPEGL?$FN?3?5Could?5not?5@ 00636f40     total.obj
 0002:0000af98       ??_C@_0EO@NNKKFFBO@?$CK?$CK?$CK?$FLDecompressJPEGL?$FN?3?5Not?5graysc@ 00636f98     total.obj
 0002:0000aff8       ??_C@_0CK@NJJLAFAN@?$CK?$CK?$CK?$FLDecompressJPEGL?$FN?3?5No?5jpeg?5da@ 00636ff8     total.obj
 0002:0000b02c       ??_C@_0CD@JDIMNKO@?$CK?$CK?$CK?$FLDecompressJPEGL?$FN?3?5No?5image?5V@ 0063702c     total.obj
 0002:0000b058       ??_C@_0BK@OMCEKFJ@JPEG?5decompress?5started?4?6?$AA@ 00637058     total.obj
 0002:0000b078       ??_C@_0DJ@NJBAHAGF@?$CK?$CK?$CK?$FLDecompressJPEG2K?$FN?3?5No?5image?5@ 00637078     total.obj
 0002:0000b0bc       ??_C@_0CE@FFKNBCDI@Jasper?5decompress?5time?5?$CFu?5second@ 006370bc     total.obj
 0002:0000b0e8       ??_C@_0DA@LPGMBPJA@Warn?$FLDecompressJPEG2K?$FN?3?5Found?5?$CFd@ 006370e8     total.obj
 0002:0000b124       ??_C@_0DP@PGBKFFCL@?$CK?$CK?$CK?$FLDecompressJPEG2K?$FN?3?5Failed?5to@ 00637124     total.obj
 0002:0000b170       ??_C@_0EA@OAHNIIMP@?$CK?$CK?$CK?$FLDecompressJPEG2K?$FN?3?5Should?5be@ 00637170     total.obj
 0002:0000b1bc       ??_C@_0DO@KGKKKJFO@?$CK?$CK?$CK?$FLDecompressJPEG2K?$FN?3?5cannot?5de@ 006371bc     total.obj
 0002:0000b208       ??_C@_0DB@IENNLJLA@?$CK?$CK?$CK?$FLDecompressJPEG2K?$FN?3?5cannot?5op@ 00637208     total.obj
 0002:0000b248       ??_C@_0FO@PHLFKAGG@Info?$FLDecompressJPEG2K?$FN?5stream_le@ 00637248     total.obj
 0002:0000b2b8       ??_C@_0CK@JEFDKMKA@?$CK?$CK?$CK?$FLDecompressJPEG2K?$FN?3?5No?5j2k?5da@ 006372b8     total.obj
 0002:0000b2ec       ??_C@_0CE@PAMEALKK@?$CK?$CK?$CK?$FLDecompressJPEG2K?$FN?3?5No?5image?5@ 006372ec     total.obj
 0002:0000b318       ??_C@_0CA@EFCKJJJL@Jasper?5library?5init?5completed?4?6?$AA@ 00637318     total.obj
 0002:0000b340       ??_C@_0DH@BKLGBFDE@?$CK?$CK?$CK?$FLDecompressJPEG2K?$FN?3?5cannot?5in@ 00637340     total.obj
 0002:0000b384       ??_C@_0BM@HDNACBDJ@Jasper?5decompress?5started?4?6?$AA@ 00637384     total.obj
 0002:0000b3a8       ??_C@_0CM@OAJENCDG@?$CK?$CK?$CKFailed?5to?5create?5process?3?5?$CFs?5@ 006373a8     total.obj
 0002:0000b3dc       ??_C@_0BD@PAHJJOHJ@?$CFs?5?$CFs?5?$CC?$CFs?$CC?5?$CC?$CFs?$CC?5?$CFs?$AA@ 006373dc     total.obj
 0002:0000b3f8       ??_C@_0EA@EIPHFBIC@?$CK?$CK?$CK?$FLMakeSegTable?$FN?3?5?$CFd?5words?5woul@ 006373f8     total.obj
 0002:0000b444       ??_C@_0DH@BHLNPOHD@?$CK?$CK?$CK?$FLMakeSegTable?$FN?3?5A?5Linear?5Segm@ 00637444     total.obj
 0002:0000b488       ??_C@_0DJ@BKDHOFA@?$CK?$CK?$CK?$FLMakeSegTable?$FN?3?5Opt?5code?5wron@ 00637488     total.obj
 0002:0000b4d0       ??_C@_0FA@MKFFCJGK@?$CK?$CK?$CK?$FLMakeSegTable?$FN?3?5A?5count?5of?5?$CFd@ 006374d0     total.obj
 0002:0000b530       ??_C@_0DO@OIFPEECK@?$CK?$CK?$CK?$FLMakeSegTable?$FN?3?51?5word?5would?5@ 00637530     total.obj
 0002:0000b57c       ??_C@_0CC@LFBDAPEF@?$CK?$CK?$CK?$FLMakeSegTable?$FN?3?5Memory?5error?4@ 0063757c     total.obj
 0002:0000b5a4       ??_C@_0CI@JLBCCALN@?$CK?$CK?$CK?$FLDecodePalette?$FN?3?5Not?5Palette?5@ 006375a4     total.obj
 0002:0000b5d4       ??_C@_0CN@KEPPBDBP@?$CK?$CK?$CK?$FLDecodePalette?$FN?3?5No?5Palette?5i@ 006375d4     total.obj
 0002:0000b60c       ??_C@_0CM@NFOHDNFF@?$CK?$CK?$CK?$FLDecodePalette?$FN?3?5No?5palettes?5@ 0063760c     total.obj
 0002:0000b640       ??_C@_0N@NPDHKNFJ@MONOCHROME2?$AA?$AA@ 00637640     total.obj
 0002:0000b650       ??_C@_0DC@BKGGFDAO@?$CK?$CK?$CK?$FLDecodePalette?$FN?3?5Could?5not?5al@ 00637650     total.obj
 0002:0000b68c       ??_C@_0DE@HIOLIJBJ@?$CK?$CK?$CK?$FLDecodePalette?$FN?3?5Could?5not?5fi@ 0063768c     total.obj
 0002:0000b6cc       ??_C@_0N@HOPDENA@16?5bits?5in?4?6?$AA@ 006376cc     total.obj
 0002:0000b6dc       ??_C@_0M@EAJAFDIJ@8?5bits?5in?4?6?$AA@ 006376dc     total.obj
 0002:0000b6ec       ??_C@_09HDJKFOEK@MSB?5from?5?$AA@ 006376ec     total.obj
 0002:0000b6f8       ??_C@_09JMFIDFHE@LSB?5from?5?$AA@ 006376f8     total.obj
 0002:0000b704       ??_C@_0BN@IFCIIJBD@Output?5data?5is?5bytes?5in?5the?5?$AA@ 00637704     total.obj
 0002:0000b728       ??_C@_0BL@ECIJLCDI@Output?5data?5is?5words?5from?5?$AA@ 00637728     total.obj
 0002:0000b748       ??_C@_0CO@GKNOLCIE@?$CK?$CK?$CK?$FLDecodePalette?$FN?3?5The?5whole?5ta@ 00637748     total.obj
 0002:0000b780       ??_C@_0CI@PFKNHPK@?$CFd?5components?5in?5segmented?5palet@ 00637780     total.obj
 0002:0000b7b0       ??_C@_0DB@FBKHEILG@?$CK?$CK?$CK?$FLDecodePalette?$FN?3?5Green?5palett@ 006377b0     total.obj
 0002:0000b7ec       ??_C@_0DA@GBLCGBLG@?$CK?$CK?$CK?$FLDecodePalette?$FN?3?5Blue?5palette@ 006377ec     total.obj
 0002:0000b828       ??_C@_0ED@OHABNPAP@?$CK?$CK?$CK?$FLDecodePalette?$FN?3?5Blue?5palette@ 00637828     total.obj
 0002:0000b878       ??_C@_0ED@GCDOPCPL@?$CK?$CK?$CK?$FLDecodePalette?$FN?3?5Green?5palett@ 00637878     total.obj
 0002:0000b8c8       ??_C@_0DP@KMABAFKG@?$CK?$CK?$CK?$FLDecodePalette?$FN?3?5Green?5palett@ 006378c8     total.obj
 0002:0000b914       ??_C@_0DO@CEDLJFEL@?$CK?$CK?$CK?$FLDecodePalette?$FN?3?5Blue?5palette@ 00637914     total.obj
 0002:0000b960       ??_C@_0CH@KNKJCMGB@?$CFd?5components?5in?5standard?5palett@ 00637960     total.obj
 0002:0000b990       ??_C@_0EG@EMPLMOFD@?$CK?$CK?$CK?$FLDecodePalette?$FN?3?5Palette?5leng@ 00637990     total.obj
 0002:0000b9e4       ??_C@_0DK@EFCNAHON@Palette?5table?5size?5?$DN?5?$CFd?0?5Minimum@ 006379e4     total.obj
 0002:0000ba2c       ??_C@_0DF@PBHMBLEN@?$CK?$CK?$CK?$FLDecodePalette?$FN?3?5?$CFd?5component@ 00637a2c     total.obj
 0002:0000ba6c       ??_C@_0CE@PKFNFNJP@Found?5Palette?5Color?0?5depalatizin@ 00637a6c     total.obj
 0002:0000ba98       ??_C@_0EA@OBBIEDOM@?$CK?$CK?$CK?$FLDecodePalette?$FN?3?5Palette?5colo@ 00637a98     total.obj
 0002:0000bae4       ??_C@_0O@LLEFCMPO@PALETTE?5COLOR?$AA@ 00637ae4     total.obj
 0002:0000baf4       ??_C@_02EKAOBDLE@ue?$AA@   00637af4     total.obj
 0002:0000baf8       ??_C@_02FEPIFHD@ub?$AA@    00637af8     total.obj
 0002:0000bafc       ??_C@_02JLMMKIPN@ul?$AA@   00637afc     total.obj
 0002:0000bb00       ??_C@_0FD@MOBJAODE@Warning?3?5use?5of?5as?5is?5compressio@ 00637b00     total.obj
 0002:0000bb64       ??_C@_02EDKKPMHH@is?$AA@   00637b64     total.obj
 0002:0000bb68       ??_C@_0O@CILHOOHN@pdatedatabase?$AA@ 00637b68     total.obj
 0002:0000bb78       ??_C@_0O@NFOIAJON@nknownrequest?$AA@ 00637b78     total.obj
 0002:0000bb88       ??_C@_08PCDIILCJ@otaltime?$AA@ 00637b88     total.obj
 0002:0000bb94       ??_C@_0L@DJGGPHON@hreadcount?$AA@ 00637b94     total.obj
 0002:0000bba4       ??_C@_08FBEFGOGP@tarttime?$AA@ 00637ba4     total.obj
 0002:0000bbb0       ??_C@_0BE@EPOKBFLH@kippedcachedupdates?$AA@ 00637bb0     total.obj
 0002:0000bbc8       ??_C@_0BJ@DDLHDFFF@etbasicgrayscaleimagebox?$AA@ 00637bc8     total.obj
 0002:0000bbe8       ??_C@_0BD@LIBNEOAP@etbasicfilmsession?$AA@ 00637be8     total.obj
 0002:0000bc00       ??_C@_0P@HLKOEOMJ@etbasicfilmbox?$AA@ 00637c00     total.obj
 0002:0000bc14       ??_C@_0BF@GEFBEPGK@etbasiccolorimagebox?$AA@ 00637c14     total.obj
 0002:0000bc30       ??_C@_07EDOEMCFM@avetime?$AA@ 00637c30     total.obj
 0002:0000bc3c       ??_C@_0O@KGFNLFHA@ecompresstime?$AA@ 00637c3c     total.obj
 0002:0000bc4c       ??_C@_08HOOKGHAI@uerytime?$AA@ 00637c4c     total.obj
 0002:0000bc58       ??_C@_0M@CHLAGIH@ueryfromgui?$AA@ 00637c58     total.obj
 0002:0000bc68       ??_C@_0L@KNPAGFKM@rocesstime?$AA@ 00637c68     total.obj
 0002:0000bc78       ??_C@_0P@FIEJBCGL@penthreadcount?$AA@ 00637c78     total.obj
 0002:0000bc8c       ??_C@_0BE@LNGLGBOG@kiprivatedecompress?$AA@ 00637c8c     total.obj
 0002:0000bca4       ??_C@_0BC@EDGGPKFJ@kiprivatecompress?$AA@ 00637ca4     total.obj
 0002:0000bcbc       ??_C@_0L@MKAMEEMG@umindexing?$AA@ 00637cbc     total.obj
 0002:0000bccc       ??_C@_0BA@BGLLOHFL@ovestudyfromgui?$AA@ 00637ccc     total.obj
 0002:0000bce0       ??_C@_0BC@BFLCKDA@ovestudiesfromgui?$AA@ 00637ce0     total.obj
 0002:0000bcf8       ??_C@_0BB@FDGEOAIP@oveseriesfromgui?$AA@ 00637cf8     total.obj
 0002:0000bd0c       ??_C@_0BC@CHJFMONK@ovepatientfromgui?$AA@ 00637d0c     total.obj
 0002:0000bd24       ??_C@_07DPELKBIL@oadtime?$AA@ 00637d24     total.obj
 0002:0000bd30       ??_C@_0BC@LFKANBKG@magestogiffromgui?$AA@ 00637d30     total.obj
 0002:0000bd48       ??_C@_0BE@HOLIIOCP@magestodicomfromgui?$AA@ 00637d48     total.obj
 0002:0000bd60       ??_C@_09EGPCPPNH@magessent?$AA@ 00637d60     total.obj
 0002:0000bd6c       ??_C@_0L@GEKJALNM@magessaved?$AA@ 00637d6c     total.obj
 0002:0000bd7c       ??_C@_0O@JHPDDLPO@magesreceived?$AA@ 00637d7c     total.obj
 0002:0000bd8c       ??_C@_0P@JFLMCC@magesforwarded?$AA@ 00637d8c     total.obj
 0002:0000bda0       ??_C@_0O@PCHIPLJB@magesexported?$AA@ 00637da0     total.obj
 0002:0000bdb0       ??_C@_0M@BHBAEEMG@magescopied?$AA@ 00637db0     total.obj
 0002:0000bdc0       ??_C@_0BE@LNBNKLEO@ncomingassociations?$AA@ 00637dc0     total.obj
 0002:0000bdd8       ??_C@_09CLHOMHBE@uirequest?$AA@ 00637dd8     total.obj
 0002:0000bde4       ??_C@_0L@MLABLAOP@rabfromgui?$AA@ 00637de4     total.obj
 0002:0000bdf4       ??_C@_03OFGHMCBK@pps?$AA@  00637df4     total.obj
 0002:0000bdf8       ??_C@_07EFKKCHFF@ppstime?$AA@ 00637df8     total.obj
 0002:0000be04       ??_C@_0P@IBMNOPHG@orwardfromguik?$AA@ 00637e04     total.obj
 0002:0000be18       ??_C@_0O@PGAMJFMC@xtractfromgui?$AA@ 00637e18     total.obj
 0002:0000be28       ??_C@_0L@MLAPJNGF@chorequest?$AA@ 00637e28     total.obj
 0002:0000be38       ??_C@_0BB@DDODPDIF@umpheaderfromgui?$AA@ 00637e38     total.obj
 0002:0000be4c       ??_C@_0N@BKAJLLGC@ownsizeimage?$AA@ 00637e4c     total.obj
 0002:0000be5c       ??_C@_07KBKOOIOG@eplaned?$AA@ 00637e5c     total.obj
 0002:0000be68       ??_C@_09HEPEFFJJ@epaletted?$AA@ 00637e68     total.obj
 0002:0000be74       ??_C@_0BC@CEOCPOBG@eletestudyfromgui?$AA@ 00637e74     total.obj
 0002:0000be8c       ??_C@_0BE@CAOHIBOB@eletestudiesfromgui?$AA@ 00637e8c     total.obj
 0002:0000bea4       ??_C@_0BD@FLDLIELL@eleteseriesfromgui?$AA@ 00637ea4     total.obj
 0002:0000bebc       ??_C@_0BE@GCJGFAL@eletepatientfromgui?$AA@ 00637ebc     total.obj
 0002:0000bed4       ??_C@_0BC@IEOHFEKI@eleteimagefromgui?$AA@ 00637ed4     total.obj
 0002:0000beec       ??_C@_0BG@JGJJGEAJ@eletebasicfilmsession?$AA@ 00637eec     total.obj
 0002:0000bf08       ??_C@_0BC@GLJGNNKH@eletebasicfilmbox?$AA@ 00637f08     total.obj
 0002:0000bf20       ??_C@_0P@FHEGPFEF@ecompressejpeg?$AA@ 00637f20     total.obj
 0002:0000bf34       ??_C@_0BD@JMAOPFME@ecompressejpeg2000?$AA@ 00637f34     total.obj
 0002:0000bf4c       ??_C@_0P@HPJINKKC@ecompressedrle?$AA@ 00637f4c     total.obj
 0002:0000bf60       ??_C@_0BF@EBGBKPOI@atabaseupdaterecords?$AA@ 00637f60     total.obj
 0002:0000bf7c       ??_C@_0N@KEJPDFCF@atabasequery?$AA@ 00637f7c     total.obj
 0002:0000bf8c       ??_C@_0M@GJFBAFHC@atabaseopen?$AA@ 00637f8c     total.obj
 0002:0000bf9c       ??_C@_0BE@OCNLAMKB@atabasedeleterecord?$AA@ 00637f9c     total.obj
 0002:0000bfb4       ??_C@_0N@PHJLEEI@atabaseclose?$AA@ 00637fb4     total.obj
 0002:0000bfc4       ??_C@_0BD@OHKFEKPO@atabasecreatetable?$AA@ 00637fc4     total.obj
 0002:0000bfdc       ??_C@_0BB@FNLGGEKC@atabaseaddrecord?$AA@ 00637fdc     total.obj
 0002:0000bff0       ??_C@_0BF@ICCJDHBH@eatebasicfilmsession?$AA@ 00637ff0     total.obj
 0002:0000c00c       ??_C@_0BB@HDNEICLK@eatebasicfilmbox?$AA@ 0063800c     total.obj
 0002:0000c020       ??_C@_0M@HJJAFPMA@ompressjpeg?$AA@ 00638020     total.obj
 0002:0000c030       ??_C@_0BA@JJNCAECN@ompressjpeg2000?$AA@ 00638030     total.obj
 0002:0000c044       ??_C@_0BA@JPPCOFDL@_move_studyroot?$AA@ 00638044     total.obj
 0002:0000c058       ??_C@_0BD@HDMAOKGI@_move_studyrootnki?$AA@ 00638058     total.obj
 0002:0000c070       ??_C@_0BH@KFPKDMAA@_move_patientstudyonly?$AA@ 00638070     total.obj
 0002:0000c08c       ??_C@_0BK@FNPBGEH@_move_patientstudyonlynki?$AA@ 0063808c     total.obj
 0002:0000c0ac       ??_C@_0BC@KPKLMDOJ@_move_patientroot?$AA@ 006380ac     total.obj
 0002:0000c0c4       ??_C@_0BF@CMKEGBHC@_move_patientrootnki?$AA@ 006380c4     total.obj
 0002:0000c0e0       ??_C@_0BA@MMGFDBKL@_find_studyroot?$AA@ 006380e0     total.obj
 0002:0000c0f4       ??_C@_0BG@KBPFODLN@_find_patienstudyonly?$AA@ 006380f4     total.obj
 0002:0000c110       ??_C@_0BC@FPFEAMKJ@_find_patientroot?$AA@ 00638110     total.obj
 0002:0000c128       ??_C@_0BH@CJDPLCHB@_find_modalityworklist?$AA@ 00638128     total.obj
 0002:0000c144       ??_C@_0BA@HEBMJGEE@ddedfilefromgui?$AA@ 00638144     total.obj
 0002:0000c158       ??_C@_0N@EAOGFFI@ddeddatabase?$AA@ 00638158     total.obj
 0002:0000c168       ??_C@_0BG@BNCKMLLA@ctionbasicfilmsession?$AA@ 00638168     total.obj
 0002:0000c184       ??_C@_0BC@OGCHGGFF@ctionbasicfilmbox?$AA@ 00638184     total.obj
 0002:0000c19c       ??_C@_0BD@LBDDOEHA@ransmitcompression?$AA@ 0063819c     total.obj
 0002:0000c1b4       ??_C@_07BKFGKDJP@estmode?$AA@ 006381b4     total.obj
 0002:0000c1c0       ??_C@_0M@HKDCFDHJ@tatusString?$AA@ 006381c0     total.obj
 0002:0000c1d0       ??_C@_09IBFAJOKA@ootconfig?$AA@ 006381d0     total.obj
 0002:0000c1dc       ??_C@_0BN@JEHDGEHH@efaultnkitransmitcompression?$AA@ 006381dc     total.obj
 0002:0000c200       ??_C@_09LMHIJKGI@onfigfile?$AA@ 00638200     total.obj
 0002:0000c20c       ??_C@_06HNHNGLAN@asedir?$AA@ 0063820c     total.obj
 0002:0000c214       ??_C@_03OFAPEBGM@?$CFs?6?$AA@ 00638214     total.obj
 0002:0000c218       ??_C@_05CJABLFPO@?$CFs?3?$CFp?$AA@ 00638218     total.obj
 0002:0000c220       ??_C@_03ILAMHENH@nil?$AA@  00638220     total.obj
 0002:0000c224       ??_C@_01GPOEFGEJ@?7?$AA@   00638224     total.obj
 0002:0000c228       ??_C@_0BM@HOPBEGKH@HL7?5item?3?5?$CFs?0?5contents?3?5?$CFs?6?$AA@ 00638228     total.obj
 0002:0000c24c       ??_C@_05FEDNKDBF@UNK?40?$AA@ 0063824c     total.obj
 0002:0000c254       ??_C@_03EMGAHDFJ@EOM?$AA@  00638254     total.obj
 0002:0000c258       ??_C@_03JICBEMIG@EOS?$AA@  00638258     total.obj
 0002:0000c25c       ??_C@_03OBJPPFOH@MSH?$AA@  0063825c     total.obj
 0002:0000c260       ??_C@_04FPHBLED@?4END?$AA@ 00638260     total.obj
 0002:0000c268       ??_C@_02ONCLHLPE@?40?$AA@  00638268     total.obj
 0002:0000c26c       ??_C@_04OHBONDIN@TIME?$AA@ 0063826c     total.obj
 0002:0000c274       ??_C@_05BLPLMGOH@?4DATE?$AA@ 00638274     total.obj
 0002:0000c27c       ??_C@_04EHCOLKND@?$HM?$CFs?$HM?$AA@ 0063827c     total.obj
 0002:0000c284       ??_C@_0DM@FHNBENEC@?$CK?$CK?$CKA?5fatal?5error?5occurred?5?$CIout?5o@ 00638284     total.obj
 0002:0000c2cc       ??_C@_0BM@IKKPIECK@Database?5?$CFs?5has?5?$CFd?5records?6?$AA@ 006382cc     total.obj
 0002:0000c2f0       ??_C@_0CJ@PNHDILPN@Database?5type?3?5NULL?5driver?5?$CIblac@ 006382f0     total.obj
 0002:0000c324       ??_C@_0DJ@GHIEDFEK@Database?5type?3?5built?9in?5Dbase?5dr@ 00638324     total.obj
 0002:0000c368       ??_C@_0CG@IJEDONLO@Database?5type?3?5built?9in?5Dbase?5dr@ 00638368     total.obj
 0002:0000c398       ??_C@_0CH@MFGCJEGO@Database?5type?3?5built?9in?5SQLite?5d@ 00638398     total.obj
 0002:0000c3c8       ??_C@_0CI@BKKCBFJ@Database?5type?3?5native?5MySQL?5conn@ 006383c8     total.obj
 0002:0000c3f8       ??_C@_0CL@JFJPPCIJ@Database?5type?3?5native?5PostGres?5c@ 006383f8     total.obj
 0002:0000c42c       ??_C@_0CA@CEPBDKP@Database?5type?3?5ODBC?5connection?6?$AA@ 0063842c     total.obj
 0002:0000c454       ??_C@_0BM@KDMAGLLN@Space?5on?5CACHE?$CFd?3?5?$CFd?5MByte?6?$AA@ 00638454     total.obj
 0002:0000c478       ??_C@_0BM@LMBHOFBM@Space?5on?5MAG?$CFd?5?5?3?5?$CFd?5MByte?6?$AA@ 00638478     total.obj
 0002:0000c4a0       ??_C@_0HC@HKMFEPHP@Images?5?$CIde?$CJcompressed?3?5NKI?5?$CFd?0?5J@ 006384a0     total.obj
 0002:0000c528       ??_C@_0DK@JHCFECNL@Activity?3?5Echo?3?$CFd?0?5Find?3?$CFd?0?5Move@ 00638528     total.obj
 0002:0000c570       ??_C@_0CA@PPEANDBA@Images?5printed?$DN?$CFd?0?5in?5color?$DN?$CFd?6?$AA@ 00638570     total.obj
 0002:0000c598       ??_C@_0FC@KNLFFLEM@Associations?$DN?$CFd?$DL?5Threads?$DN?$CFd?5?$CI?$CFd?5@ 00638598     total.obj
 0002:0000c600       ??_C@_0FF@OJGNFBDK@Run?5time?5?$CIs?$CJ?5total?5?$CFd?0?5query?5?$CFd?0@ 00638600     total.obj
 0002:0000c668       ??_C@_0EJ@DGMPLLNK@Old?5JPEG?5decoder?$DN?$CFd?0?5JPEGLIB?5jpe@ 00638668     total.obj
 0002:0000c6c0       ??_C@_0EE@DHHPGJDM@DICOM?5server?5?8?$CFs?8?5?$CIversion?5?$CFs?0?5p@ 006386c0     total.obj
 0002:0000c714       ??_C@_0BO@NDNGENMC@?7?7Transfer?5Syntax?5?$CFd?5?$CC?$CFs?$CC?5?$CFd?6?$AA@ 00638714     total.obj
 0002:0000c738       ??_C@_0CC@CGNDFPCE@?7Presentation?5Context?5?$CFd?5?$CC?$CFs?$CC?5?$CFd@ 00638738     total.obj
 0002:0000c760       ??_C@_0CP@HLGLPGFM@?7Number?5of?5Proposed?5Presentation@ 00638760     total.obj
 0002:0000c798       ??_C@_0CN@CDCCFFOL@?7Application?5Context?5?3?5?$CC?$CFs?$CC?0?5PDU@ 00638798     total.obj
 0002:0000c7d0       ??_C@_0CC@MLBJMPEF@?7Called?5Application?5Title?5?3?5?$CC?$CFs?$CC@ 006387d0     total.obj
 0002:0000c7f8       ??_C@_0CD@EFLMEFC@?7Calling?5Application?5Title?5?3?5?$CC?$CFs@ 006387f8     total.obj
 0002:0000c824       ??_C@_0BM@BPBDHBH@A?9ASSOCIATE?9RQ?5Packet?5Dump?6?$AA@ 00638824     total.obj
 0002:0000c848       ??_C@_0CE@ICFBHLMD@?$CFs?$CF4?44x?0?$CF4?44x?5?$CF6u?5UN?5?$CF?920?420s?5?5?5@ 00638848     total.obj
 0002:0000c874       ??_C@_0CE@HPAOLKA@?$CFs?$CF4?44x?0?$CF4?44x?5?$CF6d?5UN?5?$CF?920?420s?5?5?5@ 00638874     total.obj
 0002:0000c8a0       ??_C@_0CG@KDOECPKB@?$CFs?$CF4?44x?0?$CF4?44x?5?$CF6u?5?$CFc?$CFc?5?$CF?920?420s?5@ 006388a0     total.obj
 0002:0000c8d0       ??_C@_01JOAMLHOP@?9?$AA@   006388d0     total.obj
 0002:0000c8d4       ??_C@_0CL@DGEMJHEA@Free?5space?5on?5CACHE?5Device?5?$CFd?5?3?$DN@ 006388d4     total.obj
 0002:0000c908       ??_C@_0CM@MCIFMNG@Free?5space?5on?5MIRROR?5Device?5?$CFd?5?3@ 00638908     total.obj
 0002:0000c93c       ??_C@_0CL@CDKDBMMA@Free?5space?5on?5MAG?5?5?5Device?5?$CFd?5?3?$DN@ 0063893c     total.obj
 0002:0000c970       ??_C@_0BF@NMJMOHGG@?$CK?$CK?5MAG?5DEVICE?5CHECK?6?$AA@ 00638970     total.obj
 0002:0000c98c       ??_C@_0CO@FFBBBBEN@0x?$CF4?44x?00x?$CF4?44x?5?5?$CF10s?5?5?$CF4d?5?5?$CF10s@ 0063898c     total.obj
 0002:0000c9c4       ??_C@_0BJ@CMPCFPIF@?9?9WorkList?5Database?3?5?$CFs?6?$AA@ 006389c4     total.obj
 0002:0000c9e4       ??_C@_0BG@BEODIMBE@?9?9Image?5Database?3?5?$CFs?6?$AA@ 006389e4     total.obj
 0002:0000ca00       ??_C@_0BH@EDNHMCKJ@?9?9Series?5Database?3?5?$CFs?6?$AA@ 00638a00     total.obj
 0002:0000ca1c       ??_C@_0BG@FJKFBMBE@?9?9Study?5Database?3?5?$CFs?6?$AA@ 00638a1c     total.obj
 0002:0000ca38       ??_C@_0BI@BPNEKMJN@?9?9Patient?5Database?3?5?$CFs?6?$AA@ 00638a38     total.obj
 0002:0000ca54       ??_C@_0BO@KGPGJONA@?$CK?$CK?7Database?5Description?5dump?6?$AA@ 00638a54     total.obj
 0002:0000ca78       ??_C@_02LLHBNMHC@?46?$AA@  00638a78     total.obj
 0002:0000ca7c       ??_C@_0CE@GMICJBA@?$CK?$CK?$CKFailed?5to?5create?5process?5?$CFs?3?5@ 00638a7c     total.obj
 0002:0000caa8       ??_C@_06DIJPEION@?$CFs?$CFs?$CFs?$AA@ 00638aa8     total.obj
 0002:0000cab0       ??_C@_09GDIMAJBD@?$CFs?$CFs?$CFs?5?$CFs?$AA@ 00638ab0     total.obj
 0002:0000cabc       ??_C@_0CD@KKOKJAPM@?$CK?$CK?$CKWriting?5mirror?5copy?5failed?3?5?$CF@ 00638abc     total.obj
 0002:0000cae8       ??_C@_0BB@GMFJFHNB@Mirror?5copy?3?5?$CFs?6?$AA@ 00638ae8     total.obj
 0002:0000cafc       ??_C@_01GEODFPGF@?8?$AA@   00638afc     total.obj
 0002:0000cb00       ??_C@_04BINFPDBP@?5?$DN?5?8?$AA@ 00638b00     total.obj
