 dicomp

 Timestamp is 51685473 (Fri Apr 12 14:37:39 2013)

 Preferred load address is 00400000

 Start         Length     Name                   Class
 0001:00000000 0006ffd0H .text                   CODE
 0001:0006ffd0 00006a3eH .text$x                 CODE
 0001:00076a0e 000010caH .text$yc                CODE
 0001:00077ad8 00001070H .text$yd                CODE
 0002:00000000 00000104H .CRT$XCA                DATA
 0002:00000104 00000121H .CRT$XCC                DATA
 0002:00000228 00000104H .CRT$XCU                DATA
 0002:0000032c 00000104H .CRT$XCZ                DATA
 0002:00000430 00000104H .CRT$XIA                DATA
 0002:00000534 00000118H .CRT$XIC                DATA
 0002:0000064c 00000104H .CRT$XID                DATA
 0002:00000750 00000104H .CRT$XIY                DATA
 0002:00000854 00000104H .CRT$XIZ                DATA
 0002:00000958 00000104H .CRT$XPA                DATA
 0002:00000a5c 00000104H .CRT$XPX                DATA
 0002:00000b60 00000104H .CRT$XPXA               DATA
 0002:00000c64 00000104H .CRT$XPZ                DATA
 0002:00000d68 00000104H .CRT$XTA                DATA
 0002:00000e6c 00000104H .CRT$XTZ                DATA
 0002:00000f70 00006924H .rdata                  DATA
 0002:00007894 0000014aH .rdata$debug            DATA
 0002:000079e0 0000335cH .rdata$r                DATA
 0002:0000ad40 00000696H .rdata$sxdata           DATA
 0002:0000b3d8 00000104H .rtc$IAA                DATA
 0002:0000b4dc 00000104H .rtc$IZZ                DATA
 0002:0000b5e0 00000104H .rtc$TAA                DATA
 0002:0000b6e4 00000104H .rtc$TZZ                DATA
 0002:0000b7e8 00005fa4H .xdata$x                DATA
 0002:0001178c 00000000H .edata                  DATA
 0003:00000000 00002d40H .data                   DATA
 0003:00002d40 000024a4H .bss                    DATA
 0004:00000000 00000028H .idata$2                DATA
 0004:00000028 00000014H .idata$3                DATA
 0004:0000003c 0000025cH .idata$4                DATA
 0004:00000298 0000025cH .idata$5                DATA
 0004:000004f4 00000833H .idata$6                DATA

  Address         Publics by Value              Rva+Base       Lib:Object

 0000:00000000       __except_list              00000000     <absolute>
 0000:0000012a       ___safe_se_handler_count   0000012a     <absolute>
 0000:00000000       ___ImageBase               00400000     <linker-defined>
 0001:00001330       ??0id@locale@std@@QAE@I@Z  00402330 f i dicomp.obj
 0001:00001340       ??0UID@@QAE@XZ             00402340 f i dicomp.obj
 0001:00001370       ?Set@UID@@QAEXPAE@Z        00402370 f i dicomp.obj
 0001:000013c0       ?GetBuffer@UID@@QAEPAEI@Z  004023c0 f i dicomp.obj
 0001:000013d0       ?SetLength@UID@@QAEXI@Z    004023d0 f i dicomp.obj
 0001:00001400       ?GetSize@UID@@QAEIXZ       00402400 f i dicomp.obj
 0001:00001410       ??4UID@@QAE?AV0@AAV0@@Z    00402410 f i dicomp.obj
 0001:00001470       ??4AbstractSyntax@@QAEAAV0@AAV0@@Z 00402470 f i dicomp.obj
 0001:000014e0       ??4TransferSyntax@@QAEAAV0@AAV0@@Z 004024e0 f i dicomp.obj
 0001:00001560       ?IsAlpha@@YAHE@Z           00402560 f   dicomp.obj
 0001:00001590       ?IsDataAlpha@@YAHIPAE@Z    00402590 f   dicomp.obj
 0001:000015e0       ?PrintUDATA@@YAHIPAXG@Z    004025e0 f   dicomp.obj
 0001:00001ab0       ?DumpVR@@YAHPAVVR@@PAVRTC@@@Z 00402ab0 f   dicomp.obj
 0001:00001be0       ??0DICOMDataObject@@QAE@XZ 00402be0 f i dicomp.obj
 0001:00001c50       ??1DICOMDataObject@@UAE@XZ 00402c50 f i dicomp.obj
 0001:00001cb0       ??_GDICOMDataObject@@UAEPAXI@Z 00402cb0 f i dicomp.obj
 0001:00001cb0       ??_EDICOMDataObject@@UAEPAXI@Z 00402cb0 f i dicomp.obj
 0001:00001d20       ??_GVR@@QAEPAXI@Z          00402d20 f i dicomp.obj
 0001:00001d50       ??0PolaroidPDU_Service@@QAE@XZ 00402d50 f i dicomp.obj
 0001:00001e10       ?ShouldIAcceptRemoteApTitle@PDU_Service@@MAEHPAE@Z 00402e10 f i dicomp.obj
 0001:00001e20       ?ShouldIAcceptLocalApTitle@PDU_Service@@MAEHPAE@Z 00402e20 f i dicomp.obj
 0001:00001e30       ?ShouldIAcceptApplicationContext@PDU_Service@@MAEHAAVApplicationContext@@@Z 00402e30 f i dicomp.obj
 0001:00001e40       ?ShouldIAcceptPresentationContext@PDU_Service@@MAEHAAVPresentationContext@@AAVPresentationContextAccept@@@Z 00402e40 f i dicomp.obj
 0001:00001e50       ?ShouldIAcceptAbstractSyntax@PDU_Service@@MAEHAAVAbstractSyntax@@@Z 00402e50 f i dicomp.obj
 0001:00001e60       ?ReadBinary@PDU_Service@@UAEHPAEI@Z 00402e60 f i dicomp.obj
 0001:00001e70       ?SendBinary@PDU_Service@@UAEHPAEI@Z 00402e70 f i dicomp.obj
 0001:00001e80       ??1PolaroidPDU_Service@@UAE@XZ 00402e80 f i dicomp.obj
 0001:00001ee0       ??_EPolaroidPDU_Service@@UAEPAXI@Z 00402ee0 f i dicomp.obj
 0001:00001ee0       ??_GPolaroidPDU_Service@@UAEPAXI@Z 00402ee0 f i dicomp.obj
 0001:00001f50       ??1BasicGrayscalePrintManagementMeta@@UAE@XZ 00402f50 f i dicomp.obj
 0001:00001fb0       ??0NSetRQ@@QAE@XZ          00402fb0 f i dicomp.obj
 0001:00001fc0       ??0NSetRSP@@QAE@XZ         00402fc0 f i dicomp.obj
 0001:00001fd0       ??0DICOMCommandObject@@QAE@XZ 00402fd0 f i dicomp.obj
 0001:00002040       ??1DICOMCommandObject@@UAE@XZ 00403040 f i dicomp.obj
 0001:000020a0       ??_GDICOMCommandObject@@UAEPAXI@Z 004030a0 f i dicomp.obj
 0001:000020a0       ??_EDICOMCommandObject@@UAEPAXI@Z 004030a0 f i dicomp.obj
 0001:00002110       ?GetSize@?$Array@VTransferSyntax@@@@QAEIXZ 00403110 f i dicomp.obj
 0001:00002120       ??4?$Array@VTransferSyntax@@@@QAEABV0@AAV0@@Z 00403120 f i dicomp.obj
 0001:00002150       ?GetSize@?$Array@VPresentationContext@@@@QAEIXZ 00403150 f i dicomp.obj
 0001:00002160       ?GetSize@?$Array@VPresentationContextAccept@@@@QAEIXZ 00403160 f i dicomp.obj
 0001:00002170       ?GetSize@?$Array@PAVDICOMDataObject@@@@QAEIXZ 00403170 f i dicomp.obj
 0001:00002180       ??0?$Array@PAVDICOMDataObject@@@@QAE@XZ 00403180 f i dicomp.obj
 0001:000021b0       ?Get@?$Array@VTransferSyntax@@@@QAEAAVTransferSyntax@@I@Z 004031b0 f i dicomp.obj
 0001:00002250       ?Get@?$Array@VPresentationContext@@@@QAEAAVPresentationContext@@I@Z 00403250 f i dicomp.obj
 0001:000022f0       ?Get@?$Array@VPresentationContextAccept@@@@QAEAAVPresentationContextAccept@@I@Z 004032f0 f i dicomp.obj
 0001:00002390       ?Get@?$Array@PAVDICOMDataObject@@@@QAEAAPAVDICOMDataObject@@I@Z 00403390 f i dicomp.obj
 0001:00002430       ??0?$DataLink@PAVDICOMDataObject@@@@QAE@XZ 00403430 f i dicomp.obj
 0001:00002440       ?RemoveAt@?$Array@PAVDICOMDataObject@@@@QAEHI@Z 00403440 f i dicomp.obj
 0001:000024f0       ??_EPolaroidPDU_Service@@WCAM@AEPAXI@Z 004034f0 f i dicomp.obj
 0001:00002500       ??_EPolaroidPDU_Service@@WDMI@AEPAXI@Z 00403500 f i dicomp.obj
 0001:00002510       ??_EPolaroidPDU_Service@@WDOI@AEPAXI@Z 00403510 f i dicomp.obj
 0001:00002520       ??_EPolaroidPDU_Service@@WEAI@AEPAXI@Z 00403520 f i dicomp.obj
 0001:00002530       ??_EPolaroidPDU_Service@@WFA@AEPAXI@Z 00403530 f i dicomp.obj
 0001:00002540       ??_EPolaroidPDU_Service@@WDNI@AEPAXI@Z 00403540 f i dicomp.obj
 0001:00002550       ??_EPolaroidPDU_Service@@WDPI@AEPAXI@Z 00403550 f i dicomp.obj
 0001:00002560       ??0UID@@QAE@PBD@Z          00403560 f i dicomp.obj
 0001:000025b0       ?FixPolaroidConnection@PolaroidPDU_Service@@QAEHXZ 004035b0 f i dicomp.obj
 0001:00002710       ??4PresentationContext@@QAEAAV0@AAV0@@Z 00403710 f i dicomp.obj
 0001:00002790       ??4PresentationContextAccept@@QAEAAV0@AAV0@@Z 00403790 f i dicomp.obj
 0001:000027f0       ?DumpDDO@@YAHPAVDICOMDataObject@@IPAVRTC@@@Z 004037f0 f   dicomp.obj
 0001:000029d0       ?StripDDOForPrinting@@YAHPAVDICOMDataObject@@@Z 004039d0 f   dicomp.obj
 0001:00002be0       ??1MyGrayscalePrintManagement@@UAE@XZ 00403be0 f i dicomp.obj
 0001:00002c40       ??0StandardBox@@QAE@XZ     00403c40 f i dicomp.obj
 0001:00002c60       ?GetUID@StandardBox@@UAEHAAVUID@@@Z 00403c60 f i dicomp.obj
 0001:00002c70       ?GetUID@StandardBox@@W3AEHAAVUID@@@Z 00403c70 f i dicomp.obj
 0001:00002c80       ?Add@?$Array@PAVDICOMDataObject@@@@QAEAAPAVDICOMDataObject@@AAPAV2@@Z 00403c80 f i dicomp.obj
 0001:00002d40       ??1?$Array@PAVDICOMDataObject@@@@UAE@XZ 00403d40 f i dicomp.obj
 0001:00002df0       ?Dump@@YAXAAVAAssociateRQ@@@Z 00403df0 f   dicomp.obj
 0001:000031e0       ?Dump@@YAXAAVAAssociateAC@@@Z 004041e0 f   dicomp.obj
 0001:00003510       ??0BasicGrayscaleImageBox@@QAE@XZ 00404510 f i dicomp.obj
 0001:00003530       ??_E?$Array@PAVDICOMDataObject@@@@UAEPAXI@Z 00404530 f i dicomp.obj
 0001:00003530       ??_G?$Array@PAVDICOMDataObject@@@@UAEPAXI@Z 00404530 f i dicomp.obj
 0001:00003560       ??0BasicGrayscalePrintManagementMeta@@QAE@XZ 00404560 f i dicomp.obj
 0001:00003600       ?ActionStore@AbstractFilmSession@@UAEHPAVDICOMDataObject@@@Z 00404600 f i dicomp.obj
 0001:00003610       ?ActionRetreive@AbstractFilmSession@@UAEHPAVDICOMDataObject@@@Z 00404610 f i dicomp.obj
 0001:00003620       ?GetImageBox@BasicGrayscalePrintManagementMeta@@EAEPAVStandardBox@@XZ 00404620 f i dicomp.obj
 0001:00003630       ?GetLUTBox@BasicGrayscalePrintManagementMeta@@EAEPAVStandardAdvancedBox@@XZ 00404630 f i dicomp.obj
 0001:00003640       ??_EBasicGrayscalePrintManagementMeta@@UAEPAXI@Z 00404640 f i dicomp.obj
 0001:00003640       ??_GBasicGrayscalePrintManagementMeta@@UAEPAXI@Z 00404640 f i dicomp.obj
 0001:000036b0       ??0MyGrayscalePrintManagement@@QAE@XZ 004046b0 f i dicomp.obj
 0001:00003720       ??0bad_alloc@std@@QAE@PBD@Z 00404720 f i dicomp.obj
 0001:000037a0       ??1bad_alloc@std@@UAE@XZ   004047a0 f i dicomp.obj
 0001:00003800       ??_Ebad_alloc@std@@UAEPAXI@Z 00404800 f i dicomp.obj
 0001:00003800       ??_Gbad_alloc@std@@UAEPAXI@Z 00404800 f i dicomp.obj
 0001:00003880       ?assign@?$char_traits@D@std@@SAXAADABD@Z 00404880 f i dicomp.obj
 0001:00003890       ?length@?$char_traits@D@std@@SAIPBD@Z 00404890 f i dicomp.obj
 0001:000038b0       ?_Copy_s@?$char_traits@D@std@@SAPADPADIPBDI@Z 004048b0 f i dicomp.obj
 0001:000038e0       ?_Move_s@?$char_traits@D@std@@SAPADPADIPBDI@Z 004048e0 f i dicomp.obj
 0001:00003910       ?to_int_type@?$char_traits@D@std@@SAHABD@Z 00404910 f i dicomp.obj
 0001:00003920       ?eq_int_type@?$char_traits@D@std@@SA_NABH0@Z 00404920 f i dicomp.obj
 0001:00003940       ?eof@?$char_traits@D@std@@SAHXZ 00404940 f i dicomp.obj
 0001:00003950       ??0_Iterator_base@std@@QAE@XZ 00404950 f i dicomp.obj
 0001:00003960       ?_Getcvt@_Locinfo@std@@QBE?AU_Cvtvec@@XZ 00404960 f i dicomp.obj
 0001:00003980       ??Bid@locale@std@@QAEIXZ   00404980 f i dicomp.obj
 0001:00003a20       ?_Incref@facet@locale@std@@QAEXXZ 00404a20 f i dicomp.obj
 0001:00003aa0       ?_Decref@facet@locale@std@@QAEPAV123@XZ 00404aa0 f i dicomp.obj
 0001:00003b40       ?_Register@facet@locale@std@@QAEXXZ 00404b40 f i dicomp.obj
 0001:00003b50       ??1facet@locale@std@@UAE@XZ 00404b50 f i dicomp.obj
 0001:00003b60       ??0facet@locale@std@@IAE@I@Z 00404b60 f i dicomp.obj
 0001:00003b80       ??0locale@std@@QAE@ABV01@@Z 00404b80 f i dicomp.obj
 0001:00003ba0       ??1locale@std@@QAE@XZ      00404ba0 f i dicomp.obj
 0001:00003bc0       ?_Getfacet@locale@std@@QBEPBVfacet@12@I@Z 00404bc0 f i dicomp.obj
 0001:00003c10       ??_Efacet@locale@std@@UAEPAXI@Z 00404c10 f i dicomp.obj
 0001:00003c10       ??_Gfacet@locale@std@@UAEPAXI@Z 00404c10 f i dicomp.obj
 0001:00003c40       ?rdstate@ios_base@std@@QBEHXZ 00404c40 f i dicomp.obj
 0001:00003c50       ?good@ios_base@std@@QBE_NXZ 00404c50 f i dicomp.obj
 0001:00003c60       ?fail@ios_base@std@@QBE_NXZ 00404c60 f i dicomp.obj
 0001:00003c70       ?flags@ios_base@std@@QBEHXZ 00404c70 f i dicomp.obj
 0001:00003c80       ?width@ios_base@std@@QBEHXZ 00404c80 f i dicomp.obj
 0001:00003c90       ?width@ios_base@std@@QAEHH@Z 00404c90 f i dicomp.obj
 0001:00003ca0       ?getloc@ios_base@std@@QBE?AVlocale@2@XZ 00404ca0 f i dicomp.obj
 0001:00003d20       ?GetClass@ErrorDescription@@QBEPBDXZ 00404d20 f i dicomp.obj
 0001:00003d30       ?GetMethod@ErrorDescription@@QBEPBDXZ 00404d30 f i dicomp.obj
 0001:00003d40       ?GetMessageA@ErrorDescription@@QBEPBDXZ 00404d40 f i dicomp.obj
 0001:00003d50       ?GetFile@ErrorDescription@@QBEPBDXZ 00404d50 f i dicomp.obj
 0001:00003d60       ?GetLine@ErrorDescription@@QBEHXZ 00404d60 f i dicomp.obj
 0001:00003d70       ?ActionPrint@MyGrayscalePrintManagement@@EAEHPAVAbstractFilmSession@@PAVDICOMDataObject@@@Z 00404d70 f i dicomp.obj
 0001:00003d80       ?ActionPrint@MyGrayscalePrintManagement@@EAEHPAVAbstractFilmBox@@PAVDICOMDataObject@@@Z 00404d80 f i dicomp.obj
 0001:00003d90       ?size@?$basic_string@DU?$char_traits@D@std@@V?$allocator@D@2@@std@@QBEIXZ 00404d90 f i dicomp.obj
 0001:00003da0       ??6?$basic_ostream@DU?$char_traits@D@std@@@std@@QAEAAV01@P6AAAV01@AAV01@@Z@Z 00404da0 f i dicomp.obj
 0001:00003db0       ?rdbuf@?$basic_ios@DU?$char_traits@D@std@@@std@@QBEPAV?$basic_streambuf@DU?$char_traits@D@std@@@2@XZ 00404db0 f i dicomp.obj
 0001:00003dc0       ?_Myptr@?$basic_string@DU?$char_traits@D@std@@V?$allocator@D@2@@std@@IBEPBDXZ 00404dc0 f i dicomp.obj
 0001:00003de0       ??0?$allocator@D@std@@QAE@XZ 00404de0 f i dicomp.obj
 0001:00003df0       ?fill@?$basic_ios@DU?$char_traits@D@std@@@std@@QBEDXZ 00404df0 f i dicomp.obj
 0001:00003e00       ?pubsync@?$basic_streambuf@DU?$char_traits@D@std@@@std@@QAEHXZ 00404e00 f i dicomp.obj
 0001:00003e10       ?_Unlock@?$basic_streambuf@DU?$char_traits@D@std@@@std@@QAEXXZ 00404e10 f i dicomp.obj
 0001:00003e20       ?_Pnavail@?$basic_streambuf@DU?$char_traits@D@std@@@std@@IBEHXZ 00404e20 f i dicomp.obj
 0001:00003e40       ??Bsentry@?$basic_ostream@DU?$char_traits@D@std@@@std@@QBE_NXZ 00404e40 f i dicomp.obj
 0001:00003e50       ?put@?$num_put@DV?$ostreambuf_iterator@DU?$char_traits@D@std@@@std@@@std@@QBE?AV?$ostreambuf_iterator@DU?$char_traits@D@std@@@2@V32@AAVios_base@2@DJ@Z 00404e50 f i dicomp.obj
 0001:00003ea0       ?put@?$num_put@DV?$ostreambuf_iterator@DU?$char_traits@D@std@@@std@@@std@@QBE?AV?$ostreambuf_iterator@DU?$char_traits@D@std@@@2@V32@AAVios_base@2@DK@Z 00404ea0 f i dicomp.obj
 0001:00003ef0       ?failed@?$ostreambuf_iterator@DU?$char_traits@D@std@@@std@@QBE_NXZ 00404ef0 f i dicomp.obj
 0001:00003f00       ??0?$_Iterator_with_base@Uoutput_iterator_tag@std@@XXXXU_Iterator_base@2@@std@@QAE@XZ 00404f00 f i dicomp.obj
 0001:00003f10       ?_Myptr@?$basic_string@DU?$char_traits@D@std@@V?$allocator@D@2@@std@@IAEPADXZ 00404f10 f i dicomp.obj
 0001:00003f30       ??0?$allocator@D@std@@QAE@ABV01@@Z 00404f30 f i dicomp.obj
 0001:00003f40       ?deallocate@?$allocator@D@std@@QAEXPADI@Z 00404f40 f i dicomp.obj
 0001:00003f60       ?tie@?$basic_ios@DU?$char_traits@D@std@@@std@@QBEPAV?$basic_ostream@DU?$char_traits@D@std@@@2@XZ 00404f60 f i dicomp.obj
 0001:00003f70       ?_Lock@?$basic_streambuf@DU?$char_traits@D@std@@@std@@QAEXXZ 00404f70 f i dicomp.obj
 0001:00003f80       ?_Pninc@?$basic_streambuf@DU?$char_traits@D@std@@@std@@IAEPADXZ 00404f80 f i dicomp.obj
 0001:00003fa0       ??0_Sentry_base@?$basic_ostream@DU?$char_traits@D@std@@@std@@QAE@AAV12@@Z 00404fa0 f i dicomp.obj
 0001:00003fd0       ??1_Sentry_base@?$basic_ostream@DU?$char_traits@D@std@@@std@@QAE@XZ 00404fd0 f i dicomp.obj
 0001:00003ff0       ?_Inside@?$basic_string@DU?$char_traits@D@std@@V?$allocator@D@2@@std@@IAE_NPBD@Z 00404ff0 f i dicomp.obj
 0001:00004040       ?max_size@?$allocator@D@std@@QBEIXZ 00405040 f i dicomp.obj
 0001:00004050       ??$_Allocate@D@std@@YAPADIPAD@Z 00405050 f i dicomp.obj
 0001:000040b0       ??0bad_alloc@std@@QAE@ABV01@@Z 004050b0 f i dicomp.obj
 0001:00004130       ?sputn@?$basic_streambuf@DU?$char_traits@D@std@@@std@@QAEHPBDH@Z 00405130 f i dicomp.obj
 0001:00004140       ?_Init@?$num_put@DV?$ostreambuf_iterator@DU?$char_traits@D@std@@@std@@@std@@IAEXABV_Locinfo@2@@Z 00405140 f i dicomp.obj
 0001:00004160       ??$_Char_traits_cat@U?$char_traits@D@std@@@std@@YA?AU_Secure_char_traits_tag@0@XZ 00405160 f i dicomp.obj
 0001:00004170       ??$copy_s@U?$char_traits@D@std@@@_Traits_helper@std@@YAPADPADIPBDIU_Secure_char_traits_tag@1@@Z 00405170 f i dicomp.obj
 0001:000041a0       ??$move_s@U?$char_traits@D@std@@@_Traits_helper@std@@YAPADPADIPBDIU_Secure_char_traits_tag@1@@Z 004051a0 f i dicomp.obj
 0001:000041d0       ??_EMyGrayscalePrintManagement@@UAEPAXI@Z 004051d0 f i dicomp.obj
 0001:000041d0       ??_GMyGrayscalePrintManagement@@UAEPAXI@Z 004051d0 f i dicomp.obj
 0001:00004240       ??0?$_String_val@DV?$allocator@D@std@@@std@@IAE@V?$allocator@D@1@@Z 00405240 f i dicomp.obj
 0001:00004250       ??0?$_String_val@DV?$allocator@D@std@@@std@@QAE@ABV01@@Z 00405250 f i dicomp.obj
 0001:00004260       ?sputc@?$basic_streambuf@DU?$char_traits@D@std@@@std@@QAEHD@Z 00405260 f i dicomp.obj
 0001:000042b0       ??0?$_Outit_with_base@U_Iterator_base@std@@@std@@QAE@XZ 004052b0 f i dicomp.obj
 0001:000042c0       ?_Eos@?$basic_string@DU?$char_traits@D@std@@V?$allocator@D@2@@std@@IAEXI@Z 004052c0 f i dicomp.obj
 0001:000042f0       ?max_size@?$basic_string@DU?$char_traits@D@std@@V?$allocator@D@2@@std@@QBEIXZ 004052f0 f i dicomp.obj
 0001:00004300       ?allocate@?$allocator@D@std@@QAEPADI@Z 00405300 f i dicomp.obj
 0001:00004360       ??$copy_s@U?$char_traits@D@std@@@_Traits_helper@std@@YAPADPADIPBDI@Z 00405360 f i dicomp.obj
 0001:00004390       ??$move_s@U?$char_traits@D@std@@@_Traits_helper@std@@YAPADPADIPBDI@Z 00405390 f i dicomp.obj
 0001:000043c0       ?_Tidy@?$basic_string@DU?$char_traits@D@std@@V?$allocator@D@2@@std@@IAEX_NI@Z 004053c0 f i dicomp.obj
 0001:00004420       ??0?$ostreambuf_iterator@DU?$char_traits@D@std@@@std@@QAE@PAV?$basic_streambuf@DU?$char_traits@D@std@@@1@@Z 00405420 f i dicomp.obj
 0001:00004440       ?erase@?$basic_string@DU?$char_traits@D@std@@V?$allocator@D@2@@std@@QAEAAV12@II@Z 00405440 f i dicomp.obj
 0001:000044f0       ?_Copy@?$basic_string@DU?$char_traits@D@std@@V?$allocator@D@2@@std@@IAEXII@Z 004054f0 f i dicomp.obj
 0001:000046a0       ??0?$basic_string@DU?$char_traits@D@std@@V?$allocator@D@2@@std@@QAE@XZ 004056a0 f i dicomp.obj
 0001:000046c0       ??1?$basic_string@DU?$char_traits@D@std@@V?$allocator@D@2@@std@@QAE@XZ 004056c0 f i dicomp.obj
 0001:000046f0       ?_Grow@?$basic_string@DU?$char_traits@D@std@@V?$allocator@D@2@@std@@IAE_NI_N@Z 004056f0 f i dicomp.obj
 0001:000047e0       ??1runtime_error@std@@UAE@XZ 004057e0 f i dicomp.obj
 0001:00004880       ?c_str@?$basic_string@DU?$char_traits@D@std@@V?$allocator@D@2@@std@@QBEPBDXZ 00405880 f i dicomp.obj
 0001:000048a0       ?what@runtime_error@std@@UBEPBDXZ 004058a0 f i dicomp.obj
 0001:000048c0       ??_Eruntime_error@std@@UAEPAXI@Z 004058c0 f i dicomp.obj
 0001:000048c0       ??_Gruntime_error@std@@UAEPAXI@Z 004058c0 f i dicomp.obj
 0001:000048f0       ??1_Locinfo@std@@QAE@XZ    004058f0 f i dicomp.obj
 0001:00004a10       ?assign@?$basic_string@DU?$char_traits@D@std@@V?$allocator@D@2@@std@@QAEAAV12@ABV12@II@Z 00405a10 f i dicomp.obj
 0001:00004b20       ?assign@?$basic_string@DU?$char_traits@D@std@@V?$allocator@D@2@@std@@QAEAAV12@PBDI@Z 00405b20 f i dicomp.obj
 0001:00005b60       _main                      00406b60 f   dicomp.obj
 0001:000060c0       ??0?$basic_string@DU?$char_traits@D@std@@V?$allocator@D@2@@std@@QAE@ABV01@@Z 004070c0 f i dicomp.obj
 0001:000060f0       ?assign@?$basic_string@DU?$char_traits@D@std@@V?$allocator@D@2@@std@@QAEAAV12@PBD@Z 004070f0 f i dicomp.obj
 0001:00006120       ??0runtime_error@std@@QAE@ABV?$basic_string@DU?$char_traits@D@std@@V?$allocator@D@2@@1@@Z 00407120 f i dicomp.obj
 0001:000061b0       ??0failure@ios_base@std@@QAE@ABV?$basic_string@DU?$char_traits@D@std@@V?$allocator@D@2@@2@@Z 004071b0 f i dicomp.obj
 0001:00006230       ??1failure@ios_base@std@@UAE@XZ 00407230 f i dicomp.obj
 0001:00006290       ??_Efailure@ios_base@std@@UAEPAXI@Z 00407290 f i dicomp.obj
 0001:00006290       ??_Gfailure@ios_base@std@@UAEPAXI@Z 00407290 f i dicomp.obj
 0001:00006310       ??0?$basic_string@DU?$char_traits@D@std@@V?$allocator@D@2@@std@@QAE@PBD@Z 00407310 f i dicomp.obj
 0001:00006360       ??0_Locinfo@std@@QAE@PBD@Z 00407360 f i dicomp.obj
 0001:00006480       ??0runtime_error@std@@QAE@ABV01@@Z 00407480 f i dicomp.obj
 0001:00006520       ?clear@ios_base@std@@QAEXH_N@Z 00407520 f i dicomp.obj
 0001:00006660       ??0failure@ios_base@std@@QAE@ABV012@@Z 00407660 f i dicomp.obj
 0001:000066e0       ?clear@?$basic_ios@DU?$char_traits@D@std@@@std@@QAEXH_N@Z 004076e0 f i dicomp.obj
 0001:00006700       ??0?$num_put@DV?$ostreambuf_iterator@DU?$char_traits@D@std@@@std@@@std@@QAE@I@Z 00407700 f i dicomp.obj
 0001:000067f0       ?assign@?$char_traits@D@std@@SAPADPADID@Z 004077f0 f i dicomp.obj
 0001:00006810       ?_Getlconv@_Locinfo@std@@QBEPBUlconv@@XZ 00407810 f i dicomp.obj
 0001:00006820       ?_Getfalse@_Locinfo@std@@QBEPBDXZ 00407820 f i dicomp.obj
 0001:00006830       ?_Gettrue@_Locinfo@std@@QBEPBDXZ 00407830 f i dicomp.obj
 0001:00006840       ?precision@ios_base@std@@QBEHXZ 00407840 f i dicomp.obj
 0001:00006850       ??1?$num_put@DV?$ostreambuf_iterator@DU?$char_traits@D@std@@@std@@@std@@MAE@XZ 00407850 f i dicomp.obj
 0001:000068b0       ??_E?$num_put@DV?$ostreambuf_iterator@DU?$char_traits@D@std@@@std@@@std@@MAEPAXI@Z 004078b0 f i dicomp.obj
 0001:000068b0       ??_G?$num_put@DV?$ostreambuf_iterator@DU?$char_traits@D@std@@@std@@@std@@MAEPAXI@Z 004078b0 f i dicomp.obj
 0001:00006930       ?_Ffmt@?$num_put@DV?$ostreambuf_iterator@DU?$char_traits@D@std@@@std@@@std@@ABAPADPADDH@Z 00407930 f i dicomp.obj
 0001:000069c0       ?_Ifmt@?$num_put@DV?$ostreambuf_iterator@DU?$char_traits@D@std@@@std@@@std@@ABAPADPADPBDH@Z 004079c0 f i dicomp.obj
 0001:00006a80       ??A?$basic_string@DU?$char_traits@D@std@@V?$allocator@D@2@@std@@QAEAADI@Z 00407a80 f i dicomp.obj
 0001:00006ac0       ??D?$ostreambuf_iterator@DU?$char_traits@D@std@@@std@@QAEAAV01@XZ 00407ac0 f i dicomp.obj
 0001:00006ad0       ??E?$ostreambuf_iterator@DU?$char_traits@D@std@@@std@@QAEAAV01@XZ 00407ad0 f i dicomp.obj
 0001:00006ae0       ?decimal_point@?$numpunct@D@std@@QBEDXZ 00407ae0 f i dicomp.obj
 0001:00006af0       ?thousands_sep@?$numpunct@D@std@@QBEDXZ 00407af0 f i dicomp.obj
 0001:00006b00       ?_Tidy@?$numpunct@D@std@@AAEXXZ 00407b00 f i dicomp.obj
 0001:00006b30       ?_Chassign@?$basic_string@DU?$char_traits@D@std@@V?$allocator@D@2@@std@@IAEXIID@Z 00407b30 f i dicomp.obj
 0001:00006ba0       ??$_Maklocchr@D@std@@YADDPADABU_Cvtvec@@@Z 00407ba0 f i dicomp.obj
 0001:00006bb0       ??$_Maklocstr@D@std@@YAPADPBDPADABU_Cvtvec@@@Z 00407bb0 f i dicomp.obj
 0001:00006c10       ??4?$ostreambuf_iterator@DU?$char_traits@D@std@@@std@@QAEAAV01@D@Z 00407c10 f i dicomp.obj
 0001:00006c80       ?_Init@?$numpunct@D@std@@IAEXABV_Locinfo@2@@Z 00407c80 f i dicomp.obj
 0001:00006da0       ?_Put@?$num_put@DV?$ostreambuf_iterator@DU?$char_traits@D@std@@@std@@@std@@ABA?AV?$ostreambuf_iterator@DU?$char_traits@D@std@@@2@V32@PBDI@Z 00407da0 f i dicomp.obj
 0001:00006e40       ?_Rep@?$num_put@DV?$ostreambuf_iterator@DU?$char_traits@D@std@@@std@@@std@@ABA?AV?$ostreambuf_iterator@DU?$char_traits@D@std@@@2@V32@DI@Z 00407e40 f i dicomp.obj
 0001:00006ed0       ?_Putc@?$num_put@DV?$ostreambuf_iterator@DU?$char_traits@D@std@@@std@@@std@@ABA?AV?$ostreambuf_iterator@DU?$char_traits@D@std@@@2@V32@PBDI@Z 00407ed0 f i dicomp.obj
 0001:00006f70       ?_Putgrouped@?$num_put@DV?$ostreambuf_iterator@DU?$char_traits@D@std@@@std@@@std@@ABA?AV?$ostreambuf_iterator@DU?$char_traits@D@std@@@2@V32@PBDID@Z 00407f70 f i dicomp.obj
 0001:00007070       ?falsename@?$numpunct@D@std@@QBE?AV?$basic_string@DU?$char_traits@D@std@@V?$allocator@D@2@@2@XZ 00408070 f i dicomp.obj
 0001:000070f0       ?truename@?$numpunct@D@std@@QBE?AV?$basic_string@DU?$char_traits@D@std@@V?$allocator@D@2@@2@XZ 004080f0 f i dicomp.obj
 0001:00007170       ?append@?$basic_string@DU?$char_traits@D@std@@V?$allocator@D@2@@std@@QAEAAV12@ID@Z 00408170 f i dicomp.obj
 0001:00007240       ?insert@?$basic_string@DU?$char_traits@D@std@@V?$allocator@D@2@@std@@QAEAAV12@IID@Z 00408240 f i dicomp.obj
 0001:00007380       ?grouping@?$numpunct@D@std@@QBE?AV?$basic_string@DU?$char_traits@D@std@@V?$allocator@D@2@@2@XZ 00408380 f i dicomp.obj
 0001:00007400       ?append@?$basic_string@DU?$char_traits@D@std@@V?$allocator@D@2@@std@@QAEAAV12@ABV12@II@Z 00408400 f i dicomp.obj
 0001:00007540       ?assign@?$basic_string@DU?$char_traits@D@std@@V?$allocator@D@2@@std@@QAEAAV12@ABV12@@Z 00408540 f i dicomp.obj
 0001:00007560       ?append@?$basic_string@DU?$char_traits@D@std@@V?$allocator@D@2@@std@@QAEAAV12@PBDI@Z 00408560 f i dicomp.obj
 0001:00007690       ??0?$numpunct@D@std@@QAE@I@Z 00408690 f i dicomp.obj
 0001:00007790       ?do_decimal_point@?$numpunct@D@std@@MBEDXZ 00408790 f i dicomp.obj
 0001:000077a0       ?do_thousands_sep@?$numpunct@D@std@@MBEDXZ 004087a0 f i dicomp.obj
 0001:000077b0       ??1?$numpunct@D@std@@MAE@XZ 004087b0 f i dicomp.obj
 0001:00007840       ??_G?$numpunct@D@std@@MAEPAXI@Z 00408840 f i dicomp.obj
 0001:00007840       ??_E?$numpunct@D@std@@MAEPAXI@Z 00408840 f i dicomp.obj
 0001:00007870       ?do_grouping@?$numpunct@D@std@@MBE?AV?$basic_string@DU?$char_traits@D@std@@V?$allocator@D@2@@2@XZ 00408870 f i dicomp.obj
 0001:00007910       ?do_falsename@?$numpunct@D@std@@MBE?AV?$basic_string@DU?$char_traits@D@std@@V?$allocator@D@2@@2@XZ 00408910 f i dicomp.obj
 0001:000079b0       ?do_truename@?$numpunct@D@std@@MBE?AV?$basic_string@DU?$char_traits@D@std@@V?$allocator@D@2@@2@XZ 004089b0 f i dicomp.obj
 0001:00007a50       ?setstate@?$basic_ios@DU?$char_traits@D@std@@@std@@QAEXH_N@Z 00408a50 f i dicomp.obj
 0001:00007a80       ?_Getcat@?$num_put@DV?$ostreambuf_iterator@DU?$char_traits@D@std@@@std@@@std@@SAIPAPBVfacet@locale@2@@Z 00408a80 f i dicomp.obj
 0001:00007b20       ?_Getcat@?$numpunct@D@std@@SAIPAPBVfacet@locale@2@@Z 00408b20 f i dicomp.obj
 0001:00007bc0       ?flush@?$basic_ostream@DU?$char_traits@D@std@@@std@@QAEAAV12@XZ 00408bc0 f i dicomp.obj
 0001:00007c30       ??0sentry@?$basic_ostream@DU?$char_traits@D@std@@@std@@QAE@AAV12@@Z 00408c30 f i dicomp.obj
 0001:00007cf0       ?_Osfx@?$basic_ostream@DU?$char_traits@D@std@@@std@@QAEXXZ 00408cf0 f i dicomp.obj
 0001:00007d70       ??$use_facet@V?$num_put@DV?$ostreambuf_iterator@DU?$char_traits@D@std@@@std@@@std@@@std@@YAABV?$num_put@DV?$ostreambuf_iterator@DU?$char_traits@D@std@@@std@@@0@ABVlocale@0@@Z 00408d70 f i dicomp.obj
 0001:00007eb0       ??$use_facet@V?$numpunct@D@std@@@std@@YAABV?$numpunct@D@0@ABVlocale@0@@Z 00408eb0 f i dicomp.obj
 0001:00007ff0       ??1sentry@?$basic_ostream@DU?$char_traits@D@std@@@std@@QAE@XZ 00408ff0 f i dicomp.obj
 0001:00008080       ?do_put@?$num_put@DV?$ostreambuf_iterator@DU?$char_traits@D@std@@@std@@@std@@MBE?AV?$ostreambuf_iterator@DU?$char_traits@D@std@@@2@V32@AAVios_base@2@D_N@Z 00409080 f i dicomp.obj
 0001:000083d0       ?_Fput@?$num_put@DV?$ostreambuf_iterator@DU?$char_traits@D@std@@@std@@@std@@ABA?AV?$ostreambuf_iterator@DU?$char_traits@D@std@@@2@V32@AAVios_base@2@DPBDIIII@Z 004093d0 f i dicomp.obj
 0001:00008c90       ?_Iput@?$num_put@DV?$ostreambuf_iterator@DU?$char_traits@D@std@@@std@@@std@@ABA?AV?$ostreambuf_iterator@DU?$char_traits@D@std@@@2@V32@AAVios_base@2@DPADI@Z 00409c90 f i dicomp.obj
 0001:00009090       ??$?6U?$char_traits@D@std@@@std@@YAAAV?$basic_ostream@DU?$char_traits@D@std@@@0@AAV10@PBD@Z 0040a090 f i dicomp.obj
 0001:000092d0       ??6?$basic_ostream@DU?$char_traits@D@std@@@std@@QAEAAV01@G@Z 0040a2d0 f i dicomp.obj
 0001:00009490       ??6?$basic_ostream@DU?$char_traits@D@std@@@std@@QAEAAV01@H@Z 0040a490 f i dicomp.obj
 0001:00009650       ?put@?$basic_ostream@DU?$char_traits@D@std@@@std@@QAEAAV12@D@Z 0040a650 f i dicomp.obj
 0001:00009790       ?do_put@?$num_put@DV?$ostreambuf_iterator@DU?$char_traits@D@std@@@std@@@std@@MBE?AV?$ostreambuf_iterator@DU?$char_traits@D@std@@@2@V32@AAVios_base@2@DJ@Z 0040a790 f i dicomp.obj
 0001:00009850       ?do_put@?$num_put@DV?$ostreambuf_iterator@DU?$char_traits@D@std@@@std@@@std@@MBE?AV?$ostreambuf_iterator@DU?$char_traits@D@std@@@2@V32@AAVios_base@2@DK@Z 0040a850 f i dicomp.obj
 0001:00009910       ?do_put@?$num_put@DV?$ostreambuf_iterator@DU?$char_traits@D@std@@@std@@@std@@MBE?AV?$ostreambuf_iterator@DU?$char_traits@D@std@@@2@V32@AAVios_base@2@D_J@Z 0040a910 f i dicomp.obj
 0001:000099d0       ?do_put@?$num_put@DV?$ostreambuf_iterator@DU?$char_traits@D@std@@@std@@@std@@MBE?AV?$ostreambuf_iterator@DU?$char_traits@D@std@@@2@V32@AAVios_base@2@D_K@Z 0040a9d0 f i dicomp.obj
 0001:00009a90       ?do_put@?$num_put@DV?$ostreambuf_iterator@DU?$char_traits@D@std@@@std@@@std@@MBE?AV?$ostreambuf_iterator@DU?$char_traits@D@std@@@2@V32@AAVios_base@2@DN@Z 0040aa90 f i dicomp.obj
 0001:00009cf0       ?do_put@?$num_put@DV?$ostreambuf_iterator@DU?$char_traits@D@std@@@std@@@std@@MBE?AV?$ostreambuf_iterator@DU?$char_traits@D@std@@@2@V32@AAVios_base@2@DO@Z 0040acf0 f i dicomp.obj
 0001:00009f60       ?do_put@?$num_put@DV?$ostreambuf_iterator@DU?$char_traits@D@std@@@std@@@std@@MBE?AV?$ostreambuf_iterator@DU?$char_traits@D@std@@@2@V32@AAVios_base@2@DPBX@Z 0040af60 f i dicomp.obj
 0001:0000a000       ?endl@std@@YAAAV?$basic_ostream@DU?$char_traits@D@std@@@1@AAV21@@Z 0040b000 f i dicomp.obj
 0001:0000a020       ?HandlePrinterEvent@MyGrayscalePrintManagement@@EAEXPAVDICOMDataObject@@AAVUID@@GPAX@Z 0040b020 f i dicomp.obj
 0001:0000a0d0       ?HandlePrintJobEvent@MyGrayscalePrintManagement@@EAEXPAVDICOMDataObject@@AAVUID@@GPAX@Z 0040b0d0 f i dicomp.obj
 0001:0000a180       ?HandleError@MyGrayscalePrintManagement@@EBEHABVErrorDescription@@@Z 0040b180 f i dicomp.obj
 0001:0000a270       ?Set@UID@@QAEXPBD@Z        0040b270 f i printsop.obj
 0001:0000a2c0       ??8UID@@QAEHAAV0@@Z        0040b2c0 f i printsop.obj
 0001:0000a320       ??9UID@@QAEHAAV0@@Z        0040b320 f i printsop.obj
 0001:0000a380       ??0ErrorDescription@@QAE@PBDH000W4ErrorType@0@W4Operation@0@GPBVDICOMCommandObject@@3@Z 0040b380 f i printsop.obj
 0001:0000a410       ??1ErrorDescription@@QAE@XZ 0040b410 f i printsop.obj
 0001:0000a420       ?SetMessage@ErrorDescription@@QAEXPBD@Z 0040b420 f i printsop.obj
 0001:0000a440       ?SetLine@ErrorDescription@@QAEXH@Z 0040b440 f i printsop.obj
 0001:0000a450       ?SetErrorType@ErrorDescription@@QAEXW4ErrorType@1@@Z 0040b450 f i printsop.obj
 0001:0000a460       ?SetOperation@ErrorDescription@@QAEXW4Operation@1@@Z 0040b460 f i printsop.obj
 0001:0000a470       ?SetDICOMStatus@ErrorDescription@@QAEXG@Z 0040b470 f i printsop.obj
 0001:0000a480       ?SetResponseCommand@ErrorDescription@@QAEXPBVDICOMObject@@@Z 0040b480 f i printsop.obj
 0001:0000a490       ?SetResponseDataset@ErrorDescription@@QAEXPBVDICOMObject@@@Z 0040b490 f i printsop.obj
 0001:0000a4a0       ?SetCreated@AbstractFilmBox@@QAEXH@Z 0040b4a0 f i printsop.obj
 0001:0000a4b0       ?IsCreated@AbstractFilmBox@@QAEHXZ 0040b4b0 f i printsop.obj
 0001:0000a4c0       ?SetCreated@AbstractFilmSession@@QAEXH@Z 0040b4c0 f i printsop.obj
 0001:0000a4d0       ?IsCreated@AbstractFilmSession@@QAEHXZ 0040b4d0 f i printsop.obj
 0001:0000a4e0       ?IdleProc@@YAHPAH@Z        0040b4e0 f   printsop.obj
 0001:0000a510       ?uGetUID@BasicFilmSession@@UAEHAAVUID@@@Z 0040b510 f   printsop.obj
 0001:0000a560       ?uGetUID@BasicFilmBox@@UAEHAAVUID@@@Z 0040b560 f   printsop.obj
 0001:0000a5b0       ?uGetUID@BasicGrayscaleImageBox@@UAEHAAVUID@@@Z 0040b5b0 f   printsop.obj
 0001:0000a600       ?uGetUID@BasicColorImageBox@@UAEHAAVUID@@@Z 0040b600 f   printsop.obj
 0001:0000a650       ?uGetUID@ReferencedImageBox@@UAEHAAVUID@@@Z 0040b650 f   printsop.obj
 0001:0000a6a0       ?uGetUID@VOILUTBox@@UAEHAAVUID@@@Z 0040b6a0 f   printsop.obj
 0001:0000a6f0       ?uGetUID@BasicAnnotationBox@@UAEHAAVUID@@@Z 0040b6f0 f   printsop.obj
 0001:0000a740       ?uGetUID@ImageOverlayBox@@UAEHAAVUID@@@Z 0040b740 f   printsop.obj
 0001:0000a790       ?uGetUID@BasicPrinter@@UAEHAAVUID@@@Z 0040b790 f   printsop.obj
 0001:0000a7e0       ?uGetUID@BasicPrintJob@@UAEHAAVUID@@@Z 0040b7e0 f   printsop.obj
 0001:0000a830       ?ReadCreate@StandardFilm@@QAEHPAVPDU_Service@@PAVDICOMCommandObject@@PAVDICOMDataObject@@@Z 0040b830 f   printsop.obj
 0001:0000a980       ?ReadSet@StandardFilm@@QAEHPAVPDU_Service@@PAVDICOMCommandObject@@PAVDICOMDataObject@@@Z 0040b980 f   printsop.obj
 0001:0000aae0       ?ReadDelete@StandardFilm@@QAEHPAVPDU_Service@@PAVDICOMCommandObject@@@Z 0040bae0 f   printsop.obj
 0001:0000ac10       ?ReadPrint@StandardFilm@@QAEHPAVPDU_Service@@PAVDICOMCommandObject@@PAVDICOMDataObject@@@Z 0040bc10 f   printsop.obj
 0001:0000ad60       ?Read@StandardFilm@@QAEHPAVPDU_Service@@PAVDICOMCommandObject@@PAVDICOMDataObject@@@Z 0040bd60 f   printsop.obj
 0001:0000ade0       ?Read@StandardBox@@QAEHPAVPDU_Service@@PAVDICOMCommandObject@@PAVDICOMDataObject@@@Z 0040bde0 f   printsop.obj
 0001:0000af40       ?ReadCreate@StandardAdvancedBox@@QAEHPAVPDU_Service@@PAVDICOMCommandObject@@PAVDICOMDataObject@@@Z 0040bf40 f   printsop.obj
 0001:0000b090       ?ReadSet@StandardAdvancedBox@@QAEHPAVPDU_Service@@PAVDICOMCommandObject@@PAVDICOMDataObject@@@Z 0040c090 f   printsop.obj
 0001:0000b1f0       ?ReadDelete@StandardAdvancedBox@@QAEHPAVPDU_Service@@PAVDICOMCommandObject@@@Z 0040c1f0 f   printsop.obj
 0001:0000b320       ?ReadEventReport@StandardStatus@@QAEHPAVPDU_Service@@PAVDICOMCommandObject@@PAVDICOMDataObject@@PAVUID@@@Z 0040c320 f   printsop.obj
 0001:0000b4d0       ?WriteEventReport@StandardStatus@@QAEHPAVPDU_Service@@PAVUID@@GPAVDICOMDataObject@@@Z 0040c4d0 f   printsop.obj
 0001:0000b600       ??1AbstractPrinter@@UAE@XZ 0040c600 f   printsop.obj
 0001:0000b690       ?GetSOPInstanceUID@AbstractPrinter@@UAEHAAVUID@@@Z 0040c690 f   printsop.obj
 0001:0000b6e0       ?SetSOPInstanceUID@AbstractPrinter@@UAEHAAVUID@@@Z 0040c6e0 f   printsop.obj
 0001:0000b7c0       ??0AbstractPrintJob@@QAE@AAVAbstractPrintManagementMeta@@@Z 0040c7c0 f   printsop.obj
 0001:0000b8e0       ?DeleteAll@AbstractPrintJob@@QAEHXZ 0040c8e0 f   printsop.obj
 0001:0000b930       ?GetSOPInstanceUID@AbstractPrintJob@@UAEHAAVUID@@@Z 0040c930 f   printsop.obj
 0001:0000b980       ?SetSOPInstanceUID@AbstractPrintJob@@UAEHAAVUID@@@Z 0040c980 f   printsop.obj
 0001:0000ba60       ??0AbstractOverlayBox@@QAE@AAVAbstractPrintManagementMeta@@@Z 0040ca60 f   printsop.obj
 0001:0000bb70       ?DeleteAll@AbstractOverlayBox@@QAEHXZ 0040cb70 f   printsop.obj
 0001:0000bbd0       ?ProtoGen@AbstractOverlayBox@@QAEHXZ 0040cbd0 f   printsop.obj
 0001:0000bd40       ??0AbstractLUTBox@@QAE@AAVAbstractPrintManagementMeta@@@Z 0040cd40 f   printsop.obj
 0001:0000be50       ?DeleteAll@AbstractLUTBox@@QAEHXZ 0040ce50 f   printsop.obj
 0001:0000beb0       ?ProtoGen@AbstractLUTBox@@QAEHXZ 0040ceb0 f   printsop.obj
 0001:0000c030       ??0AbstractAnnotationBox@@QAE@AAVAbstractPrintManagementMeta@@@Z 0040d030 f   printsop.obj
 0001:0000c140       ?DeleteAll@AbstractAnnotationBox@@QAEHXZ 0040d140 f   printsop.obj
 0001:0000c1a0       ?ProtoGen@AbstractAnnotationBox@@QAEHXZ 0040d1a0 f   printsop.obj
 0001:0000c310       ??0AbstractImageBox@@QAE@AAVAbstractPrintManagementMeta@@@Z 0040d310 f   printsop.obj
 0001:0000c420       ??0AbstractFilmBox@@QAE@AAVAbstractPrintManagementMeta@@@Z 0040d420 f   printsop.obj
 0001:0000c530       ??0NCreateRQ@@QAE@XZ       0040d530 f i printsop.obj
 0001:0000c540       ??0NCreateRSP@@QAE@XZ      0040d540 f i printsop.obj
 0001:0000c550       ??0NDeleteRQ@@QAE@XZ       0040d550 f i printsop.obj
 0001:0000c560       ??0NDeleteRSP@@QAE@XZ      0040d560 f i printsop.obj
 0001:0000c570       ??0NActionRQ@@QAE@XZ       0040d570 f i printsop.obj
 0001:0000c580       ??0NActionRSP@@QAE@XZ      0040d580 f i printsop.obj
 0001:0000c590       ??0NGetRQ@@QAE@XZ          0040d590 f i printsop.obj
 0001:0000c5a0       ??0NGetRSP@@QAE@XZ         0040d5a0 f i printsop.obj
 0001:0000c5b0       ??0NEventReportRQ@@QAE@XZ  0040d5b0 f i printsop.obj
 0001:0000c5c0       ??0NEventReportRSP@@QAE@XZ 0040d5c0 f i printsop.obj
 0001:0000c5d0       ?GetNewSOPInstanceUID@AbstractFilmSession@@UAEHAAVUID@@0@Z 0040d5d0 f   printsop.obj
 0001:0000c610       ??0StandardAdvancedBox@@QAE@XZ 0040d610 f i printsop.obj
 0001:0000c680       ?GetUID@StandardAdvancedBox@@UAEHAAVUID@@@Z 0040d680 f i printsop.obj
 0001:0000c690       ?SetPrinterEventUserArg@AbstractPrintManagementMeta@@UAEPAXPAX@Z 0040d690 f   printsop.obj
 0001:0000c6b0       ?SetPrintJobEventUserArg@AbstractPrintManagementMeta@@UAEPAXPAX@Z 0040d6b0 f   printsop.obj
 0001:0000c6d0       ?AcceptSOPClass@AbstractPrintManagementMeta@@MAEHAAVUID@@@Z 0040d6d0 f   printsop.obj
 0001:0000c6e0       ?GetSize@?$Array@PAVAbstractOverlayBox@@@@QAEIXZ 0040d6e0 f i printsop.obj
 0001:0000c6f0       ??0?$Array@PAVAbstractOverlayBox@@@@QAE@XZ 0040d6f0 f i printsop.obj
 0001:0000c720       ?GetSize@?$Array@PAVAbstractLUTBox@@@@QAEIXZ 0040d720 f i printsop.obj
 0001:0000c730       ??0?$Array@PAVAbstractLUTBox@@@@QAE@XZ 0040d730 f i printsop.obj
 0001:0000c760       ?GetSize@?$Array@PAVAbstractImageBox@@@@QAEIXZ 0040d760 f i printsop.obj
 0001:0000c770       ??0?$Array@PAVAbstractImageBox@@@@QAE@XZ 0040d770 f i printsop.obj
 0001:0000c7a0       ?GetSize@?$Array@PAVAbstractAnnotationBox@@@@QAEIXZ 0040d7a0 f i printsop.obj
 0001:0000c7b0       ??0?$Array@PAVAbstractAnnotationBox@@@@QAE@XZ 0040d7b0 f i printsop.obj
 0001:0000c7e0       ?GetSize@?$Array@PAVAbstractFilmBox@@@@QAEIXZ 0040d7e0 f i printsop.obj
 0001:0000c7f0       ??0?$Array@PAVAbstractFilmBox@@@@QAE@XZ 0040d7f0 f i printsop.obj
 0001:0000c820       ?GetSize@?$Array@PAVAbstractPrintJob@@@@QAEIXZ 0040d820 f i printsop.obj
 0001:0000c830       ??0?$Array@PAVAbstractPrintJob@@@@QAE@XZ 0040d830 f i printsop.obj
 0001:0000c860       ?Get@?$Array@PAVAbstractOverlayBox@@@@QAEAAPAVAbstractOverlayBox@@I@Z 0040d860 f i printsop.obj
 0001:0000c900       ?RemoveAt@?$Array@PAVAbstractOverlayBox@@@@QAEHI@Z 0040d900 f i printsop.obj
 0001:0000c9b0       ??1?$Array@PAVAbstractOverlayBox@@@@UAE@XZ 0040d9b0 f i printsop.obj
 0001:0000ca60       ?Get@?$Array@PAVAbstractLUTBox@@@@QAEAAPAVAbstractLUTBox@@I@Z 0040da60 f i printsop.obj
 0001:0000cb00       ?RemoveAt@?$Array@PAVAbstractLUTBox@@@@QAEHI@Z 0040db00 f i printsop.obj
 0001:0000cbb0       ??1?$Array@PAVAbstractLUTBox@@@@UAE@XZ 0040dbb0 f i printsop.obj
 0001:0000cc60       ?Get@?$Array@PAVAbstractImageBox@@@@QAEAAPAVAbstractImageBox@@I@Z 0040dc60 f i printsop.obj
 0001:0000cd00       ?Get@?$Array@PAVAbstractAnnotationBox@@@@QAEAAPAVAbstractAnnotationBox@@I@Z 0040dd00 f i printsop.obj
 0001:0000cda0       ?Get@?$Array@PAVAbstractFilmBox@@@@QAEAAPAVAbstractFilmBox@@I@Z 0040dda0 f i printsop.obj
 0001:0000ce40       ?RemoveAt@?$Array@PAVAbstractFilmBox@@@@QAEHI@Z 0040de40 f i printsop.obj
 0001:0000cef0       ??1?$Array@PAVAbstractFilmBox@@@@UAE@XZ 0040def0 f i printsop.obj
 0001:0000cfa0       ?Get@?$Array@PAVAbstractPrintJob@@@@QAEAAPAVAbstractPrintJob@@I@Z 0040dfa0 f i printsop.obj
 0001:0000d040       ??0?$DataLink@PAVAbstractOverlayBox@@@@QAE@XZ 0040e040 f i printsop.obj
 0001:0000d050       ??0?$DataLink@PAVAbstractLUTBox@@@@QAE@XZ 0040e050 f i printsop.obj
 0001:0000d060       ??0?$DataLink@PAVAbstractImageBox@@@@QAE@XZ 0040e060 f i printsop.obj
 0001:0000d070       ??0?$DataLink@PAVAbstractAnnotationBox@@@@QAE@XZ 0040e070 f i printsop.obj
 0001:0000d080       ??0?$DataLink@PAVAbstractFilmBox@@@@QAE@XZ 0040e080 f i printsop.obj
 0001:0000d090       ??0?$DataLink@PAVAbstractPrintJob@@@@QAE@XZ 0040e090 f i printsop.obj
 0001:0000d0a0       ?RemoveAt@?$Array@PAVAbstractImageBox@@@@QAEHI@Z 0040e0a0 f i printsop.obj
 0001:0000d150       ?RemoveAt@?$Array@PAVAbstractAnnotationBox@@@@QAEHI@Z 0040e150 f i printsop.obj
 0001:0000d200       ?RemoveAt@?$Array@PAVAbstractPrintJob@@@@QAEHI@Z 0040e200 f i printsop.obj
 0001:0000d2b0       ?GetUID@StandardAdvancedBox@@WM@AEHAAVUID@@@Z 0040e2b0 f i printsop.obj
 0001:0000d2c0       ?GetUID@StandardAdvancedBox@@WBA@AEHAAVUID@@@Z 0040e2c0 f i printsop.obj
 0001:0000d2d0       ?GetUID@StandardAdvancedBox@@WBE@AEHAAVUID@@@Z 0040e2d0 f i printsop.obj
 0001:0000d2e0       ?GetUID@StandardAdvancedBox@@W3AEHAAVUID@@@Z 0040e2e0 f i printsop.obj
 0001:0000d2f0       ?GetUID@StandardAdvancedBox@@W7AEHAAVUID@@@Z 0040e2f0 f i printsop.obj
 0001:0000d300       ?Read@BasicGrayscaleImageBox@@QAEHPAVPDU_Service@@PAVDICOMCommandObject@@PAVDICOMDataObject@@@Z 0040e300 f i printsop.obj
 0001:0000d310       ?Read@BasicAnnotationBox@@QAEHPAVPDU_Service@@PAVDICOMCommandObject@@PAVDICOMDataObject@@@Z 0040e310 f i printsop.obj
 0001:0000d320       ?ReadGet@StandardStatus@@QAEHPAVPDU_Service@@PAVDICOMCommandObject@@@Z 0040e320 f   printsop.obj
 0001:0000d530       ??0AbstractPrinter@@QAE@AAVAbstractPrintManagementMeta@@@Z 0040e530 f   printsop.obj
 0001:0000d660       ??_GAbstractPrinter@@UAEPAXI@Z 0040e660 f i printsop.obj
 0001:0000d660       ??_EAbstractPrinter@@UAEPAXI@Z 0040e660 f i printsop.obj
 0001:0000d690       ??1AbstractPrintJob@@UAE@XZ 0040e690 f   printsop.obj
 0001:0000d710       ?ProtoGen@AbstractPrintJob@@QAEHXZ 0040e710 f   printsop.obj
 0001:0000d900       ??1AbstractOverlayBox@@UAE@XZ 0040e900 f   printsop.obj
 0001:0000d980       ??1AbstractLUTBox@@UAE@XZ  0040e980 f   printsop.obj
 0001:0000da00       ??1AbstractAnnotationBox@@UAE@XZ 0040ea00 f   printsop.obj
 0001:0000da80       ?DeleteAll@AbstractImageBox@@QAEHXZ 0040ea80 f   printsop.obj
 0001:0000db80       ?ProtoGen@AbstractImageBox@@QAEHXZ 0040eb80 f   printsop.obj
 0001:0000dda0       ?DeleteAll@AbstractFilmBox@@QAEHXZ 0040eda0 f   printsop.obj
 0001:0000dea0       ?ProtoGen@AbstractFilmBox@@QAEHXZ 0040eea0 f   printsop.obj
 0001:0000e0b0       ?SetImageBoxInstanceUIDS@AbstractFilmBox@@QAEHXZ 0040f0b0 f   printsop.obj
 0001:0000e180       ?SetAnnotationBoxInstanceUIDS@AbstractFilmBox@@QAEHXZ 0040f180 f   printsop.obj
 0001:0000e250       ??0StandardFilm@@QAE@XZ    0040f250 f i printsop.obj
 0001:0000e2e0       ?GetUID@StandardFilm@@UAEHAAVUID@@@Z 0040f2e0 f i printsop.obj
 0001:0000e2f0       ?GetUID@StandardFilm@@WBI@AEHAAVUID@@@Z 0040f2f0 f i printsop.obj
 0001:0000e300       ?GetUID@StandardFilm@@WBM@AEHAAVUID@@@Z 0040f300 f i printsop.obj
 0001:0000e310       ?GetUID@StandardFilm@@W3AEHAAVUID@@@Z 0040f310 f i printsop.obj
 0001:0000e320       ?GetUID@StandardFilm@@W7AEHAAVUID@@@Z 0040f320 f i printsop.obj
 0001:0000e330       ?GetUID@StandardFilm@@WM@AEHAAVUID@@@Z 0040f330 f i printsop.obj
 0001:0000e340       ?GetUID@StandardFilm@@WBA@AEHAAVUID@@@Z 0040f340 f i printsop.obj
 0001:0000e350       ?GetUID@StandardFilm@@WBE@AEHAAVUID@@@Z 0040f350 f i printsop.obj
 0001:0000e360       ??0StandardStatus@@QAE@XZ  0040f360 f i printsop.obj
 0001:0000e3a0       ?GetUID@StandardStatus@@UAEHAAVUID@@@Z 0040f3a0 f i printsop.obj
 0001:0000e3b0       ?GetUID@StandardStatus@@W3AEHAAVUID@@@Z 0040f3b0 f i printsop.obj
 0001:0000e3c0       ?GetUID@StandardStatus@@W7AEHAAVUID@@@Z 0040f3c0 f i printsop.obj
 0001:0000e3d0       ?GetUID@StandardStatus@@WM@AEHAAVUID@@@Z 0040f3d0 f i printsop.obj
 0001:0000e3e0       ?DeleteAll@AbstractFilmSession@@QAEHXZ 0040f3e0 f   printsop.obj
 0001:0000e4e0       ?ProtoGen@AbstractFilmSession@@QAEHXZ 0040f4e0 f   printsop.obj
 0001:0000e690       ??0BasicFilmBox@@QAE@XZ    0040f690 f i printsop.obj
 0001:0000e6f0       ??0BasicAnnotationBox@@QAE@XZ 0040f6f0 f i printsop.obj
 0001:0000e710       ??0ImageOverlayBox@@QAE@XZ 0040f710 f i printsop.obj
 0001:0000e780       ?ReadBasicFilmSession@AbstractPrintManagementMeta@@MAEHPAVPDU_Service@@PAVDICOMCommandObject@@GPAVUID@@@Z 0040f780 f   printsop.obj
 0001:0000eb80       ?ActionPrint@AbstractPrintManagementMeta@@MAEHPAVAbstractFilmSession@@PAVDICOMDataObject@@@Z 0040fb80 f   printsop.obj
 0001:0000eb90       ?ReadEventReport@AbstractPrintManagementMeta@@QAEHPAVPDU_Service@@PAVDICOMCommandObject@@@Z 0040fb90 f   printsop.obj
 0001:0000ee30       ?ReadBox@BasicGrayscalePrintManagementMeta@@EAEHPAVPDU_Service@@PAVDICOMCommandObject@@PAVDICOMDataObject@@@Z 0040fe30 f   printsop.obj
 0001:0000ee40       ??_G?$Array@PAVAbstractOverlayBox@@@@UAEPAXI@Z 0040fe40 f i printsop.obj
 0001:0000ee40       ??_E?$Array@PAVAbstractOverlayBox@@@@UAEPAXI@Z 0040fe40 f i printsop.obj
 0001:0000ee70       ??_E?$Array@PAVAbstractLUTBox@@@@UAEPAXI@Z 0040fe70 f i printsop.obj
 0001:0000ee70       ??_G?$Array@PAVAbstractLUTBox@@@@UAEPAXI@Z 0040fe70 f i printsop.obj
 0001:0000eea0       ??_E?$Array@PAVAbstractFilmBox@@@@UAEPAXI@Z 0040fea0 f i printsop.obj
 0001:0000eea0       ??_G?$Array@PAVAbstractFilmBox@@@@UAEPAXI@Z 0040fea0 f i printsop.obj
 0001:0000eed0       ?Add@?$Array@PAVAbstractOverlayBox@@@@QAEAAPAVAbstractOverlayBox@@AAPAV2@@Z 0040fed0 f i printsop.obj
 0001:0000ef90       ?Add@?$Array@PAVAbstractLUTBox@@@@QAEAAPAVAbstractLUTBox@@AAPAV2@@Z 0040ff90 f i printsop.obj
 0001:0000f050       ?Add@?$Array@PAVAbstractImageBox@@@@QAEAAPAVAbstractImageBox@@AAPAV2@@Z 00410050 f i printsop.obj
 0001:0000f110       ??1?$Array@PAVAbstractImageBox@@@@UAE@XZ 00410110 f i printsop.obj
 0001:0000f1c0       ?Add@?$Array@PAVAbstractAnnotationBox@@@@QAEAAPAVAbstractAnnotationBox@@AAPAV2@@Z 004101c0 f i printsop.obj
 0001:0000f280       ??1?$Array@PAVAbstractAnnotationBox@@@@UAE@XZ 00410280 f i printsop.obj
 0001:0000f330       ?Add@?$Array@PAVAbstractFilmBox@@@@QAEAAPAVAbstractFilmBox@@AAPAV2@@Z 00410330 f i printsop.obj
 0001:0000f3f0       ?Add@?$Array@PAVAbstractPrintJob@@@@QAEAAPAVAbstractPrintJob@@AAPAV2@@Z 004103f0 f i printsop.obj
 0001:0000f4b0       ??1?$Array@PAVAbstractPrintJob@@@@UAE@XZ 004104b0 f i printsop.obj
 0001:0000f560       ?WriteCreate@StandardFilm@@QAEHPAVPDU_Service@@PAVUID@@PAVDICOMDataObject@@AAVAbstractPrintManagementMeta@@@Z 00410560 f   printsop.obj
 0001:0000fa20       ?WriteSet@StandardFilm@@QAEHPAVPDU_Service@@PAVUID@@PAVDICOMDataObject@@AAVAbstractPrintManagementMeta@@@Z 00410a20 f   printsop.obj
 0001:0000fe50       ?WriteDelete@StandardFilm@@QAEHPAVPDU_Service@@PAVUID@@AAVAbstractPrintManagementMeta@@@Z 00410e50 f   printsop.obj
 0001:0000ffa0       ?Write@StandardBox@@QAEHPAVPDU_Service@@PAVUID@@PAVDICOMDataObject@@AAVAbstractPrintManagementMeta@@@Z 00410fa0 f   printsop.obj
 0001:00010330       ?WriteCreate@StandardAdvancedBox@@QAEHPAVPDU_Service@@PAVUID@@PAVDICOMDataObject@@AAVAbstractPrintManagementMeta@@@Z 00411330 f   printsop.obj
 0001:00010540       ?WriteSet@StandardAdvancedBox@@QAEHPAVPDU_Service@@PAVUID@@PAVDICOMDataObject@@AAVAbstractPrintManagementMeta@@@Z 00411540 f   printsop.obj
 0001:000106d0       ?WriteDelete@StandardAdvancedBox@@QAEHPAVPDU_Service@@PAVUID@@AAVAbstractPrintManagementMeta@@@Z 004116d0 f   printsop.obj
 0001:00010820       ?WriteGet@StandardStatus@@QAEHPAVPDU_Service@@PAVUID@@PAVDICOMDataObject@@AAVAbstractPrintManagementMeta@@@Z 00411820 f   printsop.obj
 0001:00010990       ?SyncReferenceSequence@@YAHPAVVR@@PAVUID@@1@Z 00411990 f   printsop.obj
 0001:00010c80       ?SyncReferenceSequence@@YAHPAVDICOMDataObject@@GGPAVUID@@1@Z 00411c80 f   printsop.obj
 0001:00010d60       ?ResyncEntireReferenceSequence@@YAHPAVVR@@PAV?$Array@PAVDICOMDataObject@@@@@Z 00411d60 f   printsop.obj
 0001:00010f30       ??_EAbstractPrintJob@@UAEPAXI@Z 00411f30 f i printsop.obj
 0001:00010f30       ??_GAbstractPrintJob@@UAEPAXI@Z 00411f30 f i printsop.obj
 0001:00010f60       ??_GAbstractOverlayBox@@UAEPAXI@Z 00411f60 f i printsop.obj
 0001:00010f60       ??_EAbstractOverlayBox@@UAEPAXI@Z 00411f60 f i printsop.obj
 0001:00010f90       ??_GAbstractLUTBox@@UAEPAXI@Z 00411f90 f i printsop.obj
 0001:00010f90       ??_EAbstractLUTBox@@UAEPAXI@Z 00411f90 f i printsop.obj
 0001:00010fc0       ??_GAbstractAnnotationBox@@UAEPAXI@Z 00411fc0 f i printsop.obj
 0001:00010fc0       ??_EAbstractAnnotationBox@@UAEPAXI@Z 00411fc0 f i printsop.obj
 0001:00010ff0       ??1AbstractImageBox@@UAE@XZ 00411ff0 f   printsop.obj
 0001:00011090       ?Add@AbstractImageBox@@QAEPAVAbstractOverlayBox@@PAV2@@Z 00412090 f   printsop.obj
 0001:00011150       ?Add@AbstractImageBox@@QAEPAVAbstractLUTBox@@PAV2@@Z 00412150 f   printsop.obj
 0001:00011210       ??1AbstractFilmBox@@UAE@XZ 00412210 f   printsop.obj
 0001:00011290       ?Add@AbstractFilmBox@@QAEPAVAbstractImageBox@@PAV2@@Z 00412290 f   printsop.obj
 0001:00011350       ?Add@AbstractFilmBox@@QAEPAVAbstractAnnotationBox@@PAV2@@Z 00412350 f   printsop.obj
 0001:00011410       ??0BasicFilmSession@@QAE@XZ 00412410 f i printsop.obj
 0001:00011470       ??0BasicPrinter@@QAE@XZ    00412470 f i printsop.obj
 0001:000114b0       ??0BasicPrintJob@@QAE@XZ   004124b0 f i printsop.obj
 0001:000114f0       ??1AbstractFilmSession@@UAE@XZ 004124f0 f   printsop.obj
 0001:00011570       ?Add@AbstractFilmSession@@QAEPAVAbstractFilmBox@@PAV2@@Z 00412570 f   printsop.obj
 0001:00011630       ?Add@AbstractFilmSession@@QAEPAVAbstractPrintJob@@PAV2@@Z 00412630 f   printsop.obj
 0001:000116f0       ?ResyncAbstractFilmBoxs@AbstractFilmSession@@QAEHXZ 004126f0 f   printsop.obj
 0001:000119c0       ?ResyncAbstractImageBoxs@AbstractFilmBox@@QAEHXZ 004129c0 f   printsop.obj
 0001:00011c60       ?ResyncAbstractAnnotationBoxs@AbstractFilmBox@@QAEHXZ 00412c60 f   printsop.obj
 0001:00011f00       ?ResyncAbstractOverlayBoxs@AbstractImageBox@@QAEHXZ 00412f00 f   printsop.obj
 0001:000121a0       ?ResyncAbstractLUTBoxs@AbstractImageBox@@QAEHXZ 004131a0 f   printsop.obj
 0001:00012440       ??1AbstractPrintManagementMeta@@UAE@XZ 00413440 f   printsop.obj
 0001:000124d0       ?ReadBasicFilmBox@AbstractPrintManagementMeta@@MAEHPAVPDU_Service@@PAVDICOMCommandObject@@GPAVUID@@@Z 004134d0 f   printsop.obj
 0001:00012ce0       ?Read@AbstractPrintManagementMeta@@QAEHPAVPDU_Service@@PAVDICOMCommandObject@@@Z 00413ce0 f   printsop.obj
 0001:000136e0       ?Delete@AbstractPrintManagementMeta@@QAEHPAVPDU_Service@@@Z 004146e0 f   printsop.obj
 0001:00013710       ?DeleteFilm@AbstractPrintManagementMeta@@QAEHPAVPDU_Service@@@Z 00414710 f   printsop.obj
 0001:00013790       ?GetPrinterA@AbstractPrintManagementMeta@@UAEHPAVPDU_Service@@PAVDICOMDataObject@@@Z 00414790 f   printsop.obj
 0001:00013840       ?GetPrintJob@AbstractPrintManagementMeta@@UAEHPAVPDU_Service@@AAVUID@@PAVDICOMDataObject@@@Z 00414840 f   printsop.obj
 0001:00013880       ??_E?$Array@PAVAbstractImageBox@@@@UAEPAXI@Z 00414880 f i printsop.obj
 0001:00013880       ??_G?$Array@PAVAbstractImageBox@@@@UAEPAXI@Z 00414880 f i printsop.obj
 0001:000138b0       ??_G?$Array@PAVAbstractAnnotationBox@@@@UAEPAXI@Z 004148b0 f i printsop.obj
 0001:000138b0       ??_E?$Array@PAVAbstractAnnotationBox@@@@UAEPAXI@Z 004148b0 f i printsop.obj
 0001:000138e0       ??_E?$Array@PAVAbstractPrintJob@@@@UAEPAXI@Z 004148e0 f i printsop.obj
 0001:000138e0       ??_G?$Array@PAVAbstractPrintJob@@@@UAEPAXI@Z 004148e0 f i printsop.obj
 0001:00013910       ?Write@BasicGrayscaleImageBox@@QAEHPAVPDU_Service@@PAVUID@@PAVDICOMDataObject@@AAVAbstractPrintManagementMeta@@@Z 00414910 f i printsop.obj
 0001:00013920       ?Write@BasicAnnotationBox@@QAEHPAVPDU_Service@@PAVUID@@PAVDICOMDataObject@@AAVAbstractPrintManagementMeta@@@Z 00414920 f i printsop.obj
 0001:00013930       ?WritePrint@StandardFilm@@QAEHPAVPDU_Service@@PAVUID@@AAVAbstractPrintManagementMeta@@@Z 00414930 f   printsop.obj
 0001:00013dd0       ??_GAbstractImageBox@@UAEPAXI@Z 00414dd0 f i printsop.obj
 0001:00013dd0       ??_EAbstractImageBox@@UAEPAXI@Z 00414dd0 f i printsop.obj
 0001:00013e00       ??_EAbstractFilmBox@@UAEPAXI@Z 00414e00 f i printsop.obj
 0001:00013e00       ??_GAbstractFilmBox@@UAEPAXI@Z 00414e00 f i printsop.obj
 0001:00013e30       ??0AbstractFilmSession@@QAE@XZ 00414e30 f   printsop.obj
 0001:00013ff0       ??_EAbstractFilmSession@@UAEPAXI@Z 00414ff0 f i printsop.obj
 0001:00013ff0       ??_GAbstractFilmSession@@UAEPAXI@Z 00414ff0 f i printsop.obj
 0001:00014020       ??0AbstractPrintManagementMeta@@QAE@XZ 00415020 f   printsop.obj
 0001:000141d0       ??_GAbstractPrintManagementMeta@@UAEPAXI@Z 004151d0 f i printsop.obj
 0001:000141d0       ??_EAbstractPrintManagementMeta@@UAEPAXI@Z 004151d0 f i printsop.obj
 0001:00014200       ?Write@AbstractPrintManagementMeta@@QAEHPAVPDU_Service@@@Z 00415200 f   printsop.obj
 0001:00014520       ?PrintSession@AbstractPrintManagementMeta@@QAEHPAVPDU_Service@@PAVUID@@@Z 00415520 f   printsop.obj
 0001:000145d0       ?PrintFilm@AbstractPrintManagementMeta@@QAEHPAVPDU_Service@@PAVUID@@G@Z 004155d0 f   printsop.obj
 0001:000146d0       ?WriteBox@BasicGrayscalePrintManagementMeta@@EAEHPAVPDU_Service@@PAVUID@@PAVDICOMDataObject@@@Z 004156d0 f   printsop.obj
 0001:00014700       ?strchr@@YAPADPADH@Z       00415700 f i dicom:cong.obj
 0001:00014710       ?strstr@@YAPADPADPBD@Z     00415710 f i dicom:cong.obj
 0001:00014740       ?GetIncomingEndian@Buffer@@QAEIXZ 00415740 f i dicom:cong.obj
 0001:00014750       ??0VR@@QAE@XZ              00415750 f i dicom:cong.obj
 0001:00014770       ?SetType@TransferSyntax@@QAEXI@Z 00415770 f i dicom:cong.obj
 0001:00014780       ??0BufferSpace@@QAE@XZ     00415780 f   dicom:cong.obj
 0001:000147a0       ??1BufferSpace@@QAE@XZ     004157a0 f   dicom:cong.obj
 0001:000147c0       ??_GBufferSpace@@QAEPAXI@Z 004157c0 f i dicom:cong.obj
 0001:000147f0       ?SetIncomingEndian@Buffer@@QAEHI@Z 004157f0 f   dicom:cong.obj
 0001:00014800       ?SetOutgoingEndian@Buffer@@QAEHI@Z 00415800 f   dicom:cong.obj
 0001:00014810       ?SetBreakSize@Buffer@@QAEHI@Z 00415810 f   dicom:cong.obj
 0001:00014820       ?Poll@Buffer@@QAEHXZ       00415820 f   dicom:cong.obj
 0001:00014830       ??0Socket@@QAE@XZ          00415830 f   dicom:cong.obj
 0001:00014880       ??1Socket@@UAE@XZ          00415880 f   dicom:cong.obj
 0001:000148e0       ?Gethostbyname@Socket@@QAEPAUhostent@@PAD@Z 004158e0 f   dicom:cong.obj
 0001:00014990       ?Getservbyname@Socket@@QAEPAUservent@@PBDPAD@Z 00415990 f   dicom:cong.obj
 0001:000149f0       ?Open@Socket@@UAEHPAD0@Z   004159f0 f   dicom:cong.obj
 0001:00014b00       ?Close@Socket@@QAEHXZ      00415b00 f   dicom:cong.obj
 0001:00014b40       ?Poll@Socket@@UAEHXZ       00415b40 f   dicom:cong.obj
 0001:00014ba0       ?SendBinary@Socket@@UAEHPAEI@Z 00415ba0 f   dicom:cong.obj
 0001:00014bd0       ?ReadBinary@Socket@@UAEHPAEI@Z 00415bd0 f   dicom:cong.obj
 0001:00014c60       ?GetLinkError@Socket@@QAEHXZ 00415c60 f   dicom:cong.obj
 0001:00014c70       ?SetTimeOut@Socket@@QAEHH@Z 00415c70 f   dicom:cong.obj
 0001:00014c80       ?BindUDPServer@Socket@@QAEHPAD@Z 00415c80 f   dicom:cong.obj
 0001:00014d50       ?BindUDPClient@Socket@@QAEHPADPBD@Z 00415d50 f   dicom:cong.obj
 0001:00014e80       ?SetDicomErrorHandler@@YAXP6AXHPBDH@Z@Z 00415e80 f   dicom:cong.obj
 0001:00014e90       ?DicomError@@YAHHPBDH@Z    00415e90 f   dicom:cong.obj
 0001:00014ee0       ??0VR@@QAE@GGIH@Z          00415ee0 f   dicom:cong.obj
 0001:00014f70       ??0VR@@QAE@GGIPAG@Z        00415f70 f   dicom:cong.obj
 0001:00014fb0       ??0VR@@QAE@GGIPAGH@Z       00415fb0 f   dicom:cong.obj
 0001:00014ff0       ??0VR@@QAE@GGIPAX@Z        00415ff0 f   dicom:cong.obj
 0001:00015030       ??0VR@@QAE@GGIPAXH@Z       00416030 f   dicom:cong.obj
 0001:00015070       ??OVR@@QAEIAAV0@@Z         00416070 f   dicom:cong.obj
 0001:000150a0       ??MVR@@QAEIAAV0@@Z         004160a0 f   dicom:cong.obj
 0001:000150d0       ??8VR@@QAEIAAV0@@Z         004160d0 f   dicom:cong.obj
 0001:00015100       ?GroupLength@VRGroupPQueue@@QAEPAVVR@@XZ 00416100 f   dicom:cong.obj
 0001:000151e0       ??OVRGroupPQueue@@QAEIAAV0@@Z 004161e0 f   dicom:cong.obj
 0001:00015200       ??MVRGroupPQueue@@QAEIAAV0@@Z 00416200 f   dicom:cong.obj
 0001:00015220       ??8VRGroupPQueue@@QAEIAAV0@@Z 00416220 f   dicom:cong.obj
 0001:00015240       ?GetSpecialValueCodeOfVR@VR@@AAEHPAV1@@Z 00416240 f   dicom:cong.obj
 0001:000152f0       ?GetUINT16@VR@@QAEGXZ      004162f0 f   dicom:cong.obj
 0001:00015330       ?GetUINT@VR@@QAEIXZ        00416330 f   dicom:cong.obj
 0001:00015360       ?GetULongLong@VR@@QAE_KXZ  00416360 f   dicom:cong.obj
 0001:000153d0       ?Getatoi@VR@@QAEHXZ        004163d0 f   dicom:cong.obj
 0001:00015430       ?SwapBigEndianData@VR@@QAEXXZ 00416430 f   dicom:cong.obj
 0001:00015520       ??1ApplicationContext@@QAE@XZ 00416520 f   dicom:cong.obj
 0001:00015530       ?Set@ApplicationContext@@QAEXAAVUID@@@Z 00416530 f   dicom:cong.obj
 0001:00015570       ?Size@ApplicationContext@@QAEIXZ 00416570 f   dicom:cong.obj
 0001:00015580       ??1AbstractSyntax@@QAE@XZ  00416580 f   dicom:cong.obj
 0001:00015590       ?Set@AbstractSyntax@@QAEXAAVUID@@@Z 00416590 f   dicom:cong.obj
 0001:000155d0       ?Size@AbstractSyntax@@QAEIXZ 004165d0 f   dicom:cong.obj
 0001:000155e0       ??1TransferSyntax@@QAE@XZ  004165e0 f   dicom:cong.obj
 0001:000155f0       ?Set@TransferSyntax@@QAEXAAVUID@@@Z 004165f0 f   dicom:cong.obj
 0001:00015630       ?Size@TransferSyntax@@QAEIXZ 00416630 f   dicom:cong.obj
 0001:00015640       ??1ImplementationClass@@QAE@XZ 00416640 f   dicom:cong.obj
 0001:00015650       ?Set@ImplementationClass@@QAEXAAVUID@@@Z 00416650 f   dicom:cong.obj
 0001:00015690       ?Size@ImplementationClass@@QAEIXZ 00416690 f   dicom:cong.obj
 0001:000156a0       ??1ImplementationVersion@@QAE@XZ 004166a0 f   dicom:cong.obj
 0001:000156b0       ?Set@ImplementationVersion@@QAEXAAVUID@@@Z 004166b0 f   dicom:cong.obj
 0001:000156f0       ?Size@ImplementationVersion@@QAEIXZ 004166f0 f   dicom:cong.obj
 0001:00015700       ?SetAbstractSyntax@PresentationContext@@QAEXAAVAbstractSyntax@@@Z 00416700 f   dicom:cong.obj
 0001:00015710       ??0MaximumSubLength@@QAE@XZ 00416710 f   dicom:cong.obj
 0001:00015720       ??0MaximumSubLength@@QAE@I@Z 00416720 f   dicom:cong.obj
 0001:00015740       ??1MaximumSubLength@@QAE@XZ 00416740 f   dicom:cong.obj
 0001:00015750       ?Set@MaximumSubLength@@QAEXI@Z 00416750 f   dicom:cong.obj
 0001:00015760       ?Get@MaximumSubLength@@QAEIXZ 00416760 f   dicom:cong.obj
 0001:00015770       ?Size@MaximumSubLength@@QAEIXZ 00416770 f   dicom:cong.obj
 0001:00015780       ??1SCPSCURoleSelect@@QAE@XZ 00416780 f   dicom:cong.obj
 0001:00015790       ?Size@SCPSCURoleSelect@@QAEIXZ 00416790 f   dicom:cong.obj
 0001:000157b0       ??1UserInformation@@QAE@XZ 004167b0 f   dicom:cong.obj
 0001:000157c0       ?SetMax@UserInformation@@QAEXAAVMaximumSubLength@@@Z 004167c0 f   dicom:cong.obj
 0001:000157e0       ?GetMax@UserInformation@@QAEIXZ 004167e0 f   dicom:cong.obj
 0001:000157f0       ?Size@UserInformation@@QAEIXZ 004167f0 f   dicom:cong.obj
 0001:00015830       ??4ApplicationContext@@QAEAAV0@AAV0@@Z 00416830 f i dicom:cong.obj
 0001:00015890       ?SetApplicationContext@AAssociateRQ@@QAEXAAVUID@@@Z 00416890 f   dicom:cong.obj
 0001:000158d0       ??4ImplementationClass@@QAEAAV0@AAV0@@Z 004168d0 f i dicom:cong.obj
 0001:00015930       ??4ImplementationVersion@@QAEAAV0@AAV0@@Z 00416930 f i dicom:cong.obj
 0001:00015990       ??4SCPSCURoleSelect@@QAEAAV0@AAV0@@Z 00416990 f i dicom:cong.obj
 0001:00015a00       ??1PresentationContextAccept@@QAE@XZ 00416a00 f   dicom:cong.obj
 0001:00015a10       ?SetTransferSyntax@PresentationContextAccept@@QAEXAAVTransferSyntax@@@Z 00416a10 f   dicom:cong.obj
 0001:00015a20       ?Size@PresentationContextAccept@@QAEIXZ 00416a20 f   dicom:cong.obj
 0001:00015a40       ?SetApplicationContext@AAssociateAC@@QAEXAAVApplicationContext@@@Z 00416a40 f   dicom:cong.obj
 0001:00015a50       ??0AAssociateRJ@@QAE@XZ    00416a50 f   dicom:cong.obj
 0001:00015a80       ??0AAssociateRJ@@QAE@EEE@Z 00416a80 f   dicom:cong.obj
 0001:00015ab0       ??1AAssociateRJ@@UAE@XZ    00416ab0 f   dicom:cong.obj
 0001:00015ac0       ?Size@AAssociateRJ@@QAEIXZ 00416ac0 f   dicom:cong.obj
 0001:00015ad0       ??0AReleaseRQ@@QAE@XZ      00416ad0 f   dicom:cong.obj
 0001:00015af0       ??1AReleaseRQ@@UAE@XZ      00416af0 f   dicom:cong.obj
 0001:00015b00       ?Size@AReleaseRQ@@QAEIXZ   00416b00 f   dicom:cong.obj
 0001:00015b10       ??0AReleaseRP@@QAE@XZ      00416b10 f   dicom:cong.obj
 0001:00015b30       ??1AReleaseRP@@UAE@XZ      00416b30 f   dicom:cong.obj
 0001:00015b40       ?Size@AReleaseRP@@QAEIXZ   00416b40 f   dicom:cong.obj
 0001:00015b50       ??0AAbortRQ@@QAE@XZ        00416b50 f   dicom:cong.obj
 0001:00015b70       ??0AAbortRQ@@QAE@EE@Z      00416b70 f   dicom:cong.obj
 0001:00015ba0       ??1AAbortRQ@@UAE@XZ        00416ba0 f   dicom:cong.obj
 0001:00015bb0       ?Size@AAbortRQ@@QAEIXZ     00416bb0 f   dicom:cong.obj
 0001:00015bc0       ?ReadBinary@MemoryBuffer@@UAEHPAEI@Z 00416bc0 f   dicom:cong.obj
 0001:00015c20       ?SendBinary@MemoryBuffer@@UAEHPAEI@Z 00416c20 f   dicom:cong.obj
 0001:00015c30       ?GetOutgoingSize@LinkedBuffer@@QAEIXZ 00416c30 f   dicom:cong.obj
 0001:00015c40       ?GetIncomingSize@LinkedBuffer@@QAEIXZ 00416c40 f   dicom:cong.obj
 0001:00015c50       ?CanYouHandleTransferSyntax@PDU_Service@@UAEHAAVTransferSyntax@@@Z 00416c50 f   dicom:cong.obj
 0001:00015c80       ?SetApplicationContext@PDU_Service@@UAEHAAVUID@@@Z 00416c80 f   dicom:cong.obj
 0001:00015cd0       ?GetLocalAddress@PDU_Service@@UAEHPAE@Z 00416cd0 f   dicom:cong.obj
 0001:00015d10       ?GetRemoteAddress@PDU_Service@@UAEHPAE@Z 00416d10 f   dicom:cong.obj
 0001:00015d50       ?ImplicitLittleEndian_ParseRawVRIntoDCM@PDU_Service@@MAEHAAVLinkedBuffer@@PAVDICOMObject@@@Z 00416d50 f   dicom:cong.obj
 0001:00015d70       ?ImplicitLittleEndian_ParseDCMIntoRawVR@PDU_Service@@MAEHPAVDICOMObject@@AAVLinkedBuffer@@@Z 00416d70 f   dicom:cong.obj
 0001:00015d90       ?ExplicitLittleEndian_ParseRawVRIntoDCM@PDU_Service@@MAEHAAVLinkedBuffer@@PAVDICOMObject@@@Z 00416d90 f   dicom:cong.obj
 0001:00015db0       ?ExplicitLittleEndian_ParseDCMIntoRawVR@PDU_Service@@MAEHPAVDICOMObject@@AAVLinkedBuffer@@@Z 00416db0 f   dicom:cong.obj
 0001:00015dd0       ?ExplicitBigEndian_ParseRawVRIntoDCM@PDU_Service@@MAEHAAVLinkedBuffer@@PAVDICOMObject@@@Z 00416dd0 f   dicom:cong.obj
 0001:00015df0       ?ExplicitBigEndian_ParseDCMIntoRawVR@PDU_Service@@MAEHPAVDICOMObject@@AAVLinkedBuffer@@@Z 00416df0 f   dicom:cong.obj
 0001:00015e30       ?GetTransferSyntaxUID@PDU_Service@@QAEPADI@Z 00416e30 f   dicom:cong.obj
 0001:00015ea0       ?SwitchEndian@@YAGG@Z      00416ea0 f   dicom:cong.obj
 0001:00015ec0       ?SwitchEndian@@YAII@Z      00416ec0 f   dicom:cong.obj
 0001:00015ee0       ?SwitchEndian@@YAFF@Z      00416ee0 f   dicom:cong.obj
 0001:00015f00       ?SwitchEndian@@YAHH@Z      00416f00 f   dicom:cong.obj
 0001:00015f20       ??4BE_UINT16@@QAEAAV0@AAG@Z 00416f20 f   dicom:cong.obj
 0001:00015f40       ??4BE_UINT16@@QAEAAV0@ABV0@@Z 00416f40 f   dicom:cong.obj
 0001:00015f50       ??4BE_UINT16@@QAEAAV0@ABH@Z 00416f50 f   dicom:cong.obj
 0001:00015f70       ??IBE_UINT16@@QAEPAV0@XZ   00416f70 f   dicom:cong.obj
 0001:00015f80       ??BBE_UINT16@@QAEGXZ       00416f80 f   dicom:cong.obj
 0001:00015fa0       ??0BE_UINT16@@QAE@XZ       00416fa0 f   dicom:cong.obj
 0001:00015fb0       ??0BE_UINT16@@QAE@AAV0@@Z  00416fb0 f   dicom:cong.obj
 0001:00015fc0       ??0BE_UINT16@@QAE@G@Z      00416fc0 f   dicom:cong.obj
 0001:00015fe0       ??0BE_UINT16@@QAE@I@Z      00416fe0 f   dicom:cong.obj
 0001:00016000       ??0BE_UINT16@@QAE@F@Z      00417000 f   dicom:cong.obj
 0001:00016020       ??0BE_UINT16@@QAE@H@Z      00417020 f   dicom:cong.obj
 0001:00016040       ??4BE_UINT32@@QAEAAV0@AAI@Z 00417040 f   dicom:cong.obj
 0001:00016070       ??4BE_UINT32@@QAEAAV0@ABV0@@Z 00417070 f   dicom:cong.obj
 0001:00016080       ??4BE_UINT32@@QAEAAV0@ABH@Z 00417080 f   dicom:cong.obj
 0001:000160b0       ??IBE_UINT32@@QAEPAV0@XZ   004170b0 f   dicom:cong.obj
 0001:000160c0       ??BBE_UINT32@@QAEIXZ       004170c0 f   dicom:cong.obj
 0001:000160e0       ??0BE_UINT32@@QAE@XZ       004170e0 f   dicom:cong.obj
 0001:000160f0       ??0BE_UINT32@@QAE@AAV0@@Z  004170f0 f   dicom:cong.obj
 0001:00016100       ??0BE_UINT32@@QAE@G@Z      00417100 f   dicom:cong.obj
 0001:00016130       ??0BE_UINT32@@QAE@I@Z      00417130 f   dicom:cong.obj
 0001:00016160       ??0BE_UINT32@@QAE@F@Z      00417160 f   dicom:cong.obj
 0001:00016190       ??0BE_UINT32@@QAE@H@Z      00417190 f   dicom:cong.obj
 0001:000161c0       ??4BE_INT16@@QAEAAV0@AAF@Z 004171c0 f   dicom:cong.obj
 0001:000161e0       ??4BE_INT16@@QAEAAV0@ABV0@@Z 004171e0 f   dicom:cong.obj
 0001:000161f0       ??4BE_INT16@@QAEAAV0@ABH@Z 004171f0 f   dicom:cong.obj
 0001:00016210       ??IBE_INT16@@QAEPAV0@XZ    00417210 f   dicom:cong.obj
 0001:00016220       ??BBE_INT16@@QAEFXZ        00417220 f   dicom:cong.obj
 0001:00016240       ??0BE_INT16@@QAE@XZ        00417240 f   dicom:cong.obj
 0001:00016250       ??0BE_INT16@@QAE@AAV0@@Z   00417250 f   dicom:cong.obj
 0001:00016260       ??0BE_INT16@@QAE@G@Z       00417260 f   dicom:cong.obj
 0001:00016280       ??0BE_INT16@@QAE@I@Z       00417280 f   dicom:cong.obj
 0001:000162a0       ??0BE_INT16@@QAE@F@Z       004172a0 f   dicom:cong.obj
 0001:000162c0       ??0BE_INT16@@QAE@H@Z       004172c0 f   dicom:cong.obj
 0001:000162e0       ??4BE_INT32@@QAEAAV0@AAH@Z 004172e0 f   dicom:cong.obj
 0001:00016310       ??4BE_INT32@@QAEAAV0@ABV0@@Z 00417310 f   dicom:cong.obj
 0001:00016320       ??4BE_INT32@@QAEAAV0@ABH@Z 00417320 f   dicom:cong.obj
 0001:00016350       ??IBE_INT32@@QAEPAV0@XZ    00417350 f   dicom:cong.obj
 0001:00016360       ??BBE_INT32@@QAEHXZ        00417360 f   dicom:cong.obj
 0001:00016380       ??0BE_INT32@@QAE@XZ        00417380 f   dicom:cong.obj
 0001:00016390       ??0BE_INT32@@QAE@AAV0@@Z   00417390 f   dicom:cong.obj
 0001:000163a0       ??0BE_INT32@@QAE@G@Z       004173a0 f   dicom:cong.obj
 0001:000163d0       ??0BE_INT32@@QAE@I@Z       004173d0 f   dicom:cong.obj
 0001:00016400       ??0BE_INT32@@QAE@F@Z       00417400 f   dicom:cong.obj
 0001:00016430       ??0BE_INT32@@QAE@H@Z       00417430 f   dicom:cong.obj
 0001:00016460       ?uniq@@YAIXZ               00417460 f   dicom:cong.obj
 0001:00016480       ?uniq32@@YAIXZ             00417480 f   dicom:cong.obj
 0001:000164a0       ?uniq16@@YAGXZ             004174a0 f   dicom:cong.obj
 0001:000164c0       ?uniq8@@YAEXZ              004174c0 f   dicom:cong.obj
 0001:000164e0       ?uniq8odd@@YAEXZ           004174e0 f   dicom:cong.obj
 0001:00016500       ?uniq16odd@@YAGXZ          00417500 f   dicom:cong.obj
 0001:00016520       ?Hex2Dec@@YAGD@Z           00417520 f   dicom:cong.obj
 0001:00016560       ?secofday@@YAIPAUtm@@@Z    00417560 f   dicom:cong.obj
 0001:00016590       ?SpaceMem@@YAHPAEI@Z       00417590 f   dicom:cong.obj
 0001:000165b0       ?strcpylim@@YAPADPADPBDI@Z 004175b0 f   dicom:cong.obj
 0001:000165f0       ?strcpysplim@@YAPADPADPBDI@Z 004175f0 f   dicom:cong.obj
 0001:00016630       ?streq@@YAHPBD0@Z          00417630 f   dicom:cong.obj
 0001:00016680       ?strneq@@YAHPBD0I@Z        00417680 f   dicom:cong.obj
 0001:000166d0       ?strieq@@YAHPBD0@Z         004176d0 f   dicom:cong.obj
 0001:00016740       ?strnieq@@YAHPBD0I@Z       00417740 f   dicom:cong.obj
 0001:000167b0       ?strileq@@YAHPBD0@Z        004177b0 f   dicom:cong.obj
 0001:00016810       ?strnileq@@YAHPBD0I@Z      00417810 f   dicom:cong.obj
 0001:00016880       ?strnlen32@@YAHPBDI@Z      00417880 f   dicom:cong.obj
 0001:000168c0       ?strnlen32u@@YAIPBDI@Z     004178c0 f   dicom:cong.obj
 0001:000168f0       ?strnlenint@@YAHPBDI@Z     004178f0 f   dicom:cong.obj
 0001:00016930       _strnlen                   00417930 f   dicom:cong.obj
 0001:00016960       ?timeofdayeq@@YAHPAUtm@@0@Z 00417960 f   dicom:cong.obj
 0001:000169d0       ?ZeroMem@@YAHPAEI@Z        004179d0 f   dicom:cong.obj
 0001:000169f0       ?TranslateUIDToVR@@YAPAVVR@@PAVUID@@GG@Z 004179f0 f   dicom:cong.obj
 0001:00016c50       ?SetUID@@YAHAAVUID@@PAVVR@@@Z 00417c50 f   dicom:cong.obj
 0001:00016ce0       ?GetUID@UnknownStorage@@UAEHAAVUID@@@Z 00417ce0 f   dicom:cong.obj
 0001:00016d10       ?ReleaseMemory@CheckedPDU_Service@@QAEHXZ 00417d10 f   dicom:cong.obj
 0001:00016f60       ?InitializeFrom@CheckedPDU_Service@@QAEHPAD@Z 00417f60 f   dicom:cong.obj
 0001:00017b30       ?ShouldIAcceptRemoteApTitle@CheckedPDU_Service@@EAEHPAE@Z 00418b30 f   dicom:cong.obj
 0001:00017c50       ?ShouldIAcceptLocalApTitle@CheckedPDU_Service@@EAEHPAE@Z 00418c50 f   dicom:cong.obj
 0001:00017d70       ?OpenForRead@FileBuffer@@QAEHPAD@Z 00418d70 f   dicom:cong.obj
 0001:00017da0       ?OpenForWrite@FileBuffer@@QAEHPAD@Z 00418da0 f   dicom:cong.obj
 0001:00017dd0       ?Close@FileBuffer@@QAEHXZ  00418dd0 f   dicom:cong.obj
 0001:00017df0       ?SendBinary@FileBuffer@@UAEHPAEI@Z 00418df0 f   dicom:cong.obj
 0001:00017e10       ?ReadBinary@FileBuffer@@UAEHPAEI@Z 00418e10 f   dicom:cong.obj
 0001:00017e50       ?Pack@@YAHEEAAG@Z          00418e50 f   dicom:cong.obj
 0001:00017e70       ?Pack@@YAHGAAE0@Z          00418e70 f   dicom:cong.obj
 0001:00017fc0       ?GetFileName@ACRNemaMap@@QAEPBDXZ 00418fc0 f   dicom:cong.obj
 0001:00017fd0       ?getItemNotEnd@ACRNemaMap@@AAEHPADPAPADI@Z 00418fd0 f   dicom:cong.obj
 0001:00018070       ?iswhitespacea@ACRNemaMap@@AAEHD@Z 00419070 f   dicom:cong.obj
 0001:000180d0       ?wildIPCheck@ACRNemaMap@@AAEXPADPBD0@Z 004190d0 f   dicom:cong.obj
 0001:000181c0       ?to_char_type@?$char_traits@D@std@@SADABH@Z 004191c0 f i dicom:cong.obj
 0001:000181d0       ?_Getctype@_Locinfo@std@@QBE?AU_Ctypevec@@XZ 004191d0 f i dicom:cong.obj
 0001:00018200       ??0locale@std@@QAE@XZ      00419200 f i dicom:cong.obj
 0001:00018220       ??0codecvt_base@std@@QAE@I@Z 00419220 f i dicom:cong.obj
 0001:00018280       ?always_noconv@codecvt_base@std@@QBE_NXZ 00419280 f i dicom:cong.obj
 0001:00018290       ??1codecvt_base@std@@UAE@XZ 00419290 f i dicom:cong.obj
 0001:000182e0       ?do_always_noconv@codecvt_base@std@@MBE_NXZ 004192e0 f i dicom:cong.obj
 0001:000182f0       ?do_max_length@codecvt_base@std@@MBEHXZ 004192f0 f i dicom:cong.obj
 0001:00018300       ?do_encoding@codecvt_base@std@@MBEHXZ 00419300 f i dicom:cong.obj
 0001:00018310       ??_Ecodecvt_base@std@@UAEPAXI@Z 00419310 f i dicom:cong.obj
 0001:00018310       ??_Gcodecvt_base@std@@UAEPAXI@Z 00419310 f i dicom:cong.obj
 0001:00018380       ??0ctype_base@std@@QAE@I@Z 00419380 f i dicom:cong.obj
 0001:000183e0       ??1ctype_base@std@@UAE@XZ  004193e0 f i dicom:cong.obj
 0001:00018430       ??_Gctype_base@std@@UAEPAXI@Z 00419430 f i dicom:cong.obj
 0001:00018430       ??_Ectype_base@std@@UAEPAXI@Z 00419430 f i dicom:cong.obj
 0001:000184a0       ?is@?$ctype@D@std@@QBE_NFD@Z 004194a0 f i dicom:cong.obj
 0001:000184c0       ?widen@?$ctype@D@std@@QBEDD@Z 004194c0 f i dicom:cong.obj
 0001:000184d0       ?_Init@?$ctype@D@std@@IAEXABV_Locinfo@2@@Z 004194d0 f i dicom:cong.obj
 0001:00018510       ?_Tidy@?$ctype@D@std@@IAEXXZ 00419510 f i dicom:cong.obj
 0001:00018540       ??1ios_base@std@@UAE@XZ    00419540 f i dicom:cong.obj
 0001:00018550       ??0ios_base@std@@IAE@XZ    00419550 f i dicom:cong.obj
 0001:00018560       ??_Eios_base@std@@UAEPAXI@Z 00419560 f i dicom:cong.obj
 0001:00018560       ??_Gios_base@std@@UAEPAXI@Z 00419560 f i dicom:cong.obj
 0001:00018590       ?commentSize@@YAHPBDH@Z    00419590 f   dicom:cong.obj
 0001:000185d0       ?GetSize@?$Array@PAVBufferSpace@@@@QAEIXZ 004195d0 f i dicom:cong.obj
 0001:000185e0       ??0?$Array@PAVBufferSpace@@@@QAE@XZ 004195e0 f i dicom:cong.obj
 0001:00018610       ?GetSize@?$Array@PAVVR@@@@QAEIXZ 00419610 f i dicom:cong.obj
 0001:00018620       ??0?$Array@PAVVR@@@@QAE@XZ 00419620 f i dicom:cong.obj
 0001:00018650       ?GetSize@?$Array@PAVVRGroupPQueue@@@@QAEIXZ 00419650 f i dicom:cong.obj
 0001:00018660       ??0?$Array@PAVVRGroupPQueue@@@@QAE@XZ 00419660 f i dicom:cong.obj
 0001:00018690       ?Clear@?$Array@VTransferSyntax@@@@QAEHXZ 00419690 f i dicom:cong.obj
 0001:000186b0       ??0?$Array@VTransferSyntax@@@@QAE@XZ 004196b0 f i dicom:cong.obj
 0001:000186e0       ??0?$Array@VTransferSyntax@@@@QAE@ABV0@@Z 004196e0 f i dicom:cong.obj
 0001:00018720       ??0?$Array@VPresentationContext@@@@QAE@XZ 00419720 f i dicom:cong.obj
 0001:00018750       ??4?$Array@VPresentationContext@@@@QAEABV0@AAV0@@Z 00419750 f i dicom:cong.obj
 0001:00018780       ??0?$Array@VPresentationContextAccept@@@@QAE@XZ 00419780 f i dicom:cong.obj
 0001:000187b0       ??4?$Array@VPresentationContextAccept@@@@QAEABV0@AAV0@@Z 004197b0 f i dicom:cong.obj
 0001:000187e0       ?GetSize@?$Array@VAbstractSyntax@@@@QAEIXZ 004197e0 f i dicom:cong.obj
 0001:000187f0       ??0?$Array@VAbstractSyntax@@@@QAE@XZ 004197f0 f i dicom:cong.obj
 0001:00018820       ?GetSize@?$Array@PAVDICOMObject@@@@QAEIXZ 00419820 f i dicom:cong.obj
 0001:00018830       ??0?$Array@PAVDICOMObject@@@@QAE@XZ 00419830 f i dicom:cong.obj
 0001:00018860       ?Get@?$FixedArray@IU_RTCElement@@@@QAEAAU_RTCElement@@H@Z 00419860 f i dicom:cong.obj
 0001:00018870       ?GetSize@?$FixedArray@IU_RTCElement@@@@QAEIXZ 00419870 f i dicom:cong.obj
 0001:00018880       ?GetSize@?$Array@U_RTCElement@@@@QAEIXZ 00419880 f i dicom:cong.obj
 0001:00018890       ??0?$Array@U_RTCElement@@@@QAE@XZ 00419890 f i dicom:cong.obj
 0001:000188c0       ?GetSize@?$Array@PAU_ACRNemaAddress@@@@QAEIXZ 004198c0 f i dicom:cong.obj
 0001:000188d0       ??0?$Array@PAU_ACRNemaAddress@@@@QAE@XZ 004198d0 f i dicom:cong.obj
 0001:00018900       ??1?$basic_ios@DU?$char_traits@D@std@@@std@@UAE@XZ 00419900 f i dicom:cong.obj
 0001:00018960       ??1?$basic_istream@DU?$char_traits@D@std@@@std@@UAE@XZ 00419960 f i dicom:cong.obj
 0001:00018970       ?gcount@?$basic_istream@DU?$char_traits@D@std@@@std@@QBEHXZ 00419970 f i dicom:cong.obj
 0001:00018980       ??Bsentry@?$basic_istream@DU?$char_traits@D@std@@@std@@QBE_NXZ 00419980 f i dicom:cong.obj
 0001:00018990       ??0?$fpos@H@std@@QAE@J@Z   00419990 f i dicom:cong.obj
 0001:000189b0       ??B?$fpos@H@std@@QBEJXZ    004199b0 f i dicom:cong.obj
 0001:000189c0       ??_E?$basic_ios@DU?$char_traits@D@std@@@std@@UAEPAXI@Z 004199c0 f i dicom:cong.obj
 0001:000189c0       ??_G?$basic_ios@DU?$char_traits@D@std@@@std@@UAEPAXI@Z 004199c0 f i dicom:cong.obj
 0001:000189e0       ??_Glocale@std@@QAEPAXI@Z  004199e0 f i dicom:cong.obj
 0001:00018a20       ??_D?$basic_istream@DU?$char_traits@D@std@@@std@@QAEXXZ 00419a20 f i dicom:cong.obj
 0001:00018a40       ??0?$basic_ios@DU?$char_traits@D@std@@@std@@IAE@XZ 00419a40 f i dicom:cong.obj
 0001:00018aa0       ?pubseekoff@?$basic_streambuf@DU?$char_traits@D@std@@@std@@QAE?AV?$fpos@H@2@JHH@Z 00419aa0 f i dicom:cong.obj
 0001:00018ad0       ?gptr@?$basic_streambuf@DU?$char_traits@D@std@@@std@@IBEPADXZ 00419ad0 f i dicom:cong.obj
 0001:00018ae0       ?setg@?$basic_streambuf@DU?$char_traits@D@std@@@std@@IAEXPAD00@Z 00419ae0 f i dicom:cong.obj
 0001:00018b00       ?_Gninc@?$basic_streambuf@DU?$char_traits@D@std@@@std@@IAEPADXZ 00419b00 f i dicom:cong.obj
 0001:00018b20       ?_Gnpreinc@?$basic_streambuf@DU?$char_traits@D@std@@@std@@IAEPADXZ 00419b20 f i dicom:cong.obj
 0001:00018b40       ?_Gnavail@?$basic_streambuf@DU?$char_traits@D@std@@@std@@IBEHXZ 00419b40 f i dicom:cong.obj
 0001:00018b60       ?is_open@?$basic_filebuf@DU?$char_traits@D@std@@@std@@QBE_NXZ 00419b60 f i dicom:cong.obj
 0001:00018b70       ?getloc@?$basic_streambuf@DU?$char_traits@D@std@@@std@@QBE?AVlocale@2@XZ 00419b70 f i dicom:cong.obj
 0001:00018bd0       ?_Sgetn_s@?$basic_streambuf@DU?$char_traits@D@std@@@std@@QAEHPADIH@Z 00419bd0 f i dicom:cong.obj
 0001:00018be0       ?_Init@?$basic_streambuf@DU?$char_traits@D@std@@@std@@IAEXPAPAD0PAH001@Z 00419be0 f i dicom:cong.obj
 0001:00018c10       ??D?$_String_const_iterator@DU?$char_traits@D@std@@V?$allocator@D@2@@std@@QBEABDXZ 00419c10 f i dicom:cong.obj
 0001:00018c50       ?unshift@?$codecvt@DDH@std@@QBEHAAHPAD1AAPAD@Z 00419c50 f i dicom:cong.obj
 0001:00018c60       ?setp@?$basic_streambuf@DU?$char_traits@D@std@@@std@@IAEXPAD0@Z 00419c60 f i dicom:cong.obj
 0001:00018c80       ??0?$_Ranit_base@DHPBDABDU_Iterator_base@std@@@std@@QAE@XZ 00419c80 f i dicom:cong.obj
 0001:00018c90       ?Get@?$Array@PAVBufferSpace@@@@QAEAAPAVBufferSpace@@I@Z 00419c90 f i dicom:cong.obj
 0001:00018d10       ?RemoveAt@?$Array@PAVBufferSpace@@@@QAEHI@Z 00419d10 f i dicom:cong.obj
 0001:00018da0       ??1?$Array@PAVBufferSpace@@@@UAE@XZ 00419da0 f i dicom:cong.obj
 0001:00018e30       ?Get@?$Array@PAVVR@@@@QAEAAPAVVR@@I@Z 00419e30 f i dicom:cong.obj
 0001:00018eb0       ?RemoveAt@?$Array@PAVVR@@@@QAEHI@Z 00419eb0 f i dicom:cong.obj
 0001:00018f40       ??1?$Array@PAVVR@@@@UAE@XZ 00419f40 f i dicom:cong.obj
 0001:00018fd0       ?Pop@?$PQueueOfPtr@PAVVR@@@@QAEAAPAVVR@@XZ 00419fd0 f i dicom:cong.obj
 0001:00019110       ?Get@?$Array@PAVVRGroupPQueue@@@@QAEAAPAVVRGroupPQueue@@I@Z 0041a110 f i dicom:cong.obj
 0001:00019190       ?RemoveAt@?$Array@PAVVRGroupPQueue@@@@QAEHI@Z 0041a190 f i dicom:cong.obj
 0001:00019220       ??1?$Array@PAVVRGroupPQueue@@@@UAE@XZ 0041a220 f i dicom:cong.obj
 0001:000192b0       ?Pop@?$PQueueOfPtr@PAVVRGroupPQueue@@@@QAEAAPAVVRGroupPQueue@@XZ 0041a2b0 f i dicom:cong.obj
 0001:00019400       ??0?$Array@VPresentationContext@@@@QAE@I@Z 0041a400 f i dicom:cong.obj
 0001:00019430       ??0?$Array@VPresentationContextAccept@@@@QAE@I@Z 0041a430 f i dicom:cong.obj
 0001:00019460       ?Get@?$Array@VAbstractSyntax@@@@QAEAAVAbstractSyntax@@I@Z 0041a460 f i dicom:cong.obj
 0001:000194e0       ?Get@?$Array@PAVDICOMObject@@@@QAEAAPAVDICOMObject@@I@Z 0041a4e0 f i dicom:cong.obj
 0001:00019560       ?RemoveAt@?$Array@PAVDICOMObject@@@@QAEHI@Z 0041a560 f i dicom:cong.obj
 0001:000195f0       ??1?$Array@PAVDICOMObject@@@@UAE@XZ 0041a5f0 f i dicom:cong.obj
 0001:00019680       ??0?$FixedArray@IU_RTCElement@@@@QAE@IH@Z 0041a680 f i dicom:cong.obj
 0001:000196e0       ??1?$FixedArray@IU_RTCElement@@@@QAE@XZ 0041a6e0 f i dicom:cong.obj
 0001:00019710       ?Add@?$FixedArray@IU_RTCElement@@@@QAEAAU_RTCElement@@AAIAAU2@@Z 0041a710 f i dicom:cong.obj
 0001:00019770       ?IndexOf@?$FixedArray@IU_RTCElement@@@@QAEHAAI@Z 0041a770 f i dicom:cong.obj
 0001:00019830       ?Get@?$Array@U_RTCElement@@@@QAEAAU_RTCElement@@I@Z 0041a830 f i dicom:cong.obj
 0001:000198b0       ?RemoveAt@?$Array@U_RTCElement@@@@QAEHI@Z 0041a8b0 f i dicom:cong.obj
 0001:00019940       ??1?$Array@U_RTCElement@@@@UAE@XZ 0041a940 f i dicom:cong.obj
 0001:000199d0       ?Get@?$Array@PAU_ACRNemaAddress@@@@QAEAAPAU_ACRNemaAddress@@I@Z 0041a9d0 f i dicom:cong.obj
 0001:00019a50       ?ReplaceAt@?$Array@PAU_ACRNemaAddress@@@@QAEAAPAU_ACRNemaAddress@@AAPAU2@I@Z 0041aa50 f i dicom:cong.obj
 0001:00019af0       ?RemoveAt@?$Array@PAU_ACRNemaAddress@@@@QAEHI@Z 0041aaf0 f i dicom:cong.obj
 0001:00019b80       ??1?$Array@PAU_ACRNemaAddress@@@@UAE@XZ 0041ab80 f i dicom:cong.obj
 0001:00019c10       ??1?$DataLink@VPresentationContextAccept@@@@QAE@XZ 0041ac10 f i dicom:cong.obj
 0001:00019c20       ??1?$DataLink@VAbstractSyntax@@@@QAE@XZ 0041ac20 f i dicom:cong.obj
 0001:00019c30       ??0?$DataLink@PAVBufferSpace@@@@QAE@XZ 0041ac30 f i dicom:cong.obj
 0001:00019c40       ??0?$DataLink@PAVVRGroupPQueue@@@@QAE@XZ 0041ac40 f i dicom:cong.obj
 0001:00019c50       ??0?$DataLink@PAVDICOMObject@@@@QAE@XZ 0041ac50 f i dicom:cong.obj
 0001:00019c60       ??0?$Array@V?$FixedArrayElement@IU_RTCElement@@@@@@QAE@XZ 0041ac60 f i dicom:cong.obj
 0001:00019c90       ??0?$DataLink@U_RTCElement@@@@QAE@XZ 0041ac90 f i dicom:cong.obj
 0001:00019ca0       ??0?$DataLink@PAU_ACRNemaAddress@@@@QAE@XZ 0041aca0 f i dicom:cong.obj
 0001:00019cb0       ?_Init@?$codecvt@DDH@std@@IAEXABV_Locinfo@2@@Z 0041acb0 f i dicom:cong.obj
 0001:00019cc0       ??1?$DataLink@VTransferSyntax@@@@QAE@XZ 0041acc0 f i dicom:cong.obj
 0001:00019cd0       ??0?$DataLink@PAVVR@@@@QAE@XZ 0041acd0 f i dicom:cong.obj
 0001:00019ce0       ??O?$FixedArrayElement@IU_RTCElement@@@@QAEIAAV0@@Z 0041ace0 f i dicom:cong.obj
 0001:00019cf0       ??M?$FixedArrayElement@IU_RTCElement@@@@QAEIAAV0@@Z 0041acf0 f i dicom:cong.obj
 0001:00019d00       ?GetSize@?$Array@V?$FixedArrayElement@IU_RTCElement@@@@@@QAEIXZ 0041ad00 f i dicom:cong.obj
 0001:00019d10       ?Get@?$Array@V?$FixedArrayElement@IU_RTCElement@@@@@@QAEAAV?$FixedArrayElement@IU_RTCElement@@@@I@Z 0041ad10 f i dicom:cong.obj
 0001:00019d90       ?RemoveAt@?$Array@V?$FixedArrayElement@IU_RTCElement@@@@@@QAEHI@Z 0041ad90 f i dicom:cong.obj
 0001:00019e20       ??0?$DataLink@V?$FixedArrayElement@IU_RTCElement@@@@@@QAE@XZ 0041ae20 f i dicom:cong.obj
 0001:00019e30       ??0?$PQueueOfPtr@PAVVR@@@@QAE@XZ 0041ae30 f i dicom:cong.obj
 0001:00019ea0       ??1?$PQueueOfPtr@PAVVR@@@@UAE@XZ 0041aea0 f i dicom:cong.obj
 0001:00019ef0       ??_E?$PQueueOfPtr@PAVVR@@@@UAEPAXI@Z 0041aef0 f i dicom:cong.obj
 0001:00019ef0       ??_G?$PQueueOfPtr@PAVVR@@@@UAEPAXI@Z 0041aef0 f i dicom:cong.obj
 0001:00019f50       ??0BufferSpace@@QAE@I@Z    0041af50 f   dicom:cong.obj
 0001:00019fa0       ??0Buffer@@QAE@XZ          0041afa0 f   dicom:cong.obj
 0001:0001a040       ??1Buffer@@UAE@XZ          0041b040 f   dicom:cong.obj
 0001:0001a280       ?Flush@Buffer@@QAEHXZ      0041b280 f   dicom:cong.obj
 0001:0001a3d0       ?Flush@Buffer@@QAEHI@Z     0041b3d0 f   dicom:cong.obj
 0001:0001a590       ??_GSocket@@UAEPAXI@Z      0041b590 f i dicom:cong.obj
 0001:0001a590       ??_ESocket@@UAEPAXI@Z      0041b590 f i dicom:cong.obj
 0001:0001a5b0       ?Listen@Socket@@QAEHPAD@Z  0041b5b0 f   dicom:cong.obj
 0001:0001a6d0       ?Accept@Socket@@QAEHXZ     0041b6d0 f   dicom:cong.obj
 0001:0001a740       ??1VR@@QAE@XZ              0041b740 f   dicom:cong.obj
 0001:0001a850       ?Pop@VRGroupPQueue@@QAEPAVVR@@XZ 0041b850 f   dicom:cong.obj
 0001:0001a890       ??0?$PQueueOfPtr@PAVVRGroupPQueue@@@@QAE@XZ 0041b890 f i dicom:cong.obj
 0001:0001a900       ??1?$PQueueOfPtr@PAVVRGroupPQueue@@@@UAE@XZ 0041b900 f i dicom:cong.obj
 0001:0001a950       ??_E?$PQueueOfPtr@PAVVRGroupPQueue@@@@UAEPAXI@Z 0041b950 f i dicom:cong.obj
 0001:0001a950       ??_G?$PQueueOfPtr@PAVVRGroupPQueue@@@@UAEPAXI@Z 0041b950 f i dicom:cong.obj
 0001:0001a9b0       ?GetVR@DICOMObject@@QAEPAVVR@@GG@Z 0041b9b0 f   dicom:cong.obj
 0001:0001aa20       ?GetBYTE@DICOMObject@@QAEEGG@Z 0041ba20 f   dicom:cong.obj
 0001:0001aa60       ?GetUINT16@DICOMObject@@QAEGGG@Z 0041ba60 f   dicom:cong.obj
 0001:0001aac0       ?GetUINT@DICOMObject@@QAEIGG@Z 0041bac0 f   dicom:cong.obj
 0001:0001ab10       ?GetULongLong@DICOMObject@@QAE_KGG@Z 0041bb10 f   dicom:cong.obj
 0001:0001aba0       ?Getatoi@DICOMObject@@QAEHGG@Z 0041bba0 f   dicom:cong.obj
 0001:0001ac30       ?GetCString@DICOMObject@@QAEPADGGI@Z 0041bc30 f   dicom:cong.obj
 0001:0001aca0       ?DeleteVR@DICOMObject@@QAEHPAVVR@@@Z 0041bca0 f   dicom:cong.obj
 0001:0001adb0       ?Reset@DICOMObject@@UAEHXZ 0041bdb0 f   dicom:cong.obj
 0001:0001ae00       ?SetIf@VR@@QAEHPAV1@@Z     0041be00 f   dicom:cong.obj
 0001:0001b1d0       ?Reset@VR@@QAEHXZ          0041c1d0 f   dicom:cong.obj
 0001:0001b2e0       ?ReAlloc@VR@@QAEHI@Z       0041c2e0 f   dicom:cong.obj
 0001:0001b360       ??0ApplicationContext@@QAE@XZ 0041c360 f   dicom:cong.obj
 0001:0001b390       ??0ApplicationContext@@QAE@AAVUID@@@Z 0041c390 f   dicom:cong.obj
 0001:0001b400       ??0ApplicationContext@@QAE@PAE@Z 0041c400 f   dicom:cong.obj
 0001:0001b440       ?Set@ApplicationContext@@QAEXPAE@Z 0041c440 f   dicom:cong.obj
 0001:0001b450       ??0AbstractSyntax@@QAE@XZ  0041c450 f   dicom:cong.obj
 0001:0001b480       ??0AbstractSyntax@@QAE@AAVUID@@@Z 0041c480 f   dicom:cong.obj
 0001:0001b4f0       ??0AbstractSyntax@@QAE@PAE@Z 0041c4f0 f   dicom:cong.obj
 0001:0001b530       ?Set@AbstractSyntax@@QAEXPAE@Z 0041c530 f   dicom:cong.obj
 0001:0001b540       ??0TransferSyntax@@QAE@XZ  0041c540 f   dicom:cong.obj
 0001:0001b570       ??0TransferSyntax@@QAE@AAVUID@@@Z 0041c570 f   dicom:cong.obj
 0001:0001b5e0       ??0TransferSyntax@@QAE@PAE@Z 0041c5e0 f   dicom:cong.obj
 0001:0001b620       ?Set@TransferSyntax@@QAEXPAE@Z 0041c620 f   dicom:cong.obj
 0001:0001b630       ??0ImplementationClass@@QAE@XZ 0041c630 f   dicom:cong.obj
 0001:0001b660       ??0ImplementationClass@@QAE@AAVUID@@@Z 0041c660 f   dicom:cong.obj
 0001:0001b6d0       ??0ImplementationClass@@QAE@PAE@Z 0041c6d0 f   dicom:cong.obj
 0001:0001b710       ?Set@ImplementationClass@@QAEXPAE@Z 0041c710 f   dicom:cong.obj
 0001:0001b720       ??0ImplementationVersion@@QAE@XZ 0041c720 f   dicom:cong.obj
 0001:0001b750       ??0ImplementationVersion@@QAE@AAVUID@@@Z 0041c750 f   dicom:cong.obj
 0001:0001b7c0       ??0ImplementationVersion@@QAE@PAE@Z 0041c7c0 f   dicom:cong.obj
 0001:0001b800       ?Set@ImplementationVersion@@QAEXPAE@Z 0041c800 f   dicom:cong.obj
 0001:0001b810       ?Size@PresentationContext@@QAEIXZ 0041c810 f   dicom:cong.obj
 0001:0001b860       ??0SCPSCURoleSelect@@QAE@XZ 0041c860 f   dicom:cong.obj
 0001:0001b890       ??0UserInformation@@QAE@XZ 0041c890 f   dicom:cong.obj
 0001:0001b910       ?SetCalledApTitle@AAssociateRQ@@QAEXPAE@Z 0041c910 f   dicom:cong.obj
 0001:0001b960       ?SetCallingApTitle@AAssociateRQ@@QAEXPAE@Z 0041c960 f   dicom:cong.obj
 0001:0001b9b0       ?SetApplicationContext@AAssociateRQ@@QAEXAAVApplicationContext@@@Z 0041c9b0 f   dicom:cong.obj
 0001:0001b9c0       ??4UserInformation@@QAEAAV0@AAV0@@Z 0041c9c0 f i dicom:cong.obj
 0001:0001ba20       ??0PresentationContextAccept@@QAE@XZ 0041ca20 f   dicom:cong.obj
 0001:0001ba70       ??0PresentationContextAccept@@QAE@AAVTransferSyntax@@@Z 0041ca70 f   dicom:cong.obj
 0001:0001bad0       ?SetCalledApTitle@AAssociateAC@@QAEXPAE@Z 0041cad0 f   dicom:cong.obj
 0001:0001bb20       ?SetCallingApTitle@AAssociateAC@@QAEXPAE@Z 0041cb20 f   dicom:cong.obj
 0001:0001bb70       ?SetUserInformation@AAssociateAC@@QAEXAAVUserInformation@@@Z 0041cb70 f   dicom:cong.obj
 0001:0001bb80       ??_GAAssociateRJ@@UAEPAXI@Z 0041cb80 f i dicom:cong.obj
 0001:0001bb80       ??_EAAssociateRJ@@UAEPAXI@Z 0041cb80 f i dicom:cong.obj
 0001:0001bba0       ??_GAReleaseRQ@@UAEPAXI@Z  0041cba0 f i dicom:cong.obj
 0001:0001bba0       ??_EAReleaseRQ@@UAEPAXI@Z  0041cba0 f i dicom:cong.obj
 0001:0001bbc0       ??_EAReleaseRP@@UAEPAXI@Z  0041cbc0 f i dicom:cong.obj
 0001:0001bbc0       ??_GAReleaseRP@@UAEPAXI@Z  0041cbc0 f i dicom:cong.obj
 0001:0001bbe0       ??_EAAbortRQ@@UAEPAXI@Z    0041cbe0 f i dicom:cong.obj
 0001:0001bbe0       ??_GAAbortRQ@@UAEPAXI@Z    0041cbe0 f i dicom:cong.obj
 0001:0001bc00       ?Flush@LinkedBuffer@@QAEHAAVBuffer@@I@Z 0041cc00 f   dicom:cong.obj
 0001:0001bc20       ?GetAcceptedPCIDForTransferSyntax@PDU_Service@@QAEEAAVUID@@@Z 0041cc20 f   dicom:cong.obj
 0001:0001bdc0       ?GetTransferSyntaxUID@PDU_Service@@QAEHEAAVUID@@@Z 0041cdc0 f   dicom:cong.obj
 0001:0001beb0       ?SetLocalAddress@PDU_Service@@UAEHPAE@Z 0041ceb0 f   dicom:cong.obj
 0001:0001bed0       ?SetRemoteAddress@PDU_Service@@UAEHPAE@Z 0041ced0 f   dicom:cong.obj
 0001:0001bef0       ?GetImplementationClass@PDU_Service@@MAEHAAVImplementationClass@@@Z 0041cef0 f   dicom:cong.obj
 0001:0001bf10       ?GetImplementationVersion@PDU_Service@@MAEHAAVImplementationVersion@@@Z 0041cf10 f   dicom:cong.obj
 0001:0001bf30       ?ParseRawVRIntoDCM@PDU_Service@@MAEHEAAVLinkedBuffer@@PAVDICOMObject@@@Z 0041cf30 f   dicom:cong.obj
 0001:0001c1a0       ?ParseDCMIntoRawVR@PDU_Service@@MAEEPAVDICOMObject@@AAVLinkedBuffer@@@Z 0041d1a0 f   dicom:cong.obj
 0001:0001c330       ?ConvertNumber@@YAGPAD@Z   0041d330 f   dicom:cong.obj
 0001:0001c3e0       ?strcatlim@@YAPADPADPBDI@Z 0041d3e0 f   dicom:cong.obj
 0001:0001c410       ?Read@CEchoRQ@@QAEHPAVDICOMCommandObject@@@Z 0041d410 f   dicom:cong.obj
 0001:0001c440       ?Read@CEchoRSP@@QAEHPAVDICOMCommandObject@@@Z 0041d440 f   dicom:cong.obj
 0001:0001c470       ?Read@CStoreRSP@@QAEHPAVDICOMCommandObject@@@Z 0041d470 f   dicom:cong.obj
 0001:0001c4a0       ?Read@NDeleteRQ@@QAEHPAVDICOMCommandObject@@PAVPDU_Service@@@Z 0041d4a0 f   dicom:cong.obj
 0001:0001c4e0       ?Read@NDeleteRSP@@QAEHPAVDICOMCommandObject@@PAVPDU_Service@@@Z 0041d4e0 f   dicom:cong.obj
 0001:0001c520       ?GetUID@Verification@@UAEHAAVUID@@@Z 0041d520 f   dicom:cong.obj
 0001:0001c540       ?ReadRequest@Verification@@QAEHPAVPDU_Service@@PAVDICOMCommandObject@@@Z 0041d540 f   dicom:cong.obj
 0001:0001c620       ?GetUID@CRStorage@@UAEHAAVUID@@@Z 0041d620 f   dicom:cong.obj
 0001:0001c640       ?GetUID@CTStorage@@UAEHAAVUID@@@Z 0041d640 f   dicom:cong.obj
 0001:0001c660       ?GetUID@USMultiframeStorage@@UAEHAAVUID@@@Z 0041d660 f   dicom:cong.obj
 0001:0001c680       ?GetUID@MRStorage@@UAEHAAVUID@@@Z 0041d680 f   dicom:cong.obj
 0001:0001c6a0       ?GetUID@NMStorage@@UAEHAAVUID@@@Z 0041d6a0 f   dicom:cong.obj
 0001:0001c6c0       ?GetUID@USStorage@@UAEHAAVUID@@@Z 0041d6c0 f   dicom:cong.obj
 0001:0001c6e0       ?GetUID@SCStorage@@UAEHAAVUID@@@Z 0041d6e0 f   dicom:cong.obj
 0001:0001c700       ?GetUID@StandaloneOverlayStorage@@UAEHAAVUID@@@Z 0041d700 f   dicom:cong.obj
 0001:0001c720       ?GetUID@StandaloneCurveStorage@@UAEHAAVUID@@@Z 0041d720 f   dicom:cong.obj
 0001:0001c740       ?GetUID@StandaloneModalityLUTStorage@@UAEHAAVUID@@@Z 0041d740 f   dicom:cong.obj
 0001:0001c760       ?GetUID@StandaloneVOILUTStorage@@UAEHAAVUID@@@Z 0041d760 f   dicom:cong.obj
 0001:0001c780       ?GetUID@GEMRStorage@@UAEHAAVUID@@@Z 0041d780 f   dicom:cong.obj
 0001:0001c7a0       ?GetUID@GECTStorage@@UAEHAAVUID@@@Z 0041d7a0 f   dicom:cong.obj
 0001:0001c7c0       ?GetUID@PatientRootQuery@@UAEHAAVUID@@@Z 0041d7c0 f   dicom:cong.obj
 0001:0001c7e0       ?GetUID@PatientRootRetrieve@@UAEHAAVUID@@@Z 0041d7e0 f   dicom:cong.obj
 0001:0001c800       ?GetUID@StudyRootQuery@@UAEHAAVUID@@@Z 0041d800 f   dicom:cong.obj
 0001:0001c820       ?GetUID@StudyRootRetrieve@@UAEHAAVUID@@@Z 0041d820 f   dicom:cong.obj
 0001:0001c840       ?GetUID@PatientStudyOnlyQuery@@UAEHAAVUID@@@Z 0041d840 f   dicom:cong.obj
 0001:0001c860       ?GetUID@PatientStudyOnlyRetrieve@@UAEHAAVUID@@@Z 0041d860 f   dicom:cong.obj
 0001:0001c880       ?GetUID@ModalityWorkListQuery@@UAEHAAVUID@@@Z 0041d880 f   dicom:cong.obj
 0001:0001c8a0       ??_G?$FixedArray@IU_RTCElement@@@@QAEPAXI@Z 0041d8a0 f i dicom:cong.obj
 0001:0001c8e0       ?RunTimeClass@RTC@@QAEGGGPAD@Z 0041d8e0 f   dicom:cong.obj
 0001:0001c970       ?RunTimeClass@RTC@@QAEHPAVVR@@@Z 0041d970 f   dicom:cong.obj
 0001:0001c9f0       ?GetGroupElement@RTC@@QAEHPAU_RTCElement@@@Z 0041d9f0 f   dicom:cong.obj
 0001:0001cab0       ?AttachBinaryRTC@RTC@@QAEHPAD@Z 0041dab0 f   dicom:cong.obj
 0001:0001cd90       ?AttachResourceRTC@RTC@@QAEHPAD@Z 0041dd90 f   dicom:cong.obj
 0001:0001cfe0       ??0ACRNemaMap@@IAE@XZ      0041dfe0 f   dicom:cong.obj
 0001:0001d0b0       ?ClearMap@ACRNemaMap@@QAEXXZ 0041e0b0 f   dicom:cong.obj
 0001:0001d1a0       ?DeleteEntry@ACRNemaMap@@QAEHI@Z 0041e1a0 f   dicom:cong.obj
 0001:0001d1e0       ?GetACRNema@ACRNemaMap@@QAEHPAD000@Z 0041e1e0 f   dicom:cong.obj
 0001:0001d710       ?GetOneEntry@ACRNemaMap@@QAEXIPADI0@Z 0041e710 f   dicom:cong.obj
 0001:0001d760       ?GetOneACRNemaAddress@ACRNemaMap@@QAEPAU_ACRNemaAddress@@I@Z 0041e760 f   dicom:cong.obj
 0001:0001d780       ?GetSize@ACRNemaMap@@QAEIXZ 0041e780 f   dicom:cong.obj
 0001:0001d790       ?GetWholeAMapToString@ACRNemaMap@@QAEPADPAD@Z 0041e790 f   dicom:cong.obj
 0001:0001d890       ?PrintAMapToString@ACRNemaMap@@QAEPADPAD@Z 0041e890 f   dicom:cong.obj
 0001:0001d900       ?WriteAMapToTheFile@ACRNemaMap@@QAEHPAD@Z 0041e900 f   dicom:cong.obj
 0001:0001da90       ?decommentBuffer@@YAHPADH@Z 0041ea90 f   dicom:cong.obj
 0001:0001dc20       ??A?$Array@VTransferSyntax@@@@QAEAAVTransferSyntax@@I@Z 0041ec20 f i dicom:cong.obj
 0001:0001dc30       ??A?$Array@VPresentationContext@@@@QAEAAVPresentationContext@@I@Z 0041ec30 f i dicom:cong.obj
 0001:0001dc40       ??A?$Array@VPresentationContextAccept@@@@QAEAAVPresentationContextAccept@@I@Z 0041ec40 f i dicom:cong.obj
 0001:0001dc50       ?tellg@?$basic_istream@DU?$char_traits@D@std@@@std@@QAE?AV?$fpos@H@2@XZ 0041ec50 f i dicom:cong.obj
 0001:0001dca0       ??1_Sentry_base@?$basic_istream@DU?$char_traits@D@std@@@std@@QAE@XZ 0041eca0 f i dicom:cong.obj
 0001:0001dcc0       ??1?$basic_streambuf@DU?$char_traits@D@std@@@std@@UAE@XZ 0041ecc0 f i dicom:cong.obj
 0001:0001dd50       ?overflow@?$basic_streambuf@DU?$char_traits@D@std@@@std@@MAEHH@Z 0041ed50 f i dicom:cong.obj
 0001:0001dd60       ?pbackfail@?$basic_streambuf@DU?$char_traits@D@std@@@std@@MAEHH@Z 0041ed60 f i dicom:cong.obj
 0001:0001dd70       ?showmanyc@?$basic_streambuf@DU?$char_traits@D@std@@@std@@MAEHXZ 0041ed70 f i dicom:cong.obj
 0001:0001dd80       ?underflow@?$basic_streambuf@DU?$char_traits@D@std@@@std@@MAEHXZ 0041ed80 f i dicom:cong.obj
 0001:0001dd90       ?xsgetn@?$basic_streambuf@DU?$char_traits@D@std@@@std@@MAEHPADH@Z 0041ed90 f i dicom:cong.obj
 0001:0001ddb0       ?setbuf@?$basic_streambuf@DU?$char_traits@D@std@@@std@@MAEPAV12@PADH@Z 0041edb0 f i dicom:cong.obj
 0001:0001ddc0       ?sync@?$basic_streambuf@DU?$char_traits@D@std@@@std@@MAEHXZ 0041edc0 f i dicom:cong.obj
 0001:0001ddd0       ?imbue@?$basic_streambuf@DU?$char_traits@D@std@@@std@@MAEXABVlocale@2@@Z 0041edd0 f i dicom:cong.obj
 0001:0001dde0       ?pptr@?$basic_streambuf@DU?$char_traits@D@std@@@std@@IBEPADXZ 0041ede0 f i dicom:cong.obj
 0001:0001ddf0       ?gbump@?$basic_streambuf@DU?$char_traits@D@std@@@std@@IAEXH@Z 0041edf0 f i dicom:cong.obj
 0001:0001de10       ?pbump@?$basic_streambuf@DU?$char_traits@D@std@@@std@@IAEXH@Z 0041ee10 f i dicom:cong.obj
 0001:0001de30       ?sgetc@?$basic_streambuf@DU?$char_traits@D@std@@@std@@QAEHXZ 0041ee30 f i dicom:cong.obj
 0001:0001de50       ?uflow@?$basic_streambuf@DU?$char_traits@D@std@@@std@@MAEHXZ 0041ee50 f i dicom:cong.obj
 0001:0001de80       ?seekoff@?$basic_streambuf@DU?$char_traits@D@std@@@std@@MAE?AV?$fpos@H@2@JHH@Z 0041ee80 f i dicom:cong.obj
 0001:0001dea0       ?seekpos@?$basic_streambuf@DU?$char_traits@D@std@@@std@@MAE?AV?$fpos@H@2@V32@H@Z 0041eea0 f i dicom:cong.obj
 0001:0001dec0       ?is_open@?$basic_ifstream@DU?$char_traits@D@std@@@std@@QBE_NXZ 0041eec0 f i dicom:cong.obj
 0001:0001ded0       ??_E?$Array@PAVBufferSpace@@@@UAEPAXI@Z 0041eed0 f i dicom:cong.obj
 0001:0001ded0       ??_G?$Array@PAVBufferSpace@@@@UAEPAXI@Z 0041eed0 f i dicom:cong.obj
 0001:0001def0       ??_E?$Array@PAVVR@@@@UAEPAXI@Z 0041eef0 f i dicom:cong.obj
 0001:0001def0       ??_G?$Array@PAVVR@@@@UAEPAXI@Z 0041eef0 f i dicom:cong.obj
 0001:0001df10       ??_E?$Array@PAVVRGroupPQueue@@@@UAEPAXI@Z 0041ef10 f i dicom:cong.obj
 0001:0001df10       ??_G?$Array@PAVVRGroupPQueue@@@@UAEPAXI@Z 0041ef10 f i dicom:cong.obj
 0001:0001df30       ??_G?$Array@PAVDICOMObject@@@@UAEPAXI@Z 0041ef30 f i dicom:cong.obj
 0001:0001df30       ??_E?$Array@PAVDICOMObject@@@@UAEPAXI@Z 0041ef30 f i dicom:cong.obj
 0001:0001df50       ??_E?$Array@U_RTCElement@@@@UAEPAXI@Z 0041ef50 f i dicom:cong.obj
 0001:0001df50       ??_G?$Array@U_RTCElement@@@@UAEPAXI@Z 0041ef50 f i dicom:cong.obj
 0001:0001df70       ??_G?$Array@PAU_ACRNemaAddress@@@@UAEPAXI@Z 0041ef70 f i dicom:cong.obj
 0001:0001df70       ??_E?$Array@PAU_ACRNemaAddress@@@@UAEPAXI@Z 0041ef70 f i dicom:cong.obj
 0001:0001df90       ??_E?$basic_istream@DU?$char_traits@D@std@@@std@@UAEPAXI@Z 0041ef90 f i dicom:cong.obj
 0001:0001df90       ??_G?$basic_istream@DU?$char_traits@D@std@@@std@@UAEPAXI@Z 0041ef90 f i dicom:cong.obj
 0001:0001dfc0       ??_G?$basic_streambuf@DU?$char_traits@D@std@@@std@@UAEPAXI@Z 0041efc0 f i dicom:cong.obj
 0001:0001dfc0       ??_E?$basic_streambuf@DU?$char_traits@D@std@@@std@@UAEPAXI@Z 0041efc0 f i dicom:cong.obj
 0001:0001dfe0       ??0_Sentry_base@?$basic_istream@DU?$char_traits@D@std@@@std@@QAE@AAV12@@Z 0041efe0 f i dicom:cong.obj
 0001:0001e010       ?sbumpc@?$basic_streambuf@DU?$char_traits@D@std@@@std@@QAEHXZ 0041f010 f i dicom:cong.obj
 0001:0001e040       ??D?$_String_iterator@DU?$char_traits@D@std@@V?$allocator@D@2@@std@@QBEAADXZ 0041f040 f i dicom:cong.obj
 0001:0001e080       ?_Init@?$basic_streambuf@DU?$char_traits@D@std@@@std@@IAEXXZ 0041f080 f i dicom:cong.obj
 0001:0001e0e0       ??0?$_String_const_iterator@DU?$char_traits@D@std@@V?$allocator@D@2@@std@@QAE@PBDPBU_Container_base@1@@Z 0041f0e0 f i dicom:cong.obj
 0001:0001e140       ?Add@?$Array@PAVBufferSpace@@@@QAEAAPAVBufferSpace@@AAPAV2@@Z 0041f140 f i dicom:cong.obj
 0001:0001e1e0       ?Add@?$Array@PAVVRGroupPQueue@@@@QAEAAPAVVRGroupPQueue@@AAPAV2@@Z 0041f1e0 f i dicom:cong.obj
 0001:0001e280       ?Push@?$PQueueOfPtr@PAVVRGroupPQueue@@@@QAEAAPAVVRGroupPQueue@@AAPAV2@@Z 0041f280 f i dicom:cong.obj
 0001:0001e310       ?Add@?$Array@PAVDICOMObject@@@@QAEAAPAVDICOMObject@@AAPAV2@@Z 0041f310 f i dicom:cong.obj
 0001:0001e3b0       ?Add@?$Array@U_RTCElement@@@@QAEAAU_RTCElement@@AAU2@@Z 0041f3b0 f i dicom:cong.obj
 0001:0001e450       ?Add@?$Array@PAU_ACRNemaAddress@@@@QAEAAPAU_ACRNemaAddress@@AAPAU2@@Z 0041f450 f i dicom:cong.obj
 0001:0001e4f0       ??_G?$DataLink@VPresentationContextAccept@@@@QAEPAXI@Z 0041f4f0 f i dicom:cong.obj
 0001:0001e510       ??_G?$DataLink@VAbstractSyntax@@@@QAEPAXI@Z 0041f510 f i dicom:cong.obj
 0001:0001e530       ??0?$DataLink@VTransferSyntax@@@@QAE@XZ 0041f530 f i dicom:cong.obj
 0001:0001e560       ??0?$DataLink@VPresentationContextAccept@@@@QAE@XZ 0041f560 f i dicom:cong.obj
 0001:0001e5b0       ??0?$DataLink@VAbstractSyntax@@@@QAE@XZ 0041f5b0 f i dicom:cong.obj
 0001:0001e5e0       ?Add@?$Array@PAVVR@@@@QAEAAPAVVR@@AAPAV2@@Z 0041f5e0 f i dicom:cong.obj
 0001:0001e680       ??1?$Array@V?$FixedArrayElement@IU_RTCElement@@@@@@UAE@XZ 0041f680 f i dicom:cong.obj
 0001:0001e710       ?Pop@?$PQueue@V?$FixedArrayElement@IU_RTCElement@@@@@@QAEAAV?$FixedArrayElement@IU_RTCElement@@@@XZ 0041f710 f i dicom:cong.obj
 0001:0001e900       ??_G?$DataLink@VTransferSyntax@@@@QAEPAXI@Z 0041f900 f i dicom:cong.obj
 0001:0001e920       ?Add@?$Array@V?$FixedArrayElement@IU_RTCElement@@@@@@QAEAAV?$FixedArrayElement@IU_RTCElement@@@@AAV2@@Z 0041f920 f i dicom:cong.obj
 0001:0001e9d0       ??0VRGroupPQueue@@QAE@G@Z  0041f9d0 f i dicom:cong.obj
 0001:0001ea40       ??1VRGroupPQueue@@UAE@XZ   0041fa40 f i dicom:cong.obj
 0001:0001ea90       ??_EVRGroupPQueue@@UAEPAXI@Z 0041fa90 f i dicom:cong.obj
 0001:0001ea90       ??_GVRGroupPQueue@@UAEPAXI@Z 0041fa90 f i dicom:cong.obj
 0001:0001eaf0       ??0LinkedBuffer@@QAE@XZ    0041faf0 f i dicom:cong.obj
 0001:0001eb50       ??1LinkedBuffer@@UAE@XZ    0041fb50 f i dicom:cong.obj
 0001:0001ebb0       ??_GLinkedBuffer@@UAEPAXI@Z 0041fbb0 f i dicom:cong.obj
 0001:0001ebb0       ??_ELinkedBuffer@@UAEPAXI@Z 0041fbb0 f i dicom:cong.obj
 0001:0001ebd0       ??_GBuffer@@UAEPAXI@Z      0041fbd0 f i dicom:cong.obj
 0001:0001ebd0       ??_EBuffer@@UAEPAXI@Z      0041fbd0 f i dicom:cong.obj
 0001:0001ebf0       ?Write@Buffer@@QAEHPAEI@Z  0041fbf0 f   dicom:cong.obj
 0001:0001ee60       ?ReadBlock@Buffer@@QAEHXZ  0041fe60 f   dicom:cong.obj
 0001:0001ef60       ??0DICOMObject@@QAE@XZ     0041ff60 f   dicom:cong.obj
 0001:0001f000       ?Push@DICOMObject@@UAEHPAV1@@Z 00420000 f   dicom:cong.obj
 0001:0001f0f0       ?ReplaceVR@DICOMObject@@QAEHPAVVR@@@Z 004200f0 f   dicom:cong.obj
 0001:0001f1a0       ?ChangeVR@DICOMObject@@QAEHGGPBDGH@Z 004201a0 f   dicom:cong.obj
 0001:0001f2c0       ?ChangeVR@DICOMObject@@QAEHGGEG@Z 004202c0 f   dicom:cong.obj
 0001:0001f3d0       ?ChangeVR@DICOMObject@@QAEHGGGG@Z 004203d0 f   dicom:cong.obj
 0001:0001f4f0       ?ChangeVR@DICOMObject@@QAEHGGIG@Z 004204f0 f   dicom:cong.obj
 0001:0001f610       ?Package@DICOMObject@@AAEHXZ 00420610 f   dicom:cong.obj
 0001:0001f6d0       ?SetUserInformation@AAssociateRQ@@QAEXAAVUserInformation@@@Z 004206d0 f   dicom:cong.obj
 0001:0001f6e0       ?Size@AAssociateRQ@@QAEIXZ 004206e0 f   dicom:cong.obj
 0001:0001f7e0       ?Size@AAssociateAC@@QAEIXZ 004207e0 f   dicom:cong.obj
 0001:0001f8b0       ??0MemoryBuffer@@QAE@PAEIHI@Z 004208b0 f   dicom:cong.obj
 0001:0001f980       ??1MemoryBuffer@@UAE@XZ    00420980 f   dicom:cong.obj
 0001:0001f9f0       ?SendBinary@LinkedBuffer@@UAEHPAEI@Z 004209f0 f   dicom:cong.obj
 0001:0001fa20       ??0PDataTF@@QAE@XZ         00420a20 f   dicom:cong.obj
 0001:0001fa80       ??1PDataTF@@UAE@XZ         00420a80 f   dicom:cong.obj
 0001:0001fad0       ?CanYouHandleTransferSyntax@CheckedPDU_Service@@UAEHAAVTransferSyntax@@@Z 00420ad0 f   dicom:cong.obj
 0001:0001fcb0       ?ShouldIAcceptApplicationContext@CheckedPDU_Service@@EAEHAAVApplicationContext@@@Z 00420cb0 f   dicom:cong.obj
 0001:0001fdb0       ?ShouldIAcceptAbstractSyntax@CheckedPDU_Service@@EAEHAAVAbstractSyntax@@@Z 00420db0 f   dicom:cong.obj
 0001:0001feb0       ??0FileBuffer@@QAE@XZ      00420eb0 f i dicom:cong.obj
 0001:0001ff10       ??1FileBuffer@@UAE@XZ      00420f10 f i dicom:cong.obj
 0001:0001ff60       ??_EFileBuffer@@UAEPAXI@Z  00420f60 f i dicom:cong.obj
 0001:0001ff60       ??_GFileBuffer@@UAEPAXI@Z  00420f60 f i dicom:cong.obj
 0001:0001ffc0       ?SaveDICOMDataObject@PDU_Service@@QAEHPADIPAVDICOMDataObject@@@Z 00420fc0 f   dicom:cong.obj
 0001:000202d0       ?DetachRTC@RTC@@QAEHXZ     004212d0 f   dicom:cong.obj
 0001:00020360       ??1ACRNemaMap@@IAE@XZ      00421360 f   dicom:cong.obj
 0001:00020390       ?AppendMapToOpenFile@ACRNemaMap@@AAEHPAU_iobuf@@PAD@Z 00421390 f   dicom:cong.obj
 0001:000203f0       ?GetACRNemaNoWild@ACRNemaMap@@QAEHPAD000@Z 004213f0 f   dicom:cong.obj
 0001:00020400       ?ReplaceEntry@ACRNemaMap@@QAEHIPBD000@Z 00421400 f   dicom:cong.obj
 0001:000204f0       ?WriteAMapToAFile@ACRNemaMap@@QAEHPBDPAD@Z 004214f0 f   dicom:cong.obj
 0001:00020560       ??1sentry@?$basic_istream@DU?$char_traits@D@std@@@std@@QAE@XZ 00421560 f i dicom:cong.obj
 0001:000205c0       ?snextc@?$basic_streambuf@DU?$char_traits@D@std@@@std@@QAEHXZ 004215c0 f i dicom:cong.obj
 0001:00020640       ?_Xsgetn_s@?$basic_streambuf@DU?$char_traits@D@std@@@std@@MAEHPADIH@Z 00421640 f i dicom:cong.obj
 0001:000206e0       ?xsputn@?$basic_streambuf@DU?$char_traits@D@std@@@std@@MAEHPBDH@Z 004216e0 f i dicom:cong.obj
 0001:00020780       ?_Init@?$basic_filebuf@DU?$char_traits@D@std@@@std@@IAEXPAU_iobuf@@W4_Initfl@12@@Z 00421780 f i dicom:cong.obj
 0001:000207d0       ?_Initcvt@?$basic_filebuf@DU?$char_traits@D@std@@@std@@IAEXPAV?$codecvt@DDH@2@@Z 004217d0 f i dicom:cong.obj
 0001:00020800       ??0?$basic_streambuf@DU?$char_traits@D@std@@@std@@IAE@XZ 00421800 f i dicom:cong.obj
 0001:00020890       ??0?$_String_iterator@DU?$char_traits@D@std@@V?$allocator@D@2@@std@@QAE@PADPBU_Container_base@1@@Z 00421890 f i dicom:cong.obj
 0001:000208b0       ?Push@?$PQueueOfPtr@PAVVR@@@@QAEAAPAVVR@@AAPAV2@@Z 004218b0 f i dicom:cong.obj
 0001:00020950       ?Add@?$Array@VTransferSyntax@@@@QAEAAVTransferSyntax@@AAV2@@Z 00421950 f i dicom:cong.obj
 0001:00020a10       ?Add@?$Array@VPresentationContextAccept@@@@QAEAAVPresentationContextAccept@@AAV2@@Z 00421a10 f i dicom:cong.obj
 0001:00020ae0       ?RemoveAt@?$Array@VPresentationContextAccept@@@@QAEHI@Z 00421ae0 f i dicom:cong.obj
 0001:00020b70       ??1?$Array@VPresentationContextAccept@@@@UAE@XZ 00421b70 f i dicom:cong.obj
 0001:00020c00       ?Add@?$Array@VAbstractSyntax@@@@QAEAAVAbstractSyntax@@AAV2@@Z 00421c00 f i dicom:cong.obj
 0001:00020cc0       ?RemoveAt@?$Array@VAbstractSyntax@@@@QAEHI@Z 00421cc0 f i dicom:cong.obj
 0001:00020d50       ??1?$Array@VAbstractSyntax@@@@UAE@XZ 00421d50 f i dicom:cong.obj
 0001:00020de0       ??0?$PQueue@V?$FixedArrayElement@IU_RTCElement@@@@@@QAE@XZ 00421de0 f i dicom:cong.obj
 0001:00020e50       ??1?$PQueue@V?$FixedArrayElement@IU_RTCElement@@@@@@UAE@XZ 00421e50 f i dicom:cong.obj
 0001:00020ea0       ??_G?$PQueue@V?$FixedArrayElement@IU_RTCElement@@@@@@UAEPAXI@Z 00421ea0 f i dicom:cong.obj
 0001:00020ea0       ??_E?$PQueue@V?$FixedArrayElement@IU_RTCElement@@@@@@UAEPAXI@Z 00421ea0 f i dicom:cong.obj
 0001:00020f00       ??_G?$Array@V?$FixedArrayElement@IU_RTCElement@@@@@@UAEPAXI@Z 00421f00 f i dicom:cong.obj
 0001:00020f00       ??_E?$Array@V?$FixedArrayElement@IU_RTCElement@@@@@@UAEPAXI@Z 00421f00 f i dicom:cong.obj
 0001:00020f20       ?RemoveAt@?$Array@VTransferSyntax@@@@QAEHI@Z 00421f20 f i dicom:cong.obj
 0001:00020fb0       ?Push@?$PQueue@V?$FixedArrayElement@IU_RTCElement@@@@@@QAEAAV?$FixedArrayElement@IU_RTCElement@@@@AAV2@@Z 00421fb0 f i dicom:cong.obj
 0001:00021080       ??6Buffer@@QAEAAV0@AAE@Z   00422080 f   dicom:cong.obj
 0001:000210b0       ??6Buffer@@QAEAAV0@AAG@Z   004220b0 f   dicom:cong.obj
 0001:00021120       ??6Buffer@@QAEAAV0@AAI@Z   00422120 f   dicom:cong.obj
 0001:00021180       ?Fill@Buffer@@QAEHI@Z      00422180 f   dicom:cong.obj
 0001:000211d0       ?Read@Buffer@@QAEHPAEI@Z   004221d0 f   dicom:cong.obj
 0001:00021320       ?Push@VRGroupPQueue@@QAEHPAVVR@@@Z 00422320 f   dicom:cong.obj
 0001:00021360       ?Push@DICOMObject@@UAEHPAVVR@@@Z 00422360 f   dicom:cong.obj
 0001:000214b0       ?Pop@DICOMObject@@UAEPAVVR@@XZ 004224b0 f   dicom:cong.obj
 0001:00021550       ?Write@ApplicationContext@@QAEHAAVBuffer@@@Z 00422550 f   dicom:cong.obj
 0001:000215b0       ?Write@AbstractSyntax@@QAEHAAVBuffer@@@Z 004225b0 f   dicom:cong.obj
 0001:00021610       ?Write@TransferSyntax@@QAEHAAVBuffer@@@Z 00422610 f   dicom:cong.obj
 0001:00021670       ?Write@ImplementationClass@@QAEHAAVBuffer@@@Z 00422670 f   dicom:cong.obj
 0001:000216d0       ?Write@ImplementationVersion@@QAEHAAVBuffer@@@Z 004226d0 f   dicom:cong.obj
 0001:00021730       ?AddTransferSyntax@PresentationContext@@QAEXAAVTransferSyntax@@@Z 00422730 f   dicom:cong.obj
 0001:00021740       ?Write@PresentationContext@@QAEHAAVBuffer@@@Z 00422740 f   dicom:cong.obj
 0001:00021890       ?Write@MaximumSubLength@@QAEHAAVBuffer@@@Z 00422890 f   dicom:cong.obj
 0001:000218e0       ?Write@SCPSCURoleSelect@@QAEHAAVBuffer@@@Z 004228e0 f   dicom:cong.obj
 0001:00021970       ?Write@UserInformation@@QAEHAAVBuffer@@@Z 00422970 f   dicom:cong.obj
 0001:00021a10       ?Write@AAssociateRQ@@QAEHAAVBuffer@@@Z 00422a10 f   dicom:cong.obj
 0001:00021af0       ?Write@PresentationContextAccept@@QAEHAAVBuffer@@@Z 00422af0 f   dicom:cong.obj
 0001:00021b70       ??0AAssociateAC@@QAE@XZ    00422b70 f   dicom:cong.obj
 0001:00021c80       ??0AAssociateAC@@QAE@PAE0@Z 00422c80 f   dicom:cong.obj
 0001:00021e00       ??1AAssociateAC@@UAE@XZ    00422e00 f   dicom:cong.obj
 0001:00021e50       ?AddPresentationContextAccept@AAssociateAC@@QAEXAAVPresentationContextAccept@@@Z 00422e50 f   dicom:cong.obj
 0001:00021e60       ?Write@AAssociateAC@@QAEHAAVBuffer@@@Z 00422e60 f   dicom:cong.obj
 0001:00021f40       ?Write@AAssociateRJ@@QAEHAAVBuffer@@@Z 00422f40 f   dicom:cong.obj
 0001:00021ff0       ?Write@AReleaseRQ@@QAEHAAVBuffer@@@Z 00422ff0 f   dicom:cong.obj
 0001:00022050       ?Write@AReleaseRP@@QAEHAAVBuffer@@@Z 00423050 f   dicom:cong.obj
 0001:000220b0       ?Write@AAbortRQ@@QAEHAAVBuffer@@@Z 004230b0 f   dicom:cong.obj
 0001:00022160       ??_EMemoryBuffer@@UAEPAXI@Z 00423160 f i dicom:cong.obj
 0001:00022160       ??_GMemoryBuffer@@UAEPAXI@Z 00423160 f i dicom:cong.obj
 0001:00022180       ?Fill@LinkedBuffer@@QAEHAAVBuffer@@I@Z 00423180 f   dicom:cong.obj
 0001:000221a0       ?ReadBinary@LinkedBuffer@@UAEHPAEI@Z 004231a0 f   dicom:cong.obj
 0001:000221d0       ?Write@PDataTF@@QAEHAAVBuffer@@@Z 004231d0 f   dicom:cong.obj
 0001:00022360       ??_GPDataTF@@UAEPAXI@Z     00423360 f i dicom:cong.obj
 0001:00022360       ??_EPDataTF@@UAEPAXI@Z     00423360 f i dicom:cong.obj
 0001:000223d0       ?InterogateAAssociateAC@PDU_Service@@IAEHXZ 004233d0 f   dicom:cong.obj
 0001:00022670       ?ClearAbstractSyntaxs@PDU_Service@@QAEHXZ 00423670 f   dicom:cong.obj
 0001:00022720       ?AddAbstractSyntax@PDU_Service@@UAEHAAVUID@@@Z 00423720 f   dicom:cong.obj
 0001:00022820       ?AddTransferSyntaxs@PDU_Service@@MAEHAAVPresentationContext@@@Z 00423820 f   dicom:cong.obj
 0001:000228e0       ?ParseImagePixelDataDCMToRaw@PDU_Service@@MAEHPAV?$Array@PAVDICOMDataObject@@@@AAVLinkedBuffer@@@Z 004238e0 f   dicom:cong.obj
 0001:00022a80       ?Implicit_ParseDCMIntoRawVR@PDU_Service@@MAEHPAVDICOMObject@@AAVLinkedBuffer@@@Z 00423a80 f   dicom:cong.obj
 0001:00023060       ?Explicit_ParseDCMIntoRawVR@PDU_Service@@MAEHPAVDICOMObject@@AAVLinkedBuffer@@@Z 00424060 f   dicom:cong.obj
 0001:00023720       ?Dynamic_ParseDCMIntoRawVR@PDU_Service@@MAEHPAVDICOMObject@@AAVLinkedBuffer@@I@Z 00424720 f   dicom:cong.obj
 0001:00023f80       ??1RTC@@QAE@XZ             00424f80 f   dicom:cong.obj
 0001:00023f90       ??_E?$Array@VPresentationContextAccept@@@@UAEPAXI@Z 00424f90 f i dicom:cong.obj
 0001:00023f90       ??_G?$Array@VPresentationContextAccept@@@@UAEPAXI@Z 00424f90 f i dicom:cong.obj
 0001:00023fb0       ??_G?$Array@VAbstractSyntax@@@@UAEPAXI@Z 00424fb0 f i dicom:cong.obj
 0001:00023fb0       ??_E?$Array@VAbstractSyntax@@@@UAEPAXI@Z 00424fb0 f i dicom:cong.obj
 0001:00023fd0       ?begin@?$basic_string@DU?$char_traits@D@std@@V?$allocator@D@2@@std@@QAE?AV?$_String_iterator@DU?$char_traits@D@std@@V?$allocator@D@2@@2@XZ 00424fd0 f i dicom:cong.obj
 0001:00024010       ??0?$basic_filebuf@DU?$char_traits@D@std@@@std@@QAE@PAU_iobuf@@@Z 00425010 f i dicom:cong.obj
 0001:000240b0       ?not_eof@?$char_traits@D@std@@SAHABH@Z 004250b0 f i dicom:cong.obj
 0001:000240d0       ??$_Fgetc@D@std@@YA_NAADPAU_iobuf@@@Z 004250d0 f i dicom:cong.obj
 0001:000240f0       ??$_Fputc@D@std@@YA_NDPAU_iobuf@@@Z 004250f0 f i dicom:cong.obj
 0001:00024110       ??$_Ungetc@D@std@@YA_NABDPAU_iobuf@@@Z 00425110 f i dicom:cong.obj
 0001:00024130       ?sync@?$basic_filebuf@DU?$char_traits@D@std@@@std@@MAEHXZ 00425130 f i dicom:cong.obj
 0001:00024160       ?eback@?$basic_streambuf@DU?$char_traits@D@std@@@std@@IBEPADXZ 00425160 f i dicom:cong.obj
 0001:00024170       ?egptr@?$basic_streambuf@DU?$char_traits@D@std@@@std@@IBEPADXZ 00425170 f i dicom:cong.obj
 0001:00024180       ?epptr@?$basic_streambuf@DU?$char_traits@D@std@@@std@@IBEPADXZ 00425180 f i dicom:cong.obj
 0001:00024190       ?_Gndec@?$basic_streambuf@DU?$char_traits@D@std@@@std@@IAEPADXZ 00425190 f i dicom:cong.obj
 0001:000241b0       ??0?$fpos@H@std@@QAE@H_J@Z 004251b0 f i dicom:cong.obj
 0001:000241d0       ?state@?$fpos@H@std@@QBEHXZ 004251d0 f i dicom:cong.obj
 0001:000241e0       ?seekpos@?$fpos@H@std@@QBE_JXZ 004251e0 f i dicom:cong.obj
 0001:000241f0       ?in@?$codecvt@DDH@std@@QBEHAAHPBD1AAPBDPAD3AAPAD@Z 004251f0 f i dicom:cong.obj
 0001:00024200       ?out@?$codecvt@DDH@std@@QBEHAAHPBD1AAPBDPAD3AAPAD@Z 00425200 f i dicom:cong.obj
 0001:00024210       ?pbackfail@?$basic_filebuf@DU?$char_traits@D@std@@@std@@MAEHH@Z 00425210 f i dicom:cong.obj
 0001:00024280       ?underflow@?$basic_filebuf@DU?$char_traits@D@std@@@std@@MAEHXZ 00425280 f i dicom:cong.obj
 0001:000242d0       ?setbuf@?$basic_filebuf@DU?$char_traits@D@std@@@std@@MAEPAV?$basic_streambuf@DU?$char_traits@D@std@@@2@PADH@Z 004252d0 f i dicom:cong.obj
 0001:00024350       ??1?$Array@VTransferSyntax@@@@UAE@XZ 00425350 f i dicom:cong.obj
 0001:000243e0       ?Sort@?$FixedArray@IU_RTCElement@@@@QAEHXZ 004253e0 f i dicom:cong.obj
 0001:00024510       ??5Buffer@@QAEAAV0@AAE@Z   00425510 f   dicom:cong.obj
 0001:00024540       ??5Buffer@@QAEAAV0@AAG@Z   00425540 f   dicom:cong.obj
 0001:000245a0       ??5Buffer@@QAEAAV0@AAI@Z   004255a0 f   dicom:cong.obj
 0001:00024610       ?Kill@Buffer@@QAEHI@Z      00425610 f   dicom:cong.obj
 0001:00024680       ??1DICOMObject@@UAE@XZ     00425680 f   dicom:cong.obj
 0001:00024740       ?ReadDynamic@ApplicationContext@@QAEHAAVBuffer@@@Z 00425740 f   dicom:cong.obj
 0001:000247b0       ?ReadDynamic@AbstractSyntax@@QAEHAAVBuffer@@@Z 004257b0 f   dicom:cong.obj
 0001:00024820       ?ReadDynamic@TransferSyntax@@QAEHAAVBuffer@@@Z 00425820 f   dicom:cong.obj
 0001:00024890       ?ReadDynamic@ImplementationClass@@QAEHAAVBuffer@@@Z 00425890 f   dicom:cong.obj
 0001:00024900       ?ReadDynamic@ImplementationVersion@@QAEHAAVBuffer@@@Z 00425900 f   dicom:cong.obj
 0001:00024970       ??0PresentationContext@@QAE@XZ 00425970 f   dicom:cong.obj
 0001:00024a20       ??0PresentationContext@@QAE@AAVAbstractSyntax@@AAVTransferSyntax@@@Z 00425a20 f   dicom:cong.obj
 0001:00024af0       ??1PresentationContext@@QAE@XZ 00425af0 f   dicom:cong.obj
 0001:00024b40       ?ReadDynamic@MaximumSubLength@@QAEHAAVBuffer@@@Z 00425b40 f   dicom:cong.obj
 0001:00024b80       ?ReadDynamic@SCPSCURoleSelect@@QAEHAAVBuffer@@@Z 00425b80 f   dicom:cong.obj
 0001:00024c20       ?ReadDynamic@UserInformation@@QAEHAAVBuffer@@@Z 00425c20 f   dicom:cong.obj
 0001:00024dd0       ??_GPresentationContext@@QAEPAXI@Z 00425dd0 f i dicom:cong.obj
 0001:00024e30       ??_GAAssociateAC@@UAEPAXI@Z 00425e30 f i dicom:cong.obj
 0001:00024e30       ??_EAAssociateAC@@UAEPAXI@Z 00425e30 f i dicom:cong.obj
 0001:00024e50       ?ReadDynamic@AAssociateRJ@@QAEHAAVBuffer@@@Z 00425e50 f   dicom:cong.obj
 0001:00024ed0       ?ReadDynamic@AReleaseRQ@@QAEHAAVBuffer@@@Z 00425ed0 f   dicom:cong.obj
 0001:00024f10       ?ReadDynamic@AReleaseRP@@QAEHAAVBuffer@@@Z 00425f10 f   dicom:cong.obj
 0001:00024f50       ?ReadDynamic@AAbortRQ@@QAEHAAVBuffer@@@Z 00425f50 f   dicom:cong.obj
 0001:00024fd0       ?ReadDynamic@PDataTF@@QAEHAAVBuffer@@@Z 00425fd0 f   dicom:cong.obj
 0001:000251a0       ??_GRTC@@QAEPAXI@Z         004261a0 f i dicom:cong.obj
 0001:000251c0       ?DetachRTC@PDU_Service@@QAEPAVRTC@@XZ 004261c0 f   dicom:cong.obj
 0001:00025200       ?Implicit_ParseRawVRIntoDCM@PDU_Service@@MAEHAAVLinkedBuffer@@PAVDICOMObject@@H@Z 00426200 f   dicom:cong.obj
 0001:00025900       ?Explicit_ParseRawVRIntoDCM@PDU_Service@@MAEHAAVLinkedBuffer@@PAVDICOMObject@@@Z 00426900 f   dicom:cong.obj
 0001:00026500       ?LoadDICOMDataObject@PDU_Service@@QAEPAVDICOMDataObject@@PAD@Z 00427500 f   dicom:cong.obj
 0001:000266f0       ?MakeChapter10@PDU_Service@@UAEHPAVDICOMDataObject@@PBD@Z 004276f0 f   dicom:cong.obj
 0001:00026c20       ?AttachRTC@RTC@@QAEHPAD@Z  00427c20 f   dicom:cong.obj
 0001:00027550       ?RunTimeClass@RTC@@QAEHPAVDICOMObject@@@Z 00428550 f   dicom:cong.obj
 0001:00027620       ??_E?$Array@VTransferSyntax@@@@UAEPAXI@Z 00428620 f i dicom:cong.obj
 0001:00027620       ??_G?$Array@VTransferSyntax@@@@UAEPAXI@Z 00428620 f i dicom:cong.obj
 0001:00027640       ?assign@?$basic_string@DU?$char_traits@D@std@@V?$allocator@D@2@@std@@QAEAAV12@ID@Z 00428640 f i dicom:cong.obj
 0001:000276d0       ??1?$DataLink@VPresentationContext@@@@QAE@XZ 004286d0 f i dicom:cong.obj
 0001:00027720       ??0?$DataLink@VPresentationContext@@@@QAE@XZ 00428720 f i dicom:cong.obj
 0001:00027780       ??5Buffer@@QAEAAV0@AAD@Z   00428780 f i dicom:cong.obj
 0001:000277b0       ??_GDICOMObject@@UAEPAXI@Z 004287b0 f i dicom:cong.obj
 0001:000277b0       ??_EDICOMObject@@UAEPAXI@Z 004287b0 f i dicom:cong.obj
 0001:000277d0       ?Read@ApplicationContext@@QAEHAAVBuffer@@@Z 004287d0 f   dicom:cong.obj
 0001:00027800       ?Read@AbstractSyntax@@QAEHAAVBuffer@@@Z 00428800 f   dicom:cong.obj
 0001:00027830       ?Read@TransferSyntax@@QAEHAAVBuffer@@@Z 00428830 f   dicom:cong.obj
 0001:00027860       ?Read@ImplementationClass@@QAEHAAVBuffer@@@Z 00428860 f   dicom:cong.obj
 0001:00027890       ?Read@ImplementationVersion@@QAEHAAVBuffer@@@Z 00428890 f   dicom:cong.obj
 0001:000278c0       ?ReadDynamic@PresentationContext@@QAEHAAVBuffer@@@Z 004288c0 f   dicom:cong.obj
 0001:00027a80       ?Read@MaximumSubLength@@QAEHAAVBuffer@@@Z 00428a80 f   dicom:cong.obj
 0001:00027ac0       ?Read@SCPSCURoleSelect@@QAEHAAVBuffer@@@Z 00428ac0 f   dicom:cong.obj
 0001:00027ae0       ?Read@UserInformation@@QAEHAAVBuffer@@@Z 00428ae0 f   dicom:cong.obj
 0001:00027b10       ?ReadDynamic@PresentationContextAccept@@QAEHAAVBuffer@@@Z 00428b10 f   dicom:cong.obj
 0001:00027bb0       ?ReadDynamic@AAssociateAC@@QAEHAAVBuffer@@@Z 00428bb0 f   dicom:cong.obj
 0001:00027e30       ?Read@AAssociateRJ@@QAEHAAVBuffer@@@Z 00428e30 f   dicom:cong.obj
 0001:00027e60       ?Read@AReleaseRQ@@QAEHAAVBuffer@@@Z 00428e60 f   dicom:cong.obj
 0001:00027eb0       ?Read@AReleaseRP@@QAEHAAVBuffer@@@Z 00428eb0 f   dicom:cong.obj
 0001:00027f00       ?Read@AAbortRQ@@QAEHAAVBuffer@@@Z 00428f00 f   dicom:cong.obj
 0001:00027f30       ?AttachRTC@PDU_Service@@QAEHPAVRTC@@H@Z 00428f30 f   dicom:cong.obj
 0001:00027f80       ?Close@PDU_Service@@QAEHXZ 00428f80 f   dicom:cong.obj
 0001:00028030       ?ParseImagePixelDataRawToDCM@PDU_Service@@MAEHAAVLinkedBuffer@@PAVDICOMObject@@@Z 00429030 f   dicom:cong.obj
 0001:00028370       ?Dynamic_ParseRawVRIntoDCM@PDU_Service@@MAEHAAVLinkedBuffer@@PAVDICOMObject@@I@Z 00429370 f   dicom:cong.obj
 0001:00028f50       ?Read@NGetRQ@@QAEHPAVDICOMCommandObject@@PAVPDU_Service@@PAVDICOMDataObject@@@Z 00429f50 f   dicom:cong.obj
 0001:00028fa0       ??0RTC@@QAE@HPAD@Z         00429fa0 f   dicom:cong.obj
 0001:00028fd0       ?MkBinaryRtc@@YAHPAD0H@Z   00429fd0 f   dicom:cong.obj
 0001:000292c0       ?uflow@?$basic_filebuf@DU?$char_traits@D@std@@@std@@MAEHXZ 0042a2c0 f i dicom:cong.obj
 0001:00029640       ??0?$basic_string@DU?$char_traits@D@std@@V?$allocator@D@2@@std@@QAE@ID@Z 0042a640 f i dicom:cong.obj
 0001:00029670       ?_Endwrite@?$basic_filebuf@DU?$char_traits@D@std@@@std@@IAE_NXZ 0042a670 f i dicom:cong.obj
 0001:000299a0       ?Add@?$Array@VPresentationContext@@@@QAEAAVPresentationContext@@AAV2@@Z 0042a9a0 f i dicom:cong.obj
 0001:00029a40       ??_G?$DataLink@VPresentationContext@@@@QAEPAXI@Z 0042aa40 f i dicom:cong.obj
 0001:00029aa0       ?Read@PresentationContext@@QAEHAAVBuffer@@@Z 0042aaa0 f   dicom:cong.obj
 0001:00029ac0       ?AddPresentationContext@AAssociateRQ@@QAEXAAVPresentationContext@@@Z 0042aac0 f   dicom:cong.obj
 0001:00029b00       ?ReadDynamic@AAssociateRQ@@QAEHAAVBuffer@@@Z 0042ab00 f   dicom:cong.obj
 0001:00029ce0       ?Read@PresentationContextAccept@@QAEHAAVBuffer@@@Z 0042ace0 f   dicom:cong.obj
 0001:00029d00       ?Read@AAssociateAC@@QAEHAAVBuffer@@@Z 0042ad00 f   dicom:cong.obj
 0001:00029d30       ?overflow@?$basic_filebuf@DU?$char_traits@D@std@@@std@@MAEHH@Z 0042ad30 f i dicom:cong.obj
 0001:0002a100       ?seekoff@?$basic_filebuf@DU?$char_traits@D@std@@@std@@MAE?AV?$fpos@H@2@JHH@Z 0042b100 f i dicom:cong.obj
 0001:0002a1e0       ?seekpos@?$basic_filebuf@DU?$char_traits@D@std@@@std@@MAE?AV?$fpos@H@2@V32@H@Z 0042b1e0 f i dicom:cong.obj
 0001:0002a2d0       ?close@?$basic_filebuf@DU?$char_traits@D@std@@@std@@QAEPAV12@XZ 0042b2d0 f i dicom:cong.obj
 0001:0002a320       ?RemoveAt@?$Array@VPresentationContext@@@@QAEHI@Z 0042b320 f i dicom:cong.obj
 0001:0002a400       ??1?$Array@VPresentationContext@@@@UAE@XZ 0042b400 f i dicom:cong.obj
 0001:0002a430       ??0AAssociateRQ@@QAE@XZ    0042b430 f   dicom:cong.obj
 0001:0002a540       ??0AAssociateRQ@@QAE@PAE0@Z 0042b540 f   dicom:cong.obj
 0001:0002a6c0       ??1AAssociateRQ@@UAE@XZ    0042b6c0 f   dicom:cong.obj
 0001:0002a7c0       ?ClearPresentationContexts@AAssociateRQ@@QAEXXZ 0042b7c0 f   dicom:cong.obj
 0001:0002a7f0       ?Read@AAssociateRQ@@QAEHAAVBuffer@@@Z 0042b7f0 f   dicom:cong.obj
 0001:0002a820       ??0PDU_Service@@QAE@XZ     0042b820 f   dicom:cong.obj
 0001:0002aa50       ??_EPDU_Service@@WFA@AEPAXI@Z 0042ba50 f i dicom:cong.obj
 0001:0002aa60       ??_EPDU_Service@@WDNI@AEPAXI@Z 0042ba60 f i dicom:cong.obj
 0001:0002aa70       ??_EPDU_Service@@WDPI@AEPAXI@Z 0042ba70 f i dicom:cong.obj
 0001:0002aa80       ??_EPDU_Service@@WCAM@AEPAXI@Z 0042ba80 f i dicom:cong.obj
 0001:0002aa90       ??_EPDU_Service@@WDMI@AEPAXI@Z 0042ba90 f i dicom:cong.obj
 0001:0002aaa0       ??_EPDU_Service@@WDOI@AEPAXI@Z 0042baa0 f i dicom:cong.obj
 0001:0002aab0       ??_EPDU_Service@@WEAI@AEPAXI@Z 0042bab0 f i dicom:cong.obj
 0001:0002aac0       ??1PDU_Service@@UAE@XZ     0042bac0 f   dicom:cong.obj
 0001:0002acf0       ?Read@PDU_Service@@QAEHPAVDICOMObject@@@Z 0042bcf0 f   dicom:cong.obj
 0001:0002ae60       ?InterogateAAssociateRQ@PDU_Service@@IAEHXZ 0042be60 f   dicom:cong.obj
 0001:0002b410       ?Listen@PDU_Service@@QAEHPAE@Z 0042c410 f   dicom:cong.obj
 0001:0002b4d0       ?Listen@PDU_Service@@QAEHH@Z 0042c4d0 f   dicom:cong.obj
 0001:0002b620       ?Multiplex@PDU_Service@@QAEHH@Z 0042c620 f   dicom:cong.obj
 0001:0002b750       ?GetPresentationContextID@PDU_Service@@QAEEAAVUID@@@Z 0042c750 f   dicom:cong.obj
 0001:0002b9e0       ?GetPresentationContextID@PDU_Service@@QAEEAAVUID@@0@Z 0042c9e0 f   dicom:cong.obj
 0001:0002be00       ?IsAbstractSyntaxAccepted@PDU_Service@@QAEHAAVUID@@@Z 0042ce00 f   dicom:cong.obj
 0001:0002bec0       ?AddAbstractSyntaxAlias@PDU_Service@@UAEHAAVUID@@0@Z 0042cec0 f   dicom:cong.obj
 0001:0002c2b0       ?Connect@PDU_Service@@QAEHPAE0@Z 0042d2b0 f   dicom:cong.obj
 0001:0002c5a0       ?ParseDCMIntoRawVR@PDU_Service@@MAEEPAVDICOMObject@@AAVLinkedBuffer@@AAVUID@@H@Z 0042d5a0 f   dicom:cong.obj
 0001:0002c750       ?Read@CStoreRQ@@QAEHPAVDICOMCommandObject@@PAVPDU_Service@@PAVDICOMDataObject@@@Z 0042d750 f   dicom:cong.obj
 0001:0002c7b0       ?Read@CStoreRQ@@QAEHPAVDICOMCommandObject@@@Z 0042d7b0 f   dicom:cong.obj
 0001:0002c7f0       ?Read@CFindRQ@@QAEHPAVDICOMCommandObject@@PAVPDU_Service@@PAVDICOMDataObject@@@Z 0042d7f0 f   dicom:cong.obj
 0001:0002c850       ?Read@CFindRQ@@QAEHPAVDICOMCommandObject@@@Z 0042d850 f   dicom:cong.obj
 0001:0002c890       ?Read@CFindRSP@@QAEHPAVDICOMCommandObject@@PAVPDU_Service@@PAVDICOMDataObject@@@Z 0042d890 f   dicom:cong.obj
 0001:0002c8f0       ?Read@CFindRSP@@QAEHPAVDICOMCommandObject@@@Z 0042d8f0 f   dicom:cong.obj
 0001:0002c920       ?Read@CMoveRQ@@QAEHPAVDICOMCommandObject@@PAVPDU_Service@@PAVDICOMDataObject@@@Z 0042d920 f   dicom:cong.obj
 0001:0002c980       ?Read@CMoveRQ@@QAEHPAVDICOMCommandObject@@@Z 0042d980 f   dicom:cong.obj
 0001:0002c9c0       ?Read@CMoveRSP@@QAEHPAVDICOMCommandObject@@PAVPDU_Service@@PAVDICOMDataObject@@@Z 0042d9c0 f   dicom:cong.obj
 0001:0002ca20       ?Read@CMoveRSP@@QAEHPAVDICOMCommandObject@@@Z 0042da20 f   dicom:cong.obj
 0001:0002ca50       ?Read@NEventReportRQ@@QAEHPAVDICOMCommandObject@@PAVPDU_Service@@PAVDICOMDataObject@@@Z 0042da50 f   dicom:cong.obj
 0001:0002cab0       ?Read@NEventReportRSP@@QAEHPAVDICOMCommandObject@@PAVPDU_Service@@PAVDICOMDataObject@@@Z 0042dab0 f   dicom:cong.obj
 0001:0002cb10       ?Read@NGetRSP@@QAEHPAVDICOMCommandObject@@PAVPDU_Service@@PAVDICOMDataObject@@@Z 0042db10 f   dicom:cong.obj
 0001:0002cb70       ?Read@NSetRQ@@QAEHPAVDICOMCommandObject@@PAVPDU_Service@@PAVDICOMDataObject@@@Z 0042db70 f   dicom:cong.obj
 0001:0002cbd0       ?Read@NSetRSP@@QAEHPAVDICOMCommandObject@@PAVPDU_Service@@PAVDICOMDataObject@@@Z 0042dbd0 f   dicom:cong.obj
 0001:0002cc30       ?Read@NActionRQ@@QAEHPAVDICOMCommandObject@@PAVPDU_Service@@PAVDICOMDataObject@@@Z 0042dc30 f   dicom:cong.obj
 0001:0002cc90       ?Read@NActionRSP@@QAEHPAVDICOMCommandObject@@PAVPDU_Service@@PAVDICOMDataObject@@@Z 0042dc90 f   dicom:cong.obj
 0001:0002ccf0       ?Read@NCreateRQ@@QAEHPAVDICOMCommandObject@@PAVPDU_Service@@PAVDICOMDataObject@@@Z 0042dcf0 f   dicom:cong.obj
 0001:0002cd50       ?Read@NCreateRSP@@QAEHPAVDICOMCommandObject@@PAVPDU_Service@@PAVDICOMDataObject@@@Z 0042dd50 f   dicom:cong.obj
 0001:0002cdb0       ??0CheckedPDU_Service@@QAE@PAD@Z 0042ddb0 f   dicom:cong.obj
 0001:0002ce60       ??_ECheckedPDU_Service@@WDOI@AEPAXI@Z 0042de60 f i dicom:cong.obj
 0001:0002ce70       ??_ECheckedPDU_Service@@WEAI@AEPAXI@Z 0042de70 f i dicom:cong.obj
 0001:0002ce80       ??_ECheckedPDU_Service@@WFA@AEPAXI@Z 0042de80 f i dicom:cong.obj
 0001:0002ce90       ??_ECheckedPDU_Service@@WDNI@AEPAXI@Z 0042de90 f i dicom:cong.obj
 0001:0002cea0       ??_ECheckedPDU_Service@@WDPI@AEPAXI@Z 0042dea0 f i dicom:cong.obj
 0001:0002ceb0       ??_ECheckedPDU_Service@@WCAM@AEPAXI@Z 0042deb0 f i dicom:cong.obj
 0001:0002cec0       ??_ECheckedPDU_Service@@WDMI@AEPAXI@Z 0042dec0 f i dicom:cong.obj
 0001:0002ced0       ??1CheckedPDU_Service@@UAE@XZ 0042ded0 f   dicom:cong.obj
 0001:0002cf70       ??0?$ctype@D@std@@QAE@PBF_NI@Z 0042df70 f i dicom:cong.obj
 0001:0002d090       ?do_tolower@?$ctype@D@std@@MBEDD@Z 0042e090 f i dicom:cong.obj
 0001:0002d0b0       ?do_tolower@?$ctype@D@std@@MBEPBDPADPBD@Z 0042e0b0 f i dicom:cong.obj
 0001:0002d0e0       ?do_toupper@?$ctype@D@std@@MBEDD@Z 0042e0e0 f i dicom:cong.obj
 0001:0002d100       ?do_toupper@?$ctype@D@std@@MBEPBDPADPBD@Z 0042e100 f i dicom:cong.obj
 0001:0002d130       ?do_widen@?$ctype@D@std@@MBEDD@Z 0042e130 f i dicom:cong.obj
 0001:0002d140       ?do_widen@?$ctype@D@std@@MBEPBDPBD0PAD@Z 0042e140 f i dicom:cong.obj
 0001:0002d170       ?_Do_widen_s@?$ctype@D@std@@MBEPBDPBD0PADI@Z 0042e170 f i dicom:cong.obj
 0001:0002d1b0       ?do_narrow@?$ctype@D@std@@MBEDDD@Z 0042e1b0 f i dicom:cong.obj
 0001:0002d1c0       ?do_narrow@?$ctype@D@std@@MBEPBDPBD0DPAD@Z 0042e1c0 f i dicom:cong.obj
 0001:0002d1f0       ?_Do_narrow_s@?$ctype@D@std@@MBEPBDPBD0DPADI@Z 0042e1f0 f i dicom:cong.obj
 0001:0002d230       ??1?$ctype@D@std@@MAE@XZ   0042e230 f i dicom:cong.obj
 0001:0002d2b0       ??_G?$ctype@D@std@@MAEPAXI@Z 0042e2b0 f i dicom:cong.obj
 0001:0002d2b0       ??_E?$ctype@D@std@@MAEPAXI@Z 0042e2b0 f i dicom:cong.obj
 0001:0002d2d0       ?_Getcat@?$ctype@D@std@@SAIPAPBVfacet@locale@2@@Z 0042e2d0 f i dicom:cong.obj
 0001:0002d350       ?clear@ios_base@std@@QAEXH@Z 0042e350 f i dicom:cong.obj
 0001:0002d360       ?_Init@ios_base@std@@IAEXXZ 0042e360 f i dicom:cong.obj
 0001:0002d3c0       ??1?$basic_filebuf@DU?$char_traits@D@std@@@std@@UAE@XZ 0042e3c0 f i dicom:cong.obj
 0001:0002d430       ??_G?$Array@VPresentationContext@@@@UAEPAXI@Z 0042e430 f i dicom:cong.obj
 0001:0002d430       ??_E?$Array@VPresentationContext@@@@UAEPAXI@Z 0042e430 f i dicom:cong.obj
 0001:0002d470       ??_G?$basic_filebuf@DU?$char_traits@D@std@@@std@@UAEPAXI@Z 0042e470 f i dicom:cong.obj
 0001:0002d470       ??_E?$basic_filebuf@DU?$char_traits@D@std@@@std@@UAEPAXI@Z 0042e470 f i dicom:cong.obj
 0001:0002d490       ??$use_facet@V?$ctype@D@std@@@std@@YAABV?$ctype@D@0@ABVlocale@0@@Z 0042e490 f i dicom:cong.obj
 0001:0002d590       ??0?$codecvt@DDH@std@@QAE@I@Z 0042e590 f i dicom:cong.obj
 0001:0002d640       ??1?$codecvt@DDH@std@@MAE@XZ 0042e640 f i dicom:cong.obj
 0001:0002d6a0       ?do_in@?$codecvt@DDH@std@@MBEHAAHPBD1AAPBDPAD3AAPAD@Z 0042e6a0 f i dicom:cong.obj
 0001:0002d6c0       ?do_out@?$codecvt@DDH@std@@MBEHAAHPBD1AAPBDPAD3AAPAD@Z 0042e6c0 f i dicom:cong.obj
 0001:0002d6e0       ?do_unshift@?$codecvt@DDH@std@@MBEHAAHPAD1AAPAD@Z 0042e6e0 f i dicom:cong.obj
 0001:0002d700       ?do_length@?$codecvt@DDH@std@@MBEHABHPBD1I@Z 0042e700 f i dicom:cong.obj
 0001:0002d720       ??_G?$codecvt@DDH@std@@MAEPAXI@Z 0042e720 f i dicom:cong.obj
 0001:0002d720       ??_E?$codecvt@DDH@std@@MAEPAXI@Z 0042e720 f i dicom:cong.obj
 0001:0002d790       ??_GAAssociateRQ@@UAEPAXI@Z 0042e790 f i dicom:cong.obj
 0001:0002d790       ??_EAAssociateRQ@@UAEPAXI@Z 0042e790 f i dicom:cong.obj
 0001:0002d7b0       ??_EPDU_Service@@UAEPAXI@Z 0042e7b0 f i dicom:cong.obj
 0001:0002d7b0       ??_GPDU_Service@@UAEPAXI@Z 0042e7b0 f i dicom:cong.obj
 0001:0002d7d0       ?Write@PDU_Service@@QAEHPAVDICOMCommandObject@@AAVUID@@@Z 0042e7d0 f   dicom:cong.obj
 0001:0002d830       ?Write@PDU_Service@@QAEHPAVDICOMDataObject@@AAVUID@@@Z 0042e830 f   dicom:cong.obj
 0001:0002d890       ?Multiplex@PDU_Service@@QAEHPAE@Z 0042e890 f   dicom:cong.obj
 0001:0002d920       ?Write@CEchoRQ@@QAEHPAVPDU_Service@@@Z 0042e920 f   dicom:cong.obj
 0001:0002dbc0       ?Write@CEchoRSP@@QAEHPAVPDU_Service@@PAVDICOMCommandObject@@GPAVVR@@@Z 0042ebc0 f   dicom:cong.obj
 0001:0002de30       ?Write@CEchoRSP@@QAEHPAVPDU_Service@@PAVDICOMCommandObject@@G@Z 0042ee30 f   dicom:cong.obj
 0001:0002de50       ?Write@CEchoRSP@@QAEHPAVPDU_Service@@PAVDICOMCommandObject@@@Z 0042ee50 f   dicom:cong.obj
 0001:0002de70       ?Write@CStoreRQ@@QAEHPAVPDU_Service@@PAVDICOMDataObject@@PAVVR@@PAE@Z 0042ee70 f   dicom:cong.obj
 0001:0002e320       ?Write@CStoreRSP@@QAEHPAVPDU_Service@@PAVDICOMCommandObject@@G@Z 0042f320 f   dicom:cong.obj
 0001:0002e660       ?Write@CStoreRSP@@QAEHPAVPDU_Service@@PAVDICOMCommandObject@@@Z 0042f660 f   dicom:cong.obj
 0001:0002e680       ?Write@CFindRQ@@QAEHPAVPDU_Service@@PAVDICOMDataObject@@@Z 0042f680 f   dicom:cong.obj
 0001:0002e9a0       ?Write@CFindRSP@@QAEHPAVPDU_Service@@PAVDICOMCommandObject@@GPAVDICOMDataObject@@PAD@Z 0042f9a0 f   dicom:cong.obj
 0001:0002ee80       ?Write@CFindRSP@@QAEHPAVPDU_Service@@PAVDICOMCommandObject@@PAVDICOMDataObject@@PAD@Z 0042fe80 f   dicom:cong.obj
 0001:0002eec0       ?Write@CMoveRQ@@QAEHPAVPDU_Service@@PAVDICOMDataObject@@PAE@Z 0042fec0 f   dicom:cong.obj
 0001:0002f2b0       ?Write@CMoveRSP@@QAEHPAVPDU_Service@@PAVDICOMCommandObject@@GGGGGPAVDICOMDataObject@@@Z 004302b0 f   dicom:cong.obj
 0001:0002f820       ?Write@NEventReportRQ@@QAEHPAVPDU_Service@@PAVDICOMDataObject@@PAVUID@@G@Z 00430820 f   dicom:cong.obj
 0001:0002fb40       ?Write@NEventReportRQ@@QAEHPAVPDU_Service@@PAVUID@@G@Z 00430b40 f   dicom:cong.obj
 0001:0002fb60       ?Write@NEventReportRSP@@QAEHPAVPDU_Service@@PAVDICOMCommandObject@@PAVUID@@GGPAVDICOMDataObject@@@Z 00430b60 f   dicom:cong.obj
 0001:0002fef0       ?Write@NEventReportRSP@@QAEHPAVPDU_Service@@PAVDICOMCommandObject@@PAVUID@@GPAVDICOMDataObject@@@Z 00430ef0 f   dicom:cong.obj
 0001:0002ff20       ?Write@NGetRQ@@QAEHPAVPDU_Service@@PAVDICOMDataObject@@PAVUID@@@Z 00430f20 f   dicom:cong.obj
 0001:000301e0       ?Write@NGetRSP@@QAEHPAVPDU_Service@@PAVDICOMCommandObject@@PAVUID@@GPAVDICOMDataObject@@@Z 004311e0 f   dicom:cong.obj
 0001:00030510       ?Write@NSetRQ@@QAEHPAVPDU_Service@@PAVDICOMDataObject@@PAVUID@@@Z 00431510 f   dicom:cong.obj
 0001:000307c0       ?Write@NSetRQ@@QAEHPAVPDU_Service@@PAVUID@@@Z 004317c0 f   dicom:cong.obj
 0001:000307e0       ?Write@NSetRSP@@QAEHPAVPDU_Service@@PAVDICOMCommandObject@@PAVUID@@GPAVDICOMDataObject@@@Z 004317e0 f   dicom:cong.obj
 0001:00030b10       ?Write@NActionRQ@@QAEHPAVPDU_Service@@PAVDICOMDataObject@@PAVUID@@G@Z 00431b10 f   dicom:cong.obj
 0001:00030e30       ?Write@NActionRQ@@QAEHPAVPDU_Service@@PAVUID@@G@Z 00431e30 f   dicom:cong.obj
 0001:00030e50       ?Write@NActionRSP@@QAEHPAVPDU_Service@@PAVDICOMCommandObject@@PAVUID@@GGPAVDICOMDataObject@@@Z 00431e50 f   dicom:cong.obj
 0001:000311e0       ?Write@NCreateRQ@@QAEHPAVPDU_Service@@PAVDICOMDataObject@@PAVUID@@@Z 004321e0 f   dicom:cong.obj
 0001:00031490       ?Write@NCreateRQ@@QAEHPAVPDU_Service@@PAVUID@@@Z 00432490 f   dicom:cong.obj
 0001:000314b0       ?Write@NCreateRSP@@QAEHPAVPDU_Service@@PAVDICOMCommandObject@@PAVUID@@GPAVDICOMDataObject@@@Z 004324b0 f   dicom:cong.obj
 0001:000317e0       ?Write@NDeleteRQ@@QAEHPAVPDU_Service@@PAVUID@@@Z 004327e0 f   dicom:cong.obj
 0001:00031a70       ?Write@NDeleteRSP@@QAEHPAVPDU_Service@@PAVDICOMCommandObject@@PAVUID@@G@Z 00432a70 f   dicom:cong.obj
 0001:00031d70       ?Read@Verification@@QAEHPAVPDU_Service@@PAVDICOMCommandObject@@@Z 00432d70 f   dicom:cong.obj
 0001:00031e50       ?WriteResponse@Verification@@QAEHPAVPDU_Service@@PAVDICOMCommandObject@@PAVVR@@@Z 00432e50 f   dicom:cong.obj
 0001:00031e70       ?Write@Verification@@QAEHPAVPDU_Service@@@Z 00432e70 f   dicom:cong.obj
 0001:00031f60       ?Read@StandardStorage@@QAEHPAVPDU_Service@@PAVDICOMCommandObject@@PAVDICOMDataObject@@@Z 00432f60 f   dicom:cong.obj
 0001:00032060       ?Write@StandardStorage@@QAEHPAVPDU_Service@@PAVDICOMDataObject@@PAVVR@@PAE@Z 00433060 f   dicom:cong.obj
 0001:00032180       ?Read@UnknownStorage@@QAEHPAVPDU_Service@@PAVDICOMCommandObject@@PAVDICOMDataObject@@@Z 00433180 f   dicom:cong.obj
 0001:00032220       ?Read@StandardQuery@@QAEHPAVPDU_Service@@PAVDICOMCommandObject@@@Z 00433220 f   dicom:cong.obj
 0001:000324e0       ?Write@StandardQuery@@QAEHPAVPDU_Service@@PAVDICOMDataObject@@PAV?$Array@PAVDICOMDataObject@@@@@Z 004334e0 f   dicom:cong.obj
 0001:00032740       ?Read@StandardRetrieve@@QAEHPAVPDU_Service@@PAVDICOMCommandObject@@@Z 00433740 f   dicom:cong.obj
 0001:00032d30       ?Write@StandardRetrieve@@QAEHPAVPDU_Service@@PAVDICOMDataObject@@PAE@Z 00433d30 f   dicom:cong.obj
 0001:00032fc0       ??_ECheckedPDU_Service@@UAEPAXI@Z 00433fc0 f i dicom:cong.obj
 0001:00032fc0       ??_GCheckedPDU_Service@@UAEPAXI@Z 00433fc0 f i dicom:cong.obj
 0001:00032fe0       ?seekg@?$basic_istream@DU?$char_traits@D@std@@@std@@QAEAAV12@JH@Z 00433fe0 f i dicom:cong.obj
 0001:00033050       ??1?$basic_ifstream@DU?$char_traits@D@std@@@std@@UAE@XZ 00434050 f i dicom:cong.obj
 0001:000330c0       ?close@?$basic_ifstream@DU?$char_traits@D@std@@@std@@QAEXXZ 004340c0 f i dicom:cong.obj
 0001:000330f0       ?widen@?$basic_ios@DU?$char_traits@D@std@@@std@@QBEDD@Z 004340f0 f i dicom:cong.obj
 0001:00033180       ?_Getcat@?$codecvt@DDH@std@@SAIPAPBVfacet@locale@2@@Z 00434180 f i dicom:cong.obj
 0001:00033200       ??_D?$basic_ifstream@DU?$char_traits@D@std@@@std@@QAEXXZ 00434200 f i dicom:cong.obj
 0001:00033220       ??_E?$basic_ifstream@DU?$char_traits@D@std@@@std@@UAEPAXI@Z 00434220 f i dicom:cong.obj
 0001:00033220       ??_G?$basic_ifstream@DU?$char_traits@D@std@@@std@@UAEPAXI@Z 00434220 f i dicom:cong.obj
 0001:00033250       ?_Ipfx@?$basic_istream@DU?$char_traits@D@std@@@std@@QAE_N_N@Z 00434250 f i dicom:cong.obj
 0001:000333e0       ?init@?$basic_ios@DU?$char_traits@D@std@@@std@@IAEXPAV?$basic_streambuf@DU?$char_traits@D@std@@@2@_N@Z 004343e0 f i dicom:cong.obj
 0001:00033440       ??$use_facet@V?$codecvt@DDH@std@@@std@@YAABV?$codecvt@DDH@0@ABVlocale@0@@Z 00434440 f i dicom:cong.obj
 0001:00033540       ??0sentry@?$basic_istream@DU?$char_traits@D@std@@@std@@QAE@AAV12@_N@Z 00434540 f i dicom:cong.obj
 0001:000335c0       ?imbue@?$basic_filebuf@DU?$char_traits@D@std@@@std@@MAEXABVlocale@2@@Z 004345c0 f i dicom:cong.obj
 0001:00033600       ??0?$basic_istream@DU?$char_traits@D@std@@@std@@QAE@PAV?$basic_streambuf@DU?$char_traits@D@std@@@1@_N@Z 00434600 f i dicom:cong.obj
 0001:000336a0       ?_Read_s@?$basic_istream@DU?$char_traits@D@std@@@std@@QAEAAV12@PADIH@Z 004346a0 f i dicom:cong.obj
 0001:000337b0       ?open@?$basic_filebuf@DU?$char_traits@D@std@@@std@@QAEPAV12@PBDHH@Z 004347b0 f i dicom:cong.obj
 0001:000338c0       ?read@?$basic_istream@DU?$char_traits@D@std@@@std@@QAEAAV12@PADH@Z 004348c0 f i dicom:cong.obj
 0001:000338e0       ??0?$basic_ifstream@DU?$char_traits@D@std@@@std@@QAE@XZ 004348e0 f i dicom:cong.obj
 0001:000339f0       ?open@?$basic_ifstream@DU?$char_traits@D@std@@@std@@QAEXPBDHH@Z 004349f0 f i dicom:cong.obj
 0001:00033a40       ?fileToBuffer@@YAHPAPAXPBDH@Z 00434a40 f   dicom:cong.obj
 0001:00033cc0       ?fileToBufferWithErr@@YAHPAPAXPBDPADHH@Z 00434cc0 f   dicom:cong.obj
 0001:00033e90       ?InitACRNemaAddressArray@ACRNemaMap@@QAEHPAD@Z 00434e90 f   dicom:cong.obj
 0001:0003404c       _WSAStartup@8              0043504c f   wsock32:WSOCK32.dll
 0001:00034052       _WSACleanup@0              00435052 f   wsock32:WSOCK32.dll
 0001:00034058       _closesocket@4             00435058 f   wsock32:WSOCK32.dll
 0001:0003405e       _shutdown@8                0043505e f   wsock32:WSOCK32.dll
 0001:00034064       _inet_addr@4               00435064 f   wsock32:WSOCK32.dll
 0001:0003406a       _gethostbyname@4           0043506a f   wsock32:WSOCK32.dll
 0001:00034070       _htons@4                   00435070 f   wsock32:WSOCK32.dll
 0001:00034076       _getservbyname@8           00435076 f   wsock32:WSOCK32.dll
 0001:0003407c       _connect@12                0043507c f   wsock32:WSOCK32.dll
 0001:00034082       _setsockopt@20             00435082 f   wsock32:WSOCK32.dll
 0001:00034088       _socket@12                 00435088 f   wsock32:WSOCK32.dll
 0001:0003408e       _select@20                 0043508e f   wsock32:WSOCK32.dll
 0001:00034094       _send@16                   00435094 f   wsock32:WSOCK32.dll
 0001:0003409a       _recv@16                   0043509a f   wsock32:WSOCK32.dll
 0001:000340a0       _WSAGetLastError@0         004350a0 f   wsock32:WSOCK32.dll
 0001:000340a6       _bind@12                   004350a6 f   wsock32:WSOCK32.dll
 0001:000340ac       _listen@8                  004350ac f   wsock32:WSOCK32.dll
 0001:000340b2       _accept@12                 004350b2 f   wsock32:WSOCK32.dll
 0001:000340b8       __Wcrtomb                  004350b8 f   libcpmt:xwctomb.obj
 0001:00034139       __Getcvt                   00435139 f   libcpmt:xwctomb.obj
 0001:0003414d       ___Wcrtomb_lk              0043514d f   libcpmt:xwctomb.obj
 0001:00034152       ??0_Init_locks@std@@QAE@XZ 00435152 f   libcpmt:xlock.obj
 0001:00034181       ??1_Init_locks@std@@QAE@XZ 00435181 f   libcpmt:xlock.obj
 0001:000341aa       ?_Init_locks_ctor@_Init_locks@std@@CAXPAV12@@Z 004351aa f   libcpmt:xlock.obj
 0001:000341d3       ?_Init_locks_dtor@_Init_locks@std@@CAXPAV12@@Z 004351d3 f   libcpmt:xlock.obj
 0001:000341fc       ??0_Lockit@std@@QAE@XZ     004351fc f   libcpmt:xlock.obj
 0001:00034211       ??0_Lockit@std@@QAE@H@Z    00435211 f   libcpmt:xlock.obj
 0001:00034232       ??1_Lockit@std@@QAE@XZ     00435232 f   libcpmt:xlock.obj
 0001:00034244       ?_Lockit_ctor@_Lockit@std@@CAXPAV12@@Z 00435244 f   libcpmt:xlock.obj
 0001:00034250       ?_Lockit_ctor@_Lockit@std@@CAXPAV12@H@Z 00435250 f   libcpmt:xlock.obj
 0001:0003426d       ?_Lockit_dtor@_Lockit@std@@CAXPAV12@@Z 0043526d f   libcpmt:xlock.obj
 0001:00034283       ?_Lockit_ctor@_Lockit@std@@SAXH@Z 00435283 f   libcpmt:xlock.obj
 0001:0003429a       ?_Lockit_dtor@_Lockit@std@@SAXH@Z 0043529a f   libcpmt:xlock.obj
 0001:000342b1       ??2@YAPAXIPAX@Z            004352b1 f i libcpmt:locale0.obj
 0001:000342b6       ??3@YAXPAX0@Z              004352b6 f i libcpmt:locale0.obj
 0001:000342b7       ??0locale@std@@QAE@W4_Uninitialized@1@@Z 004352b7 f i libcpmt:locale0.obj
 0001:000342bc       ??0locale@std@@AAE@PAV_Locimp@01@@Z 004352bc f i libcpmt:locale0.obj
 0001:000342c7       ??0_Fac_node@std@@QAE@PAU01@PAVfacet@locale@1@@Z 004352c7 f i libcpmt:locale0.obj
 0001:000342d9       ??1_Fac_node@std@@QAE@XZ   004352d9 f i libcpmt:locale0.obj
 0001:000342ee       ??_G_Fac_node@std@@QAEPAXI@Z 004352ee f i libcpmt:locale0.obj
 0001:0003430a       __Deletegloballocale       0043530a f   libcpmt:locale0.obj
 0001:00034350       ?_Getgloballocale@locale@std@@CAPAV_Locimp@12@XZ 00435350 f   libcpmt:locale0.obj
 0001:00034356       ?_Setgloballocale@locale@std@@CAXPAX@Z 00435356 f   libcpmt:locale0.obj
 0001:0003437b       ?_Clocptr_func@_Locimp@locale@std@@CAAAPAV123@XZ 0043537b f   libcpmt:locale0.obj
 0001:00034381       ?_Id_cnt_func@id@locale@std@@CAAAHXZ 00435381 f   libcpmt:locale0.obj
 0001:00034387       ?_Id_func@?$ctype@D@std@@SAAAVid@locale@2@XZ 00435387 f   libcpmt:locale0.obj
 0001:0003438d       ?_Id_func@?$ctype@_W@std@@SAAAVid@locale@2@XZ 0043538d f   libcpmt:locale0.obj
 0001:00034393       ?_Id_func@?$codecvt@_WDH@std@@SAAAVid@locale@2@XZ 00435393 f   libcpmt:locale0.obj
 0001:00034399       ?_Id_func@?$ctype@G@std@@SAAAVid@locale@2@XZ 00435399 f   libcpmt:locale0.obj
 0001:0003439f       ?_Id_func@?$codecvt@GDH@std@@SAAAVid@locale@2@XZ 0043539f f   libcpmt:locale0.obj
 0001:000343a5       ?_Locimp_dtor@_Locimp@locale@std@@CAXPAV123@@Z 004353a5 f   libcpmt:locale0.obj
 0001:00034405       __Fac_tidy                 00435405 f   libcpmt:locale0.obj
 0001:00034448       ?facet_Register@facet@locale@std@@CAXPAV123@@Z 00435448 f   libcpmt:locale0.obj
 0001:00034481       ?_Locinfo_dtor@_Locinfo@std@@SAXPAV12@@Z 00435481 f   libcpmt:locale0.obj
 0001:000344a4       ??4?$basic_string@DU?$char_traits@D@std@@V?$allocator@D@2@@std@@QAEAAV01@PBD@Z 004354a4 f i libcpmt:locale0.obj
 0001:000344a9       ??0_Locimp@locale@std@@AAE@_N@Z 004354a9 f i libcpmt:locale0.obj
 0001:000344f2       ??1_Locimp@locale@std@@MAE@XZ 004354f2 f i libcpmt:locale0.obj
 0001:0003452f       ??_G_Locimp@locale@std@@MAEPAXI@Z 0043552f f i libcpmt:locale0.obj
 0001:0003452f       ??_E_Locimp@locale@std@@MAEPAXI@Z 0043552f f i libcpmt:locale0.obj
 0001:0003454b       ?_Init@locale@std@@CAPAV_Locimp@12@XZ 0043554b f   libcpmt:locale0.obj
 0001:000345e5       ?_Locinfo_ctor@_Locinfo@std@@SAXPAV12@PBD@Z 004355e5 f   libcpmt:locale0.obj
 0001:0003462f       ?classic@locale@std@@SAABV12@XZ 0043562f f   libcpmt:locale0.obj
 0001:0003463a       ?empty@locale@std@@SA?AV12@XZ 0043563a f   libcpmt:locale0.obj
 0001:0003467c       ??0_Mutex@std@@QAE@XZ      0043567c f   libcpmt:xmutex.obj
 0001:00034694       ??1_Mutex@std@@QAE@XZ      00435694 f   libcpmt:xmutex.obj
 0001:000346a9       ?_Lock@_Mutex@std@@QAEXXZ  004356a9 f   libcpmt:xmutex.obj
 0001:000346b2       ?_Unlock@_Mutex@std@@QAEXXZ 004356b2 f   libcpmt:xmutex.obj
 0001:000346bb       ?_Mutex_ctor@_Mutex@std@@CAXPAV12@@Z 004356bb f   libcpmt:xmutex.obj
 0001:000346d1       ?_Mutex_dtor@_Mutex@std@@CAXPAV12@@Z 004356d1 f   libcpmt:xmutex.obj
 0001:000346e8       ?_Mutex_Lock@_Mutex@std@@CAXPAV12@@Z 004356e8 f   libcpmt:xmutex.obj
 0001:000346f5       ?_Mutex_Unlock@_Mutex@std@@CAXPAV12@@Z 004356f5 f   libcpmt:xmutex.obj
 0001:00034702       ??0logic_error@std@@QAE@ABV?$basic_string@DU?$char_traits@D@std@@V?$allocator@D@2@@1@@Z 00435702 f i libcpmt:string.obj
 0001:00034737       ?what@logic_error@std@@UBEPBDXZ 00435737 f i libcpmt:string.obj
 0001:00034745       ??1logic_error@std@@UAE@XZ 00435745 f i libcpmt:string.obj
 0001:00034762       ??_Elogic_error@std@@UAEPAXI@Z 00435762 f i libcpmt:string.obj
 0001:00034762       ??_Glogic_error@std@@UAEPAXI@Z 00435762 f i libcpmt:string.obj
 0001:0003477e       ??0invalid_argument@std@@QAE@ABV?$basic_string@DU?$char_traits@D@std@@V?$allocator@D@2@@1@@Z 0043577e f i libcpmt:string.obj
 0001:00034796       ??1invalid_argument@std@@UAE@XZ 00435796 f i libcpmt:string.obj
 0001:000347a1       ??_Ginvalid_argument@std@@UAEPAXI@Z 004357a1 f i libcpmt:string.obj
 0001:000347a1       ??_Einvalid_argument@std@@UAEPAXI@Z 004357a1 f i libcpmt:string.obj
 0001:000347c3       ??0length_error@std@@QAE@ABV?$basic_string@DU?$char_traits@D@std@@V?$allocator@D@2@@1@@Z 004357c3 f i libcpmt:string.obj
 0001:000347db       ??1length_error@std@@UAE@XZ 004357db f i libcpmt:string.obj
 0001:000347e6       ??_Elength_error@std@@UAEPAXI@Z 004357e6 f i libcpmt:string.obj
 0001:000347e6       ??_Glength_error@std@@UAEPAXI@Z 004357e6 f i libcpmt:string.obj
 0001:00034808       ??0out_of_range@std@@QAE@ABV?$basic_string@DU?$char_traits@D@std@@V?$allocator@D@2@@1@@Z 00435808 f i libcpmt:string.obj
 0001:00034820       ??1out_of_range@std@@UAE@XZ 00435820 f i libcpmt:string.obj
 0001:0003482b       ??_Gout_of_range@std@@UAEPAXI@Z 0043582b f i libcpmt:string.obj
 0001:0003482b       ??_Eout_of_range@std@@UAEPAXI@Z 0043582b f i libcpmt:string.obj
 0001:0003484d       ?_Xlen@_String_base@std@@SAXXZ 0043584d f   libcpmt:string.obj
 0001:0003488c       ??0logic_error@std@@QAE@ABV01@@Z 0043588c f i libcpmt:string.obj
 0001:000348c6       ??0length_error@std@@QAE@ABV01@@Z 004358c6 f i libcpmt:string.obj
 0001:000348de       ?_Xran@_String_base@std@@SAXXZ 004358de f   libcpmt:string.obj
 0001:0003491d       ??0out_of_range@std@@QAE@ABV01@@Z 0043591d f i libcpmt:string.obj
 0001:00034935       ?_Xinvarg@_String_base@std@@SAXXZ 00435935 f   libcpmt:string.obj
 0001:00034974       ??0invalid_argument@std@@QAE@ABV01@@Z 00435974 f i libcpmt:string.obj
 0001:0003498c       ??_U@YAPAXI@Z              0043598c f   libcpmt:newaop.obj
 0001:00034991       ?uncaught_exception@std@@YA_NXZ 00435991 f   libcpmt:uncaught.obj
 0001:00034996       ?setf@ios_base@std@@QAEHH@Z 00435996 f i libcpmt:cerr.obj
 0001:000349ab       ?_Cerr_func@std@@YAAAV?$basic_ostream@DU?$char_traits@D@std@@@1@XZ 004359ab f   libcpmt:cerr.obj
 0001:000349b1       ??1?$basic_ostream@DU?$char_traits@D@std@@@std@@UAE@XZ 004359b1 f i libcpmt:cerr.obj
 0001:000349c0       ?tie@?$basic_ios@DU?$char_traits@D@std@@@std@@QAEPAV?$basic_ostream@DU?$char_traits@D@std@@@2@PAV32@@Z 004359c0 f i libcpmt:cerr.obj
 0001:000349cd       ??_D?$basic_ostream@DU?$char_traits@D@std@@@std@@QAEXXZ 004359cd f i libcpmt:cerr.obj
 0001:000349ec       ??0_Init_cerr@std@@QAE@XZ  004359ec f i libcpmt:cerr.obj
 0001:00034a20       ??_E?$basic_ostream@DU?$char_traits@D@std@@@std@@UAEPAXI@Z 00435a20 f i libcpmt:cerr.obj
 0001:00034a20       ??_G?$basic_ostream@DU?$char_traits@D@std@@@std@@UAEPAXI@Z 00435a20 f i libcpmt:cerr.obj
 0001:00034a3f       ??0?$basic_ostream@DU?$char_traits@D@std@@@std@@QAE@PAV?$basic_streambuf@DU?$char_traits@D@std@@@1@_N@Z 00435a3f f i libcpmt:cerr.obj
 0001:00034a99       __Tolower                  00435a99 f   libcpmt:_tolower.obj
 0001:00034ba8       __Getctype                 00435ba8 f   libcpmt:_tolower.obj
 0001:00034c03       ?_Callfns@ios_base@std@@AAEXW4event@12@@Z 00435c03 f i libcpmt:ios.obj
 0001:00034c25       ?_Tidy@ios_base@std@@AAAXXZ 00435c25 f i libcpmt:ios.obj
 0001:00034c6b       ?_Fpz_func@std@@YAAA_JXZ   00435c6b f   libcpmt:ios.obj
 0001:00034c71       ?_BADOFF_func@std@@YAABJXZ 00435c71 f   libcpmt:ios.obj
 0001:00034c77       ?_Index_func@ios_base@std@@CAAAHXZ 00435c77 f   libcpmt:ios.obj
 0001:00034c7d       ?_Sync_func@ios_base@std@@CAAA_NXZ 00435c7d f   libcpmt:ios.obj
 0001:00034c83       ?_Addstd@ios_base@std@@SAXPAV12@@Z 00435c83 f   libcpmt:ios.obj
 0001:00034cd3       ?_Ios_base_dtor@ios_base@std@@CAXPAV12@@Z 00435cd3 f   libcpmt:ios.obj
 0001:00034d11       __Toupper                  00435d11 f   libcpmt:_toupper.obj
 0001:00034e25       __invoke_watson_if_error   00435e25 f i libcpmt:fiopen.obj
 0001:00034e47       ?_Xfsopen@std@@YAPAU_iobuf@@PB_W0H@Z 00435e47 f   libcpmt:fiopen.obj
 0001:00034efc       ?_Fiopen@std@@YAPAU_iobuf@@PB_WHH@Z 00435efc f   libcpmt:fiopen.obj
 0001:00034fb1       ?_Fiopen@std@@YAPAU_iobuf@@PBGHH@Z 00435fb1 f   libcpmt:fiopen.obj
 0001:00034fb6       ?_Fiopen@std@@YAPAU_iobuf@@PBDHH@Z 00435fb6 f   libcpmt:fiopen.obj
 0001:00035051       __GetLocaleForCP           00436051 f   libcpmt:xmbtowc.obj
 0001:00035134       __Mbrtowc                  00436134 f   libcpmt:xmbtowc.obj
 0001:000352a5       __Once                     004362a5 f   libcpmt:xmtx.obj
 0001:000352dc       __Mtxinit                  004362dc f   libcpmt:xmtx.obj
 0001:000352e7       __Mtxdst                   004362e7 f   libcpmt:xmtx.obj
 0001:000352f2       __Mtxlock                  004362f2 f   libcpmt:xmtx.obj
 0001:000352fd       __Mtxunlock                004362fd f   libcpmt:xmtx.obj
 0001:00035308       ?_Atexit@@YAXP6AXXZ@Z      00436308 f   libcpmt:iosptrs.obj
 0001:00035328       ??1_Init_atexit@@QAE@XZ    00436328 f i libcpmt:iosptrs.obj
 0001:00035350       _memset                    00436350 f   LIBCMT:memset.obj
 0001:000353ca       _fprintf                   004363ca f   LIBCMT:fprintf.obj
 0001:00035519       __fprintf_l                00436519 f   LIBCMT:fprintf.obj
 0001:00035533       __fprintf_s_l              00436533 f   LIBCMT:fprintf.obj
 0001:0003554d       _fprintf_s                 0043654d f   LIBCMT:fprintf.obj
 0001:00035565       __fprintf_p_l              00436565 f   LIBCMT:fprintf.obj
 0001:0003557f       __fprintf_p                0043657f f   LIBCMT:fprintf.obj
 0001:00035597       ___iob_func                00436597 f   LIBCMT:_file.obj
 0001:0003559d       ___initstdio               0043659d f   LIBCMT:_file.obj
 0001:0003564e       ___endstdio                0043664e f   LIBCMT:_file.obj
 0001:0003566e       __lock_file                0043666e f   LIBCMT:_file.obj
 0001:000356aa       __lock_file2               004366aa f   LIBCMT:_file.obj
 0001:000356d8       __unlock_file              004366d8 f   LIBCMT:_file.obj
 0001:0003570e       __unlock_file2             0043670e f   LIBCMT:_file.obj
 0001:00035740       _strncpy                   00436740 f   LIBCMT:strncpy.obj
 0001:00035864       @__security_check_cookie@4 00436864 f   LIBCMT:secchk.obj
 0001:00035873       ?_JumpToContinuation@@YGXPAXPAUEHRegistrationNode@@@Z 00436873 f   LIBCMT:trnsctrl.obj
 0001:000358a3       ?_CallMemberFunction0@@YGXPAX0@Z 004368a3 f   LIBCMT:trnsctrl.obj
 0001:000358aa       ?_CallMemberFunction1@@YGXPAX00@Z 004368aa f   LIBCMT:trnsctrl.obj
 0001:000358b1       ?_CallMemberFunction2@@YGXPAX00H@Z 004368b1 f   LIBCMT:trnsctrl.obj
 0001:000358b8       ?_UnwindNestedFrames@@YGXPAUEHRegistrationNode@@PAUEHExceptionRecord@@@Z 004368b8 f   LIBCMT:trnsctrl.obj
 0001:0003590a       ___CxxFrameHandler         0043690a f   LIBCMT:trnsctrl.obj
 0001:00035940       ___CxxFrameHandler3        00436940 f   LIBCMT:trnsctrl.obj
 0001:00035976       ___CxxFrameHandler2        00436976 f   LIBCMT:trnsctrl.obj
 0001:000359ac       ___CxxLongjmpUnwind@4      004369ac f   LIBCMT:trnsctrl.obj
 0001:000359f6       ?_CallSETranslator@@YAHPAUEHExceptionRecord@@PAUEHRegistrationNode@@PAX2PBU_s_FuncInfo@@H1@Z 004369f6 f   LIBCMT:trnsctrl.obj
 0001:00035b68       ?_GetRangeOfTrysToCheck@@YAPBU_s_TryBlockMapEntry@@PBU_s_FuncInfo@@HHPAI1@Z 00436b68 f   LIBCMT:trnsctrl.obj
 0001:00035bdb       __CreateFrameInfo          00436bdb f   LIBCMT:trnsctrl.obj
 0001:00035c03       __IsExceptionObjectToBeDestroyed 00436c03 f   LIBCMT:trnsctrl.obj
 0001:00035c24       __FindAndUnlinkFrame       00436c24 f   LIBCMT:trnsctrl.obj
 0001:00035c70       ?_CallCatchBlock2@@YAPAXPAUEHRegistrationNode@@PBU_s_FuncInfo@@PAXHK@Z 00436c70 f   LIBCMT:trnsctrl.obj
 0001:00035cce       ?name@type_info@@QBEPBDPAU__type_info_node@@@Z 00436cce f   LIBCMT:typinfo.obj
 0001:00035cdd       ??1type_info@@UAE@XZ       00436cdd f   LIBCMT:typinfo.obj
 0001:00035ceb       ??_Etype_info@@UAEPAXI@Z   00436ceb f i LIBCMT:typinfo.obj
 0001:00035ceb       ??_Gtype_info@@UAEPAXI@Z   00436ceb f i LIBCMT:typinfo.obj
 0001:00035d07       ?_name_internal_method@type_info@@QBEPBDPAU__type_info_node@@@Z 00436d07 f   LIBCMT:typinfo.obj
 0001:00035d16       ?_type_info_dtor_internal_method@type_info@@QAEXXZ 00436d16 f   LIBCMT:typinfo.obj
 0001:00035d1e       ??8type_info@@QBE_NABV0@@Z 00436d1e f   LIBCMT:typinfo.obj
 0001:00035d39       ??9type_info@@QBE_NABV0@@Z 00436d39 f   LIBCMT:typinfo.obj
 0001:00035d55       ?before@type_info@@QBEHABV1@@Z 00436d55 f   LIBCMT:typinfo.obj
 0001:00035d74       ?raw_name@type_info@@QBEPBDXZ 00436d74 f   LIBCMT:typinfo.obj
 0001:00035d78       ??0type_info@@AAE@ABV0@@Z  00436d78 f   LIBCMT:typinfo.obj
 0001:00035d83       ??4type_info@@AAEAAV0@ABV0@@Z 00436d83 f   LIBCMT:typinfo.obj
 0001:00035d88       ??3@YAXPAX@Z               00436d88 f   LIBCMT:delete.obj
 0001:00035d8d       __purecall                 00436d8d f   LIBCMT:purevirt.obj
 0001:00035db7       __set_purecall_handler     00436db7 f   LIBCMT:purevirt.obj
 0001:00035dd9       __get_purecall_handler     00436dd9 f   LIBCMT:purevirt.obj
 0001:00035de6       _printf                    00436de6 f   LIBCMT:printf.obj
 0001:00035e95       __printf_l                 00436e95 f   LIBCMT:printf.obj
 0001:00035eab       __printf_s_l               00436eab f   LIBCMT:printf.obj
 0001:00035ec1       _printf_s                  00436ec1 f   LIBCMT:printf.obj
 0001:00035ed5       __printf_p_l               00436ed5 f   LIBCMT:printf.obj
 0001:00035eeb       __printf_p                 00436eeb f   LIBCMT:printf.obj
 0001:00035eff       __set_printf_count_output  00436eff f   LIBCMT:printf.obj
 0001:00035f24       __get_printf_count_output  00436f24 f   LIBCMT:printf.obj
 0001:00035f3a       ??0bad_alloc@std@@QAE@XZ   00436f3a f i LIBCMT:new.obj
 0001:00035f53       ??2@YAPAXI@Z               00436f53 f   LIBCMT:new.obj
 0001:00035fc0       _memcpy                    00436fc0 f   LIBCMT:memcpy.obj
 0001:00036325       ??0exception@std@@QAE@XZ   00437325 f   LIBCMT:stdexcpt.obj
 0001:00036336       ??0exception@std@@QAE@ABQBD@Z 00437336 f   LIBCMT:stdexcpt.obj
 0001:00036384       ??0exception@std@@QAE@ABQBDH@Z 00437384 f   LIBCMT:stdexcpt.obj
 0001:0003639c       ??0exception@std@@QAE@ABV01@@Z 0043739c f   LIBCMT:stdexcpt.obj
 0001:000363f4       ??4exception@std@@QAEAAV01@ABV01@@Z 004373f4 f   LIBCMT:stdexcpt.obj
 0001:0003644a       ??1exception@std@@UAE@XZ   0043744a f   LIBCMT:stdexcpt.obj
 0001:00036460       ?what@exception@std@@UBEPBDXZ 00437460 f   LIBCMT:stdexcpt.obj
 0001:0003646d       ??0bad_cast@std@@QAE@PBD@Z 0043746d f   LIBCMT:stdexcpt.obj
 0001:00036486       ??0bad_cast@std@@QAE@ABV01@@Z 00437486 f   LIBCMT:stdexcpt.obj
 0001:0003649e       ??1bad_cast@std@@UAE@XZ    0043749e f   LIBCMT:stdexcpt.obj
 0001:000364a9       ??0bad_typeid@std@@QAE@PBD@Z 004374a9 f   LIBCMT:stdexcpt.obj
 0001:000364c2       ??0bad_typeid@std@@QAE@ABV01@@Z 004374c2 f   LIBCMT:stdexcpt.obj
 0001:000364da       ??1bad_typeid@std@@UAE@XZ  004374da f   LIBCMT:stdexcpt.obj
 0001:000364e5       ??0__non_rtti_object@std@@QAE@PBD@Z 004374e5 f   LIBCMT:stdexcpt.obj
 0001:000364fd       ??0__non_rtti_object@std@@QAE@ABV01@@Z 004374fd f   LIBCMT:stdexcpt.obj
 0001:00036515       ??1__non_rtti_object@std@@UAE@XZ 00437515 f   LIBCMT:stdexcpt.obj
 0001:00036520       ??_Gexception@std@@UAEPAXI@Z 00437520 f i LIBCMT:stdexcpt.obj
 0001:00036520       ??_Eexception@std@@UAEPAXI@Z 00437520 f i LIBCMT:stdexcpt.obj
 0001:0003653c       ??_Ebad_cast@std@@UAEPAXI@Z 0043753c f i LIBCMT:stdexcpt.obj
 0001:0003653c       ??_Gbad_cast@std@@UAEPAXI@Z 0043753c f i LIBCMT:stdexcpt.obj
 0001:0003655e       ??_Gbad_typeid@std@@UAEPAXI@Z 0043755e f i LIBCMT:stdexcpt.obj
 0001:0003655e       ??_Ebad_typeid@std@@UAEPAXI@Z 0043755e f i LIBCMT:stdexcpt.obj
 0001:00036580       ??_E__non_rtti_object@std@@UAEPAXI@Z 00437580 f i LIBCMT:stdexcpt.obj
 0001:00036580       ??_G__non_rtti_object@std@@UAEPAXI@Z 00437580 f i LIBCMT:stdexcpt.obj
 0001:000365a2       _memcpy_s                  004375a2 f   LIBCMT:memcpy_s.obj
 0001:0003661d       _memmove_s                 0043761d f   LIBCMT:memmove_s.obj
 0001:00036678       __CxxThrowException@8      00437678 f   LIBCMT:throw.obj
 0001:000366c2       _sprintf                   004376c2 f   LIBCMT:sprintf.obj
 0001:0003673d       __sprintf_l                0043773d f   LIBCMT:sprintf.obj
 0001:00036757       _sprintf_s                 00437757 f   LIBCMT:sprintf.obj
 0001:00036773       __sprintf_s_l              00437773 f   LIBCMT:sprintf.obj
 0001:00036790       __snprintf_s               00437790 f   LIBCMT:sprintf.obj
 0001:000367af       __snprintf_s_l             004377af f   LIBCMT:sprintf.obj
 0001:000367cf       __sprintf_p                004377cf f   LIBCMT:sprintf.obj
 0001:000367eb       __sprintf_p_l              004377eb f   LIBCMT:sprintf.obj
 0001:00036808       __scprintf                 00437808 f   LIBCMT:sprintf.obj
 0001:00036819       __scprintf_p               00437819 f   LIBCMT:sprintf.obj
 0001:0003682a       __scprintf_l               0043782a f   LIBCMT:sprintf.obj
 0001:00036840       __scprintf_p_l             00437840 f   LIBCMT:sprintf.obj
 0001:00036856       _localeconv                00437856 f   LIBCMT:lconv.obj
 0001:0003687c       __initp_misc_invarg        0043787c f   LIBCMT:invarg.obj
 0001:00036886       __invoke_watson            00437886 f   LIBCMT:invarg.obj
 0001:00036982       __set_invalid_parameter_handler 00437982 f   LIBCMT:invarg.obj
 0001:000369a4       __get_invalid_parameter_handler 004379a4 f   LIBCMT:invarg.obj
 0001:000369b1       ?_invoke_watson@@YAXPBG00II@Z 004379b1 f   LIBCMT:invarg.obj
 0001:000369ba       __invalid_parameter        004379ba f   LIBCMT:invarg.obj
 0001:000369de       __invalid_parameter_noinfo 004379de f   LIBCMT:invarg.obj
 0001:000369ee       ?_invalid_parameter@@YAXPBG00II@Z 004379ee f   LIBCMT:invarg.obj
 0001:000369f7       ??_V@YAXPAX@Z              004379f7 f   LIBCMT:delete2.obj
 0001:00036a00       _memchr                    00437a00 f   LIBCMT:memchr.obj
 0001:00036ab0       _strcspn                   00437ab0 f   LIBCMT:strcspn.obj
 0001:00036af6       __fpclear                  00437af6 f   LIBCMT:fpinit.obj
 0001:00036af7       __cfltcvt_init             00437af7 f   LIBCMT:fpinit.obj
 0001:00036b57       ___setfflag                00437b57 f   LIBCMT:fpinit.obj
 0001:00036b67       __fpmath                   00437b67 f   LIBCMT:fpinit.obj
 0001:00036b85       __set_osplatform           00437b85 f i LIBCMT:crt0.obj
 0001:00036b8f       __set_osver                00437b8f f i LIBCMT:crt0.obj
 0001:00036b99       __set_winver               00437b99 f i LIBCMT:crt0.obj
 0001:00036ba3       __set_winmajor             00437ba3 f i LIBCMT:crt0.obj
 0001:00036bad       __set_winminor             00437bad f i LIBCMT:crt0.obj
 0001:00036dd2       _mainCRTStartup            00437dd2 f   LIBCMT:crt0.obj
 0001:00036df0       _strchr                    00437df0 f   LIBCMT:strchr.obj
 0001:00036df6       ___from_strstr_to_strchr   00437df6     LIBCMT:strchr.obj
 0001:00036eb0       _strstr                    00437eb0 f   LIBCMT:strstr.obj
 0001:00036f36       __ctime64_s                00437f36 f   LIBCMT:ctime64.obj
 0001:00036fab       __ctime64                  00437fab f   LIBCMT:ctime64.obj
 0001:0003700c       __time64                   0043800c f   LIBCMT:time64.obj
 0001:00037048       _atol                      00438048 f   LIBCMT:atox.obj
 0001:00037059       __atol_l                   00438059 f   LIBCMT:atox.obj
 0001:0003706e       _atoi                      0043806e f   LIBCMT:atox.obj
 0001:00037073       __atoi_l                   00438073 f   LIBCMT:atox.obj
 0001:00037078       __atoi64                   00438078 f   LIBCMT:atox.obj
 0001:00037089       __atoi64_l                 00438089 f   LIBCMT:atox.obj
 0001:0003709e       _V6_HeapAlloc              0043809e f   LIBCMT:malloc.obj
 0001:000370ed       __heap_alloc               004380ed f i LIBCMT:malloc.obj
 0001:00037162       _malloc                    00438162 f   LIBCMT:malloc.obj
 0001:00037225       _strncmp                   00438225 f   LIBCMT:strncmp.obj
 0001:000372f0       __allmul                   004382f0 f   LIBCMT:llmul.obj
 0001:00037324       __fclose_nolock            00438324 f   LIBCMT:fclose.obj
 0001:00037396       _fclose                    00438396 f   LIBCMT:fclose.obj
 0001:00037412       __fseek_nolock             00438412 f   LIBCMT:fseek.obj
 0001:00037499       _fseek                     00438499 f   LIBCMT:fseek.obj
 0001:0003751e       _feof                      0043851e f   LIBCMT:feoferr.obj
 0001:0003754d       _ferror                    0043854d f   LIBCMT:feoferr.obj
 0001:0003757c       _fgets                     0043857c f   LIBCMT:fgets.obj
 0001:00037703       __fsopen                   00438703 f   LIBCMT:fopen.obj
 0001:000377c7       _fopen                     004387c7 f   LIBCMT:fopen.obj
 0001:000377da       _fopen_s                   004387da f   LIBCMT:fopen.obj
 0001:0003782a       __fwrite_nolock            0043882a f   LIBCMT:fwrite.obj
 0001:00037989       _fwrite                    00438989 f   LIBCMT:fwrite.obj
 0001:00037a0b       __fread_nolock_s           00438a0b f   LIBCMT:fread.obj
 0001:00037c11       __fread_nolock             00438c11 f   LIBCMT:fread.obj
 0001:00037c2c       _fread_s                   00438c2c f   LIBCMT:fread.obj
 0001:00037cc2       _fread                     00438cc2 f   LIBCMT:fread.obj
 0001:00037cdd       _free                      00438cdd f   LIBCMT:free.obj
 0001:00037d6b       __snprintf                 00438d6b f   LIBCMT:snprintf.obj
 0001:00037e18       __snprintf_l               00438e18 f   LIBCMT:snprintf.obj
 0001:00037e40       __alloca_probe             00438e40     LIBCMT:chkstk.obj
 0001:00037e40       __chkstk                   00438e40 f   LIBCMT:chkstk.obj
 0001:00037e6b       _fgetc                     00438e6b f   LIBCMT:fgetc.obj
 0001:00037fa2       _getc                      00438fa2 f   LIBCMT:fgetc.obj
 0001:000380d9       __getc_nolock              004390d9 f   LIBCMT:fgetc.obj
 0001:000380f3       _fputc                     004390f3 f   LIBCMT:fputc.obj
 0001:00038232       _putc                      00439232 f   LIBCMT:fputc.obj
 0001:00038371       __ungetc_nolock            00439371 f   LIBCMT:ungetc.obj
 0001:0003848f       _ungetc                    0043948f f   LIBCMT:ungetc.obj
 0001:00038501       __flush                    00439501 f   LIBCMT:fflush.obj
 0001:00038563       __fflush_nolock            00439563 f   LIBCMT:fflush.obj
 0001:0003867f       _fflush                    0043967f f   LIBCMT:fflush.obj
 0001:000386d2       __flushall                 004396d2 f   LIBCMT:fflush.obj
 0001:000386db       _setvbuf                   004396db f   LIBCMT:setvbuf.obj
 0001:000387d9       _fgetpos                   004397d9 f   LIBCMT:fgetpos.obj
 0001:00038844       _fsetpos                   00439844 f   LIBCMT:fsetpos.obj
 0001:00038886       __get_errno_from_oserr     00439886 f   LIBCMT:dosmap.obj
 0001:000388c1       __errno                    004398c1 f   LIBCMT:dosmap.obj
 0001:000388d4       ___doserrno                004398d4 f   LIBCMT:dosmap.obj
 0001:000388e7       __dosmaperr                004398e7 f   LIBCMT:dosmap.obj
 0001:00038905       __set_errno                00439905 f   LIBCMT:dosmap.obj
 0001:00038920       __get_errno                00439920 f   LIBCMT:dosmap.obj
 0001:0003894a       __set_doserrno             0043994a f   LIBCMT:dosmap.obj
 0001:00038965       __get_doserrno             00439965 f   LIBCMT:dosmap.obj
 0001:0003898f       __get_sys_err_msg          0043998f f i LIBCMT:strerror.obj
 0001:000389b2       _strerror                  004399b2 f   LIBCMT:strerror.obj
 0001:00038a19       _strerror_s                00439a19 f   LIBCMT:strerror.obj
 0001:00038a78       ___init_ctype              00439a78 f   LIBCMT:initctyp.obj
 0001:00038e0d       ____mb_cur_max_func        00439e0d f   LIBCMT:initctyp.obj
 0001:00038e36       ____mb_cur_max_l_func      00439e36 f   LIBCMT:initctyp.obj
 0001:00038e4c       ____lc_codepage_func       00439e4c f   LIBCMT:initctyp.obj
 0001:00038e72       ____lc_collate_cp_func     00439e72 f   LIBCMT:initctyp.obj
 0001:00038e98       ____lc_handle_func         00439e98 f   LIBCMT:initctyp.obj
 0001:00038f77       ___onexitinit              00439f77 f   LIBCMT:onexit.obj
 0001:00038fa6       __onexit                   00439fa6 f   LIBCMT:onexit.obj
 0001:00038fe2       _atexit                    00439fe2 f   LIBCMT:onexit.obj
 0001:00039000       _strlen                    0043a000 f   LIBCMT:strlen.obj
 0001:0003908b       __EH_prolog3               0043a08b f   LIBCMT:ehprolg3.obj
 0001:000390be       __EH_prolog3_catch         0043a0be f   LIBCMT:ehprolg3.obj
 0001:000390f4       __EH_prolog3_GS            0043a0f4 f   LIBCMT:ehprolg3.obj
 0001:0003912a       __EH_prolog3_catch_GS      0043a12a f   LIBCMT:ehprolg3.obj
 0001:00039163       __EH_epilog3               0043a163 f   LIBCMT:ehprolg3.obj
 0001:00039177       __EH_epilog3_GS            0043a177 f   LIBCMT:ehprolg3.obj
 0001:00039186       __EH_epilog3_catch_GS      0043a186 f   LIBCMT:ehprolg3.obj
 0001:00039195       ____setlc_active_func      0043a195 f   LIBCMT:setlocal.obj
 0001:0003919b       ____unguarded_readlc_active_add_func 0043a19b f   LIBCMT:setlocal.obj
 0001:000391a1       ___freetlocinfo            0043a1a1 f   LIBCMT:setlocal.obj
 0001:000392e1       ___addlocaleref            0043a2e1 f   LIBCMT:setlocal.obj
 0001:00039367       ___removelocaleref         0043a367 f   LIBCMT:setlocal.obj
 0001:00039455       ___updatetlocinfo          0043a455 f   LIBCMT:setlocal.obj
 0001:000394cb       __configthreadlocale       0043a4cb f   LIBCMT:setlocal.obj
 0001:00039584       __free_locale              0043a584 f   LIBCMT:setlocal.obj
 0001:0003961a       ___free_locale             0043a61a f   LIBCMT:setlocal.obj
 0001:0003961f       __get_current_locale       0043a61f f   LIBCMT:setlocal.obj
 0001:000396a7       ___get_current_locale      0043a6a7 f   LIBCMT:setlocal.obj
 0001:000396ac       ___init_dummy              0043a6ac f   LIBCMT:setlocal.obj
 0001:000396af       __strcats                  0043a6af f   LIBCMT:setlocal.obj
 0001:000396ed       ___lc_strtolc              0043a6ed f   LIBCMT:setlocal.obj
 0001:00039816       ___lc_lctostr              0043a816 f   LIBCMT:setlocal.obj
 0001:000399f2       __expandlocale             0043a9f2 f   LIBCMT:setlocal.obj
 0001:0003a08a       __create_locale            0043b08a f   LIBCMT:setlocal.obj
 0001:0003a17d       ___create_locale           0043b17d f   LIBCMT:setlocal.obj
 0001:0003a182       _setlocale                 0043b182 f   LIBCMT:setlocal.obj
 0001:0003a2f2       ??0bad_exception@std@@QAE@PBD@Z 0043b2f2 f i LIBCMT:frame.obj
 0001:0003a30b       ??1bad_exception@std@@UAE@XZ 0043b30b f i LIBCMT:frame.obj
 0001:0003a316       ??_Gbad_exception@std@@UAEPAXI@Z 0043b316 f i LIBCMT:frame.obj
 0001:0003a316       ??_Ebad_exception@std@@UAEPAXI@Z 0043b316 f i LIBCMT:frame.obj
 0001:0003a338       ___TypeMatch               0043b338 f   LIBCMT:frame.obj
 0001:0003a394       ___FrameUnwindFilter       0043b394 f   LIBCMT:frame.obj
 0001:0003a3d8       ___FrameUnwindToState      0043b3d8 f   LIBCMT:frame.obj
 0001:0003a4fe       ___DestructExceptionObject 0043b4fe f   LIBCMT:frame.obj
 0001:0003a552       ___AdjustPointer           0043b552 f   LIBCMT:frame.obj
 0001:0003a577       ?__uncaught_exception@@YA_NXZ 0043b577 f   LIBCMT:frame.obj
 0001:0003a58a       ___CxxRegisterExceptionObject 0043b58a f   LIBCMT:frame.obj
 0001:0003a63d       ___CxxDetectRethrow        0043b63d f   LIBCMT:frame.obj
 0001:0003a689       ___CxxUnregisterExceptionObject 0043b689 f   LIBCMT:frame.obj
 0001:0003a7c2       ___CxxQueryExceptionSize   0043b7c2 f   LIBCMT:frame.obj
 0001:0003a7c6       ___CxxCallUnwindDtor       0043b7c6 f   LIBCMT:frame.obj
 0001:0003a7f8       ___CxxCallUnwindDelDtor    0043b7f8 f   LIBCMT:frame.obj
 0001:0003a82b       ___CxxCallUnwindStdDelDtor 0043b82b f   LIBCMT:frame.obj
 0001:0003a85d       ___CxxCallUnwindVecDtor    0043b85d f   LIBCMT:frame.obj
 0001:0003a98a       ?_is_exception_typeof@@YAHABVtype_info@@PAU_EXCEPTION_POINTERS@@@Z 0043b98a f   LIBCMT:frame.obj
 0001:0003aba8       ___BuildCatchObjectHelper  0043bba8 f   LIBCMT:frame.obj
 0001:0003ad27       ___BuildCatchObject        0043bd27 f   LIBCMT:frame.obj
 0001:0003adb8       ___CxxExceptionFilter      0043bdb8 f   LIBCMT:frame.obj
 0001:0003b3af       ??0bad_exception@std@@QAE@ABV01@@Z 0043c3af f i LIBCMT:frame.obj
 0001:0003b3c7       ___InternalCxxFrameHandler 0043c3c7 f   LIBCMT:frame.obj
 0001:0003b4ab       __MarkAllocaS              0043c4ab f i LIBCMT:a_map.obj
 0001:0003b4bd       __freea                    0043c4bd f i LIBCMT:a_map.obj
 0001:0003b4d8       ??0_LocaleUpdate@@QAE@PAUlocaleinfo_struct@@@Z 0043c4d8 f i LIBCMT:a_map.obj
 0001:0003b55a       ??1_LocaleUpdate@@QAE@XZ   0043c55a f i LIBCMT:a_map.obj
 0001:0003b568       ?GetLocaleT@_LocaleUpdate@@QAEPAUlocaleinfo_struct@@XZ 0043c568 f i LIBCMT:a_map.obj
 0001:0003b927       ___crtLCMapStringA         0043c927 f   LIBCMT:a_map.obj
 0001:0003b96a       ___pwctype_func            0043c96a f   LIBCMT:ctype.obj
 0001:0003b970       ___pctype_func             0043c970 f   LIBCMT:ctype.obj
 0001:0003b999       __isalpha_l                0043c999 f i LIBCMT:_ctype.obj
 0001:0003b9ed       _isalpha                   0043c9ed f i LIBCMT:_ctype.obj
 0001:0003ba18       __isupper_l                0043ca18 f i LIBCMT:_ctype.obj
 0001:0003ba67       _isupper                   0043ca67 f i LIBCMT:_ctype.obj
 0001:0003ba90       __islower_l                0043ca90 f i LIBCMT:_ctype.obj
 0001:0003badf       _islower                   0043cadf f i LIBCMT:_ctype.obj
 0001:0003bb08       __isdigit_l                0043cb08 f i LIBCMT:_ctype.obj
 0001:0003bb57       _isdigit                   0043cb57 f i LIBCMT:_ctype.obj
 0001:0003bb80       __isxdigit_l               0043cb80 f i LIBCMT:_ctype.obj
 0001:0003bbd4       _isxdigit                  0043cbd4 f i LIBCMT:_ctype.obj
 0001:0003bbff       __isspace_l                0043cbff f i LIBCMT:_ctype.obj
 0001:0003bc4e       _isspace                   0043cc4e f i LIBCMT:_ctype.obj
 0001:0003bc77       __ispunct_l                0043cc77 f i LIBCMT:_ctype.obj
 0001:0003bcc6       _ispunct                   0043ccc6 f i LIBCMT:_ctype.obj
 0001:0003bcef       __isalnum_l                0043ccef f i LIBCMT:_ctype.obj
 0001:0003bd43       _isalnum                   0043cd43 f i LIBCMT:_ctype.obj
 0001:0003bd6e       __isprint_l                0043cd6e f i LIBCMT:_ctype.obj
 0001:0003bdc2       _isprint                   0043cdc2 f i LIBCMT:_ctype.obj
 0001:0003bded       __isgraph_l                0043cded f i LIBCMT:_ctype.obj
 0001:0003be41       _isgraph                   0043ce41 f i LIBCMT:_ctype.obj
 0001:0003be6c       __iscntrl_l                0043ce6c f i LIBCMT:_ctype.obj
 0001:0003bebb       _iscntrl                   0043cebb f i LIBCMT:_ctype.obj
 0001:0003bee4       ___isascii                 0043cee4 f i LIBCMT:_ctype.obj
 0001:0003bef1       ___toascii                 0043cef1 f i LIBCMT:_ctype.obj
 0001:0003bef9       __iscsymf_l                0043cef9 f i LIBCMT:_ctype.obj
 0001:0003bf18       ___iscsymf                 0043cf18 f i LIBCMT:_ctype.obj
 0001:0003bf32       __iscsym_l                 0043cf32 f i LIBCMT:_ctype.obj
 0001:0003bf51       ___iscsym                  0043cf51 f i LIBCMT:_ctype.obj
 0001:0003bf6d       _wait_a_bit                0043cf6d f i LIBCMT:crtheap.obj
 0001:0003bf8e       __set_malloc_crt_max_wait  0043cf8e f   LIBCMT:crtheap.obj
 0001:0003bf9e       __malloc_crt               0043cf9e f   LIBCMT:crtheap.obj
 0001:0003bfde       __calloc_crt               0043cfde f   LIBCMT:crtheap.obj
 0001:0003c026       __realloc_crt              0043d026 f   LIBCMT:crtheap.obj
 0001:0003c071       __recalloc_crt             0043d071 f   LIBCMT:crtheap.obj
 0001:0003c0c1       @_malloc_crt_fastcall@4    0043d0c1 f   LIBCMT:crtheap.obj
 0001:0003c0c9       @_calloc_crt_fastcall@8    0043d0c9 f   LIBCMT:crtheap.obj
 0001:0003c0d3       @_realloc_crt_fastcall@8   0043d0d3 f   LIBCMT:crtheap.obj
 0001:0003c10c       __wcstombs_l_helper        0043d10c f   LIBCMT:wcstombs.obj
 0001:0003c352       __wcstombs_l               0043d352 f   LIBCMT:wcstombs.obj
 0001:0003c357       _wcstombs                  0043d357 f   LIBCMT:wcstombs.obj
 0001:0003c36e       __wcstombs_s_l             0043d36e f   LIBCMT:wcstombs.obj
 0001:0003c41f       _wcstombs_s                0043d41f f   LIBCMT:wcstombs.obj
 0001:0003c43d       __wfsopen                  0043d43d f   LIBCMT:wfopen.obj
 0001:0003c503       __wfopen                   0043d503 f   LIBCMT:wfopen.obj
 0001:0003c516       __wfopen_s                 0043d516 f   LIBCMT:wfopen.obj
 0001:0003c566       __amsg_exit                0043d566 f   LIBCMT:crt0dat.obj
 0001:0003c58a       ___crtCorExitProcess       0043d58a f   LIBCMT:crt0dat.obj
 0001:0003c5b0       ___crtExitProcess          0043d5b0 f   LIBCMT:crt0dat.obj
 0001:0003c5c5       __lockexit                 0043d5c5 f   LIBCMT:crt0dat.obj
 0001:0003c5ce       __unlockexit               0043d5ce f   LIBCMT:crt0dat.obj
 0001:0003c5ef       __initterm_e               0043d5ef f   LIBCMT:crt0dat.obj
 0001:0003c60f       __get_osplatform           0043d60f f   LIBCMT:crt0dat.obj
 0001:0003c646       __get_osver                0043d646 f   LIBCMT:crt0dat.obj
 0001:0003c682       __get_winver               0043d682 f   LIBCMT:crt0dat.obj
 0001:0003c6be       __get_winmajor             0043d6be f   LIBCMT:crt0dat.obj
 0001:0003c6fa       __get_winminor             0043d6fa f   LIBCMT:crt0dat.obj
 0001:0003c736       __get_wpgmptr              0043d736 f   LIBCMT:crt0dat.obj
 0001:0003c76d       __get_pgmptr               0043d76d f   LIBCMT:crt0dat.obj
 0001:0003c7a4       __cinit                    0043d7a4 f   LIBCMT:crt0dat.obj
 0001:0003c918       _exit                      0043d918 f   LIBCMT:crt0dat.obj
 0001:0003c929       __exit                     0043d929 f   LIBCMT:crt0dat.obj
 0001:0003c93a       __cexit                    0043d93a f   LIBCMT:crt0dat.obj
 0001:0003c949       __c_exit                   0043d949 f   LIBCMT:crt0dat.obj
 0001:0003c958       __init_pointers            0043d958 f   LIBCMT:crt0dat.obj
 0001:0003c9a4       __mbstowcs_l_helper        0043d9a4 f   LIBCMT:mbstowcs.obj
 0001:0003cb2c       __mbstowcs_l               0043db2c f   LIBCMT:mbstowcs.obj
 0001:0003cb31       _mbstowcs                  0043db31 f   LIBCMT:mbstowcs.obj
 0001:0003cb59       __mbstowcs_s_l             0043db59 f   LIBCMT:mbstowcs.obj
 0001:0003cc4f       _mbstowcs_s                0043dc4f f   LIBCMT:mbstowcs.obj
 0001:0003cd48       __itoa_s                   0043dd48 f   LIBCMT:xtoas.obj
 0001:0003cd70       __ltoa_s                   0043dd70 f   LIBCMT:xtoas.obj
 0001:0003cd95       __ultoa_s                  0043dd95 f   LIBCMT:xtoas.obj
 0001:0003cea3       __i64toa_s                 0043dea3 f   LIBCMT:xtoas.obj
 0001:0003ced6       __ui64toa_s                0043ded6 f   LIBCMT:xtoas.obj
 0001:0003cef3       _abort                     0043def3 f   LIBCMT:abort.obj
 0001:0003cfe6       __set_abort_behavior       0043dfe6 f   LIBCMT:abort.obj
 0001:0003d05b       __VEC_memzero              0043e05b f   LIBCMT:p4_memset.obj
 0001:0003d0ea       __sse2_mathfcns_init       0043e0ea f   LIBCMT:mathfcns.obj
 0001:0003d0fe       __set_SSE2_enable          0043e0fe f   LIBCMT:mathfcns.obj
 0001:0003d112       __stbuf                    0043e112 f   LIBCMT:_sftbuf.obj
 0001:0003d1a8       __ftbuf                    0043e1a8 f   LIBCMT:_sftbuf.obj
 0001:0003d278       _get_int_arg               0043e278 f i LIBCMT:output.obj
 0001:0003d285       _get_int64_arg             0043e285 f i LIBCMT:output.obj
 0001:0003d295       _get_short_arg             0043e295 f i LIBCMT:output.obj
 0001:0003d2a3       __output_l                 0043e2a3 f   LIBCMT:output.obj
 0001:0003dc37       __ioinit                   0043ec37 f   LIBCMT:ioinit.obj
 0001:0003de77       __ioterm                   0043ee77 f   LIBCMT:ioinit.obj
 0001:0003dec3       __fileno                   0043eec3 f   LIBCMT:fileno.obj
 0001:0003def0       __SEH_prolog4              0043eef0 f   LIBCMT:sehprolg4.obj
 0001:0003df35       __SEH_epilog4              0043ef35 f   LIBCMT:sehprolg4.obj
 0001:0003df80       __except_handler4          0043ef80 f   LIBCMT:chandler4.obj
 0001:0003e116       _vfprintf_helper           0043f116 f   LIBCMT:vfprintf.obj
 0001:0003e264       __vfprintf_l               0043f264 f   LIBCMT:vfprintf.obj
 0001:0003e282       __vfprintf_s_l             0043f282 f   LIBCMT:vfprintf.obj
 0001:0003e2a0       __vfprintf_p_l             0043f2a0 f   LIBCMT:vfprintf.obj
 0001:0003e2be       _vfprintf                  0043f2be f   LIBCMT:vfprintf.obj
 0001:0003e2da       _vfprintf_s                0043f2da f   LIBCMT:vfprintf.obj
 0001:0003e2f6       __vfprintf_p               0043f2f6 f   LIBCMT:vfprintf.obj
 0001:0003e312       __fcloseall                0043f312 f   LIBCMT:closeall.obj
 0001:0003e3b1       __mtinitlocks              0043f3b1 f   LIBCMT:mlock.obj
 0001:0003e3fa       __mtdeletelocks            0043f3fa f   LIBCMT:mlock.obj
 0001:0003e44f       __unlock                   0043f44f f   LIBCMT:mlock.obj
 0001:0003e464       __lockerr_exit             0043f464 f   LIBCMT:mlock.obj
 0001:0003e47c       __mtinitlocknum            0043f47c f   LIBCMT:mlock.obj
 0001:0003e53f       __lock                     0043f53f f   LIBCMT:mlock.obj
 0001:0003e570       ___report_gsfailure        0043f570 f   LIBCMT:gs_report.obj
 0001:0003e6e0       __encode_pointer           0043f6e0 f   LIBCMT:tidtable.obj
 0001:0003e74e       __encoded_null             0043f74e f   LIBCMT:tidtable.obj
 0001:0003e757       __decode_pointer           0043f757 f   LIBCMT:tidtable.obj
 0001:0003e7c5       ___crtTlsAlloc@4           0043f7c5 f   LIBCMT:tidtable.obj
 0001:0003e7ce       ___fls_getvalue@4          0043f7ce f   LIBCMT:tidtable.obj
 0001:0003e7e3       ___get_flsindex            0043f7e3 f   LIBCMT:tidtable.obj
 0001:0003e7e9       ___set_flsgetvalue         0043f7e9 f   LIBCMT:tidtable.obj
 0001:0003e81b       ___fls_setvalue@8          0043f81b f   LIBCMT:tidtable.obj
 0001:0003e834       __mtterm                   0043f834 f   LIBCMT:tidtable.obj
 0001:0003e871       __initptd                  0043f871 f   LIBCMT:tidtable.obj
 0001:0003e930       __getptd_noexit            0043f930 f   LIBCMT:tidtable.obj
 0001:0003e9a7       __getptd                   0043f9a7 f   LIBCMT:tidtable.obj
 0001:0003e9bf       __freefls@4                0043f9bf f   LIBCMT:tidtable.obj
 0001:0003eae0       __freeptd                  0043fae0 f   LIBCMT:tidtable.obj
 0001:0003eb49       ___threadid                0043fb49 f   LIBCMT:tidtable.obj
 0001:0003eb4f       ___threadhandle            0043fb4f f   LIBCMT:tidtable.obj
 0001:0003eb55       __mtinit                   0043fb55 f   LIBCMT:tidtable.obj
 0001:0003ecd9       ?terminate@@YAXXZ          0043fcd9 f   LIBCMT:hooks.obj
 0001:0003ed12       ?unexpected@@YAXXZ         0043fd12 f   LIBCMT:hooks.obj
 0001:0003ed25       ?_inconsistency@@YAXXZ     0043fd25 f   LIBCMT:hooks.obj
 0001:0003ed5c       __initp_eh_hooks           0043fd5c f   LIBCMT:hooks.obj
 0001:0003ed70       __CallSettingFrame@12      0043fd70 f   LIBCMT:lowhelpr.obj
 0001:0003ed97       __NLG_Return               0043fd97     LIBCMT:lowhelpr.obj
 0001:0003edbc       ?_Type_info_dtor@type_info@@CAXPAV1@@Z 0043fdbc f   LIBCMT:typname.obj
 0001:0003ee2c       ?_Name_base@type_info@@CAPBDPBV1@PAU__type_info_node@@@Z 0043fe2c f   LIBCMT:typname.obj
 0001:0003ef21       ?_Type_info_dtor_internal@type_info@@CAXPAV1@@Z 0043ff21 f   LIBCMT:typname.obj
 0001:0003ef91       ___unDNameHelper           0043ff91 f   LIBCMT:typname.obj
 0001:0003efc2       ?_Name_base_internal@type_info@@CAPBDPBV1@PAU__type_info_node@@@Z 0043ffc2 f   LIBCMT:typname.obj
 0001:0003f0ad       ___clean_type_info_names_internal 004400ad f   LIBCMT:typname.obj
 0001:0003f100       _strcmp                    00440100 f   LIBCMT:strcmp.obj
 0001:0003f188       __NMSG_WRITE               00440188 f   LIBCMT:crt0msg.obj
 0001:0003f328       __GET_RTERRMSG             00440328 f   LIBCMT:crt0msg.obj
 0001:0003f348       __FF_MSGBANNER             00440348 f   LIBCMT:crt0msg.obj
 0001:0003f381       ___getlocaleinfo           00440381 f   LIBCMT:inithelp.obj
 0001:0003f4db       __initp_misc_purevirt      004404db f   LIBCMT:inithelp.obj
 0001:0003f4e5       _vprintf_helper            004404e5 f   LIBCMT:vprintf.obj
 0001:0003f575       __vprintf_l                00440575 f   LIBCMT:vprintf.obj
 0001:0003f58f       __vprintf_s_l              0044058f f   LIBCMT:vprintf.obj
 0001:0003f5a9       __vprintf_p_l              004405a9 f   LIBCMT:vprintf.obj
 0001:0003f5c3       _vprintf                   004405c3 f   LIBCMT:vprintf.obj
 0001:0003f5db       _vprintf_s                 004405db f   LIBCMT:vprintf.obj
 0001:0003f5f3       __vprintf_p                004405f3 f   LIBCMT:vprintf.obj
 0001:0003f60b       __initp_heap_handler       0044060b f   LIBCMT:handler.obj
 0001:0003f615       ?_set_new_handler@@YAP6AHI@ZP6AHI@Z@Z 00440615 f   LIBCMT:handler.obj
 0001:0003f646       ?_set_new_handler@@YAP6AHI@ZH@Z 00440646 f   LIBCMT:handler.obj
 0001:0003f64f       ?_query_new_handler@@YAP6AHI@ZXZ 0044064f f   LIBCMT:handler.obj
 0001:0003f65c       __callnewh                 0044065c f   LIBCMT:handler.obj
 0001:0003f705       __VEC_memcpy               00440705 f   LIBCMT:p4_memcpy.obj
 0001:0003f7e8       _strcpy_s                  004407e8 f   LIBCMT:strcpy_s.obj
 0001:0003f850       _memmove                   00440850 f   LIBCMT:memmove.obj
 0001:0003fbb5       __flsbuf                   00440bb5 f   LIBCMT:_flsbuf.obj
 0001:0003fd15       __vsprintf_l               00440d15 f   LIBCMT:vsprintf.obj
 0001:0003fd91       _vsprintf                  00440d91 f   LIBCMT:vsprintf.obj
 0001:0003fda8       __vscprintf_helper         00440da8 f   LIBCMT:vsprintf.obj
 0001:0003fdfd       __vscprintf                00440dfd f   LIBCMT:vsprintf.obj
 0001:0003fe15       __vscprintf_l              00440e15 f   LIBCMT:vsprintf.obj
 0001:0003fe2f       __vscprintf_p              00440e2f f   LIBCMT:vsprintf.obj
 0001:0003fe47       __vscprintf_p_l            00440e47 f   LIBCMT:vsprintf.obj
 0001:0003fe61       __vsnprintf_helper         00440e61 f   LIBCMT:vsnprnc.obj
 0001:0003ff2b       __vsnprintf_c              00440f2b f   LIBCMT:vsnprnc.obj
 0001:0003ff52       __vsnprintf_c_l            00440f52 f   LIBCMT:vsnprnc.obj
 0001:0003ff7a       __vsprintf_s_l             00440f7a f   LIBCMT:vsnprnc.obj
 0001:00040000       _vsprintf_s                00441000 f   LIBCMT:vsnprnc.obj
 0001:0004001b       __vsnprintf_s_l            0044101b f   LIBCMT:vsnprnc.obj
 0001:00040120       __vsnprintf_s              00441120 f   LIBCMT:vsnprnc.obj
 0001:0004013e       __vsprintf_p               0044113e f   LIBCMT:vsnprnc.obj
 0001:00040165       __vsprintf_p_l             00441165 f   LIBCMT:vsnprnc.obj
 0001:0004018d       __crt_debugger_hook        0044118d f   LIBCMT:dbghook.obj
 0001:00040195       ?strrchr@@YAPADPADH@Z      00441195 f i LIBCMT:cvt.obj
 0001:0004019a       __forcdecpt_l              0044119a f   LIBCMT:cvt.obj
 0001:0004020b       __cropzeros_l              0044120b f   LIBCMT:cvt.obj
 0001:0004028b       __positive                 0044128b f   LIBCMT:cvt.obj
 0001:000402a1       __fassign_l                004412a1 f   LIBCMT:cvt.obj
 0001:000402e1       __fassign                  004412e1 f   LIBCMT:cvt.obj
 0001:00040315       __forcdecpt                00441315 f   LIBCMT:cvt.obj
 0001:00040323       __cropzeros                00441323 f   LIBCMT:cvt.obj
 0001:0004049e       __cftoe_l                  0044149e f   LIBCMT:cvt.obj
 0001:0004056c       __cftoe                    0044156c f   LIBCMT:cvt.obj
 0001:0004058a       __cftoa_l                  0044158a f   LIBCMT:cvt.obj
 0001:000408fb       __cftoa                    004418fb f   LIBCMT:cvt.obj
 0001:00040a0e       __cftof_l                  00441a0e f   LIBCMT:cvt.obj
 0001:00040ac7       __cftof                    00441ac7 f   LIBCMT:cvt.obj
 0001:00040ae2       __cftog_l                  00441ae2 f   LIBCMT:cvt.obj
 0001:00040bda       __cftog                    00441bda f   LIBCMT:cvt.obj
 0001:00040bf8       __cfltcvt_l                00441bf8 f   LIBCMT:cvt.obj
 0001:00040c7e       __cfltcvt                  00441c7e f   LIBCMT:cvt.obj
 0001:00040c9f       __initp_misc_cfltcvt_tab   00441c9f f   LIBCMT:cmiscdat.obj
 0001:00040cbe       __setdefaultprecision      00441cbe f   LIBCMT:fp8.obj
 0001:00040ce7       __ms_p5_test_fdiv          00441ce7 f   LIBCMT:testfdiv.obj
 0001:00040d23       __ms_p5_mp_test_fdiv       00441d23 f   LIBCMT:testfdiv.obj
 0001:00040d4c       ?__CxxUnhandledExceptionFilter@@YGJPAU_EXCEPTION_POINTERS@@@Z 00441d4c f   LIBCMT:unhandld.obj
 0001:00040d89       ___CxxSetUnhandledExceptionFilter 00441d89 f   LIBCMT:unhandld.obj
 0001:00040d97       __initp_misc_winxfltr      00441d97 f   LIBCMT:winxfltr.obj
 0001:00040dca       __XcptFilter               00441dca f   LIBCMT:winxfltr.obj
 0001:00040f28       ___CppXcptFilter           00441f28 f   LIBCMT:winxfltr.obj
 0001:00040f43       __setenvp                  00441f43 f   LIBCMT:stdenvp.obj
 0001:0004101e       __set_pgmptr               0044201e f i LIBCMT:stdargv.obj
 0001:000411c0       __setargv                  004421c0 f   LIBCMT:stdargv.obj
 0001:00041279       ___crtGetEnvironmentStringsA 00442279 f   LIBCMT:a_env.obj
 0001:000413ae       __RTC_Initialize           004423ae f   LIBCMT:initsect.obj
 0001:000413d2       __RTC_Terminate            004423d2 f   LIBCMT:initsect.obj
 0001:000413f6       ___heap_select             004423f6 f   LIBCMT:heapinit.obj
 0001:00041451       __heap_init                00442451 f   LIBCMT:heapinit.obj
 0001:000414ab       __heap_term                004424ab f   LIBCMT:heapinit.obj
 0001:0004151f       __get_heap_handle          0044251f f   LIBCMT:heapinit.obj
 0001:00041525       ___security_init_cookie    00442525 f   LIBCMT:gs_support.obj
 0001:000415cf       _asctime_s                 004425cf f   LIBCMT:asctime.obj
 0001:000417bd       _asctime                   004427bd f   LIBCMT:asctime.obj
 0001:00041804       __localtime64_s            00442804 f   LIBCMT:loctim64.obj
 0001:00041ac9       __localtime64              00442ac9 f   LIBCMT:loctim64.obj
 0001:00041af0       __aulldiv                  00442af0 f   LIBCMT:ulldiv.obj
 0001:00041d83       _strtol                    00442d83 f   LIBCMT:strtol.obj
 0001:00041dac       __strtol_l                 00442dac f   LIBCMT:strtol.obj
 0001:00041dc7       _strtoul                   00442dc7 f   LIBCMT:strtol.obj
 0001:00041df1       __strtoul_l                00442df1 f   LIBCMT:strtol.obj
 0001:000420a0       __strtoi64                 004430a0 f   LIBCMT:strtoq.obj
 0001:000420c9       __strtoi64_l               004430c9 f   LIBCMT:strtoq.obj
 0001:000420e4       __strtoui64                004430e4 f   LIBCMT:strtoq.obj
 0001:0004210e       __strtoui64_l              0044310e f   LIBCMT:strtoq.obj
 0001:00042129       __get_sbh_threshold        00443129 f   LIBCMT:sbheap.obj
 0001:0004214a       __set_amblksiz             0044314a f   LIBCMT:sbheap.obj
 0001:00042190       __get_amblksiz             00443190 f   LIBCMT:sbheap.obj
 0001:000421cc       ___sbh_heap_init           004431cc f   LIBCMT:sbheap.obj
 0001:00042214       ___sbh_find_block          00443214 f   LIBCMT:sbheap.obj
 0001:0004223f       ___sbh_free_block          0044323f f   LIBCMT:sbheap.obj
 0001:00042553       ___sbh_alloc_new_region    00443553 f   LIBCMT:sbheap.obj
 0001:00042603       ___sbh_alloc_new_group     00443603 f   LIBCMT:sbheap.obj
 0001:00042709       ___sbh_resize_block        00443709 f   LIBCMT:sbheap.obj
 0001:000429e8       ___sbh_heapmin             004439e8 f   LIBCMT:sbheap.obj
 0001:00042ab5       ___sbh_heap_check          00443ab5 f   LIBCMT:sbheap.obj
 0001:00042d97       __set_sbh_threshold        00443d97 f   LIBCMT:sbheap.obj
 0001:00042e3f       ___sbh_alloc_block         00443e3f f   LIBCMT:sbheap.obj
 0001:00043122       __close_nolock             00444122 f   LIBCMT:close.obj
 0001:000431b6       __close                    004441b6 f   LIBCMT:close.obj
 0001:00043283       __freebuf                  00444283 f   LIBCMT:_freebuf.obj
 0001:000432af       __lseek_nolock             004442af f   LIBCMT:lseek.obj
 0001:00043321       __lseek                    00444321 f   LIBCMT:lseek.obj
 0001:000433fd       __ftell_nolock             004443fd f   LIBCMT:ftell.obj
 0001:00043595       _ftell                     00444595 f   LIBCMT:ftell.obj
 0001:00043603       __filbuf                   00444603 f   LIBCMT:_filbuf.obj
 0001:00043723       __openfile                 00444723 f   LIBCMT:_open.obj
 0001:000439c3       __getstream                004449c3 f   LIBCMT:stream.obj
 0001:00043af4       __local_unwind4            00444af4 f   LIBCMT:exsup4.obj
 0001:00043bca       __seh_longjmp_unwind4@4    00444bca f   LIBCMT:exsup4.obj
 0001:00043be6       @_EH4_CallFilterFunc@8     00444be6 f   LIBCMT:exsup4.obj
 0001:00043bfd       @_EH4_TransferToHandler@8  00444bfd f   LIBCMT:exsup4.obj
 0001:00043c16       @_EH4_GlobalUnwind@4       00444c16 f   LIBCMT:exsup4.obj
 0001:00043c30       @_EH4_LocalUnwind@16       00444c30 f   LIBCMT:exsup4.obj
 0001:00043c47       __write_nolock             00444c47 f   LIBCMT:write.obj
 0001:0004420d       __write                    0044520d f   LIBCMT:write.obj
 0001:000442e9       __read_nolock              004452e9 f   LIBCMT:read.obj
 0001:000448aa       __read                     004458aa f   LIBCMT:read.obj
 0001:000449a7       __vsnprintf_l              004459a7 f   LIBCMT:vsnprint.obj
 0001:00044a58       __vsnprintf                00445a58 f   LIBCMT:vsnprint.obj
 0001:00044a73       __getbuf                   00445a73 f   LIBCMT:_getbuf.obj
 0001:00044ab7       __commit                   00445ab7 f   LIBCMT:commit.obj
 0001:00044b98       __ftelli64_nolock          00445b98 f   LIBCMT:ftelli64.obj
 0001:00044e74       __ftelli64                 00445e74 f   LIBCMT:ftelli64.obj
 0001:00044ebe       __fseeki64_nolock          00445ebe f   LIBCMT:fseeki64.obj
 0001:00044f57       __fseeki64                 00445f57 f   LIBCMT:fseeki64.obj
 0001:00044fa6       ___sys_nerr                00445fa6 f   LIBCMT:syserr.obj
 0001:00044fac       ___sys_errlist             00445fac f   LIBCMT:syserr.obj
 0001:00044fb2       _strncpy_s                 00445fb2 f   LIBCMT:strncpy_s.obj
 0001:0004521d       ___crtGetStringTypeA       0044621d f   LIBCMT:a_str.obj
 0001:0004525d       __msize                    0044625d f   LIBCMT:msize.obj
 0001:00045719       ___free_lc_time            00446719 f   LIBCMT:inittime.obj
 0001:000458a9       ___init_time               004468a9 f   LIBCMT:inittime.obj
 0001:0004594f       ___free_lconv_num          0044694f f   LIBCMT:initnum.obj
 0001:0004598f       ___init_numeric            0044698f f   LIBCMT:initnum.obj
 0001:00045b8a       ___free_lconv_mon          00446b8a f   LIBCMT:initmon.obj
 0001:00045c13       ___init_monetary           00446c13 f   LIBCMT:initmon.obj
 0001:00045ed7       ___init_collate            00446ed7 f   LIBCMT:initcoll.obj
 0001:00045eda       __Getdays_l                00446eda f   LIBCMT:strftime.obj
 0001:00045fd8       __Getdays                  00446fd8 f   LIBCMT:strftime.obj
 0001:00045fe1       __Getmonths_l              00446fe1 f   LIBCMT:strftime.obj
 0001:000460df       __Getmonths                004470df f   LIBCMT:strftime.obj
 0001:000460e8       __Gettnames_l              004470e8 f   LIBCMT:strftime.obj
 0001:0004643d       __Gettnames                0044743d f   LIBCMT:strftime.obj
 0001:00046d58       __Strftime_l               00447d58 f   LIBCMT:strftime.obj
 0001:00046f07       __strftime_l               00447f07 f   LIBCMT:strftime.obj
 0001:00046f25       _strftime                  00447f25 f   LIBCMT:strftime.obj
 0001:00046f42       __Strftime                 00447f42 f   LIBCMT:strftime.obj
 0001:0004716e       ___updatetmbcinfo          0044816e f   LIBCMT:mbctype.obj
 0001:0004728c       __setmbcp_nolock           0044828c f   LIBCMT:mbctype.obj
 0001:00047465       __getmbcp                  00448465 f   LIBCMT:mbctype.obj
 0001:000474a1       __setmbcp                  004484a1 f   LIBCMT:mbctype.obj
 0001:0004763b       ___initmbctable            0044863b f   LIBCMT:mbctype.obj
 0001:00047659       _strcat_s                  00448659 f   LIBCMT:strcat_s.obj
 0001:00047c84       ___get_qualified_locale    00448c84 f   LIBCMT:getqloc.obj
 0001:000493d9       _memcmp                    0044a3d9 f   LIBCMT:memcmp.obj
 0001:0004aa60       _strpbrk                   0044ba60 f   LIBCMT:strpbrk.obj
 0001:0004aaa0       ?_ValidateRead@@YAHPBXI@Z  0044baa0 f   LIBCMT:validate.obj
 0001:0004aaad       ?_ValidateWrite@@YAHPAXI@Z 0044baad f   LIBCMT:validate.obj
 0001:0004aaba       ?_ValidateExecute@@YAHP6GHXZ@Z 0044baba f   LIBCMT:validate.obj
 0001:0004aac7       ___ansicp                  0044bac7 f   LIBCMT:convrtcp.obj
 0001:0004ab0e       ___convertcp               0044bb0e f   LIBCMT:convrtcp.obj
 0001:0004acc0       __alloca_probe_16          0044bcc0 f   LIBCMT:alloca16.obj
 0001:0004acd6       __alloca_probe_8           0044bcd6     LIBCMT:alloca16.obj
 0001:0004acec       __isctype_l                0044bcec f   LIBCMT:isctype.obj
 0001:0004ada2       __isctype                  0044bda2 f   LIBCMT:isctype.obj
 0001:0004add1       __calloc_impl              0044bdd1 f   LIBCMT:calloc.obj
 0001:0004aeef       _calloc                    0044beef f   LIBCMT:calloc.obj
 0001:0004af2e       _realloc                   0044bf2e f   LIBCMT:realloc.obj
 0001:0004b149       __recalloc                 0044c149 f   LIBCMT:realloc.obj
 0001:0004b1c2       _wcslen                    0044c1c2 f   LIBCMT:wcslen.obj
 0001:0004b1d8       __wopenfile                0044c1d8 f   LIBCMT:_wopen.obj
 0001:0004b470       __ValidateImageBase        0044c470 f   LIBCMT:pesect.obj
 0001:0004b4a0       __FindPESection            0044c4a0 f   LIBCMT:pesect.obj
 0001:0004b4f0       __IsNonwritableInCurrentImage 0044c4f0 f   LIBCMT:pesect.obj
 0001:0004b5ab       __initp_misc_winsig        0044c5ab f   LIBCMT:winsig.obj
 0001:0004b693       ___get_sigabrt             0044c693 f   LIBCMT:winsig.obj
 0001:0004b6a0       ___fpecode                 0044c6a0 f   LIBCMT:winsig.obj
 0001:0004b6a9       ___pxcptinfoptrs           0044c6a9 f   LIBCMT:winsig.obj
 0001:0004b6b2       _signal                    0044c6b2 f   LIBCMT:winsig.obj
 0001:0004b8ef       _raise                     0044c8ef f   LIBCMT:winsig.obj
 0001:0004ba9f       __initp_misc_rand_s        0044ca9f f   LIBCMT:rand_s.obj
 0001:0004baa9       _rand_s                    0044caa9 f   LIBCMT:rand_s.obj
 0001:0004bbad       __initp_misc_initcrit      0044cbad f   LIBCMT:initcrit.obj
 0001:0004bbc7       ___crtInitCritSecAndSpinCount 0044cbc7 f   LIBCMT:initcrit.obj
 0001:0004bc8c       __isleadbyte_l             0044cc8c f i LIBCMT:_wctype.obj
 0001:0004bcc2       _isleadbyte                0044ccc2 f i LIBCMT:_wctype.obj
 0001:0004bcd0       __iswalpha_l               0044ccd0 f i LIBCMT:_wctype.obj
 0001:0004bce6       _iswalpha                  0044cce6 f i LIBCMT:_wctype.obj
 0001:0004bcf7       __iswupper_l               0044ccf7 f i LIBCMT:_wctype.obj
 0001:0004bd0a       _iswupper                  0044cd0a f i LIBCMT:_wctype.obj
 0001:0004bd18       __iswlower_l               0044cd18 f i LIBCMT:_wctype.obj
 0001:0004bd2b       _iswlower                  0044cd2b f i LIBCMT:_wctype.obj
 0001:0004bd39       __iswdigit_l               0044cd39 f i LIBCMT:_wctype.obj
 0001:0004bd4c       _iswdigit                  0044cd4c f i LIBCMT:_wctype.obj
 0001:0004bd5a       __iswxdigit_l              0044cd5a f i LIBCMT:_wctype.obj
 0001:0004bd70       _iswxdigit                 0044cd70 f i LIBCMT:_wctype.obj
 0001:0004bd81       __iswspace_l               0044cd81 f i LIBCMT:_wctype.obj
 0001:0004bd94       _iswspace                  0044cd94 f i LIBCMT:_wctype.obj
 0001:0004bda2       __iswpunct_l               0044cda2 f i LIBCMT:_wctype.obj
 0001:0004bdb5       _iswpunct                  0044cdb5 f i LIBCMT:_wctype.obj
 0001:0004bdc3       __iswalnum_l               0044cdc3 f i LIBCMT:_wctype.obj
 0001:0004bdd9       _iswalnum                  0044cdd9 f i LIBCMT:_wctype.obj
 0001:0004bdea       __iswprint_l               0044cdea f i LIBCMT:_wctype.obj
 0001:0004be00       _iswprint                  0044ce00 f i LIBCMT:_wctype.obj
 0001:0004be11       __iswgraph_l               0044ce11 f i LIBCMT:_wctype.obj
 0001:0004be27       _iswgraph                  0044ce27 f i LIBCMT:_wctype.obj
 0001:0004be38       __iswcntrl_l               0044ce38 f i LIBCMT:_wctype.obj
 0001:0004be4b       _iswcntrl                  0044ce4b f i LIBCMT:_wctype.obj
 0001:0004be59       _iswascii                  0044ce59 f i LIBCMT:_wctype.obj
 0001:0004be65       __iswcsym_l                0044ce65 f i LIBCMT:_wctype.obj
 0001:0004be8b       ___iswcsym                 0044ce8b f i LIBCMT:_wctype.obj
 0001:0004beac       __iswcsymf_l               0044ceac f i LIBCMT:_wctype.obj
 0001:0004bed2       ___iswcsymf                0044ced2 f i LIBCMT:_wctype.obj
 0001:0004bf00       __aulldvrm                 0044cf00 f   LIBCMT:ulldvrm.obj
 0001:0004bfe5       __get_sse2_info            0044cfe5 f   LIBCMT:cpu_disp.obj
 0001:0004c045       ___sse2_available_init     0044d045 f   LIBCMT:cpu_disp.obj
 0001:0004c052       __isatty                   0044d052 f   LIBCMT:isatty.obj
 0001:0004c0b0       __wctomb_s_l               0044d0b0 f   LIBCMT:wctomb.obj
 0001:0004c20f       _wctomb_s                  0044d20f f   LIBCMT:wctomb.obj
 0001:0004c22a       __wctomb_l                 0044d22a f   LIBCMT:wctomb.obj
 0001:0004c279       _wctomb                    0044d279 f   LIBCMT:wctomb.obj
 0001:0004c34a       __output_s_l               0044d34a f   LIBCMT:outputs.obj
 0001:0004ccfa       __validate_param_reuseA    0044dcfa f   LIBCMT:outputp.obj
 0001:0004cec4       _get_crtdouble_arg         0044dec4 f i LIBCMT:outputp.obj
 0001:0004ced4       __output_p_l               0044ded4 f   LIBCMT:outputp.obj
 0001:0004de5c       __global_unwind2           0044ee5c f   LIBCMT:exsup.obj
 0001:0004dec1       __local_unwind2            0044eec1 f   LIBCMT:exsup.obj
 0001:0004df45       __abnormal_termination     0044ef45 f   LIBCMT:exsup.obj
 0001:0004df68       __NLG_Notify1              0044ef68 f   LIBCMT:exsup.obj
 0001:0004df71       __NLG_Notify               0044ef71 f   LIBCMT:exsup.obj
 0001:0004df88       __NLG_Dispatch             0044ef88     LIBCMT:exsup.obj
 0001:0004df88       __NLG_Dispatch2            0044ef88     LIBCMT:exsup.obj
 0001:0004df90       __NLG_Call                 0044ef90 f   LIBCMT:exsup.obj
 0001:0004df92       __NLG_Return2              0044ef92     LIBCMT:exsup.obj
 0001:0004df93       ??0Block@HeapManager@@QAE@XZ 0044ef93 f i LIBCMT:undname.obj
 0001:0004df99       ?Constructor@HeapManager@@QAEXP6APAXI@ZP6AXPAX@Z@Z 0044ef99 f i LIBCMT:undname.obj
 0001:0004dfb4       ?Destructor@HeapManager@@QAEXXZ 0044efb4 f i LIBCMT:undname.obj
 0001:0004dfda       ?getNumberOfDimensions@UnDecorator@@CAHXZ 0044efda f   LIBCMT:undname.obj
 0001:0004e03d       ?getTypeEncoding@UnDecorator@@CAHXZ 0044f03d f i LIBCMT:undname.obj
 0001:0004e4b1       ?doUnderScore@UnDecorator@@SAHXZ 0044f4b1 f i LIBCMT:undname.obj
 0001:0004e4bc       ?doMSKeywords@UnDecorator@@SAHXZ 0044f4bc f i LIBCMT:undname.obj
 0001:0004e4c9       ?doPtr64@UnDecorator@@SAHXZ 0044f4c9 f i LIBCMT:undname.obj
 0001:0004e4d7       ?doFunctionReturns@UnDecorator@@SAHXZ 0044f4d7 f i LIBCMT:undname.obj
 0001:0004e4e5       ?doAllocationModel@UnDecorator@@SAHXZ 0044f4e5 f i LIBCMT:undname.obj
 0001:0004e4f3       ?doAllocationLanguage@UnDecorator@@SAHXZ 0044f4f3 f i LIBCMT:undname.obj
 0001:0004e501       ?doThisTypes@UnDecorator@@SAHXZ 0044f501 f i LIBCMT:undname.obj
 0001:0004e513       ?doAccessSpecifiers@UnDecorator@@SAHXZ 0044f513 f i LIBCMT:undname.obj
 0001:0004e521       ?doThrowTypes@UnDecorator@@SAHXZ 0044f521 f i LIBCMT:undname.obj
 0001:0004e52f       ?doMemberTypes@UnDecorator@@SAHXZ 0044f52f f i LIBCMT:undname.obj
 0001:0004e53d       ?doNameOnly@UnDecorator@@SAHXZ 0044f53d f i LIBCMT:undname.obj
 0001:0004e548       ?doTypeOnly@UnDecorator@@SAHXZ 0044f548 f i LIBCMT:undname.obj
 0001:0004e553       ?haveTemplateParameters@UnDecorator@@SAHXZ 0044f553 f i LIBCMT:undname.obj
 0001:0004e55e       ?doEcsu@UnDecorator@@SAHXZ 0044f55e f i LIBCMT:undname.obj
 0001:0004e56c       ?doNoIdentCharCheck@UnDecorator@@SAHXZ 0044f56c f i LIBCMT:undname.obj
 0001:0004e577       ?doEllipsis@UnDecorator@@SAHXZ 0044f577 f i LIBCMT:undname.obj
 0001:0004e585       ?UScore@UnDecorator@@SAPBDW4Tokens@@@Z 0044f585 f   LIBCMT:undname.obj
 0001:0004e59e       ?getMemory@HeapManager@@QAEPAXIH@Z 0044f59e f   LIBCMT:undname.obj
 0001:0004e622       ??0DName@@QAE@XZ           0044f622 f i LIBCMT:undname.obj
 0001:0004e62f       ??0DName@@QAE@PAVDNameNode@@@Z 0044f62f f i LIBCMT:undname.obj
 0001:0004e641       ??0DName@@QAE@ABV0@@Z      0044f641 f i LIBCMT:undname.obj
 0001:0004e6dd       ?status@DName@@QBE?AW4DNameStatus@@XZ 0044f6dd f i LIBCMT:undname.obj
 0001:0004e6e7       ?clearStatus@DName@@QAEXXZ 0044f6e7 f i LIBCMT:undname.obj
 0001:0004e6ec       ?setPtrRef@DName@@QAEAAV1@XZ 0044f6ec f i LIBCMT:undname.obj
 0001:0004e6f3       ?isPtrRef@DName@@QBEHXZ    0044f6f3 f i LIBCMT:undname.obj
 0001:0004e6fd       ?setIsArray@DName@@QAEXXZ  0044f6fd f i LIBCMT:undname.obj
 0001:0004e705       ?isArray@DName@@QBEHXZ     0044f705 f i LIBCMT:undname.obj
 0001:0004e70f       ?isNoTE@DName@@QBEHXZ      0044f70f f i LIBCMT:undname.obj
 0001:0004e719       ?setIsNoTE@DName@@QAEXXZ   0044f719 f i LIBCMT:undname.obj
 0001:0004e721       ?isPinPtr@DName@@QBEHXZ    0044f721 f i LIBCMT:undname.obj
 0001:0004e72b       ?setIsPinPtr@DName@@QAEXXZ 0044f72b f i LIBCMT:undname.obj
 0001:0004e733       ?isComArray@DName@@QBEHXZ  0044f733 f i LIBCMT:undname.obj
 0001:0004e73d       ?setIsComArray@DName@@QAEXXZ 0044f73d f i LIBCMT:undname.obj
 0001:0004e745       ?isVCallThunk@DName@@QBEHXZ 0044f745 f i LIBCMT:undname.obj
 0001:0004e74f       ?setIsVCallThunk@DName@@QAEXXZ 0044f74f f i LIBCMT:undname.obj
 0001:0004e757       ??4DName@@QAEAAV0@ABV0@@Z  0044f757 f   LIBCMT:undname.obj
 0001:0004e7d2       ?isFull@Replicator@@QBEHXZ 0044f7d2 f i LIBCMT:undname.obj
 0001:0004e7db       ??AReplicator@@QBEABVDName@@H@Z 0044f7db f   LIBCMT:undname.obj
 0001:0004e800       ??0DNameNode@@IAE@XZ       0044f800 f   LIBCMT:undname.obj
 0001:0004e80d       ?nextNode@DNameNode@@QBEPAV1@XZ 0044f80d f i LIBCMT:undname.obj
 0001:0004e811       ??YDNameNode@@QAEAAV0@PAV0@@Z 0044f811 f   LIBCMT:undname.obj
 0001:0004e83a       ??0charNode@@QAE@D@Z       0044f83a f   LIBCMT:undname.obj
 0001:0004e850       ?length@charNode@@UBEHXZ   0044f850 f i LIBCMT:undname.obj
 0001:0004e854       ?getLastChar@charNode@@UBEDXZ 0044f854 f i LIBCMT:undname.obj
 0001:0004e858       ?getString@charNode@@UBEPADPADH@Z 0044f858 f   LIBCMT:undname.obj
 0001:0004e873       ?length@pcharNode@@UBEHXZ  0044f873 f i LIBCMT:undname.obj
 0001:0004e877       ??0pDNameNode@@QAE@PAVDName@@@Z 0044f877 f   LIBCMT:undname.obj
 0001:0004e8a6       ??0DNameStatusNode@@QAE@W4DNameStatus@@@Z 0044f8a6 f   LIBCMT:undname.obj
 0001:0004e8cb       ?length@DNameStatusNode@@UBEHXZ 0044f8cb f i LIBCMT:undname.obj
 0001:0004e8cf       ?getLastChar@DNameStatusNode@@UBEDXZ 0044f8cf f i LIBCMT:undname.obj
 0001:0004e92f       ?getDataIndirectType@UnDecorator@@CA?AVDName@@XZ 0044f92f f i LIBCMT:undname.obj
 0001:0004e962       ?getThisType@UnDecorator@@CA?AVDName@@XZ 0044f962 f i LIBCMT:undname.obj
 0001:0004e996       ??2@YAPAXIAAVHeapManager@@H@Z 0044f996 f i LIBCMT:undname.obj
 0001:0004e9a9       ??0DName@@QAE@PAV0@@Z      0044f9a9 f   LIBCMT:undname.obj
 0001:0004e9ff       ??0DName@@QAE@W4DNameStatus@@@Z 0044f9ff f   LIBCMT:undname.obj
 0001:0004ea60       ?isValid@DName@@QBEHXZ     0044fa60 f   LIBCMT:undname.obj
 0001:0004ea77       ?isEmpty@DName@@QBEHXZ     0044fa77 f   LIBCMT:undname.obj
 0001:0004ea8c       ?isUDC@DName@@QBEHXZ       0044fa8c f i LIBCMT:undname.obj
 0001:0004eaa0       ?setIsUDC@DName@@QAEXXZ    0044faa0 f i LIBCMT:undname.obj
 0001:0004eaae       ?isUDTThunk@DName@@QBEHXZ  0044faae f i LIBCMT:undname.obj
 0001:0004eac2       ?length@DName@@QBEHXZ      0044fac2 f   LIBCMT:undname.obj
 0001:0004eae7       ?getLastChar@DName@@QBEDXZ 0044fae7 f   LIBCMT:undname.obj
 0001:0004eb1f       ?getString@DName@@QBEPADPADH@Z 0044fb1f f   LIBCMT:undname.obj
 0001:0004ebb0       ??_5DName@@QAEAAV0@ABV0@@Z 0044fbb0 f   LIBCMT:undname.obj
 0001:0004ebe5       ??4DName@@QAEAAV0@W4DNameStatus@@@Z 0044fbe5 f   LIBCMT:undname.obj
 0001:0004ec66       ??0Replicator@@QAE@XZ      0044fc66 f i LIBCMT:undname.obj
 0001:0004ec84       ??YReplicator@@QAEAAV0@ABVDName@@@Z 0044fc84 f   LIBCMT:undname.obj
 0001:0004eccb       ?clone@DNameNode@@QAEPAV1@XZ 0044fccb f   LIBCMT:undname.obj
 0001:0004ed12       ??0pcharNode@@QAE@PBDH@Z   0044fd12 f   LIBCMT:undname.obj
 0001:0004ed77       ?getLastChar@pcharNode@@UBEDXZ 0044fd77 f i LIBCMT:undname.obj
 0001:0004ed89       ?getString@pcharNode@@UBEPADPADH@Z 0044fd89 f   LIBCMT:undname.obj
 0001:0004edba       ?length@pDNameNode@@UBEHXZ 0044fdba f i LIBCMT:undname.obj
 0001:0004edc9       ?getLastChar@pDNameNode@@UBEDXZ 0044fdc9 f i LIBCMT:undname.obj
 0001:0004edd8       ?getString@pDNameNode@@UBEPADPADH@Z 0044fdd8 f   LIBCMT:undname.obj
 0001:0004edf5       ?getString@DNameStatusNode@@UBEPADPADH@Z 0044fdf5 f   LIBCMT:undname.obj
 0001:0004ee28       ??0UnDecorator@@QAE@PADPBDHP6APADJ@ZK@Z 0044fe28 f i LIBCMT:undname.obj
 0001:0004ee9b       ?getReturnType@UnDecorator@@CA?AVDName@@PAV2@@Z 0044fe9b f   LIBCMT:undname.obj
 0001:0004eeca       ?getStorageConvention@UnDecorator@@CA?AVDName@@XZ 0044feca f i LIBCMT:undname.obj
 0001:0004eed9       ??YDName@@QAEAAV0@W4DNameStatus@@@Z 0044fed9 f   LIBCMT:undname.obj
 0001:0004ef52       ??4DName@@QAEAAV0@PAV0@@Z  0044ff52 f   LIBCMT:undname.obj
 0001:0004efba       ?doPchar@DName@@AAEXPBDH@Z 0044ffba f   LIBCMT:undname.obj
 0001:0004f060       ??0DName@@QAE@D@Z          00450060 f   LIBCMT:undname.obj
 0001:0004f086       ??0DName@@QAE@PBD@Z        00450086 f   LIBCMT:undname.obj
 0001:0004f0b7       ??0DName@@QAE@AAPBDD@Z     004500b7 f   LIBCMT:undname.obj
 0001:0004f187       ??0DName@@QAE@_K@Z         00450187 f   LIBCMT:undname.obj
 0001:0004f1f0       ??0DName@@QAE@_J@Z         004501f0 f   LIBCMT:undname.obj
 0001:0004f286       ??HDName@@QBE?AV0@W4DNameStatus@@@Z 00450286 f   LIBCMT:undname.obj
 0001:0004f2b4       ??YDName@@QAEAAV0@ABV0@@Z  004502b4 f   LIBCMT:undname.obj
 0001:0004f316       ??YDName@@QAEAAV0@PAV0@@Z  00450316 f   LIBCMT:undname.obj
 0001:0004f3a1       ??4DName@@QAEAAV0@D@Z      004503a1 f   LIBCMT:undname.obj
 0001:0004f3bd       ??4DName@@QAEAAV0@PBD@Z    004503bd f   LIBCMT:undname.obj
 0001:0004f3e7       ?getCallingConvention@UnDecorator@@CA?AVDName@@XZ 004503e7 f   LIBCMT:undname.obj
 0001:0004f48d       ?getVCallThunkType@UnDecorator@@CA?AVDName@@XZ 0045048d f i LIBCMT:undname.obj
 0001:0004f4c4       ??HDName@@QBE?AV0@ABV0@@Z  004504c4 f   LIBCMT:undname.obj
 0001:0004f515       ??HDName@@QBE?AV0@PAV0@@Z  00450515 f   LIBCMT:undname.obj
 0001:0004f543       ??YDName@@QAEAAV0@D@Z      00450543 f   LIBCMT:undname.obj
 0001:0004f5ad       ??YDName@@QAEAAV0@PBD@Z    004505ad f   LIBCMT:undname.obj
 0001:0004f619       ?getArgumentList@UnDecorator@@CA?AVDName@@XZ 00450619 f   LIBCMT:undname.obj
 0001:0004f6f9       ?getVdispMapType@UnDecorator@@CA?AVDName@@ABV2@@Z 004506f9 f i LIBCMT:undname.obj
 0001:0004f748       ??H@YA?AVDName@@DABV0@@Z   00450748 f i LIBCMT:undname.obj
 0001:0004f76a       ??H@YA?AVDName@@W4DNameStatus@@ABV0@@Z 0045076a f i LIBCMT:undname.obj
 0001:0004f78c       ??H@YA?AVDName@@PBDABV0@@Z 0045078c f i LIBCMT:undname.obj
 0001:0004f7ae       ??HDName@@QBE?AV0@D@Z      004507ae f   LIBCMT:undname.obj
 0001:0004f7dc       ??HDName@@QBE?AV0@PBD@Z    004507dc f   LIBCMT:undname.obj
 0001:0004f80a       ?getDimension@UnDecorator@@CA?AVDName@@_N@Z 0045080a f   LIBCMT:undname.obj
 0001:0004f94b       ?getEnumType@UnDecorator@@CA?AVDName@@XZ 0045094b f i LIBCMT:undname.obj
 0001:0004fa1f       ?getArgumentTypes@UnDecorator@@CA?AVDName@@XZ 00450a1f f   LIBCMT:undname.obj
 0001:0004fae3       ?getThrowTypes@UnDecorator@@CA?AVDName@@XZ 00450ae3 f   LIBCMT:undname.obj
 0001:0004fb61       ?getExtendedDataIndirectType@UnDecorator@@CA?AVDName@@AADAA_NH@Z 00450b61 f   LIBCMT:undname.obj
 0001:0004fc86       ?getArrayType@UnDecorator@@CA?AVDName@@ABV2@@Z 00450c86 f i LIBCMT:undname.obj
 0001:0004fde5       ?getLexicalFrame@UnDecorator@@CA?AVDName@@XZ 00450de5 f i LIBCMT:undname.obj
 0001:0004fe16       ?getDisplacement@UnDecorator@@CA?AVDName@@XZ 00450e16 f i LIBCMT:undname.obj
 0001:0004fe28       ?getCallIndex@UnDecorator@@CA?AVDName@@XZ 00450e28 f i LIBCMT:undname.obj
 0001:0004fe3a       ?getGuardNumber@UnDecorator@@CA?AVDName@@XZ 00450e3a f i LIBCMT:undname.obj
 0001:0004fe4c       ?getVfTableType@UnDecorator@@CA?AVDName@@ABV2@@Z 00450e4c f i LIBCMT:undname.obj
 0001:0004ff9c       ?getStringEncoding@UnDecorator@@CA?AVDName@@PADH@Z 00450f9c f   LIBCMT:undname.obj
 0001:0005003c       ?getSignedDimension@UnDecorator@@CA?AVDName@@XZ 0045103c f   LIBCMT:undname.obj
 0001:0005008c       ?getTemplateConstant@UnDecorator@@CA?AVDName@@XZ 0045108c f   LIBCMT:undname.obj
 0001:00050347       ?getPtrRefDataType@UnDecorator@@CA?AVDName@@ABV2@H@Z 00451347 f i LIBCMT:undname.obj
 0001:00050420       ?getVbTableType@UnDecorator@@CA?AVDName@@ABV2@@Z 00451420 f i LIBCMT:undname.obj
 0001:00050434       ?getTemplateArgumentList@UnDecorator@@CA?AVDName@@XZ 00451434 f   LIBCMT:undname.obj
 0001:000505ec       ?getOperatorName@UnDecorator@@CA?AVDName@@_NPA_N@Z 004515ec f i LIBCMT:undname.obj
 0001:00050b5b       ?getTemplateName@UnDecorator@@CA?AVDName@@_N@Z 00451b5b f   LIBCMT:undname.obj
 0001:00050cae       ?getZName@UnDecorator@@CA?AVDName@@_N@Z 00451cae f   LIBCMT:undname.obj
 0001:00050e98       ?getScopedName@UnDecorator@@CA?AVDName@@XZ 00451e98 f   LIBCMT:undname.obj
 0001:00050f7c       ?getECSUName@UnDecorator@@CA?AVDName@@XZ 00451f7c f i LIBCMT:undname.obj
 0001:00050f8b       ?getECSUDataType@UnDecorator@@CA?AVDName@@XZ 00451f8b f   LIBCMT:undname.obj
 0001:0005108b       ?getSymbolName@UnDecorator@@CA?AVDName@@XZ 0045208b f i LIBCMT:undname.obj
 0001:000510d1       ?getBasedType@UnDecorator@@CA?AVDName@@XZ 004520d1 f   LIBCMT:undname.obj
 0001:00051163       ?composeDeclaration@UnDecorator@@CA?AVDName@@ABV2@@Z 00452163 f i LIBCMT:undname.obj
 0001:00051ca5       ?getDecoratedName@UnDecorator@@CA?AVDName@@XZ 00452ca5 f   LIBCMT:undname.obj
 0001:00051eb6       ?getScope@UnDecorator@@CA?AVDName@@XZ 00452eb6 f   LIBCMT:undname.obj
 0001:00052141       ?getFunctionIndirectType@UnDecorator@@CA?AVDName@@ABV2@@Z 00453141 f   LIBCMT:undname.obj
 0001:00052482       ?getDataIndirectType@UnDecorator@@CA?AVDName@@ABV2@D0H@Z 00453482 f   LIBCMT:undname.obj
 0001:00052966       ??BUnDecorator@@QAEPADXZ   00453966 f i LIBCMT:undname.obj
 0001:00052ab2       ?getPtrRefType@UnDecorator@@CA?AVDName@@ABV2@0D@Z 00453ab2 f   LIBCMT:undname.obj
 0001:00052bc8       ?getPointerType@UnDecorator@@CA?AVDName@@ABV2@0@Z 00453bc8 f i LIBCMT:undname.obj
 0001:00052be3       ?getPointerTypeArray@UnDecorator@@CA?AVDName@@ABV2@0@Z 00453be3 f i LIBCMT:undname.obj
 0001:00052bfe       ?getReferenceType@UnDecorator@@CA?AVDName@@ABV2@0@Z 00453bfe f i LIBCMT:undname.obj
 0001:00052c19       ___unDName                 00453c19 f   LIBCMT:undname.obj
 0001:00052cbc       ___unDNameEx               00453cbc f   LIBCMT:undname.obj
 0001:00052d5f       ?getBasicDataType@UnDecorator@@CA?AVDName@@ABV2@@Z 00453d5f f   LIBCMT:undname.obj
 0001:000530e6       ?getPrimaryDataType@UnDecorator@@CA?AVDName@@ABV2@@Z 004540e6 f   LIBCMT:undname.obj
 0001:00053224       ?getDataType@UnDecorator@@CA?AVDName@@PAV2@@Z 00454224 f   LIBCMT:undname.obj
 0001:000532d5       ?getExternalDataType@UnDecorator@@CA?AVDName@@ABV2@@Z 004542d5 f i LIBCMT:undname.obj
 0001:00053339       ___crtMessageBoxA          00454339 f   LIBCMT:crtmbox.obj
 0001:000534f6       __set_error_mode           004544f6 f   LIBCMT:errmode.obj
 0001:0005353c       ___set_app_type            0045453c f   LIBCMT:errmode.obj
 0001:00053546       ___get_app_type            00454546 f   LIBCMT:errmode.obj
 0001:00053687       ___crtGetLocaleInfoW       00454687 f   LIBCMT:w_loc.obj
 0001:000537ff       ___crtGetLocaleInfoA       004547ff f   LIBCMT:a_loc.obj
 0001:0005383a       __lseeki64_nolock          0045483a f   LIBCMT:lseeki64.obj
 0001:000538bd       __lseeki64                 004548bd f   LIBCMT:lseeki64.obj
 0001:000539e0       _strrchr                   004549e0 f   LIBCMT:strrchr.obj
 0001:00053a0d       __tolower                  00454a0d f   LIBCMT:tolower.obj
 0001:00053a15       __tolower_l                00454a15 f   LIBCMT:tolower.obj
 0001:00053b2c       _tolower                   00454b2c f   LIBCMT:tolower.obj
 0001:00053b53       __atodbl_l                 00454b53 f   LIBCMT:atodbl.obj
 0001:00053bf9       __atodbl                   00454bf9 f   LIBCMT:atodbl.obj
 0001:00053c0c       __atoldbl_l                00454c0c f   LIBCMT:atodbl.obj
 0001:00053cb3       __atoldbl                  00454cb3 f   LIBCMT:atodbl.obj
 0001:00053cc6       __atoflt_l                 00454cc6 f   LIBCMT:atodbl.obj
 0001:00053d6c       __atoflt                   00454d6c f   LIBCMT:atodbl.obj
 0001:00053d7f       __set_output_format        00454d7f f   LIBCMT:outputformat.obj
 0001:00053db6       __get_output_format        00454db6 f   LIBCMT:outputformat.obj
 0001:00053dbc       __fptostr                  00454dbc f   LIBCMT:_fptostr.obj
 0001:00053e79       ___dtold                   00454e79 f   LIBCMT:cfout.obj
 0001:00053f34       __fltout2                  00454f34 f   LIBCMT:cfout.obj
 0001:00053fd0       __alldvrm                  00454fd0 f   LIBCMT:lldvrm.obj
 0001:000540b0       __aullshr                  004550b0 f   LIBCMT:ullshr.obj
 0001:000540cf       __fptrap                   004550cf f   LIBCMT:crt0fp.obj
 0001:000540d8       __controlfp_s              004550d8 f   LIBCMT:contrlfp.obj
 0001:00054193       __ismbbkalnum_l            00455193 f   LIBCMT:ismbbyte.obj
 0001:000541a8       __ismbbkalnum              004551a8 f   LIBCMT:ismbbyte.obj
 0001:000541bb       __ismbbkprint_l            004551bb f   LIBCMT:ismbbyte.obj
 0001:000541d0       __ismbbkprint              004551d0 f   LIBCMT:ismbbyte.obj
 0001:000541e3       __ismbbkpunct_l            004551e3 f   LIBCMT:ismbbyte.obj
 0001:000541f8       __ismbbkpunct              004551f8 f   LIBCMT:ismbbyte.obj
 0001:0005420b       __ismbbalnum_l             0045520b f   LIBCMT:ismbbyte.obj
 0001:00054223       __ismbbalnum               00455223 f   LIBCMT:ismbbyte.obj
 0001:00054239       __ismbbalpha_l             00455239 f   LIBCMT:ismbbyte.obj
 0001:00054251       __ismbbalpha               00455251 f   LIBCMT:ismbbyte.obj
 0001:00054267       __ismbbgraph_l             00455267 f   LIBCMT:ismbbyte.obj
 0001:0005427f       __ismbbgraph               0045527f f   LIBCMT:ismbbyte.obj
 0001:00054295       __ismbbprint_l             00455295 f   LIBCMT:ismbbyte.obj
 0001:000542ad       __ismbbprint               004552ad f   LIBCMT:ismbbyte.obj
 0001:000542c3       __ismbbpunct_l             004552c3 f   LIBCMT:ismbbyte.obj
 0001:000542d8       __ismbbpunct               004552d8 f   LIBCMT:ismbbyte.obj
 0001:000542eb       __ismbblead_l              004552eb f   LIBCMT:ismbbyte.obj
 0001:00054300       __ismbblead                00455300 f   LIBCMT:ismbbyte.obj
 0001:00054313       __ismbbtrail_l             00455313 f   LIBCMT:ismbbyte.obj
 0001:00054328       __ismbbtrail               00455328 f   LIBCMT:ismbbyte.obj
 0001:0005433b       __ismbbkana_l              0045533b f   LIBCMT:ismbbyte.obj
 0001:0005438e       __ismbbkana                0045538e f   LIBCMT:ismbbyte.obj
 0001:0005439c       __get_daylight             0045539c f   LIBCMT:timeset.obj
 0001:000543d0       __get_dstbias              004553d0 f   LIBCMT:timeset.obj
 0001:00054404       __get_timezone             00455404 f   LIBCMT:timeset.obj
 0001:00054438       __get_tzname               00455438 f   LIBCMT:timeset.obj
 0001:000544da       ___daylight                004554da f   LIBCMT:timeset.obj
 0001:000544e0       ___dstbias                 004554e0 f   LIBCMT:timeset.obj
 0001:000544e6       ___timezone                004554e6 f   LIBCMT:timeset.obj
 0001:000544ec       ___tzname                  004554ec f   LIBCMT:timeset.obj
 0001:000544f2       __set_daylight             004554f2 f i LIBCMT:tzset.obj
 0001:000544fe       __set_dstbias              004554fe f i LIBCMT:tzset.obj
 0001:0005450a       __set_timezone             0045550a f i LIBCMT:tzset.obj
 0001:00054c02       ___tzset                   00455c02 f   LIBCMT:tzset.obj
 0001:00054c51       __tzset                    00455c51 f   LIBCMT:tzset.obj
 0001:00054c89       __isindst                  00455c89 f   LIBCMT:tzset.obj
 0001:00054cca       __gmtime64_s               00455cca f   LIBCMT:gmtime64.obj
 0001:00054f06       __gmtime64                 00455f06 f   LIBCMT:gmtime64.obj
 0001:00054f30       __alldiv                   00455f30 f   LIBCMT:lldiv.obj
 0001:00054fe0       __allrem                   00455fe0 f   LIBCMT:llrem.obj
 0001:00055092       __gmtime32_s               00456092 f   LIBCMT:gmtime.obj
 0001:000551bf       ___getgmtimebuf            004561bf f   LIBCMT:gmtime.obj
 0001:00055207       __gmtime32                 00456207 f   LIBCMT:gmtime.obj
 0001:0005522b       __set_osfhnd               0045622b f   LIBCMT:osfinfo.obj
 0001:000552a8       __free_osfhnd              004562a8 f   LIBCMT:osfinfo.obj
 0001:00055329       __get_osfhandle            00456329 f   LIBCMT:osfinfo.obj
 0001:0005539a       ___lock_fhandle            0045639a f   LIBCMT:osfinfo.obj
 0001:0005543a       __unlock_fhandle           0045643a f   LIBCMT:osfinfo.obj
 0001:0005545c       __alloc_osfhnd             0045645c f   LIBCMT:osfinfo.obj
 0001:000555fb       __open_osfhandle           004565fb f   LIBCMT:osfinfo.obj
 0001:00055e69       __open                     00456e69 f   LIBCMT:open.obj
 0001:00055f1f       __sopen_helper             00456f1f f   LIBCMT:open.obj
 0001:00055feb       __sopen                    00456feb f   LIBCMT:open.obj
 0001:0005601b       __sopen_s                  0045701b f   LIBCMT:open.obj
 0001:00056039       __mbsicmp_l                00457039 f   LIBCMT:mbsicmp.obj
 0001:00056253       __mbsicmp                  00457253 f   LIBCMT:mbsicmp.obj
 0001:00056266       __mbsnbcmp_l               00457266 f   LIBCMT:mbsnbcmp.obj
 0001:000563cf       __mbsnbcmp                 004573cf f   LIBCMT:mbsnbcmp.obj
 0001:000563e6       __putwch_nolock            004573e6 f   LIBCMT:putwch.obj
 0001:000564a8       __cputws                   004574a8 f   LIBCMT:putwch.obj
 0001:00056543       __putwch                   00457543 f   LIBCMT:putwch.obj
 0001:00056589       __mbtowc_l                 00457589 f   LIBCMT:mbtowc.obj
 0001:0005669c       _mbtowc                    0045769c f   LIBCMT:mbtowc.obj
 0001:000566b3       ___ascii_stricmp           004576b3 f   LIBCMT:stricmp.obj
 0001:000566e8       __stricmp_l                004576e8 f   LIBCMT:stricmp.obj
 0001:000567bb       _stricmp                   004577bb f   LIBCMT:stricmp.obj
 0001:000567bb       __stricmp                  004577bb f   LIBCMT:stricmp.obj
 0001:0005680b       __strnicmp_l               0045780b f   LIBCMT:strnicmp.obj
 0001:000568fb       __strnicmp                 004578fb f   LIBCMT:strnicmp.obj
 0001:000570b1       __wopen                    004580b1 f   LIBCMT:wopen.obj
 0001:00057167       __wsopen_helper            00458167 f   LIBCMT:wopen.obj
 0001:00057233       __wsopen                   00458233 f   LIBCMT:wopen.obj
 0001:00057263       __wsopen_s                 00458263 f   LIBCMT:wopen.obj
 0001:00057281       __wcsicmp_l                00458281 f   LIBCMT:wcsicmp.obj
 0001:00057390       __wcsicmp                  00458390 f   LIBCMT:wcsicmp.obj
 0001:00057421       _wcsncmp                   00458421 f   LIBCMT:wcsncmp.obj
 0001:00057456       __iswctype_l               00458456 f   LIBCMT:iswctype.obj
 0001:000574d8       _iswctype                  004584d8 f   LIBCMT:iswctype.obj
 0001:00057546       _is_wctype                 00458546 f   LIBCMT:iswctype.obj
 0001:0005754b       ___addl                    0045854b f i LIBCMT:intrncvt.obj
 0001:0005756c       __ZeroTail                 0045856c f i LIBCMT:intrncvt.obj
 0001:000575b1       __IncMan                   004585b1 f i LIBCMT:intrncvt.obj
 0001:0005761b       __RoundMan                 0045861b f i LIBCMT:intrncvt.obj
 0001:00057709       __CopyMan                  00458709 f i LIBCMT:intrncvt.obj
 0001:00057724       __FillZeroMan              00458724 f i LIBCMT:intrncvt.obj
 0001:00057730       __IsZeroMan                00458730 f i LIBCMT:intrncvt.obj
 0001:00057749       __ShrMan                   00458749 f i LIBCMT:intrncvt.obj
 0001:000577e1       __ld12cvt                  004587e1 f i LIBCMT:intrncvt.obj
 0001:00057d0a       __ld12tod                  00458d0a f   LIBCMT:intrncvt.obj
 0001:0005824c       __ld12tof                  0045924c f   LIBCMT:intrncvt.obj
 0001:0005878e       __ld12told                 0045978e f   LIBCMT:intrncvt.obj
 0001:00058850       ___shl_12                  00459850 f i LIBCMT:strgtold.obj
 0001:0005887e       ___shr_12                  0045987e f i LIBCMT:strgtold.obj
 0001:000588ab       ___ld12mul                 004598ab f i LIBCMT:strgtold.obj
 0001:00058b1f       ___multtenpow12            00459b1f f i LIBCMT:strgtold.obj
 0001:00058e28       ___strgtold12_l            00459e28 f   LIBCMT:strgtold.obj
 0001:000594e8       ___STRINGTOLD_L            0045a4e8 f   LIBCMT:strgtold.obj
 0001:00059541       ___add_12                  0045a541 f i LIBCMT:x10fout.obj
 0001:000595ae       _$I10_OUTPUT               0045a5ae f   LIBCMT:x10fout.obj
 0001:00059e74       __set_controlfp            0045ae74 f   LIBCMT:ieee87.obj
 0001:0005a1ca       __statusfp                 0045b1ca f   LIBCMT:ieee87.obj
 0001:0005a25a       __fpreset                  0045b25a f   LIBCMT:ieee87.obj
 0001:0005a48a       __statusfp2                0045b48a f   LIBCMT:ieee87.obj
 0001:0005a4e2       __clearfp                  0045b4e2 f   LIBCMT:ieee87.obj
 0001:0005a5b9       ___control87_2             0045b5b9 f   LIBCMT:ieee87.obj
 0001:0005a8c3       __control87                0045b8c3 f i LIBCMT:ieee87.obj
 0001:0005abc6       __controlfp                0045bbc6 f   LIBCMT:ieee87.obj
 0001:0005aecf       __getenv_helper_nolock     0045becf f   LIBCMT:getenv.obj
 0001:0005b085       _getenv                    0045c085 f   LIBCMT:getenv.obj
 0001:0005b108       _getenv_s                  0045c108 f   LIBCMT:getenv.obj
 0001:0005b1e0       __dupenv_s                 0045c1e0 f   LIBCMT:getenv.obj
 0001:0005b2c6       __chsize_nolock            0045c2c6 f   LIBCMT:chsize.obj
 0001:0005b47a       __chsize_s                 0045c47a f   LIBCMT:chsize.obj
 0001:0005b567       __chsize                   0045c567 f   LIBCMT:chsize.obj
 0001:0005b57f       __setmode_nolock           0045c57f f   LIBCMT:setmode.obj
 0001:0005b63b       __set_fmode                0045c63b f   LIBCMT:setmode.obj
 0001:0005b681       __get_fmode                0045c681 f   LIBCMT:setmode.obj
 0001:0005b6b5       __setmode                  0045c6b5 f   LIBCMT:setmode.obj
 0001:0005b7ac       ___initconin               0045c7ac f   LIBCMT:initcon.obj
 0001:0005b7cb       ___initconout              0045c7cb f   LIBCMT:initcon.obj
 0001:0005b7ea       ___termcon                 0045c7ea f   LIBCMT:initcon.obj
 0001:0005b820       ___ascii_strnicmp          0045c820 f   LIBCMT:_strnicm.obj
 0001:0005b881       __towlower_l               0045c881 f   LIBCMT:towlower.obj
 0001:0005b92e       _towlower                  0045c92e f   LIBCMT:towlower.obj
 0001:0005bb60       ___crtGetStringTypeW       0045cb60 f   LIBCMT:w_str.obj
 0001:0005bb9e       ___mtold12                 0045cb9e f   LIBCMT:mantold.obj
 0001:0005bd6a       __statfp                   0045cd6a f   LIBCMT:fpctrl.obj
 0001:0005bd75       __clrfp                    0045cd75 f   LIBCMT:fpctrl.obj
 0001:0005bd81       __ctrlfp                   0045cd81 f   LIBCMT:fpctrl.obj
 0001:0005bda8       __set_statfp               0045cda8 f   LIBCMT:fpctrl.obj
 0001:0005bdfe       ___get_fpsr_sse2           0045cdfe f   LIBCMT:fpctrl.obj
 0001:0005be1a       ___set_fpsr_sse2           0045ce1a f   LIBCMT:fpctrl.obj
 0001:0005be8c       ___fclrf_sse2              0045ce8c f   LIBCMT:fpctrl.obj
 0001:0005bea4       ___statfp_sse2             0045cea4 f   LIBCMT:fpctrl.obj
 0001:0005beb7       ___clrfp_sse2              0045ceb7 f   LIBCMT:fpctrl.obj
 0001:0005becf       ___ctrlfp_sse2             0045cecf f   LIBCMT:fpctrl.obj
 0001:0005bf03       ___set_statfp_sse2         0045cf03 f   LIBCMT:fpctrl.obj
 0001:0005bf19       __mbsnbicoll_l             0045cf19 f   LIBCMT:mbsnbico.obj
 0001:0005c005       __mbsnbicoll               0045d005 f   LIBCMT:mbsnbico.obj
 0001:0005c01c       ___wtomb_environ           0045d01c f   LIBCMT:wtombenv.obj
 0001:0005c32e       ___crtLCMapStringW         0045d32e f   LIBCMT:w_map.obj
 0001:0005c711       ___crtCompareStringA       0045d711 f   LIBCMT:a_cmp.obj
 0001:0005c751       __strnicoll_l              0045d751 f   LIBCMT:strnicol.obj
 0001:0005c849       __strnicoll                0045d849 f   LIBCMT:strnicol.obj
 0001:0005c91a       ___crtsetenv               0045d91a f   LIBCMT:setenv.obj
 0001:0005cb66       _strdup                    0045db66 f   LIBCMT:strdup.obj
 0001:0005cb66       __strdup                   0045db66 f   LIBCMT:strdup.obj
 0001:0005cbb6       __mbschr_l                 0045dbb6 f   LIBCMT:mbschr.obj
 0001:0005cc70       __mbschr                   0045dc70 f   LIBCMT:mbschr.obj
 0001:0005cc84       _Sleep@4                   0045dc84 f   kernel32:KERNEL32.dll
 0001:0005cc8a       _WideCharToMultiByte@32    0045dc8a f   kernel32:KERNEL32.dll
 0001:0005cc90       _InterlockedIncrement@4    0045dc90 f   kernel32:KERNEL32.dll
 0001:0005cc96       _InterlockedDecrement@4    0045dc96 f   kernel32:KERNEL32.dll
 0001:0005cc9c       _InterlockedCompareExchange@12 0045dc9c f   kernel32:KERNEL32.dll
 0001:0005cca2       _InterlockedExchange@8     0045dca2 f   kernel32:KERNEL32.dll
 0001:0005cca8       _MultiByteToWideChar@24    0045dca8 f   kernel32:KERNEL32.dll
 0001:0005ccae       _InitializeCriticalSection@4 0045dcae f   kernel32:KERNEL32.dll
 0001:0005ccb4       _DeleteCriticalSection@4   0045dcb4 f   kernel32:KERNEL32.dll
 0001:0005ccba       _EnterCriticalSection@4    0045dcba f   kernel32:KERNEL32.dll
 0001:0005ccc0       _LeaveCriticalSection@4    0045dcc0 f   kernel32:KERNEL32.dll
 0001:0005ccc6       _RtlUnwind@16              0045dcc6 f   kernel32:KERNEL32.dll
 0001:0005cccc       _RaiseException@16         0045dccc f   kernel32:KERNEL32.dll
 0001:0005ccd2       _TerminateProcess@8        0045dcd2 f   kernel32:KERNEL32.dll
 0001:0005ccd8       _GetCurrentProcess@0       0045dcd8 f   kernel32:KERNEL32.dll
 0001:0005ccde       _UnhandledExceptionFilter@4 0045dcde f   kernel32:KERNEL32.dll
 0001:0005cce4       _SetUnhandledExceptionFilter@4 0045dce4 f   kernel32:KERNEL32.dll
 0001:0005ccea       _IsDebuggerPresent@0       0045dcea f   kernel32:KERNEL32.dll
 0001:0005ccf0       _GetCommandLineA@0         0045dcf0 f   kernel32:KERNEL32.dll
 0001:0005ccf6       _HeapFree@12               0045dcf6 f   kernel32:KERNEL32.dll
 0001:0005ccfc       _GetVersionExA@4           0045dcfc f   kernel32:KERNEL32.dll
 0001:0005cd02       _HeapAlloc@12              0045dd02 f   kernel32:KERNEL32.dll
 0001:0005cd08       _GetProcessHeap@0          0045dd08 f   kernel32:KERNEL32.dll
 0001:0005cd0e       _GetSystemTimeAsFileTime@4 0045dd0e f   kernel32:KERNEL32.dll
 0001:0005cd14       _GetLastError@0            0045dd14 f   kernel32:KERNEL32.dll
 0001:0005cd1a       _GetCPInfo@8               0045dd1a f   kernel32:KERNEL32.dll
 0001:0005cd20       _LCMapStringA@24           0045dd20 f   kernel32:KERNEL32.dll
 0001:0005cd26       _LCMapStringW@24           0045dd26 f   kernel32:KERNEL32.dll
 0001:0005cd2c       _GetProcAddress@8          0045dd2c f   kernel32:KERNEL32.dll
 0001:0005cd32       _GetModuleHandleA@4        0045dd32 f   kernel32:KERNEL32.dll
 0001:0005cd38       _ExitProcess@4             0045dd38 f   kernel32:KERNEL32.dll
 0001:0005cd3e       _SetHandleCount@4          0045dd3e f   kernel32:KERNEL32.dll
 0001:0005cd44       _GetStdHandle@4            0045dd44 f   kernel32:KERNEL32.dll
 0001:0005cd4a       _GetFileType@4             0045dd4a f   kernel32:KERNEL32.dll
 0001:0005cd50       _GetStartupInfoA@4         0045dd50 f   kernel32:KERNEL32.dll
 0001:0005cd56       _FatalAppExitA@8           0045dd56 f   kernel32:KERNEL32.dll
 0001:0005cd5c       _TlsGetValue@4             0045dd5c f   kernel32:KERNEL32.dll
 0001:0005cd62       _TlsAlloc@0                0045dd62 f   kernel32:KERNEL32.dll
 0001:0005cd68       _TlsSetValue@8             0045dd68 f   kernel32:KERNEL32.dll
 0001:0005cd6e       _TlsFree@4                 0045dd6e f   kernel32:KERNEL32.dll
 0001:0005cd74       _SetLastError@4            0045dd74 f   kernel32:KERNEL32.dll
 0001:0005cd7a       _GetCurrentThreadId@0      0045dd7a f   kernel32:KERNEL32.dll
 0001:0005cd80       _GetCurrentThread@0        0045dd80 f   kernel32:KERNEL32.dll
 0001:0005cd86       _WriteFile@20              0045dd86 f   kernel32:KERNEL32.dll
 0001:0005cd8c       _GetModuleFileNameA@12     0045dd8c f   kernel32:KERNEL32.dll
 0001:0005cd92       _FreeEnvironmentStringsA@4 0045dd92 f   kernel32:KERNEL32.dll
 0001:0005cd98       _GetEnvironmentStrings@0   0045dd98 f   kernel32:KERNEL32.dll
 0001:0005cd9e       _FreeEnvironmentStringsW@4 0045dd9e f   kernel32:KERNEL32.dll
 0001:0005cda4       _GetEnvironmentStringsW@0  0045dda4 f   kernel32:KERNEL32.dll
 0001:0005cdaa       _HeapDestroy@4             0045ddaa f   kernel32:KERNEL32.dll
 0001:0005cdb0       _HeapCreate@12             0045ddb0 f   kernel32:KERNEL32.dll
 0001:0005cdb6       _VirtualFree@12            0045ddb6 f   kernel32:KERNEL32.dll
 0001:0005cdbc       _QueryPerformanceCounter@4 0045ddbc f   kernel32:KERNEL32.dll
 0001:0005cdc2       _GetTickCount@0            0045ddc2 f   kernel32:KERNEL32.dll
 0001:0005cdc8       _GetCurrentProcessId@0     0045ddc8 f   kernel32:KERNEL32.dll
 0001:0005cdce       _VirtualAlloc@16           0045ddce f   kernel32:KERNEL32.dll
 0001:0005cdd4       _HeapReAlloc@16            0045ddd4 f   kernel32:KERNEL32.dll
 0001:0005cdda       _CloseHandle@4             0045ddda f   kernel32:KERNEL32.dll
 0001:0005cde0       _SetFilePointer@16         0045dde0 f   kernel32:KERNEL32.dll
 0001:0005cde6       _GetConsoleCP@0            0045dde6 f   kernel32:KERNEL32.dll
 0001:0005cdec       _GetConsoleMode@8          0045ddec f   kernel32:KERNEL32.dll
 0001:0005cdf2       _ReadFile@20               0045ddf2 f   kernel32:KERNEL32.dll
 0001:0005cdf8       _FlushFileBuffers@4        0045ddf8 f   kernel32:KERNEL32.dll
 0001:0005cdfe       _GetStringTypeA@20         0045ddfe f   kernel32:KERNEL32.dll
 0001:0005ce04       _GetStringTypeW@16         0045de04 f   kernel32:KERNEL32.dll
 0001:0005ce0a       _HeapSize@12               0045de0a f   kernel32:KERNEL32.dll
 0001:0005ce10       _GetTimeFormatA@24         0045de10 f   kernel32:KERNEL32.dll
 0001:0005ce16       _GetDateFormatA@24         0045de16 f   kernel32:KERNEL32.dll
 0001:0005ce1c       _GetACP@0                  0045de1c f   kernel32:KERNEL32.dll
 0001:0005ce22       _GetOEMCP@0                0045de22 f   kernel32:KERNEL32.dll
 0001:0005ce28       _IsValidCodePage@4         0045de28 f   kernel32:KERNEL32.dll
 0001:0005ce2e       _GetUserDefaultLCID@0      0045de2e f   kernel32:KERNEL32.dll
 0001:0005ce34       _GetLocaleInfoA@16         0045de34 f   kernel32:KERNEL32.dll
 0001:0005ce3a       _EnumSystemLocalesA@8      0045de3a f   kernel32:KERNEL32.dll
 0001:0005ce40       _IsValidLocale@8           0045de40 f   kernel32:KERNEL32.dll
 0001:0005ce46       _SetConsoleCtrlHandler@8   0045de46 f   kernel32:KERNEL32.dll
 0001:0005ce4c       _FreeLibrary@4             0045de4c f   kernel32:KERNEL32.dll
 0001:0005ce52       _LoadLibraryA@4            0045de52 f   kernel32:KERNEL32.dll
 0001:0005ce58       _GetLocaleInfoW@16         0045de58 f   kernel32:KERNEL32.dll
 0001:0005ce5e       _GetTimeZoneInformation@4  0045de5e f   kernel32:KERNEL32.dll
 0001:0005ce64       _SetStdHandle@8            0045de64 f   kernel32:KERNEL32.dll
 0001:0005ce6a       _CreateFileA@28            0045de6a f   kernel32:KERNEL32.dll
 0001:0005ce70       _WriteConsoleA@20          0045de70 f   kernel32:KERNEL32.dll
 0001:0005ce76       _GetConsoleOutputCP@0      0045de76 f   kernel32:KERNEL32.dll
 0001:0005ce7c       _WriteConsoleW@20          0045de7c f   kernel32:KERNEL32.dll
 0001:0005ce82       _CreateFileW@28            0045de82 f   kernel32:KERNEL32.dll
 0001:0005ce88       _SetEndOfFile@4            0045de88 f   kernel32:KERNEL32.dll
 0001:0005ce8e       _CompareStringA@24         0045de8e f   kernel32:KERNEL32.dll
 0001:0005ce94       _CompareStringW@24         0045de94 f   kernel32:KERNEL32.dll
 0001:0005ce9a       _SetEnvironmentVariableA@8 0045de9a f   kernel32:KERNEL32.dll
 0001:0005cea0       __memicmp_l                0045dea0 f   LIBCMT:memicmp.obj
 0001:0005cf73       _memicmp                   0045df73 f   LIBCMT:memicmp.obj
 0001:0005cf73       __memicmp                  0045df73 f   LIBCMT:memicmp.obj
 0001:0005cfd0       ___ascii_memicmp           0045dfd0 f   LIBCMT:_memicmp.obj
 0002:00000000       ___xc_a                    0047a000     LIBCMT:crt0init.obj
 0002:0000032c       ___xc_z                    0047a32c     LIBCMT:crt0init.obj
 0002:00000430       ___xi_a                    0047a430     LIBCMT:crt0init.obj
 0002:00000854       ___xi_z                    0047a854     LIBCMT:crt0init.obj
 0002:00000958       ___xp_a                    0047a958     LIBCMT:crt0init.obj
 0002:00000c64       ___xp_z                    0047ac64     LIBCMT:crt0init.obj
 0002:00000d68       ___xt_a                    0047ad68     LIBCMT:crt0init.obj
 0002:00000e6c       ___xt_z                    0047ae6c     LIBCMT:crt0init.obj
 0002:00000f8c       ??_C@_0P@GHFPNOJB@bad?5allocation?$AA@ 0047af8c     dicomp.obj
 0002:00000fa0       ?collate@?$_Locbase@H@std@@2HB 0047afa0     dicomp.obj
 0002:00000fa4       ?ctype@?$_Locbase@H@std@@2HB 0047afa4     dicomp.obj
 0002:00000fa8       ?monetary@?$_Locbase@H@std@@2HB 0047afa8     dicomp.obj
 0002:00000fac       ?numeric@?$_Locbase@H@std@@2HB 0047afac     dicomp.obj
 0002:00000fb0       ?time@?$_Locbase@H@std@@2HB 0047afb0     dicomp.obj
 0002:00000fb4       ?messages@?$_Locbase@H@std@@2HB 0047afb4     dicomp.obj
 0002:00000fb8       ?all@?$_Locbase@H@std@@2HB 0047afb8     dicomp.obj
 0002:00000fbc       ?none@?$_Locbase@H@std@@2HB 0047afbc     dicomp.obj
 0002:00000fc0       ?table_size@?$ctype@D@std@@2IB 0047afc0     dicomp.obj
 0002:00000fc4       ?skipws@?$_Iosb@H@std@@2W4_Fmtflags@12@B 0047afc4     dicomp.obj
 0002:00000fc8       ?unitbuf@?$_Iosb@H@std@@2W4_Fmtflags@12@B 0047afc8     dicomp.obj
 0002:00000fcc       ?uppercase@?$_Iosb@H@std@@2W4_Fmtflags@12@B 0047afcc     dicomp.obj
 0002:00000fd0       ?showbase@?$_Iosb@H@std@@2W4_Fmtflags@12@B 0047afd0     dicomp.obj
 0002:00000fd4       ?showpoint@?$_Iosb@H@std@@2W4_Fmtflags@12@B 0047afd4     dicomp.obj
 0002:00000fd8       ?showpos@?$_Iosb@H@std@@2W4_Fmtflags@12@B 0047afd8     dicomp.obj
 0002:00000fdc       ?left@?$_Iosb@H@std@@2W4_Fmtflags@12@B 0047afdc     dicomp.obj
 0002:00000fe0       ?right@?$_Iosb@H@std@@2W4_Fmtflags@12@B 0047afe0     dicomp.obj
 0002:00000fe4       ?internal@?$_Iosb@H@std@@2W4_Fmtflags@12@B 0047afe4     dicomp.obj
 0002:00000fe8       ?dec@?$_Iosb@H@std@@2W4_Fmtflags@12@B 0047afe8     dicomp.obj
 0002:00000fec       ?oct@?$_Iosb@H@std@@2W4_Fmtflags@12@B 0047afec     dicomp.obj
 0002:00000ff0       ?hex@?$_Iosb@H@std@@2W4_Fmtflags@12@B 0047aff0     dicomp.obj
 0002:00000ff4       ?scientific@?$_Iosb@H@std@@2W4_Fmtflags@12@B 0047aff4     dicomp.obj
 0002:00000ff8       ?fixed@?$_Iosb@H@std@@2W4_Fmtflags@12@B 0047aff8     dicomp.obj
 0002:00000ffc       ?boolalpha@?$_Iosb@H@std@@2W4_Fmtflags@12@B 0047affc     dicomp.obj
 0002:00001000       ?_Stdio@?$_Iosb@H@std@@2W4_Fmtflags@12@B 0047b000     dicomp.obj
 0002:00001004       ?adjustfield@?$_Iosb@H@std@@2W4_Fmtflags@12@B 0047b004     dicomp.obj
 0002:00001008       ?basefield@?$_Iosb@H@std@@2W4_Fmtflags@12@B 0047b008     dicomp.obj
 0002:0000100c       ?floatfield@?$_Iosb@H@std@@2W4_Fmtflags@12@B 0047b00c     dicomp.obj
 0002:00001010       ?goodbit@?$_Iosb@H@std@@2W4_Iostate@12@B 0047b010     dicomp.obj
 0002:00001014       ?eofbit@?$_Iosb@H@std@@2W4_Iostate@12@B 0047b014     dicomp.obj
 0002:00001018       ?failbit@?$_Iosb@H@std@@2W4_Iostate@12@B 0047b018     dicomp.obj
 0002:0000101c       ?badbit@?$_Iosb@H@std@@2W4_Iostate@12@B 0047b01c     dicomp.obj
 0002:00001020       ?_Hardfail@?$_Iosb@H@std@@2W4_Iostate@12@B 0047b020     dicomp.obj
 0002:00001024       ?in@?$_Iosb@H@std@@2W4_Openmode@12@B 0047b024     dicomp.obj
 0002:00001028       ?out@?$_Iosb@H@std@@2W4_Openmode@12@B 0047b028     dicomp.obj
 0002:0000102c       ?ate@?$_Iosb@H@std@@2W4_Openmode@12@B 0047b02c     dicomp.obj
 0002:00001030       ?app@?$_Iosb@H@std@@2W4_Openmode@12@B 0047b030     dicomp.obj
 0002:00001034       ?trunc@?$_Iosb@H@std@@2W4_Openmode@12@B 0047b034     dicomp.obj
 0002:00001038       ?_Nocreate@?$_Iosb@H@std@@2W4_Openmode@12@B 0047b038     dicomp.obj
 0002:0000103c       ?_Noreplace@?$_Iosb@H@std@@2W4_Openmode@12@B 0047b03c     dicomp.obj
 0002:00001040       ?binary@?$_Iosb@H@std@@2W4_Openmode@12@B 0047b040     dicomp.obj
 0002:00001044       ?beg@?$_Iosb@H@std@@2W4_Seekdir@12@B 0047b044     dicomp.obj
 0002:00001048       ?cur@?$_Iosb@H@std@@2W4_Seekdir@12@B 0047b048     dicomp.obj
 0002:0000104c       ?end@?$_Iosb@H@std@@2W4_Seekdir@12@B 0047b04c     dicomp.obj
 0002:00001050       ??_C@_04OEDFLLKD@?$CC?$CFs?$CC?$AA@ 0047b050     dicomp.obj
 0002:00001058       ??_C@_0P@CKNFEOAK@Sequence?5Item?6?$AA@ 0047b058     dicomp.obj
 0002:0000106c       ??_C@_03JDANDILB@?$CFd?5?$AA@ 0047b06c     dicomp.obj
 0002:00001070       ??_C@_04JLFGKHHD@?$CFld?5?$AA@ 0047b070     dicomp.obj
 0002:00001078       ??_C@_06KOCDJANI@?$CF4?44x?5?$AA@ 0047b078     dicomp.obj
 0002:00001080       ??_C@_06FNBBCMBJ@?$CF2?42x?5?$AA@ 0047b080     dicomp.obj
 0002:00001088       ??_C@_0BA@DLLIMFJK@?$CI?$CF4?44x?0?5?$CF4?44x?$CJ?5?$AA@ 0047b088     dicomp.obj
 0002:0000109c       ??_C@_07LMEPGMD@?$CI?$CFd?$HM?$CFx?$CJ?$AA@ 0047b09c     dicomp.obj
 0002:000010a8       ??_C@_07GCEINMEC@?$FL?$CFd?$HM?$CFx?$FN?$AA@ 0047b0a8     dicomp.obj
 0002:000010b4       ??_C@_09OJDNCNKB@?$CF2?42x?$CI?$CFc?$CJ?$AA@ 0047b0b4     dicomp.obj
 0002:000010c0       ??_C@_06OJHGLDPL@?$CInull?$CJ?$AA@ 0047b0c0     dicomp.obj
 0002:000010c8       ??_C@_01EEMJAFIK@?6?$AA@   0047b0c8     dicomp.obj
 0002:000010cc       ??_C@_0CK@KIFJOOBM@Object?3?5?$CI?$CF4?44x?0?5?$CF4?44x?0?5?$CFd?0?5Type?5@ 0047b0cc     dicomp.obj
 0002:00001100       ??_C@_0CG@ILPBIFNM@Object?3?5?$CI?$CF4?44x?0?5?$CF4?44x?0?5?$CFd?0?5?$CFc?$CFc?0@ 0047b100     dicomp.obj
 0002:00001134       ??_7DICOMDataObject@@6B@   0047b134     dicomp.obj
 0002:00001150       ??_7PolaroidPDU_Service@@6BPDataTF@@@ 0047b150     dicomp.obj
 0002:0000115c       ??_7PolaroidPDU_Service@@6BAAbortRQ@@@ 0047b15c     dicomp.obj
 0002:00001168       ??_7PolaroidPDU_Service@@6BAReleaseRP@@@ 0047b168     dicomp.obj
 0002:00001174       ??_7PolaroidPDU_Service@@6BAReleaseRQ@@@ 0047b174     dicomp.obj
 0002:00001180       ??_7PolaroidPDU_Service@@6BAAssociateRJ@@@ 0047b180     dicomp.obj
 0002:0000118c       ??_7PolaroidPDU_Service@@6BAAssociateAC@@@ 0047b18c     dicomp.obj
 0002:00001198       ??_7PolaroidPDU_Service@@6BAAssociateRQ@@@ 0047b198     dicomp.obj
 0002:000011a4       ??_7PolaroidPDU_Service@@6BBuffer@@@ 0047b1a4     dicomp.obj
 0002:0000125c       ??_7NSetRQ@@6B@            0047b25c     dicomp.obj
 0002:00001268       ??_7NSetRSP@@6B@           0047b268     dicomp.obj
 0002:00001274       ??_7DICOMCommandObject@@6B@ 0047b274     dicomp.obj
 0002:00001290       ??_7?$Array@PAVDICOMDataObject@@@@6B@ 0047b290     dicomp.obj
 0002:00001298       ??_C@_08MLCPGHLO@FPC?3?5?$CFs?6?$AA@ 0047b298     dicomp.obj
 0002:000012a4       ??_C@_0BC@GCBEMKJD@1?42?4840?410008?41?42?$AA@ 0047b2a4     dicomp.obj
 0002:000012bc       ??_C@_0BC@EJDJJJFA@1?42?4840?410008?41?41?$AA@ 0047b2bc     dicomp.obj
 0002:000012d4       ??_C@_0BD@HNFBEPDL@?$DO?5End?5of?5Sequence?6?$AA@ 0047b2d4     dicomp.obj
 0002:000012ec       ??_C@_0BF@GIKPLOAB@?$DO?5Start?5of?5Sequence?6?$AA@ 0047b2ec     dicomp.obj
 0002:00001308       ??_C@_01GPOEFGEJ@?7?$AA@   0047b308     dicomp.obj
 0002:00001310       ??_7StandardBox@@6BNSetRSP@@@ 0047b310     dicomp.obj
 0002:0000131c       ??_7StandardBox@@6BNSetRQ@@@ 0047b31c     dicomp.obj
 0002:00001328       ??_C@_0BJ@BOPGLIED@?7?7Transfer?5Syntax?3?5?$CC?$CFs?$CC?6?$AA@ 0047b328     dicomp.obj
 0002:00001348       ??_C@_0CN@MPMGMDCM@?7?$FL?$CFd?$FN?5Presentation?5Context?5ID?$DN?$CFd@ 0047b348     dicomp.obj
 0002:00001380       ??_C@_0CP@HLGLPGFM@?7Number?5of?5Proposed?5Presentation@ 0047b380     dicomp.obj
 0002:000013b8       ??_C@_0BN@BHLGGJBO@?7Application?5Context?5?3?5?$CC?$CFs?$CC?6?$AA@ 0047b3b8     dicomp.obj
 0002:000013dc       ??_C@_0CC@MLBJMPEF@?7Called?5Application?5Title?5?3?5?$CC?$CFs?$CC@ 0047b3dc     dicomp.obj
 0002:00001404       ??_C@_0CD@EFLMEFC@?7Calling?5Application?5Title?5?3?5?$CC?$CFs@ 0047b404     dicomp.obj
 0002:00001430       ??_C@_0BN@HJDNJMHK@A?9ASSOCIATE?9RQ?5Packet?5Dump?6?6?$AA@ 0047b430     dicomp.obj
 0002:00001454       ??_C@_0DK@HKEBNAJB@?7?$FL?$CFd?$FN?5Presentation?5Context?5ID?$DN?$CFd@ 0047b454     dicomp.obj
 0002:0000149c       ??_C@_0CP@LIMINKKN@?7Number?5of?5Accepted?5Presentation@ 0047b49c     dicomp.obj
 0002:000014d4       ??_C@_0BN@FMHBEFHO@A?9ASSOCIATE?9AC?5Packet?5Dump?6?6?$AA@ 0047b4d4     dicomp.obj
 0002:000014fc       ??_7BasicGrayscaleImageBox@@6BNSetRSP@@@ 0047b4fc     dicomp.obj
 0002:00001508       ??_7BasicGrayscaleImageBox@@6BNSetRQ@@@ 0047b508     dicomp.obj
 0002:0000151c       ??_7BasicGrayscalePrintManagementMeta@@6B@ 0047b51c     dicomp.obj
 0002:00001594       ??_7MyGrayscalePrintManagement@@6B@ 0047b594     dicomp.obj
 0002:0000160c       ??_7bad_alloc@std@@6B@     0047b60c     dicomp.obj
 0002:0000161c       ??_7facet@locale@std@@6B@  0047b61c     dicomp.obj
 0002:00001628       ??_7runtime_error@std@@6B@ 0047b628     dicomp.obj
 0002:00001632       ??_C@_00CNPNBAHC@?$AA@     0047b632     dicomp.obj
 0002:00001634       ??_C@_05NDFHNKHM@BLACK?$AA@ 0047b634     dicomp.obj
 0002:0000163c       ??_C@_08MGGAMLLJ@BILINEAR?$AA@ 0047b63c     dicomp.obj
 0002:00001648       ??_C@_09MKKODHMD@14INX17IN?$AA@ 0047b648     dicomp.obj
 0002:00001654       ??_C@_08HIKLEFPF@PORTRAIT?$AA@ 0047b654     dicomp.obj
 0002:00001660       ??_C@_08PJBKEGCL@?$CFs?2?$CFd?0?$CFd?$AA@ 0047b660     dicomp.obj
 0002:0000166c       ??_C@_0P@KEMLCOCF@This?5Is?5A?5Test?$AA@ 0047b66c     dicomp.obj
 0002:00001680       ??_C@_08PFABIEBL@MAGAZINE?$AA@ 0047b680     dicomp.obj
 0002:0000168c       ??_C@_09LPDNONPP@BLUE?5FILM?$AA@ 0047b68c     dicomp.obj
 0002:00001698       ??_C@_03FFIBGFCJ@MED?$AA@  0047b698     dicomp.obj
 0002:0000169c       ??_C@_01HIHLOKLC@1?$AA@    0047b69c     dicomp.obj
 0002:000016a0       ??_C@_06FBCCGIP@dd?4txt?$AA@ 0047b6a0     dicomp.obj
 0002:000016a8       ??_C@_0BG@LIIGJNNH@1?42?4840?410008?43?41?41?41?$AA@ 0047b6a8     dicomp.obj
 0002:000016c4       ??_C@_0BH@MJCEHKNG@1?42?4840?410008?45?41?41?415?$AA@ 0047b6c4     dicomp.obj
 0002:000016e0       ??_C@_0BH@OCAJCJBF@1?42?4840?410008?45?41?41?416?$AA@ 0047b6e0     dicomp.obj
 0002:000016fc       ??_C@_0BG@LGDABOFI@1?42?4840?410008?45?41?41?49?$AA@ 0047b6fc     dicomp.obj
 0002:00001718       ??_C@_0BH@NADPELJH@1?42?4840?410008?45?41?41?414?$AA@ 0047b718     dicomp.obj
 0002:00001734       ??_C@_0BG@DJOGABF@1?42?4840?410008?45?41?41?44?$AA@ 0047b734     dicomp.obj
 0002:00001750       ??_C@_0BG@FFMEMHJD@1?42?4840?410008?45?41?41?42?$AA@ 0047b750     dicomp.obj
 0002:0000176c       ??_C@_0BG@HOOJJEFA@1?42?4840?410008?45?41?41?41?$AA@ 0047b76c     dicomp.obj
 0002:00001788       ??_C@_08CBJNMPAB@STANDARD?$AA@ 0047b788     dicomp.obj
 0002:00001794       ??_C@_0BF@FAKDGFIE@Error?5printing?5file?6?$AA@ 0047b794     dicomp.obj
 0002:000017b0       ??_C@_0BO@NGMFLDNB@Error?5loading?5image?5file?3?5?$CFs?6?$AA@ 0047b7b0     dicomp.obj
 0002:000017d8       ??_C@_0EH@NMJEDMLL@Error?3?5usage?3?5dicomp?5myae?5remote@ 0047b7d8     dicomp.obj
 0002:00001834       ??_7failure@ios_base@std@@6B@ 0047b834     dicomp.obj
 0002:00001840       ??_C@_0BA@ELKIONDK@bad?5locale?5name?$AA@ 0047b840     dicomp.obj
 0002:00001854       ??_C@_0BF@OOHOMBOF@ios_base?3?3eofbit?5set?$AA@ 0047b854     dicomp.obj
 0002:00001870       ??_C@_0BG@FMKFHCIL@ios_base?3?3failbit?5set?$AA@ 0047b870     dicomp.obj
 0002:0000188c       ??_C@_0BF@PHHKMMFD@ios_base?3?3badbit?5set?$AA@ 0047b88c     dicomp.obj
 0002:000018ac       ??_7?$num_put@DV?$ostreambuf_iterator@DU?$char_traits@D@std@@@std@@@std@@6B@ 0047b8ac     dicomp.obj
 0002:000018d8       ??_C@_01GFHCPBMG@C?$AA@    0047b8d8     dicomp.obj
 0002:000018dc       ??_C@_05LAPONLG@false?$AA@ 0047b8dc     dicomp.obj
 0002:000018e4       ??_C@_04LOAJBDKD@true?$AA@ 0047b8e4     dicomp.obj
 0002:000018f0       ??_7?$numpunct@D@std@@6B@  0047b8f0     dicomp.obj
 0002:00001910       ??_C@_08EPJLHIJG@bad?5cast?$AA@ 0047b910     dicomp.obj
 0002:0000191c       ??_C@_01KGKMHCOC@e?$AA@    0047b91c     dicomp.obj
 0002:00001920       ??_C@_01DDCIFGEA@E?$AA@    0047b920     dicomp.obj
 0002:00001924       ??_C@_02EAOCLKAK@ld?$AA@   0047b924     dicomp.obj
 0002:00001928       ??_C@_02BDDLJJBK@lu?$AA@   0047b928     dicomp.obj
 0002:0000192c       ??_C@_02HIKPPMOK@Ld?$AA@   0047b92c     dicomp.obj
 0002:00001930       ??_C@_02CLHGNPPK@Lu?$AA@   0047b930     dicomp.obj
 0002:00001938       __real@38aa95a5b7f87a0f    0047b938     dicomp.obj
 0002:00001948       __real@4202a05f20000000    0047b948     dicomp.obj
 0002:00001958       __real@4733426172c74d82    0047b958     dicomp.obj
 0002:00001968       __real@0000000000000000    0047b968     dicomp.obj
 0002:00001974       ??_C@_02BBAHNLBA@?$CFp?$AA@ 0047b974     dicomp.obj
 0002:00001978       ??_C@_0BK@HMHOBNCB@Received?5a?5Printer?5Event?5?$AA@ 0047b978     dicomp.obj
 0002:00001998       ??_C@_08FLJLKOCO@?5Report?$CB?$AA@ 0047b998     dicomp.obj
 0002:000019a4       ??_C@_0BM@PJHOKID@Received?5a?5Print?5Job?5Event?5?$AA@ 0047b9a4     dicomp.obj
 0002:000019c8       ??_C@_04NLPCHLMH@?5?3?3?5?$AA@ 0047b9c8     dicomp.obj
 0002:000019d0       ??_C@_07PJNGHPBE@?5Msg?5?$DN?5?$AA@ 0047b9d0     dicomp.obj
 0002:000019dc       ??_C@_0O@EJMMHLLD@HandleError?3?5?$AA@ 0047b9dc     dicomp.obj
 0002:000019ec       ??_C@_03CEDNNAGM@?3?5?$CI?$AA@ 0047b9ec     dicomp.obj
 0002:000019f0       ??_C@_02KCKGHPCA@?$CJ?5?$AA@ 0047b9f0     dicomp.obj
 0002:000019f4       ??_C@_0BG@EJDHGEGC@1?42?4840?410008?45?41?44?41?$AA@ 0047b9f4     printsop.obj
 0002:00001a10       ??_C@_0BG@GCBKDHKB@1?42?4840?410008?45?41?44?42?$AA@ 0047ba10     printsop.obj
 0002:00001a2c       ??_C@_0BH@IECDFCEI@1?42?4840?410008?45?41?41?422?$AA@ 0047ba2c     printsop.obj
 0002:00001a48       ??_C@_0BH@NCHJPFMO@1?42?4840?410008?45?41?41?424?$AA@ 0047ba48     printsop.obj
 0002:00001a68       ??_7AbstractPrinter@@6B@   0047ba68     printsop.obj
 0002:00001a90       ??_7AbstractPrintJob@@6B@  0047ba90     printsop.obj
 0002:00001ab8       ??_7AbstractOverlayBox@@6B@ 0047bab8     printsop.obj
 0002:00001ad4       ??_7AbstractLUTBox@@6B@    0047bad4     printsop.obj
 0002:00001af0       ??_7AbstractAnnotationBox@@6B@ 0047baf0     printsop.obj
 0002:00001b0c       ??_7AbstractImageBox@@6B@  0047bb0c     printsop.obj
 0002:00001b28       ??_7AbstractFilmBox@@6B@   0047bb28     printsop.obj
 0002:00001b44       ??_7NCreateRQ@@6B@         0047bb44     printsop.obj
 0002:00001b50       ??_7NCreateRSP@@6B@        0047bb50     printsop.obj
 0002:00001b5c       ??_7NDeleteRQ@@6B@         0047bb5c     printsop.obj
 0002:00001b68       ??_7NDeleteRSP@@6B@        0047bb68     printsop.obj
 0002:00001b74       ??_7NActionRQ@@6B@         0047bb74     printsop.obj
 0002:00001b80       ??_7NActionRSP@@6B@        0047bb80     printsop.obj
 0002:00001b8c       ??_7NGetRQ@@6B@            0047bb8c     printsop.obj
 0002:00001b98       ??_7NGetRSP@@6B@           0047bb98     printsop.obj
 0002:00001ba4       ??_7NEventReportRQ@@6B@    0047bba4     printsop.obj
 0002:00001bb0       ??_7NEventReportRSP@@6B@   0047bbb0     printsop.obj
 0002:00001bb8       ??_C@_0CF@BLPBKPPF@You?4Need?4To?4Override?4This?4For?4An@ 0047bbb8     printsop.obj
 0002:00001be8       ??_7StandardAdvancedBox@@6BNDeleteRSP@@@ 0047bbe8     printsop.obj
 0002:00001bf4       ??_7StandardAdvancedBox@@6BNDeleteRQ@@@ 0047bbf4     printsop.obj
 0002:00001c00       ??_7StandardAdvancedBox@@6BNCreateRSP@@@ 0047bc00     printsop.obj
 0002:00001c0c       ??_7StandardAdvancedBox@@6BNCreateRQ@@@ 0047bc0c     printsop.obj
 0002:00001c18       ??_7StandardAdvancedBox@@6BNSetRSP@@@ 0047bc18     printsop.obj
 0002:00001c24       ??_7StandardAdvancedBox@@6BNSetRQ@@@ 0047bc24     printsop.obj
 0002:00001c34       ??_7?$Array@PAVAbstractOverlayBox@@@@6B@ 0047bc34     printsop.obj
 0002:00001c40       ??_7?$Array@PAVAbstractLUTBox@@@@6B@ 0047bc40     printsop.obj
 0002:00001c4c       ??_7?$Array@PAVAbstractImageBox@@@@6B@ 0047bc4c     printsop.obj
 0002:00001c58       ??_7?$Array@PAVAbstractAnnotationBox@@@@6B@ 0047bc58     printsop.obj
 0002:00001c64       ??_7?$Array@PAVAbstractFilmBox@@@@6B@ 0047bc64     printsop.obj
 0002:00001c70       ??_7?$Array@PAVAbstractPrintJob@@@@6B@ 0047bc70     printsop.obj
 0002:00001c78       ??_C@_0BH@PLBCBIFE@1?42?4840?410008?45?41?41?417?$AA@ 0047bc78     printsop.obj
 0002:00001c98       ??_7StandardFilm@@6BNActionRSP@@@ 0047bc98     printsop.obj
 0002:00001ca4       ??_7StandardFilm@@6BNActionRQ@@@ 0047bca4     printsop.obj
 0002:00001cb0       ??_7StandardFilm@@6BNDeleteRSP@@@ 0047bcb0     printsop.obj
 0002:00001cbc       ??_7StandardFilm@@6BNDeleteRQ@@@ 0047bcbc     printsop.obj
 0002:00001cc8       ??_7StandardFilm@@6BNSetRSP@@@ 0047bcc8     printsop.obj
 0002:00001cd4       ??_7StandardFilm@@6BNSetRQ@@@ 0047bcd4     printsop.obj
 0002:00001ce0       ??_7StandardFilm@@6BNCreateRSP@@@ 0047bce0     printsop.obj
 0002:00001cec       ??_7StandardFilm@@6BNCreateRQ@@@ 0047bcec     printsop.obj
 0002:00001cfc       ??_7StandardStatus@@6BNEventReportRSP@@@ 0047bcfc     printsop.obj
 0002:00001d08       ??_7StandardStatus@@6BNEventReportRQ@@@ 0047bd08     printsop.obj
 0002:00001d14       ??_7StandardStatus@@6BNGetRSP@@@ 0047bd14     printsop.obj
 0002:00001d20       ??_7StandardStatus@@6BNGetRQ@@@ 0047bd20     printsop.obj
 0002:00001d30       ??_7BasicFilmBox@@6BNActionRSP@@@ 0047bd30     printsop.obj
 0002:00001d3c       ??_7BasicFilmBox@@6BNActionRQ@@@ 0047bd3c     printsop.obj
 0002:00001d48       ??_7BasicFilmBox@@6BNDeleteRSP@@@ 0047bd48     printsop.obj
 0002:00001d54       ??_7BasicFilmBox@@6BNDeleteRQ@@@ 0047bd54     printsop.obj
 0002:00001d60       ??_7BasicFilmBox@@6BNSetRSP@@@ 0047bd60     printsop.obj
 0002:00001d6c       ??_7BasicFilmBox@@6BNSetRQ@@@ 0047bd6c     printsop.obj
 0002:00001d78       ??_7BasicFilmBox@@6BNCreateRSP@@@ 0047bd78     printsop.obj
 0002:00001d84       ??_7BasicFilmBox@@6BNCreateRQ@@@ 0047bd84     printsop.obj
 0002:00001d94       ??_7BasicAnnotationBox@@6BNSetRSP@@@ 0047bd94     printsop.obj
 0002:00001da0       ??_7BasicAnnotationBox@@6BNSetRQ@@@ 0047bda0     printsop.obj
 0002:00001db0       ??_7ImageOverlayBox@@6BNDeleteRSP@@@ 0047bdb0     printsop.obj
 0002:00001dbc       ??_7ImageOverlayBox@@6BNDeleteRQ@@@ 0047bdbc     printsop.obj
 0002:00001dc8       ??_7ImageOverlayBox@@6BNCreateRSP@@@ 0047bdc8     printsop.obj
 0002:00001dd4       ??_7ImageOverlayBox@@6BNCreateRQ@@@ 0047bdd4     printsop.obj
 0002:00001de0       ??_7ImageOverlayBox@@6BNSetRSP@@@ 0047bde0     printsop.obj
 0002:00001dec       ??_7ImageOverlayBox@@6BNSetRQ@@@ 0047bdec     printsop.obj
 0002:00001df8       ??_C@_0BD@FGFOJMDM@PDU?3?3Read?$CI?$CJ?5failed?$AA@ 0047bdf8     printsop.obj
 0002:00001e10       ??_C@_0CA@HKANNDNH@Memory?5Allocation?5Not?5Supported?$AA@ 0047be10     printsop.obj
 0002:00001e38       ??_C@_0BI@MGIPDCCE@Unknown?5Status?5Returned?$AA@ 0047be38     printsop.obj
 0002:00001e54       ??_C@_0DC@OIOGKNDP@Resource?5Limitation?3?5Can?8t?5Creat@ 0047be54     printsop.obj
 0002:00001e90       ??_C@_0BM@PIGFJHIK@Mandatory?5Attribute?5Missing?$AA@ 0047be90     printsop.obj
 0002:00001eb4       ??_C@_0DA@BABDIDI@Mandatory?5Attribute?5was?5given?0?5b@ 0047beb4     printsop.obj
 0002:00001ef0       ??_C@_0CA@OHICDJCF@Invalid?5SOP?5Instance?5UID?5syntax?$AA@ 0047bef0     printsop.obj
 0002:00001f18       ??_C@_0CK@EBMAGPDA@Specified?5SOP?5Instance?5UID?5alrea@ 0047bf18     printsop.obj
 0002:00001f4c       ??_C@_0BO@FHDNFOFC@Cannot?5decode?5DIMSE?5Attribute?$AA@ 0047bf4c     printsop.obj
 0002:00001f70       ??_C@_0DI@FGNACEFM@Invalid?5Attribute?5Value?5or?5Memor@ 0047bf70     printsop.obj
 0002:00001fb4       ??_C@_0DJ@JCEOHDEH@Attribute?$CIs?$CJ?5Not?5Recognized?5in?5C@ 0047bfb4     printsop.obj
 0002:00001ff8       ??_C@_0DA@HBMCJMKF@NCreateRSP?3?3Read?$CI?$CJ?5received?5unex@ 0047bff8     printsop.obj
 0002:00002034       ??_C@_0BK@DNBPNPHK@NCreateRQ?3?3Write?$CI?$CJ?5failed?$AA@ 0047c034     printsop.obj
 0002:00002054       ??_C@_0M@NIACIGIG@WriteCreate?$AA@ 0047c054     printsop.obj
 0002:00002064       ??_C@_0N@MIKMOLHP@StandardFilm?$AA@ 0047c064     printsop.obj
 0002:00002074       ??_C@_0N@HFJDHABF@printsop?4cxx?$AA@ 0047c074     printsop.obj
 0002:00002084       ??_C@_0CG@ODMPBHNK@Specified?5SOP?5Instance?5does?5not?5@ 0047c084     printsop.obj
 0002:000020b4       ??_C@_0CN@MDEPLICE@NSetRSP?3?3Read?$CI?$CJ?5received?5unexpec@ 0047c0b4     printsop.obj
 0002:000020ec       ??_C@_0BH@JEPKCOOF@NSetRQ?3?3Write?$CI?$CJ?5failed?$AA@ 0047c0ec     printsop.obj
 0002:00002108       ??_C@_08OCAIPKKK@WriteSet?$AA@ 0047c108     printsop.obj
 0002:00002114       ??_C@_0DB@IAFNAGDG@More?5than?5one?5VOI?5LUT?5Box?5contai@ 0047c114     printsop.obj
 0002:00002150       ??_C@_0CO@JOLODBNP@Insufficient?5memory?5in?5printer?5t@ 0047c150     printsop.obj
 0002:00002188       ??_C@_0DC@LHBCMDMP@Invalid?5Attribute?5or?5Memory?5Requ@ 0047c188     printsop.obj
 0002:000021c4       ??_C@_0DE@BMCKCGMG@Requested?5Memory?5Allocation?5Temp@ 0047c1c4     printsop.obj
 0002:00002204       ??_C@_0CL@GOAJOJLG@NSetRSP?3?3Read?5received?5unexpecte@ 0047c204     printsop.obj
 0002:00002238       ??_C@_05NBPIDCFL@Write?$AA@ 0047c238     printsop.obj
 0002:00002240       ??_C@_0M@ONPINOGH@StandardBox?$AA@ 0047c240     printsop.obj
 0002:00002254       ??_7BasicFilmSession@@6BNActionRSP@@@ 0047c254     printsop.obj
 0002:00002260       ??_7BasicFilmSession@@6BNActionRQ@@@ 0047c260     printsop.obj
 0002:0000226c       ??_7BasicFilmSession@@6BNDeleteRSP@@@ 0047c26c     printsop.obj
 0002:00002278       ??_7BasicFilmSession@@6BNDeleteRQ@@@ 0047c278     printsop.obj
 0002:00002284       ??_7BasicFilmSession@@6BNSetRSP@@@ 0047c284     printsop.obj
 0002:00002290       ??_7BasicFilmSession@@6BNSetRQ@@@ 0047c290     printsop.obj
 0002:0000229c       ??_7BasicFilmSession@@6BNCreateRSP@@@ 0047c29c     printsop.obj
 0002:000022a8       ??_7BasicFilmSession@@6BNCreateRQ@@@ 0047c2a8     printsop.obj
 0002:000022b8       ??_7BasicPrinter@@6BNEventReportRSP@@@ 0047c2b8     printsop.obj
 0002:000022c4       ??_7BasicPrinter@@6BNEventReportRQ@@@ 0047c2c4     printsop.obj
 0002:000022d0       ??_7BasicPrinter@@6BNGetRSP@@@ 0047c2d0     printsop.obj
 0002:000022dc       ??_7BasicPrinter@@6BNGetRQ@@@ 0047c2dc     printsop.obj
 0002:000022ec       ??_7BasicPrintJob@@6BNEventReportRSP@@@ 0047c2ec     printsop.obj
 0002:000022f8       ??_7BasicPrintJob@@6BNEventReportRQ@@@ 0047c2f8     printsop.obj
 0002:00002304       ??_7BasicPrintJob@@6BNGetRSP@@@ 0047c304     printsop.obj
 0002:00002310       ??_7BasicPrintJob@@6BNGetRQ@@@ 0047c310     printsop.obj
 0002:00002320       ??_7AbstractFilmSession@@6B@ 0047c320     printsop.obj
 0002:0000234c       ??_7AbstractPrintManagementMeta@@6B@ 0047c34c     printsop.obj
 0002:000023c0       ??_C@_0BB@LDFGLLIF@Print?5Queue?5Full?$AA@ 0047c3c0     printsop.obj
 0002:000023d8       ??_C@_0EH@HIBEBBCN@Specified?5Magnification?5Produces@ 0047c3d8     printsop.obj
 0002:00002430       ??_C@_0DN@LPCFBBCA@Multiple?5Images?5Assigned?5to?5Imag@ 0047c430     printsop.obj
 0002:0000247c       ??_C@_0CI@DCMIPPLL@Film?5Session?5Contains?5No?5Film?5In@ 0047c47c     printsop.obj
 0002:000024ac       ??_C@_0DA@NAICPPME@Film?5Session?5Printing?5?$CICollation@ 0047c4ac     printsop.obj
 0002:000024e8       ??_C@_0CN@ENEOLCBF@Film?5Session?5Contains?5No?5Images?5@ 0047c4e8     printsop.obj
 0002:00002520       ??_C@_0BC@EJFPHABD@Invalid?5Attribute?$AA@ 0047c520     printsop.obj
 0002:00002538       ??_C@_0CL@NCGPEOBC@Requested?5Resource?5Temporarily?5U@ 0047c538     printsop.obj
 0002:0000256c       ??_C@_0DA@FKEPJMHP@NActionRSP?3?3Read?$CI?$CJ?5received?5unex@ 0047c56c     printsop.obj
 0002:000025a8       ??_C@_0BK@FHAPKLKE@NActionRQ?3?3Write?$CI?$CJ?5failed?$AA@ 0047c5a8     printsop.obj
 0002:000025c8       ??_C@_0L@PGLNEBMP@WritePrint?$AA@ 0047c5c8     printsop.obj
 0002:000025d8       ??_C@_0BH@HLPCKIL@1?42?4840?410008?41?42?44?491?$AA@ 0047c5d8     dicom:cong.obj
 0002:000025f0       ??_C@_0BH@BOKEBLMK@1?42?4840?410008?41?42?44?490?$AA@ 0047c5f0     dicom:cong.obj
 0002:00002608       ??_C@_0BH@GHNEALM@1?42?4840?410008?41?42?44?481?$AA@ 0047c608     dicom:cong.obj
 0002:00002620       ??_C@_0BH@BPGGHBPN@1?42?4840?410008?41?42?44?480?$AA@ 0047c620     dicom:cong.obj
 0002:00002638       ??_C@_0BH@BEDKDGMA@1?42?4840?410008?41?42?44?470?$AA@ 0047c638     dicom:cong.obj
 0002:00002650       ??_C@_0BH@EDKCPLHB@1?42?4840?410008?41?42?44?466?$AA@ 0047c650     dicom:cong.obj
 0002:00002668       ??_C@_0BH@GIIPKILC@1?42?4840?410008?41?42?44?465?$AA@ 0047c668     dicom:cong.obj
 0002:00002680       ??_C@_0BH@HBJEJJPD@1?42?4840?410008?41?42?44?464?$AA@ 0047c680     dicom:cong.obj
 0002:00002698       ??_C@_0BH@DONFAPDE@1?42?4840?410008?41?42?44?463?$AA@ 0047c698     dicom:cong.obj
 0002:000026b0       ??_C@_0BH@CHMODOHF@1?42?4840?410008?41?42?44?462?$AA@ 0047c6b0     dicom:cong.obj
 0002:000026c8       ??_C@_0BH@MODGNLG@1?42?4840?410008?41?42?44?461?$AA@ 0047c6c8     dicom:cong.obj
 0002:000026e0       ??_C@_0BH@BFPIFMPH@1?42?4840?410008?41?42?44?460?$AA@ 0047c6e0     dicom:cong.obj
 0002:000026f8       ??_C@_0BH@MGHMFJOH@1?42?4840?410008?41?42?44?459?$AA@ 0047c6f8     dicom:cong.obj
 0002:00002710       ??_C@_0BH@NPGHGIKG@1?42?4840?410008?41?42?44?458?$AA@ 0047c710     dicom:cong.obj
 0002:00002728       ??_C@_0BH@FIPPHEGJ@1?42?4840?410008?41?42?44?457?$AA@ 0047c728     dicom:cong.obj
 0002:00002740       ??_C@_0BH@EBOEEFCI@1?42?4840?410008?41?42?44?456?$AA@ 0047c740     dicom:cong.obj
 0002:00002758       ??_C@_0BH@GKMJBGOL@1?42?4840?410008?41?42?44?455?$AA@ 0047c758     dicom:cong.obj
 0002:00002770       ??_C@_0BH@HDNCCHKK@1?42?4840?410008?41?42?44?454?$AA@ 0047c770     dicom:cong.obj
 0002:00002788       ??_C@_0BH@DMJDLBGN@1?42?4840?410008?41?42?44?453?$AA@ 0047c788     dicom:cong.obj
 0002:000027a0       ??_C@_0BH@CFIIIACM@1?42?4840?410008?41?42?44?452?$AA@ 0047c7a0     dicom:cong.obj
 0002:000027b8       ??_C@_0BH@OKFNDOP@1?42?4840?410008?41?42?44?451?$AA@ 0047c7b8     dicom:cong.obj
 0002:000027d0       ??_C@_0BH@BHLOOCKO@1?42?4840?410008?41?42?44?450?$AA@ 0047c7d0     dicom:cong.obj
 0002:000027e8       ??_C@_0BE@LBDPDJDP@1?42?4840?410008?41?42?45?$AA@ 0047c7e8     dicom:cong.obj
 0002:000027fc       ??_C@_0BE@POHOKPPI@1?42?4840?410008?41?42?42?$AA@ 0047c7fc     dicom:cong.obj
 0002:00002810       ??_C@_0BE@NFFDPMDL@1?42?4840?410008?41?42?41?$AA@ 0047c810     dicom:cong.obj
 0002:00002828       ??_7Socket@@6B@            0047c828     dicom:cong.obj
 0002:0000283c       ??_C@_0BI@MHLAJIKA@Could?5not?5resolve?5port?6?$AA@ 0047c83c     dicom:cong.obj
 0002:00002854       ??_C@_0BI@JAIJHPDD@Could?5not?5resolve?5host?6?$AA@ 0047c854     dicom:cong.obj
 0002:0000286c       ??_C@_0N@PKKIJDHK@DICOM?5ERROR?5?$AA@ 0047c86c     dicom:cong.obj
 0002:0000287c       ??_C@_0CH@HECCNILG@VR?3?5out?5of?5memory?5allocating?5?$CFd?5@ 0047c87c     dicom:cong.obj
 0002:000028a4       ??_C@_0BA@EJOLBKMG@?$FL?$FLRGB_TO_MONO?$FN?$FN?$AA@ 0047c8a4     dicom:cong.obj
 0002:000028b4       ??_C@_0BF@MEKPLDCK@?$FL?$FLRGB_TO_MONO_PLUS?$FN?$FN?$AA@ 0047c8b4     dicom:cong.obj
 0002:000028cc       ??_C@_0M@KFCCMGML@?$FL?$FLFIX_TMS?$FN?$FN?$AA@ 0047c8cc     dicom:cong.obj
 0002:000028dc       ??_7AAssociateRJ@@6B@      0047c8dc     dicom:cong.obj
 0002:000028e4       ??_7AReleaseRQ@@6B@        0047c8e4     dicom:cong.obj
 0002:000028ec       ??_7AReleaseRP@@6B@        0047c8ec     dicom:cong.obj
 0002:000028f4       ??_7AAbortRQ@@6B@          0047c8f4     dicom:cong.obj
 0002:000028f8       ??_C@_0M@NJALGCHB@Application?$AA@ 0047c8f8     dicom:cong.obj
 0002:00002904       ??_C@_08LGNJOGGB@transfer?$AA@ 0047c904     dicom:cong.obj
 0002:00002910       ??_C@_08IMFJLGFD@abstract?$AA@ 0047c910     dicom:cong.obj
 0002:0000291c       ??_C@_03MLIFNKHK@sop?$AA@  0047c91c     dicom:cong.obj
 0002:00002920       ??_C@_07DOIFPMDN@LocalAE?$AA@ 0047c920     dicom:cong.obj
 0002:00002928       ??_C@_08DCGGKBFN@RemoteAE?$AA@ 0047c928     dicom:cong.obj
 0002:00002934       ??_C@_01KDCPPGHE@r?$AA@    0047c934     dicom:cong.obj
 0002:00002938       ??_C@_02JDPG@rb?$AA@       0047c938     dicom:cong.obj
 0002:0000293c       ??_C@_02GMLFBBN@wb?$AA@    0047c93c     dicom:cong.obj
 0002:00002944       ??_7codecvt_base@std@@6B@  0047c944     dicom:cong.obj
 0002:00002958       ??_7ctype_base@std@@6B@    0047c958     dicom:cong.obj
 0002:00002960       ??_7ios_base@std@@6B@      0047c960     dicom:cong.obj
 0002:00002968       ??_7?$Array@PAVBufferSpace@@@@6B@ 0047c968     dicom:cong.obj
 0002:00002970       ??_7?$Array@PAVVR@@@@6B@   0047c970     dicom:cong.obj
 0002:00002978       ??_7?$Array@PAVVRGroupPQueue@@@@6B@ 0047c978     dicom:cong.obj
 0002:00002980       ??_7?$Array@VTransferSyntax@@@@6B@ 0047c980     dicom:cong.obj
 0002:00002988       ??_7?$Array@VPresentationContext@@@@6B@ 0047c988     dicom:cong.obj
 0002:00002990       ??_7?$Array@VPresentationContextAccept@@@@6B@ 0047c990     dicom:cong.obj
 0002:00002998       ??_7?$Array@VAbstractSyntax@@@@6B@ 0047c998     dicom:cong.obj
 0002:000029a0       ??_7?$Array@PAVDICOMObject@@@@6B@ 0047c9a0     dicom:cong.obj
 0002:000029a8       ??_7?$Array@U_RTCElement@@@@6B@ 0047c9a8     dicom:cong.obj
 0002:000029b0       ??_7?$Array@PAU_ACRNemaAddress@@@@6B@ 0047c9b0     dicom:cong.obj
 0002:000029b8       ??_7?$basic_ios@DU?$char_traits@D@std@@@std@@6B@ 0047c9b8     dicom:cong.obj
 0002:000029c0       ??_7?$basic_istream@DU?$char_traits@D@std@@@std@@6B@ 0047c9c0     dicom:cong.obj
 0002:000029c8       ??_7?$Array@V?$FixedArrayElement@IU_RTCElement@@@@@@6B@ 0047c9c8     dicom:cong.obj
 0002:000029d0       ??_7?$PQueueOfPtr@PAVVR@@@@6B@ 0047c9d0     dicom:cong.obj
 0002:000029d4       ??_C@_0DA@CNOKHGHP@Bufferspace?3?5out?5of?5memory?5alloc@ 0047c9d4     dicom:cong.obj
 0002:00002a08       ??_7Buffer@@6B@            0047ca08     dicom:cong.obj
 0002:00002a14       ??_C@_0BL@FOJILJIC@Connected?5by?5address?3?5?$CF08x?$AA@ 0047ca14     dicom:cong.obj
 0002:00002a34       ??_7?$PQueueOfPtr@PAVVRGroupPQueue@@@@6B@ 0047ca34     dicom:cong.obj
 0002:00002a38       ??_C@_01CLKCMJKC@?5?$AA@   0047ca38     dicom:cong.obj
 0002:00002a3c       ??_C@_0CM@JNLLLEIH@VR?3SetIf?5out?5of?5memory?5allocatin@ 0047ca3c     dicom:cong.obj
 0002:00002a68       ??_C@_0CO@DMPHOMCB@VR?3ReAlloc?5out?5of?5memory?5allocat@ 0047ca68     dicom:cong.obj
 0002:00002a98       ??_C@_0CD@DLKKAON@1?42?4826?40?41?43680043?42?4135?41066?41@ 0047ca98     dicom:cong.obj
 0002:00002abc       ??_C@_0N@LACKHJCB@1?44?418?1WIN32?$AA@ 0047cabc     dicom:cong.obj
 0002:00002acc       ??_C@_0DN@LAJGKFBO@Internal?5error?5during?5load?5of?5DC@ 0047cacc     dicom:cong.obj
 0002:00002b10       ??_C@_0EN@CPPKNJGE@no?5UID?5associated?5with?5PCID?5?$CFd?5d@ 0047cb10     dicom:cong.obj
 0002:00002b60       ??_C@_0BK@IDBOGHIN@1?42?4840?410008?45?41?44?41?41?41?$AA@ 0047cb60     dicom:cong.obj
 0002:00002b7c       ??_C@_0BK@KIDDDEEO@1?42?4840?410008?45?41?44?41?41?42?$AA@ 0047cb7c     dicom:cong.obj
 0002:00002b98       ??_C@_0BK@LBCIAFAP@1?42?4840?410008?45?41?44?41?41?43?$AA@ 0047cb98     dicom:cong.obj
 0002:00002bb4       ??_C@_0BK@POGJJDMI@1?42?4840?410008?45?41?44?41?41?44?$AA@ 0047cbb4     dicom:cong.obj
 0002:00002bd0       ??_C@_0BK@OHHCKCIJ@1?42?4840?410008?45?41?44?41?41?45?$AA@ 0047cbd0     dicom:cong.obj
 0002:00002bec       ??_C@_0BK@MMFPPBEK@1?42?4840?410008?45?41?44?41?41?46?$AA@ 0047cbec     dicom:cong.obj
 0002:00002c08       ??_C@_0BK@NFEEMAAL@1?42?4840?410008?45?41?44?41?41?47?$AA@ 0047cc08     dicom:cong.obj
 0002:00002c24       ??_C@_0BK@FCNMNMME@1?42?4840?410008?45?41?44?41?41?48?$AA@ 0047cc24     dicom:cong.obj
 0002:00002c40       ??_C@_0BK@ELMHONIF@1?42?4840?410008?45?41?44?41?41?49?$AA@ 0047cc40     dicom:cong.obj
 0002:00002c5c       ??_C@_0BL@EMMMNHAJ@1?42?4840?410008?45?41?44?41?41?410?$AA@ 0047cc5c     dicom:cong.obj
 0002:00002c78       ??_C@_0BL@FFNHOGEI@1?42?4840?410008?45?41?44?41?41?411?$AA@ 0047cc78     dicom:cong.obj
 0002:00002c94       ??_C@_0BD@NHFHEGHF@1?42?4840?4113619?44?42?$AA@ 0047cc94     dicom:cong.obj
 0002:00002ca8       ??_C@_0BD@MOEMHHDE@1?42?4840?4113619?44?43?$AA@ 0047cca8     dicom:cong.obj
 0002:00002cbc       ??_C@_0BM@CPOBIPBF@1?42?4840?410008?45?41?44?41?42?41?41?$AA@ 0047ccbc     dicom:cong.obj
 0002:00002cd8       ??_C@_0BM@EMMNMNG@1?42?4840?410008?45?41?44?41?42?41?42?$AA@ 0047ccd8     dicom:cong.obj
 0002:00002cf4       ??_C@_0BM@DNFECAPL@1?42?4840?410008?45?41?44?41?42?42?41?$AA@ 0047ccf4     dicom:cong.obj
 0002:00002d10       ??_C@_0BM@BGHJHDDI@1?42?4840?410008?45?41?44?41?42?42?42?$AA@ 0047cd10     dicom:cong.obj
 0002:00002d2c       ??_C@_0BM@IFOIEHJO@1?42?4840?410008?45?41?44?41?42?43?41?$AA@ 0047cd2c     dicom:cong.obj
 0002:00002d48       ??_C@_0BM@KOMFBEFN@1?42?4840?410008?45?41?44?41?42?43?42?$AA@ 0047cd48     dicom:cong.obj
 0002:00002d64       ??_C@_0BH@GGCMOEMM@1?42?4840?410008?45?41?44?431?$AA@ 0047cd64     dicom:cong.obj
 0002:00002d7c       ??_C@_0BI@CJNBCHJI@?$CF?917s?5?$CF?930s?5?$CF?910s?5?$CF?916s?$AA@ 0047cd7c     dicom:cong.obj
 0002:00002d94       ??_C@_0BL@PJIIEOLN@?$CK?$CK?7AE?5?1?5IP?9PORT?5Map?5dump?6?6?$AA@ 0047cd94     dicom:cong.obj
 0002:00002db0       ??_C@_0EPO@IGCNPMFK@?1?$CK?5?$CK?$CK?$CK?$CK?$CK?$CK?$CK?$CK?$CK?$CK?$CK?$CK?$CK?$CK?$CK?$CK?$CK?$CK?$CK?$CK?$CK?$CK?$CK?$CK?$CK?$CK?$CK?$CK?$CK@ 0047cdb0     dicom:cong.obj
 0002:000032b0       ??_C@_02BKFDOEMK@wt?$AA@   0047d2b0     dicom:cong.obj
 0002:000032b8       ??_7?$basic_streambuf@DU?$char_traits@D@std@@@std@@6B@ 0047d2b8     dicom:cong.obj
 0002:000032f4       ??_7VRGroupPQueue@@6B@     0047d2f4     dicom:cong.obj
 0002:000032fc       ??_7LinkedBuffer@@6B@      0047d2fc     dicom:cong.obj
 0002:0000330c       ??_7DICOMObject@@6B@       0047d30c     dicom:cong.obj
 0002:00003324       ??_7MemoryBuffer@@6B@      0047d324     dicom:cong.obj
 0002:00003334       ??_7PDataTF@@6B@           0047d334     dicom:cong.obj
 0002:00003338       ??_C@_0CP@IODPKGCI@Testing?5transfer?3?5?8?$CFs?8?5against?5l@ 0047d338     dicom:cong.obj
 0002:0000336c       ??_7FileBuffer@@6B@        0047d36c     dicom:cong.obj
 0002:00003378       ??_C@_0BD@GJGENGDE@1?42?4840?410008?41?42?$AA?$AA@ 0047d378     dicom:cong.obj
 0002:0000338c       ??_C@_04EFLJODAN@DICM?$AA@ 0047d38c     dicom:cong.obj
 0002:00003394       ??_C@_02KJPKMKHP@un?$AA@   0047d394     dicom:cong.obj
 0002:0000339c       ??_7?$PQueue@V?$FixedArrayElement@IU_RTCElement@@@@@@6B@ 0047d39c     dicom:cong.obj
 0002:000033a4       ??_7AAssociateAC@@6B@      0047d3a4     dicom:cong.obj
 0002:000033a8       ??_C@_01LOCGONAA@?$AA?$AA@ 0047d3a8     dicom:cong.obj
 0002:000033b0       ??_7?$basic_filebuf@DU?$char_traits@D@std@@@std@@6B@ 0047d3b0     dicom:cong.obj
 0002:000033e8       ??_C@_0DL@PJMKBLMF@Sequence?5parse?5error?5during?5load@ 0047d3e8     dicom:cong.obj
 0002:00003428       ??_C@_0FI@HBIENDDJ@Implicit_Parse?5encountered?5an?5in@ 0047d428     dicom:cong.obj
 0002:00003480       ??_C@_0BD@GGBLBCEH@Continuing?5parsing?$AA@ 0047d480     dicom:cong.obj
 0002:00003494       ??_C@_0BD@LEKCKBOG@Group?5Length?5?$DN?5?$CFu?6?$AA@ 0047d494     dicom:cong.obj
 0002:000034a8       ??_C@_0N@GMNANHEE@Length?5?$DN?5?$CFd?6?$AA@ 0047d4a8     dicom:cong.obj
 0002:000034b8       ??_C@_0FI@ILHFEOIN@Implicit?5Parse?5encountered?5an?5in@ 0047d4b8     dicom:cong.obj
 0002:00003510       ??_C@_0EO@DBAMAPBE@?$CIImp?$CJ?5Encountered?5an?5invalid?5ele@ 0047d510     dicom:cong.obj
 0002:00003560       ??_C@_0EP@DDIJLJLE@?$CIImp?$CJ?5Encountered?5an?5invalid?5gro@ 0047d560     dicom:cong.obj
 0002:000035b0       ??_C@_0FL@CDPKFABG@Explicit_ParseRaw?5encountered?5an@ 0047d5b0     dicom:cong.obj
 0002:00003610       ??_C@_0FI@HEEPAFAK@Explicit?5Parse?5encountered?5an?5in@ 0047d610     dicom:cong.obj
 0002:00003668       ??_C@_0EO@GKFBNJMD@?$CIExp?$CJ?5Encountered?5an?5invalid?5ele@ 0047d668     dicom:cong.obj
 0002:000036b8       ??_C@_0EP@CLGFKDBF@?$CIExp?$CJ?5Encountered?5an?5invalid?5gro@ 0047d6b8     dicom:cong.obj
 0002:00003708       ??_C@_09LDPOJFLM@Keyword?$DN?$CC?$AA@ 0047d708     dicom:cong.obj
 0002:00003714       ??_C@_04GEILMFED@VR?$DN?$CC?$AA@ 0047d714     dicom:cong.obj
 0002:0000371c       ??_C@_08JMNOJJJC@?$CD?$CBBinRTC?$AA@ 0047d71c     dicom:cong.obj
 0002:00003728       ??_C@_0DA@DIHIDFME@Mis?9encoded?5pixel?5data?5during?5lo@ 0047d728     dicom:cong.obj
 0002:00003758       ??_C@_0BF@NNBJBNHA@In?5image?5data?3?5?$CF08x?6?$AA@ 0047d758     dicom:cong.obj
 0002:00003770       ??_C@_0CH@BOCCLCHN@Odd?5VR?5length?3?5?$CF08x?$DL?5attempted?5t@ 0047d770     dicom:cong.obj
 0002:00003798       ??_C@_0CB@OAIKEIJE@Unknown?5transfer?5syntax?5in?5?$CF08x?6@ 0047d798     dicom:cong.obj
 0002:000037c0       ??_C@_0FH@LDKPKPFA@Dynamic_Parse?5encountered?5an?5inv@ 0047d7c0     dicom:cong.obj
 0002:00003818       ??_C@_0FH@EJFODCOE@Dynamic?5Parse?5encountered?5an?5inv@ 0047d818     dicom:cong.obj
 0002:00003870       ??_C@_0EO@LIOMEBP@?$CIDyn?$CJ?5Encountered?5an?5invalid?5ele@ 0047d870     dicom:cong.obj
 0002:000038c0       ??_C@_0EP@KEGBOCPH@?$CIDyn?$CJ?5Encountered?5an?5invalid?5gro@ 0047d8c0     dicom:cong.obj
 0002:00003914       ??_7AAssociateRQ@@6B@      0047d914     dicom:cong.obj
 0002:0000391c       ??_7PDU_Service@@6BPDataTF@@@ 0047d91c     dicom:cong.obj
 0002:00003924       ??_7PDU_Service@@6BAAbortRQ@@@ 0047d924     dicom:cong.obj
 0002:0000392c       ??_7PDU_Service@@6BAReleaseRP@@@ 0047d92c     dicom:cong.obj
 0002:00003934       ??_7PDU_Service@@6BAReleaseRQ@@@ 0047d934     dicom:cong.obj
 0002:0000393c       ??_7PDU_Service@@6BAAssociateRJ@@@ 0047d93c     dicom:cong.obj
 0002:00003944       ??_7PDU_Service@@6BAAssociateAC@@@ 0047d944     dicom:cong.obj
 0002:0000394c       ??_7PDU_Service@@6BAAssociateRQ@@@ 0047d94c     dicom:cong.obj
 0002:00003954       ??_7PDU_Service@@6BBuffer@@@ 0047d954     dicom:cong.obj
 0002:000039e8       ??_C@_0CA@NKCPNEN@?$CDPossible?5transfer?5syntaxes?3?5?$CFd?$AA@ 0047d9e8     dicom:cong.obj
 0002:00003a08       ??_C@_0BM@HHDELCIK@In?5?$CFd?5presentation?5contexts?$AA@ 0047da08     dicom:cong.obj
 0002:00003a28       ??_C@_0EG@LADICAEJ@No?5valid?5presentation?5contexts?1t@ 0047da28     dicom:cong.obj
 0002:00003a70       ??_C@_0BJ@GAFHDEEN@AppContext?5Not?9Supported?$AA@ 0047da70     dicom:cong.obj
 0002:00003a8c       ??_C@_0BK@LCAHODJB@Called?5party?5not?5accepted?$AA@ 0047da8c     dicom:cong.obj
 0002:00003aa8       ??_C@_0BL@JOAOHJLO@Calling?5party?5not?5accepted?$AA@ 0047daa8     dicom:cong.obj
 0002:00003ac4       ??_C@_0BD@HKNCDFKK@link?4accept?5failed?$AA@ 0047dac4     dicom:cong.obj
 0002:00003ad8       ??_C@_0BO@HHNAKECA@InterogateAAssociateRQ?5failed?$AA@ 0047dad8     dicom:cong.obj
 0002:00003af8       ??_C@_0BG@KKJBNHFI@link?5is?5not?5connected?$AA@ 0047daf8     dicom:cong.obj
 0002:00003b14       ??_7CheckedPDU_Service@@6BPDataTF@@@ 0047db14     dicom:cong.obj
 0002:00003b1c       ??_7CheckedPDU_Service@@6BAAbortRQ@@@ 0047db1c     dicom:cong.obj
 0002:00003b24       ??_7CheckedPDU_Service@@6BAReleaseRP@@@ 0047db24     dicom:cong.obj
 0002:00003b2c       ??_7CheckedPDU_Service@@6BAReleaseRQ@@@ 0047db2c     dicom:cong.obj
 0002:00003b34       ??_7CheckedPDU_Service@@6BAAssociateRJ@@@ 0047db34     dicom:cong.obj
 0002:00003b3c       ??_7CheckedPDU_Service@@6BAAssociateAC@@@ 0047db3c     dicom:cong.obj
 0002:00003b44       ??_7CheckedPDU_Service@@6BAAssociateRQ@@@ 0047db44     dicom:cong.obj
 0002:00003b4c       ??_7CheckedPDU_Service@@6BBuffer@@@ 0047db4c     dicom:cong.obj
 0002:00003be4       ??_7?$ctype@D@std@@6B@     0047dbe4     dicom:cong.obj
 0002:00003c14       ??_7?$codecvt@DDH@std@@6B@ 0047dc14     dicom:cong.obj
 0002:00003c34       ??_C@_0BD@GMHOFHGD@link?4listen?5failed?$AA@ 0047dc34     dicom:cong.obj
 0002:00003c48       ??_C@_0BB@FHAPCDKO@?5?5?5?5?5?5?5?5?5?5?5?5?5?5?5?5?$AA@ 0047dc48     dicom:cong.obj
 0002:00003c5c       ??_C@_0BO@JMHPGLEO@Query?5received?5cancel?5request?$AA@ 0047dc5c     dicom:cong.obj
 0002:00003c80       ??_7?$basic_ifstream@DU?$char_traits@D@std@@@std@@6B@ 0047dc80     dicom:cong.obj
 0002:00003c84       ??_8?$basic_istream@DU?$char_traits@D@std@@@std@@7B@ 0047dc84     dicom:cong.obj
 0002:00003c8c       ??_8?$basic_ifstream@DU?$char_traits@D@std@@@std@@7B@ 0047dc8c     dicom:cong.obj
 0002:00003c94       ??_C@_0BL@MBECKDLH@Error?5while?5closing?5?$CFs?3?5?$CFs?$AA@ 0047dc94     dicom:cong.obj
 0002:00003cb0       ??_C@_0BA@EOIHFEPB@Unknown?5error?4?6?$AA@ 0047dcb0     dicom:cong.obj
 0002:00003cc0       ??_C@_0BH@OAFKBLMM@The?5file?5?$CFs?5is?5to?5big?6?$AA@ 0047dcc0     dicom:cong.obj
 0002:00003cd8       ??_C@_0BG@GCFCHMHH@The?5file?5?$CFs?5is?5empty?6?$AA@ 0047dcd8     dicom:cong.obj
 0002:00003cf0       ??_C@_0BK@CHDFMDIF@Error?5reading?5file?5?$CFs?3?5?$CFs?$AA@ 0047dcf0     dicom:cong.obj
 0002:00003d0c       ??_C@_0BM@PIGDGPMA@Memory?5allocation?5error?3?5?$CFs?$AA@ 0047dd0c     dicom:cong.obj
 0002:00003d28       ??_C@_0BB@PKPDJFHD@?$CFs?5is?5not?5a?5file?$AA@ 0047dd28     dicom:cong.obj
 0002:00003d3c       ??_C@_0CA@CACEHCOM@Can?5not?5get?5the?5size?5of?5?$CFs?3?5?$CFs?6?$AA@ 0047dd3c     dicom:cong.obj
 0002:00003d5c       ??_C@_0CF@JKODLJEC@Can?5not?5open?5the?5needed?5file?5?$CFs?3@ 0047dd5c     dicom:cong.obj
 0002:00003d84       ??_C@_0BA@GHHIKPKP@Invalid?5handle?6?$AA@ 0047dd84     dicom:cong.obj
 0002:00003d98       ??_7_Locimp@locale@std@@6B@ 0047dd98     libcpmt:locale0.obj
 0002:00003d9c       ??_C@_01NBENCBCI@?$CK?$AA@ 0047dd9c     libcpmt:locale0.obj
 0002:00003da4       ??_7logic_error@std@@6B@   0047dda4     libcpmt:string.obj
 0002:00003db0       ??_7invalid_argument@std@@6B@ 0047ddb0     libcpmt:string.obj
 0002:00003dbc       ??_7length_error@std@@6B@  0047ddbc     libcpmt:string.obj
 0002:00003dc8       ??_7out_of_range@std@@6B@  0047ddc8     libcpmt:string.obj
 0002:00003dd0       ??_C@_0BA@JFNIOLAK@string?5too?5long?$AA@ 0047ddd0     libcpmt:string.obj
 0002:00003de0       ??_C@_0BI@CFPLBAOH@invalid?5string?5position?$AA@ 0047dde0     libcpmt:string.obj
 0002:00003df8       ??_C@_0BI@ILCMCLF@invalid?5string?5argument?$AA@ 0047ddf8     libcpmt:string.obj
 0002:00003e14       ??_7?$basic_ostream@DU?$char_traits@D@std@@@std@@6B@ 0047de14     libcpmt:cerr.obj
 0002:00003e18       ??_8?$basic_ostream@DU?$char_traits@D@std@@@std@@7B@ 0047de18     libcpmt:cerr.obj
 0002:00003e20       ?_BADOFF@std@@3JB          0047de20     libcpmt:ios.obj
 0002:00003e24       ?ProcessDetach@NativeDll@<CrtImplementationDetails>@@0IB 0047de24     libcpmt:fiopen.obj
 0002:00003e28       ?ProcessAttach@NativeDll@<CrtImplementationDetails>@@0IB 0047de28     libcpmt:fiopen.obj
 0002:00003e2c       ?ThreadAttach@NativeDll@<CrtImplementationDetails>@@0IB 0047de2c     libcpmt:fiopen.obj
 0002:00003e30       ?ThreadDetach@NativeDll@<CrtImplementationDetails>@@0IB 0047de30     libcpmt:fiopen.obj
 0002:00003e34       ?ProcessVerifier@NativeDll@<CrtImplementationDetails>@@0IB 0047de34     libcpmt:fiopen.obj
 0002:00003e38       ??_C@_13BPINEIPE@?$AAr?$AA?$AA@ 0047de38     libcpmt:fiopen.obj
 0002:00003e78       ??_C@_13CIFDLIMG@?$AAw?$AA?$AA@ 0047de78     libcpmt:fiopen.obj
 0002:00003e7c       ??_C@_13FNCBLAIF@?$AAa?$AA?$AA@ 0047de7c     libcpmt:fiopen.obj
 0002:00003e80       ??_C@_15JJPIMNBO@?$AAr?$AAb?$AA?$AA@ 0047de80     libcpmt:fiopen.obj
 0002:00003e88       ??_C@_15MJDFFMKN@?$AAw?$AAb?$AA?$AA@ 0047de88     libcpmt:fiopen.obj
 0002:00003e90       ??_C@_15BMLKLNCL@?$AAa?$AAb?$AA?$AA@ 0047de90     libcpmt:fiopen.obj
 0002:00003e98       ??_C@_15HPOENKKJ@?$AAr?$AA?$CL?$AA?$AA@ 0047de98     libcpmt:fiopen.obj
 0002:00003ea0       ??_C@_15CPCJELBK@?$AAw?$AA?$CL?$AA?$AA@ 0047dea0     libcpmt:fiopen.obj
 0002:00003ea8       ??_C@_15PKKGKKJM@?$AAa?$AA?$CL?$AA?$AA@ 0047dea8     libcpmt:fiopen.obj
 0002:00003eb0       ??_C@_17IIOMHMAG@?$AAr?$AA?$CL?$AAb?$AA?$AA@ 0047deb0     libcpmt:fiopen.obj
 0002:00003eb8       ??_C@_17MAAMHCGC@?$AAw?$AA?$CL?$AAb?$AA?$AA@ 0047deb8     libcpmt:fiopen.obj
 0002:00003ec0       ??_C@_17HKNIEKMO@?$AAa?$AA?$CL?$AAb?$AA?$AA@ 0047dec0     libcpmt:fiopen.obj
 0002:00003ecc       ??_7type_info@@6B@         0047decc     LIBCMT:typinfo.obj
 0002:00003ed4       ??_7exception@std@@6B@     0047ded4     LIBCMT:stdexcpt.obj
 0002:00003edc       ??_C@_0BC@EOODALEL@Unknown?5exception?$AA@ 0047dedc     LIBCMT:stdexcpt.obj
 0002:00003ef4       ??_7bad_cast@std@@6B@      0047def4     LIBCMT:stdexcpt.obj
 0002:00003f00       ??_7bad_typeid@std@@6B@    0047df00     LIBCMT:stdexcpt.obj
 0002:00003f0c       ??_7__non_rtti_object@std@@6B@ 0047df0c     LIBCMT:stdexcpt.obj
 0002:00003f34       __FPinit                   0047df34     LIBCMT:fpinit.obj
 0002:00003f38       __FPmtinit                 0047df38     LIBCMT:fpinit.obj
 0002:00003f3c       __FPmtterm                 0047df3c     LIBCMT:fpinit.obj
 0002:00003f40       ??_C@_0EA@FCLIIPNN@Visual?5C?$CL?$CL?5CRT?3?5Not?5enough?5memor@ 0047df40     LIBCMT:strerror.obj
 0002:00003f80       ??_C@_07LCBHPJJN@LC_TIME?$AA@ 0047df80     LIBCMT:setlocal.obj
 0002:00003f88       ??_C@_0L@DLHIECNL@LC_NUMERIC?$AA@ 0047df88     LIBCMT:setlocal.obj
 0002:00003f94       ??_C@_0M@MIENIKLA@LC_MONETARY?$AA@ 0047df94     LIBCMT:setlocal.obj
 0002:00003fa0       ??_C@_08EADHIDAD@LC_CTYPE?$AA@ 0047dfa0     LIBCMT:setlocal.obj
 0002:00003fac       ??_C@_0L@KFJHEKIK@LC_COLLATE?$AA@ 0047dfac     LIBCMT:setlocal.obj
 0002:00003fb8       ??_C@_06NEFDFEKB@LC_ALL?$AA@ 0047dfb8     LIBCMT:setlocal.obj
 0002:00003fc0       ___lc_category             0047dfc0     LIBCMT:setlocal.obj
 0002:00004088       ??_C@_03EGDHDPFD@_?4?0?$AA@ 0047e088     LIBCMT:setlocal.obj
 0002:0000408c       ??_C@_01LFCBOECM@?4?$AA@   0047e08c     LIBCMT:setlocal.obj
 0002:00004090       ??_C@_01IDAFKMJL@_?$AA@    0047e090     LIBCMT:setlocal.obj
 0002:00004094       ??_C@_01ICJEACDI@?$DL?$AA@ 0047e094     LIBCMT:setlocal.obj
 0002:00004098       ??_C@_01NEMOKFLO@?$DN?$AA@ 0047e098     LIBCMT:setlocal.obj
 0002:0000409c       ??_C@_02BALPLPBG@?$DN?$DL?$AA@ 0047e09c     LIBCMT:setlocal.obj
 0002:000040a0       __pDestructExceptionObject 0047e0a0     LIBCMT:frame.obj
 0002:000040a8       ??_7bad_exception@std@@6B@ 0047e0a8     LIBCMT:frame.obj
 0002:000040b0       ??_C@_0O@DPKOEFFH@bad?5exception?$AA@ 0047e0b0     LIBCMT:frame.obj
 0002:000040c0       ??_C@_13NOLLCAOD@?$AA?$AA?$AA?$AA@ 0047e0c0     LIBCMT:a_map.obj
 0002:000040c8       ___newctype                0047e0c8     LIBCMT:ctype.obj
 0002:000043c8       __wctype                   0047e3c8     LIBCMT:ctype.obj
 0002:000045d0       ___newclmap                0047e5d0     LIBCMT:ctype.obj
 0002:00004750       ___newcumap                0047e750     LIBCMT:ctype.obj
 0002:000048d0       ??_C@_0P@MIGLKIOC@CorExitProcess?$AA@ 0047e8d0     LIBCMT:crt0dat.obj
 0002:000048e0       ??_C@_0M@MBOPBNBK@mscoree?4dll?$AA@ 0047e8e0     LIBCMT:crt0dat.obj
 0002:000048ec       ??_C@_1O@CEDCILHN@?$AA?$CI?$AAn?$AAu?$AAl?$AAl?$AA?$CJ?$AA?$AA@ 0047e8ec     LIBCMT:output.obj
 0002:00004900       ___lookuptable             0047e900     LIBCMT:output.obj
 0002:00004964       ??_C@_07EPKMNAGK@?4mixcrt?$AA@ 0047e964     LIBCMT:tidtable.obj
 0002:0000496c       ??_C@_0O@NLDKAIKN@EncodePointer?$AA@ 0047e96c     LIBCMT:tidtable.obj
 0002:0000497c       ??_C@_0N@NHGLKGEC@KERNEL32?4DLL?$AA@ 0047e97c     LIBCMT:tidtable.obj
 0002:0000498c       ??_C@_0O@KBPMFGHI@DecodePointer?$AA@ 0047e98c     LIBCMT:tidtable.obj
 0002:0000499c       ??_C@_07PEJMOBNF@FlsFree?$AA@ 0047e99c     LIBCMT:tidtable.obj
 0002:000049a4       ??_C@_0M@JCPCPOEF@FlsSetValue?$AA@ 0047e9a4     LIBCMT:tidtable.obj
 0002:000049b0       ??_C@_0M@GDNOONDI@FlsGetValue?$AA@ 0047e9b0     LIBCMT:tidtable.obj
 0002:000049bc       ??_C@_08KNHFBNJ@FlsAlloc?$AA@ 0047e9bc     LIBCMT:tidtable.obj
 0002:000049c8       ??_C@_0P@GGKDKEEG@runtime?5error?5?$AA@ 0047e9c8     LIBCMT:crt0msg.obj
 0002:000049d8       ??_C@_02PCIJFNDE@?$AN?6?$AA@ 0047e9d8     LIBCMT:crt0msg.obj
 0002:000049dc       ??_C@_0O@MJNIPGOH@TLOSS?5error?$AN?6?$AA@ 0047e9dc     LIBCMT:crt0msg.obj
 0002:000049ec       ??_C@_0N@BONNPDHF@SING?5error?$AN?6?$AA@ 0047e9ec     LIBCMT:crt0msg.obj
 0002:000049fc       ??_C@_0P@MBDAJNE@DOMAIN?5error?$AN?6?$AA@ 0047e9fc     LIBCMT:crt0msg.obj
 0002:00004a10       ??_C@_0JL@DFDOOABL@R6034?$AN?6An?5application?5has?5made?5a@ 0047ea10     LIBCMT:crt0msg.obj
 0002:00004ab0       ??_C@_0PH@EPAFIJ@R6033?$AN?6?9?5Attempt?5to?5use?5MSIL?5cod@ 0047eab0     LIBCMT:crt0msg.obj
 0002:00004ba8       ??_C@_0DD@BKEEABMM@R6032?$AN?6?9?5not?5enough?5space?5for?5lo@ 0047eba8     LIBCMT:crt0msg.obj
 0002:00004be0       ??_C@_0GD@OFKILIED@R6031?$AN?6?9?5Attempt?5to?5initialize?5t@ 0047ebe0     LIBCMT:crt0msg.obj
 0002:00004c44       ??_C@_0BP@LPMHJOKI@R6030?$AN?6?9?5CRT?5not?5initialized?$AN?6?$AA@ 0047ec44     LIBCMT:crt0msg.obj
 0002:00004c64       ??_C@_0CF@KJDAIALP@R6028?$AN?6?9?5unable?5to?5initialize?5he@ 0047ec64     LIBCMT:crt0msg.obj
 0002:00004c8c       ??_C@_0DF@GAKBPDFP@R6027?$AN?6?9?5not?5enough?5space?5for?5lo@ 0047ec8c     LIBCMT:crt0msg.obj
 0002:00004cc4       ??_C@_0DF@IBLNNAIG@R6026?$AN?6?9?5not?5enough?5space?5for?5st@ 0047ecc4     LIBCMT:crt0msg.obj
 0002:00004cfc       ??_C@_0CG@IOHKGFNJ@R6025?$AN?6?9?5pure?5virtual?5function?5c@ 0047ecfc     LIBCMT:crt0msg.obj
 0002:00004d24       ??_C@_0DF@JIJJFJDC@R6024?$AN?6?9?5not?5enough?5space?5for?5_o@ 0047ed24     LIBCMT:crt0msg.obj
 0002:00004d5c       ??_C@_0CJ@EGEJHFME@R6019?$AN?6?9?5unable?5to?5open?5console?5@ 0047ed5c     LIBCMT:crt0msg.obj
 0002:00004d88       ??_C@_0CB@GNHNIELH@R6018?$AN?6?9?5unexpected?5heap?5error?$AN?6@ 0047ed88     LIBCMT:crt0msg.obj
 0002:00004dac       ??_C@_0CN@FOLDKNG@R6017?$AN?6?9?5unexpected?5multithread?5@ 0047edac     LIBCMT:crt0msg.obj
 0002:00004ddc       ??_C@_0CM@FAHFJNHO@R6016?$AN?6?9?5not?5enough?5space?5for?5th@ 0047eddc     LIBCMT:crt0msg.obj
 0002:00004e08       ??_C@_0JG@LBKMGKLD@?$AN?6This?5application?5has?5requested@ 0047ee08     LIBCMT:crt0msg.obj
 0002:00004ea0       ??_C@_0CM@FLCNIPKK@R6009?$AN?6?9?5not?5enough?5space?5for?5en@ 0047eea0     LIBCMT:crt0msg.obj
 0002:00004ecc       ??_C@_0CK@KMMJOAPP@R6008?$AN?6?9?5not?5enough?5space?5for?5ar@ 0047eecc     LIBCMT:crt0msg.obj
 0002:00004ef8       ??_C@_0CN@LEKKICBM@R6002?$AN?6?9?5floating?5point?5support?5@ 0047eef8     LIBCMT:crt0msg.obj
 0002:00004f28       ??_C@_0CF@GOGNBNAK@Microsoft?5Visual?5C?$CL?$CL?5Runtime?5Lib@ 0047ef28     LIBCMT:crt0msg.obj
 0002:00004f50       ??_C@_02PHMGELLB@?6?6?$AA@ 0047ef50     LIBCMT:crt0msg.obj
 0002:00004f54       ??_C@_03KHICJKCI@?4?4?4?$AA@ 0047ef54     LIBCMT:crt0msg.obj
 0002:00004f58       ??_C@_0BH@DNAGHKFM@?$DMprogram?5name?5unknown?$DO?$AA@ 0047ef58     LIBCMT:crt0msg.obj
 0002:00004f70       ??_C@_0BK@OFGJDLJJ@Runtime?5Error?$CB?6?6Program?3?5?$AA@ 0047ef70     LIBCMT:crt0msg.obj
 0002:00004f8c       ??_C@_05KLBDPFGC@e?$CL000?$AA@ 0047ef8c     LIBCMT:cvt.obj
 0002:00004f98       __real@3ff0000000000000    0047ef98     LIBCMT:testfdiv.obj
 0002:00004fa0       __real@4150017ec0000000    0047efa0     LIBCMT:testfdiv.obj
 0002:00004fa8       __real@4147ffff80000000    0047efa8     LIBCMT:testfdiv.obj
 0002:00004fb0       ??_C@_0BK@NHEOCAHP@IsProcessorFeaturePresent?$AA@ 0047efb0     LIBCMT:testfdiv.obj
 0002:00004fcc       ??_C@_08CPNIBGIE@KERNEL32?$AA@ 0047efcc     LIBCMT:testfdiv.obj
 0002:00004ffc       ??_C@_0BG@KLEAJEFJ@Illegal?5byte?5sequence?$AA@ 0047effc     LIBCMT:syserr.obj
 0002:00005014       ??_C@_0BE@ICMCHPHH@Directory?5not?5empty?$AA@ 0047f014     LIBCMT:syserr.obj
 0002:00005028       ??_C@_0BJ@IHEHINLI@Function?5not?5implemented?$AA@ 0047f028     LIBCMT:syserr.obj
 0002:00005044       ??_C@_0BD@CLHBCGPB@No?5locks?5available?$AA@ 0047f044     LIBCMT:syserr.obj
 0002:00005058       ??_C@_0BC@BEDIHIDK@Filename?5too?5long?$AA@ 0047f058     LIBCMT:syserr.obj
 0002:0000506c       ??_C@_0BK@JAEBMJJM@Resource?5deadlock?5avoided?$AA@ 0047f06c     LIBCMT:syserr.obj
 0002:00005088       ??_C@_0BB@FCBJFCAJ@Result?5too?5large?$AA@ 0047f088     LIBCMT:syserr.obj
 0002:0000509c       ??_C@_0N@MMJPGLJK@Domain?5error?$AA@ 0047f09c     LIBCMT:syserr.obj
 0002:000050ac       ??_C@_0M@LHEPIIOM@Broken?5pipe?$AA@ 0047f0ac     LIBCMT:syserr.obj
 0002:000050b8       ??_C@_0P@PKCJJLLM@Too?5many?5links?$AA@ 0047f0b8     LIBCMT:syserr.obj
 0002:000050c8       ??_C@_0BG@DDBFNKBH@Read?9only?5file?5system?$AA@ 0047f0c8     LIBCMT:syserr.obj
 0002:000050e0       ??_C@_0N@FEHLOILP@Invalid?5seek?$AA@ 0047f0e0     LIBCMT:syserr.obj
 0002:000050f0       ??_C@_0BI@FEALHKLD@No?5space?5left?5on?5device?$AA@ 0047f0f0     LIBCMT:syserr.obj
 0002:00005108       ??_C@_0P@LFMMIPAE@File?5too?5large?$AA@ 0047f108     LIBCMT:syserr.obj
 0002:00005118       ??_C@_0CE@ONOKNLPF@Inappropriate?5I?1O?5control?5operat@ 0047f118     LIBCMT:syserr.obj
 0002:0000513c       ??_C@_0BE@INBJMKGG@Too?5many?5open?5files?$AA@ 0047f13c     LIBCMT:syserr.obj
 0002:00005150       ??_C@_0BO@IIFBODJE@Too?5many?5open?5files?5in?5system?$AA@ 0047f150     LIBCMT:syserr.obj
 0002:00005170       ??_C@_0BB@HMGGCEBG@Invalid?5argument?$AA@ 0047f170     LIBCMT:syserr.obj
 0002:00005184       ??_C@_0P@NDHGCGKE@Is?5a?5directory?$AA@ 0047f184     LIBCMT:syserr.obj
 0002:00005194       ??_C@_0BA@CJBACOOL@Not?5a?5directory?$AA@ 0047f194     LIBCMT:syserr.obj
 0002:000051a4       ??_C@_0P@NLEIANHE@No?5such?5device?$AA@ 0047f1a4     LIBCMT:syserr.obj
 0002:000051b4       ??_C@_0O@OAMDNOCP@Improper?5link?$AA@ 0047f1b4     LIBCMT:syserr.obj
 0002:000051c4       ??_C@_0M@NAAJNNGH@File?5exists?$AA@ 0047f1c4     LIBCMT:syserr.obj
 0002:000051d0       ??_C@_0BA@BIBLIOEK@Resource?5device?$AA@ 0047f1d0     LIBCMT:syserr.obj
 0002:000051e0       ??_C@_0O@NIPGCINC@Unknown?5error?$AA@ 0047f1e0     LIBCMT:syserr.obj
 0002:000051f0       ??_C@_0M@LOEHLCJD@Bad?5address?$AA@ 0047f1f0     LIBCMT:syserr.obj
 0002:000051fc       ??_C@_0BC@HFNFNKAI@Permission?5denied?$AA@ 0047f1fc     LIBCMT:syserr.obj
 0002:00005210       ??_C@_0BB@IMDKMPFB@Not?5enough?5space?$AA@ 0047f210     LIBCMT:syserr.obj
 0002:00005224       ??_C@_0CB@EPFKGNAK@Resource?5temporarily?5unavailable@ 0047f224     LIBCMT:syserr.obj
 0002:00005248       ??_C@_0BD@LOHELEP@No?5child?5processes?$AA@ 0047f248     LIBCMT:syserr.obj
 0002:0000525c       ??_C@_0BE@NFGDDCEF@Bad?5file?5descriptor?$AA@ 0047f25c     LIBCMT:syserr.obj
 0002:00005270       ??_C@_0BC@HKPNECK@Exec?5format?5error?$AA@ 0047f270     LIBCMT:syserr.obj
 0002:00005284       ??_C@_0BC@MFFGCDFL@Arg?5list?5too?5long?$AA@ 0047f284     LIBCMT:syserr.obj
 0002:00005298       ??_C@_0BK@DPKMCKJ@No?5such?5device?5or?5address?$AA@ 0047f298     LIBCMT:syserr.obj
 0002:000052b4       ??_C@_0BD@KKNFOBBD@Input?1output?5error?$AA@ 0047f2b4     LIBCMT:syserr.obj
 0002:000052c8       ??_C@_0BK@FJBOAFDK@Interrupted?5function?5call?$AA@ 0047f2c8     LIBCMT:syserr.obj
 0002:000052e4       ??_C@_0BA@FKIAIBGA@No?5such?5process?$AA@ 0047f2e4     LIBCMT:syserr.obj
 0002:000052f4       ??_C@_0BK@FMDHKPNF@No?5such?5file?5or?5directory?$AA@ 0047f2f4     LIBCMT:syserr.obj
 0002:00005310       ??_C@_0BI@BJFCGOHL@Operation?5not?5permitted?$AA@ 0047f310     LIBCMT:syserr.obj
 0002:00005328       ??_C@_08INEPGKHH@No?5error?$AA@ 0047f328     LIBCMT:syserr.obj
 0002:00005334       ??_C@_08JCCMCCIL@HH?3mm?3ss?$AA@ 0047f334     LIBCMT:strftime.obj
 0002:00005340       ??_C@_0BE@CKGJFCPC@dddd?0?5MMMM?5dd?0?5yyyy?$AA@ 0047f340     LIBCMT:strftime.obj
 0002:00005354       ??_C@_08BPBNCDIB@MM?1dd?1yy?$AA@ 0047f354     LIBCMT:strftime.obj
 0002:00005360       ??_C@_02CJNFDJBF@PM?$AA@   0047f360     LIBCMT:strftime.obj
 0002:00005364       ??_C@_02DEDBPAFC@AM?$AA@   0047f364     LIBCMT:strftime.obj
 0002:00005368       ??_C@_08EDHMEBNP@December?$AA@ 0047f368     LIBCMT:strftime.obj
 0002:00005374       ??_C@_08HCHEGEOA@November?$AA@ 0047f374     LIBCMT:strftime.obj
 0002:00005380       ??_C@_07JJNFCEND@October?$AA@ 0047f380     LIBCMT:strftime.obj
 0002:00005388       ??_C@_09BHHEALKD@September?$AA@ 0047f388     LIBCMT:strftime.obj
 0002:00005394       ??_C@_06LBBHFDDG@August?$AA@ 0047f394     LIBCMT:strftime.obj
 0002:0000539c       ??_C@_04MIEPOIFP@July?$AA@ 0047f39c     LIBCMT:strftime.obj
 0002:000053a4       ??_C@_04CNLMGBGM@June?$AA@ 0047f3a4     LIBCMT:strftime.obj
 0002:000053ac       ??_C@_05DMJDNLEJ@April?$AA@ 0047f3ac     LIBCMT:strftime.obj
 0002:000053b4       ??_C@_05HPCKOFNC@March?$AA@ 0047f3b4     LIBCMT:strftime.obj
 0002:000053bc       ??_C@_08GNJGEPFN@February?$AA@ 0047f3bc     LIBCMT:strftime.obj
 0002:000053c8       ??_C@_07CGJPFGJA@January?$AA@ 0047f3c8     LIBCMT:strftime.obj
 0002:000053d0       ??_C@_03MKABNOCG@Dec?$AA@  0047f3d0     LIBCMT:strftime.obj
 0002:000053d4       ??_C@_03JPJOFNIA@Nov?$AA@  0047f3d4     LIBCMT:strftime.obj
 0002:000053d8       ??_C@_03BMAOKBAD@Oct?$AA@  0047f3d8     LIBCMT:strftime.obj
 0002:000053dc       ??_C@_03GGCAPAJC@Sep?$AA@  0047f3dc     LIBCMT:strftime.obj
 0002:000053e0       ??_C@_03IFJFEIGA@Aug?$AA@  0047f3e0     LIBCMT:strftime.obj
 0002:000053e4       ??_C@_03LBGABGKK@Jul?$AA@  0047f3e4     LIBCMT:strftime.obj
 0002:000053e8       ??_C@_03IDFGHECI@Jun?$AA@  0047f3e8     LIBCMT:strftime.obj
 0002:000053ec       ??_C@_03CNMDKL@May?$AA@    0047f3ec     LIBCMT:strftime.obj
 0002:000053f0       ??_C@_03LEOLGMJP@Apr?$AA@  0047f3f0     LIBCMT:strftime.obj
 0002:000053f4       ??_C@_03ODNJBKGA@Mar?$AA@  0047f3f4     LIBCMT:strftime.obj
 0002:000053f8       ??_C@_03HJBDCHOM@Feb?$AA@  0047f3f8     LIBCMT:strftime.obj
 0002:000053fc       ??_C@_03JIHJHPIE@Jan?$AA@  0047f3fc     LIBCMT:strftime.obj
 0002:00005400       ??_C@_08INBOOONO@Saturday?$AA@ 0047f400     LIBCMT:strftime.obj
 0002:0000540c       ??_C@_06JECMNKMI@Friday?$AA@ 0047f40c     LIBCMT:strftime.obj
 0002:00005414       ??_C@_08HACCIKIA@Thursday?$AA@ 0047f414     LIBCMT:strftime.obj
 0002:00005420       ??_C@_09DLIGFAKA@Wednesday?$AA@ 0047f420     LIBCMT:strftime.obj
 0002:0000542c       ??_C@_07BAAGCFCM@Tuesday?$AA@ 0047f42c     LIBCMT:strftime.obj
 0002:00005434       ??_C@_06JLEDEDGH@Monday?$AA@ 0047f434     LIBCMT:strftime.obj
 0002:0000543c       ??_C@_06OOPIFAJ@Sunday?$AA@ 0047f43c     LIBCMT:strftime.obj
 0002:00005444       ??_C@_03FEFJNEK@Sat?$AA@   0047f444     LIBCMT:strftime.obj
 0002:00005448       ??_C@_03IDIOELNC@Fri?$AA@  0047f448     LIBCMT:strftime.obj
 0002:0000544c       ??_C@_03IOFIKPDN@Thu?$AA@  0047f44c     LIBCMT:strftime.obj
 0002:00005450       ??_C@_03MHOMLAJA@Wed?$AA@  0047f450     LIBCMT:strftime.obj
 0002:00005454       ??_C@_03NAGEINEP@Tue?$AA@  0047f454     LIBCMT:strftime.obj
 0002:00005458       ??_C@_03PDAGKDH@Mon?$AA@   0047f458     LIBCMT:strftime.obj
 0002:0000545c       ??_C@_03KOEHGMDN@Sun?$AA@  0047f45c     LIBCMT:strftime.obj
 0002:00005460       ??_C@_03EBAPMIKO@a?1p?$AA@ 0047f460     LIBCMT:strftime.obj
 0002:00005464       ??_C@_05JAMEPDIN@am?1pm?$AA@ 0047f464     LIBCMT:strftime.obj
 0002:0000546c       ??_C@_0O@FMJNFNKE@united?9states?$AA@ 0047f46c     LIBCMT:getqloc.obj
 0002:0000547c       ??_C@_0P@NDHFFKCA@united?9kingdom?$AA@ 0047f47c     LIBCMT:getqloc.obj
 0002:0000548c       ??_C@_0BC@HHDADLGF@trinidad?5?$CG?5tobago?$AA@ 0047f48c     LIBCMT:getqloc.obj
 0002:000054a0       ??_C@_0M@IOAEBDAC@south?9korea?$AA@ 0047f4a0     LIBCMT:getqloc.obj
 0002:000054ac       ??_C@_0N@FIELFKIJ@south?9africa?$AA@ 0047f4ac     LIBCMT:getqloc.obj
 0002:000054bc       ??_C@_0M@OPNDHCMC@south?5korea?$AA@ 0047f4bc     LIBCMT:getqloc.obj
 0002:000054c8       ??_C@_0N@MDEOEPFI@south?5africa?$AA@ 0047f4c8     LIBCMT:getqloc.obj
 0002:000054d8       ??_C@_06FKAPCJLB@slovak?$AA@ 0047f4d8     LIBCMT:getqloc.obj
 0002:000054e0       ??_C@_0M@EFJANOAL@puerto?9rico?$AA@ 0047f4e0     LIBCMT:getqloc.obj
 0002:000054ec       ??_C@_08PGOJKDAI@pr?9china?$AA@ 0047f4ec     LIBCMT:getqloc.obj
 0002:000054f8       ??_C@_08JHDOMCMI@pr?5china?$AA@ 0047f4f8     LIBCMT:getqloc.obj
 0002:00005504       ??_C@_02JHCHFBLL@nz?$AA@   0047f504     LIBCMT:getqloc.obj
 0002:00005508       ??_C@_0M@LINHDHKP@new?9zealand?$AA@ 0047f508     LIBCMT:getqloc.obj
 0002:00005514       ??_C@_09IIIPPBDB@hong?9kong?$AA@ 0047f514     LIBCMT:getqloc.obj
 0002:00005520       ??_C@_07HJLCKBG@holland?$AA@ 0047f520     LIBCMT:getqloc.obj
 0002:00005528       ??_C@_0O@LEHGMHAG@great?5britain?$AA@ 0047f528     LIBCMT:getqloc.obj
 0002:00005538       ??_C@_07FACOMELA@england?$AA@ 0047f538     LIBCMT:getqloc.obj
 0002:00005540       ??_C@_05JIHCEICB@czech?$AA@ 0047f540     LIBCMT:getqloc.obj
 0002:00005548       ??_C@_05BBJOBLGB@china?$AA@ 0047f548     LIBCMT:getqloc.obj
 0002:00005550       ??_C@_07GPKPHICP@britain?$AA@ 0047f550     LIBCMT:getqloc.obj
 0002:00005558       ??_C@_07MHIPBHMG@america?$AA@ 0047f558     LIBCMT:getqloc.obj
 0002:00005560       ??_C@_03KIALPMKC@usa?$AA@  0047f560     LIBCMT:getqloc.obj
 0002:00005564       ??_C@_02FGJGKGGD@us?$AA@   0047f564     LIBCMT:getqloc.obj
 0002:00005568       ??_C@_02NEINDODK@uk?$AA@   0047f568     LIBCMT:getqloc.obj
 0002:0000556c       ??_C@_05JMPCFJFJ@swiss?$AA@ 0047f56c     LIBCMT:getqloc.obj
 0002:00005574       ??_C@_0BA@HLOCPIOD@swedish?9finland?$AA@ 0047f574     LIBCMT:getqloc.obj
 0002:00005584       ??_C@_0BC@PKCNIABK@spanish?9venezuela?$AA@ 0047f584     LIBCMT:getqloc.obj
 0002:00005598       ??_C@_0BA@GBHHMIJI@spanish?9uruguay?$AA@ 0047f598     LIBCMT:getqloc.obj
 0002:000055a8       ??_C@_0BE@BHDOHPMC@spanish?9puerto?5rico?$AA@ 0047f5a8     LIBCMT:getqloc.obj
 0002:000055bc       ??_C@_0N@KMOIDGGN@spanish?9peru?$AA@ 0047f5bc     LIBCMT:getqloc.obj
 0002:000055cc       ??_C@_0BB@HMHLPGPH@spanish?9paraguay?$AA@ 0047f5cc     LIBCMT:getqloc.obj
 0002:000055e0       ??_C@_0P@MCPKNGFD@spanish?9panama?$AA@ 0047f5e0     LIBCMT:getqloc.obj
 0002:000055f0       ??_C@_0BC@IHOHGAIL@spanish?9nicaragua?$AA@ 0047f5f0     LIBCMT:getqloc.obj
 0002:00005604       ??_C@_0P@KLMJDNFJ@spanish?9modern?$AA@ 0047f604     LIBCMT:getqloc.obj
 0002:00005614       ??_C@_0BA@BPAPGBCM@spanish?9mexican?$AA@ 0047f614     LIBCMT:getqloc.obj
 0002:00005624       ??_C@_0BB@PDECHHHE@spanish?9honduras?$AA@ 0047f624     LIBCMT:getqloc.obj
 0002:00005638       ??_C@_0BC@KLHKFGDB@spanish?9guatemala?$AA@ 0047f638     LIBCMT:getqloc.obj
 0002:0000564c       ??_C@_0BE@MFOOKJAI@spanish?9el?5salvador?$AA@ 0047f64c     LIBCMT:getqloc.obj
 0002:00005660       ??_C@_0BA@FCOKFPFC@spanish?9ecuador?$AA@ 0047f660     LIBCMT:getqloc.obj
 0002:00005670       ??_C@_0BL@PLMGIMOO@spanish?9dominican?5republic?$AA@ 0047f670     LIBCMT:getqloc.obj
 0002:0000568c       ??_C@_0BD@HLGDNMHB@spanish?9costa?5rica?$AA@ 0047f68c     LIBCMT:getqloc.obj
 0002:000056a0       ??_C@_0BB@PKCBKCPE@spanish?9colombia?$AA@ 0047f6a0     LIBCMT:getqloc.obj
 0002:000056b4       ??_C@_0O@MCBIJGNE@spanish?9chile?$AA@ 0047f6b4     LIBCMT:getqloc.obj
 0002:000056c4       ??_C@_0BA@BEFEIGJJ@spanish?9bolivia?$AA@ 0047f6c4     LIBCMT:getqloc.obj
 0002:000056d4       ??_C@_0BC@EMECMPD@spanish?9argentina?$AA@ 0047f6d4     LIBCMT:getqloc.obj
 0002:000056e8       ??_C@_0BF@EALFLENP@portuguese?9brazilian?$AA@ 0047f6e8     LIBCMT:getqloc.obj
 0002:00005700       ??_C@_0BC@HBLEBLNN@norwegian?9nynorsk?$AA@ 0047f700     LIBCMT:getqloc.obj
 0002:00005714       ??_C@_0BB@HMACDDCK@norwegian?9bokmal?$AA@ 0047f714     LIBCMT:getqloc.obj
 0002:00005728       ??_C@_09BAFFPPHE@norwegian?$AA@ 0047f728     LIBCMT:getqloc.obj
 0002:00005734       ??_C@_0O@EAJFJDFG@italian?9swiss?$AA@ 0047f734     LIBCMT:getqloc.obj
 0002:00005744       ??_C@_0O@CNOMPGD@irish?9english?$AA@ 0047f744     LIBCMT:getqloc.obj
 0002:00005754       ??_C@_0N@EDHBGCKG@german?9swiss?$AA@ 0047f754     LIBCMT:getqloc.obj
 0002:00005764       ??_C@_0BC@JACMHNBP@german?9luxembourg?$AA@ 0047f764     LIBCMT:getqloc.obj
 0002:00005778       ??_C@_0BE@HBGMGFEG@german?9lichtenstein?$AA@ 0047f778     LIBCMT:getqloc.obj
 0002:0000578c       ??_C@_0BA@HKKBIBKL@german?9austrian?$AA@ 0047f78c     LIBCMT:getqloc.obj
 0002:0000579c       ??_C@_0N@GCAEPEBK@french?9swiss?$AA@ 0047f79c     LIBCMT:getqloc.obj
 0002:000057ac       ??_C@_0BC@DJFJJCK@french?9luxembourg?$AA@ 0047f7ac     LIBCMT:getqloc.obj
 0002:000057c0       ??_C@_0BA@NNCEDFIC@french?9canadian?$AA@ 0047f7c0     LIBCMT:getqloc.obj
 0002:000057d0       ??_C@_0P@CMPOCLM@french?9belgian?$AA@ 0047f7d0     LIBCMT:getqloc.obj
 0002:000057e0       ??_C@_0M@GHHDJOK@english?9usa?$AA@ 0047f7e0     LIBCMT:getqloc.obj
 0002:000057ec       ??_C@_0L@PLDJKEIL@english?9us?$AA@ 0047f7ec     LIBCMT:getqloc.obj
 0002:000057f8       ??_C@_0L@HJCCDMNC@english?9uk?$AA@ 0047f7f8     LIBCMT:getqloc.obj
 0002:00005804       ??_C@_0BK@CKLIAGJB@english?9trinidad?5y?5tobago?$AA@ 0047f804     LIBCMT:getqloc.obj
 0002:00005820       ??_C@_0BF@JMJMGNNF@english?9south?5africa?$AA@ 0047f820     LIBCMT:getqloc.obj
 0002:00005838       ??_C@_0L@DKIIFDFD@english?9nz?$AA@ 0047f838     LIBCMT:getqloc.obj
 0002:00005844       ??_C@_0BA@ONHGJCLH@english?9jamaica?$AA@ 0047f844     LIBCMT:getqloc.obj
 0002:00005854       ??_C@_0M@HJBGHOPO@english?9ire?$AA@ 0047f854     LIBCMT:getqloc.obj
 0002:00005860       ??_C@_0BC@LFEKMIFB@english?9caribbean?$AA@ 0047f860     LIBCMT:getqloc.obj
 0002:00005874       ??_C@_0M@OLDPFKHI@english?9can?$AA@ 0047f874     LIBCMT:getqloc.obj
 0002:00005880       ??_C@_0P@OMDEHBMP@english?9belize?$AA@ 0047f880     LIBCMT:getqloc.obj
 0002:00005890       ??_C@_0M@KFHFPFED@english?9aus?$AA@ 0047f890     LIBCMT:getqloc.obj
 0002:0000589c       ??_C@_0BB@MNMBKDFE@english?9american?$AA@ 0047f89c     LIBCMT:getqloc.obj
 0002:000058b0       ??_C@_0O@KIDLNNBA@dutch?9belgian?$AA@ 0047f8b0     LIBCMT:getqloc.obj
 0002:000058c0       ??_C@_0BE@JBKABBMH@chinese?9traditional?$AA@ 0047f8c0     LIBCMT:getqloc.obj
 0002:000058d4       ??_C@_0BC@MJJMPKCG@chinese?9singapore?$AA@ 0047f8d4     LIBCMT:getqloc.obj
 0002:000058e8       ??_C@_0BD@FDKADDCP@chinese?9simplified?$AA@ 0047f8e8     LIBCMT:getqloc.obj
 0002:000058fc       ??_C@_0BB@DBEFDDME@chinese?9hongkong?$AA@ 0047f8fc     LIBCMT:getqloc.obj
 0002:00005910       ??_C@_07DHNMFMCI@chinese?$AA@ 0047f910     LIBCMT:getqloc.obj
 0002:00005918       ??_C@_03FNDDCHI@chi?$AA@   0047f918     LIBCMT:getqloc.obj
 0002:0000591c       ??_C@_03BMMIADDJ@chh?$AA@  0047f91c     LIBCMT:getqloc.obj
 0002:00005920       ??_C@_08OAIPJDGI@canadian?$AA@ 0047f920     LIBCMT:getqloc.obj
 0002:0000592c       ??_C@_07HBPMNPNJ@belgian?$AA@ 0047f92c     LIBCMT:getqloc.obj
 0002:00005934       ??_C@_0L@OEKOPBEL@australian?$AA@ 0047f934     LIBCMT:getqloc.obj
 0002:00005940       ??_C@_0BB@MEIMBEDG@american?9english?$AA@ 0047f940     LIBCMT:getqloc.obj
 0002:00005954       ??_C@_0BB@DFMDPDGB@american?5english?$AA@ 0047f954     LIBCMT:getqloc.obj
 0002:00005968       ??_C@_08IJLOKOLL@american?$AA@ 0047f968     LIBCMT:getqloc.obj
 0002:00005978       ___rg_language             0047f978     LIBCMT:getqloc.obj
 0002:00005b80       ___rg_country              0047fb80     LIBCMT:getqloc.obj
 0002:00005c38       ___rglangidNotDefault      0047fc38     LIBCMT:getqloc.obj
 0002:00005c4c       ??_C@_03NFKLAGEF@OCP?$AA@  0047fc4c     LIBCMT:getqloc.obj
 0002:00005c50       ??_C@_03DFHEHBHG@ACP?$AA@  0047fc50     LIBCMT:getqloc.obj
 0002:00005c54       ??_C@_0BC@NFIEMBLL@Norwegian?9Nynorsk?$AA@ 0047fc54     LIBCMT:getqloc.obj
 0002:00005ca4       ??_C@_0BC@JEAENNKH@SystemFunction036?$AA@ 0047fca4     LIBCMT:rand_s.obj
 0002:00005cb8       ??_C@_0N@JJPEKNFO@ADVAPI32?4DLL?$AA@ 0047fcb8     LIBCMT:rand_s.obj
 0002:00005cc8       ??_C@_0CG@PKBDLMEO@InitializeCriticalSectionAndSpin@ 0047fcc8     LIBCMT:initcrit.obj
 0002:00005cf0       ??_C@_0N@MDJJJHMB@kernel32?4dll?$AA@ 0047fcf0     LIBCMT:initcrit.obj
 0002:00005d00       ___lookuptable_s           0047fd00     LIBCMT:outputs.obj
 0002:00005d5c       ??_C@_0BK@CFCOFLF@?5Complete?5Object?5Locator?8?$AA@ 0047fd5c     LIBCMT:undname.obj
 0002:00005d78       ??_C@_0BN@MECKDCOJ@?5Class?5Hierarchy?5Descriptor?8?$AA@ 0047fd78     LIBCMT:undname.obj
 0002:00005d98       ??_C@_0BD@LGICGFMM@?5Base?5Class?5Array?8?$AA@ 0047fd98     LIBCMT:undname.obj
 0002:00005dac       ??_C@_0BM@LDKODKLH@?5Base?5Class?5Descriptor?5at?5?$CI?$AA@ 0047fdac     LIBCMT:undname.obj
 0002:00005dc8       ??_C@_0BC@DAFEJGAK@?5Type?5Descriptor?8?$AA@ 0047fdc8     LIBCMT:undname.obj
 0002:00005ddc       ??_C@_0BM@PMGGMLDN@?$GAlocal?5static?5thread?5guard?8?$AA@ 0047fddc     LIBCMT:undname.obj
 0002:00005df8       ??_C@_0CL@FGIJHLCE@?$GAmanaged?5vector?5copy?5constructor@ 0047fdf8     LIBCMT:undname.obj
 0002:00005e24       ??_C@_0CJ@GJELGAMM@?$GAvector?5vbase?5copy?5constructor?5i@ 0047fe24     LIBCMT:undname.obj
 0002:00005e50       ??_C@_0CD@CGAJBKEJ@?$GAvector?5copy?5constructor?5iterato@ 0047fe50     LIBCMT:undname.obj
 0002:00005e74       ??_C@_0CB@PDBIFEP@?$GAdynamic?5atexit?5destructor?5for?5?8@ 0047fe74     LIBCMT:undname.obj
 0002:00005e98       ??_C@_0BL@CLIPGLGB@?$GAdynamic?5initializer?5for?5?8?$AA@ 0047fe98     LIBCMT:undname.obj
 0002:00005eb4       ??_C@_0CM@FCBBDIGB@?$GAeh?5vector?5vbase?5copy?5constructo@ 0047feb4     LIBCMT:undname.obj
 0002:00005ee0       ??_C@_0CG@HLDDJMAG@?$GAeh?5vector?5copy?5constructor?5iter@ 0047fee0     LIBCMT:undname.obj
 0002:00005f08       ??_C@_0CF@IMGKMJNO@?$GAmanaged?5vector?5destructor?5itera@ 0047ff08     LIBCMT:undname.obj
 0002:00005f30       ??_C@_0CG@CFDHKGGD@?$GAmanaged?5vector?5constructor?5iter@ 0047ff30     LIBCMT:undname.obj
 0002:00005f58       ??_C@_0BN@CKNJLHMB@?$GAplacement?5delete?$FL?$FN?5closure?8?$AA@ 0047ff58     LIBCMT:undname.obj
 0002:00005f78       ??_C@_0BL@CNOONJFP@?$GAplacement?5delete?5closure?8?$AA@ 0047ff78     LIBCMT:undname.obj
 0002:00005f94       ??_C@_0P@HJKNJFNN@?$GAomni?5callsig?8?$AA@ 0047ff94     LIBCMT:undname.obj
 0002:00005fa4       ??_C@_09LBNFPBCA@?5delete?$FL?$FN?$AA@ 0047ffa4     LIBCMT:undname.obj
 0002:00005fb0       ??_C@_06FHBGPFGH@?5new?$FL?$FN?$AA@ 0047ffb0     LIBCMT:undname.obj
 0002:00005fb8       ??_C@_0CE@IIHCMGGL@?$GAlocal?5vftable?5constructor?5closu@ 0047ffb8     LIBCMT:undname.obj
 0002:00005fdc       ??_C@_0BA@KKLDJDLB@?$GAlocal?5vftable?8?$AA@ 0047ffdc     LIBCMT:undname.obj
 0002:00005fec       ??_C@_05KHLCHHI@?$GARTTI?$AA@ 0047ffec     LIBCMT:undname.obj
 0002:00005ff4       ??_C@_03KLGMFNMG@?$GAEH?$AA@ 0047fff4     LIBCMT:undname.obj
 0002:00005ff8       ??_C@_0BA@KBCDOMBN@?$GAudt?5returning?8?$AA@ 0047fff8     LIBCMT:undname.obj
 0002:00006008       ??_C@_0BL@LLKPOHJI@?$GAcopy?5constructor?5closure?8?$AA@ 00480008     LIBCMT:undname.obj
 0002:00006024       ??_C@_0CH@OOJPLCPH@?$GAeh?5vector?5vbase?5constructor?5ite@ 00480024     LIBCMT:undname.obj
 0002:0000604c       ??_C@_0CA@GCEOPDGL@?$GAeh?5vector?5destructor?5iterator?8?$AA@ 0048004c     LIBCMT:undname.obj
 0002:0000606c       ??_C@_0CB@JONCMFFK@?$GAeh?5vector?5constructor?5iterator?8@ 0048006c     LIBCMT:undname.obj
 0002:00006090       ??_C@_0BL@NILFHHPC@?$GAvirtual?5displacement?5map?8?$AA@ 00480090     LIBCMT:undname.obj
 0002:000060ac       ??_C@_0CE@IKBNEHA@?$GAvector?5vbase?5constructor?5iterat@ 004800ac     LIBCMT:undname.obj
 0002:000060d0       ??_C@_0BN@LFPFMEDL@?$GAvector?5destructor?5iterator?8?$AA@ 004800d0     LIBCMT:undname.obj
 0002:000060f0       ??_C@_0BO@PFGOCPJJ@?$GAvector?5constructor?5iterator?8?$AA@ 004800f0     LIBCMT:undname.obj
 0002:00006110       ??_C@_0BN@IMDCHIKM@?$GAscalar?5deleting?5destructor?8?$AA@ 00480110     LIBCMT:undname.obj
 0002:00006130       ??_C@_0BO@OBMKPJIG@?$GAdefault?5constructor?5closure?8?$AA@ 00480130     LIBCMT:undname.obj
 0002:00006150       ??_C@_0BN@DEGPLNFK@?$GAvector?5deleting?5destructor?8?$AA@ 00480150     LIBCMT:undname.obj
 0002:00006170       ??_C@_0BD@JDLKDPAB@?$GAvbase?5destructor?8?$AA@ 00480170     LIBCMT:undname.obj
 0002:00006184       ??_C@_08OBABFOLI@?$GAstring?8?$AA@ 00480184     LIBCMT:undname.obj
 0002:00006190       ??_C@_0BF@KDPPACIK@?$GAlocal?5static?5guard?8?$AA@ 00480190     LIBCMT:undname.obj
 0002:000061a8       ??_C@_08LLFFHHDJ@?$GAtypeof?8?$AA@ 004801a8     LIBCMT:undname.obj
 0002:000061b4       ??_C@_07FEEIOKP@?$GAvcall?8?$AA@ 004801b4     LIBCMT:undname.obj
 0002:000061bc       ??_C@_09BLBHBJP@?$GAvbtable?8?$AA@ 004801bc     LIBCMT:undname.obj
 0002:000061c8       ??_C@_09IFPLHPGF@?$GAvftable?8?$AA@ 004801c8     LIBCMT:undname.obj
 0002:000061d4       ??_C@_02MHEGNOJ@?$FO?$DN?$AA@ 004801d4     LIBCMT:undname.obj
 0002:000061d8       ??_C@_02DHLNPPGH@?$HM?$DN?$AA@ 004801d8     LIBCMT:undname.obj
 0002:000061dc       ??_C@_02FGJGFEAB@?$CG?$DN?$AA@ 004801dc     LIBCMT:undname.obj
 0002:000061e0       ??_C@_03CDNPDDLA@?$DM?$DM?$DN?$AA@ 004801e0     LIBCMT:undname.obj
 0002:000061e4       ??_C@_03IKFCCPFF@?$DO?$DO?$DN?$AA@ 004801e4     LIBCMT:undname.obj
 0002:000061e8       ??_C@_02FENAOKFI@?$CF?$DN?$AA@ 004801e8     LIBCMT:undname.obj
 0002:000061ec       ??_C@_02FJEHGPIO@?1?$DN?$AA@ 004801ec     LIBCMT:undname.obj
 0002:000061f0       ??_C@_02FKMDLLOA@?9?$DN?$AA@ 004801f0     LIBCMT:undname.obj
 0002:000061f4       ??_C@_02FOEOMHFC@?$CL?$DN?$AA@ 004801f4     LIBCMT:undname.obj
 0002:000061f8       ??_C@_02FPIMKNGF@?$CK?$DN?$AA@ 004801f8     LIBCMT:undname.obj
 0002:000061fc       ??_C@_02NONPIBCD@?$HM?$HM?$AA@ 004801fc     LIBCMT:undname.obj
 0002:00006200       ??_C@_02PPKAJPJL@?$CG?$CG?$AA@ 00480200     LIBCMT:undname.obj
 0002:00006204       ??_C@_01DNKMNLPK@?$HM?$AA@ 00480204     LIBCMT:undname.obj
 0002:00006208       ??_C@_01JKBOJNNK@?$FO?$AA@ 00480208     LIBCMT:undname.obj
 0002:0000620c       ??_C@_01PJKLJHI@?$HO?$AA@  0048020c     LIBCMT:undname.obj
 0002:00006210       ??_C@_02HCKGKOFO@?$CI?$CJ?$AA@ 00480210     LIBCMT:undname.obj
 0002:00006214       ??_C@_01IHBHIGKO@?0?$AA@   00480214     LIBCMT:undname.obj
 0002:00006218       ??_C@_02EEKDKGMJ@?$DO?$DN?$AA@ 00480218     LIBCMT:undname.obj
 0002:0000621c       ??_C@_01PPODPGHN@?$DO?$AA@ 0048021c     LIBCMT:undname.obj
 0002:00006220       ??_C@_02EHCHHCKH@?$DM?$DN?$AA@ 00480220     LIBCMT:undname.obj
 0002:00006224       ??_C@_01MNNFJEPP@?$DM?$AA@ 00480224     LIBCMT:undname.obj
 0002:00006228       ??_C@_01FGNFDNOH@?$CF?$AA@ 00480228     LIBCMT:undname.obj
 0002:0000622c       ??_C@_01KMDKNFGN@?1?$AA@   0048022c     LIBCMT:undname.obj
 0002:00006230       ??_C@_03MNHNFDLC@?9?$DO?$CK?$AA@ 00480230     LIBCMT:undname.obj
 0002:00006234       ??_C@_01HNPIGOCE@?$CG?$AA@ 00480234     LIBCMT:undname.obj
 0002:00006238       ??_C@_01MIFGBAGJ@?$CL?$AA@ 00480238     LIBCMT:undname.obj
 0002:0000623c       ??_C@_01JOAMLHOP@?9?$AA@   0048023c     LIBCMT:undname.obj
 0002:00006240       ??_C@_02BAABKJLB@?9?9?$AA@ 00480240     LIBCMT:undname.obj
 0002:00006244       ??_C@_02ECNGHCIF@?$CL?$CL?$AA@ 00480244     LIBCMT:undname.obj
 0002:00006248       ??_C@_02HBOOOICD@?9?$DO?$AA@ 00480248     LIBCMT:undname.obj
 0002:0000624c       ??_C@_08LHJFAFGD@operator?$AA@ 0048024c     LIBCMT:undname.obj
 0002:00006258       ??_C@_02GPECMEKF@?$FL?$FN?$AA@ 00480258     LIBCMT:undname.obj
 0002:0000625c       ??_C@_02FDNJECIE@?$CB?$DN?$AA@ 0048025c     LIBCMT:undname.obj
 0002:00006260       ??_C@_02EGOFBIJA@?$DN?$DN?$AA@ 00480260     LIBCMT:undname.obj
 0002:00006264       ??_C@_01DCLJPIOD@?$CB?$AA@ 00480264     LIBCMT:undname.obj
 0002:00006268       ??_C@_02FODMEDOG@?$DM?$DM?$AA@ 00480268     LIBCMT:undname.obj
 0002:0000626c       ??_C@_02GPIOPFAK@?$DO?$DO?$AA@ 0048026c     LIBCMT:undname.obj
 0002:00006270       ??_C@_07FPCDHGMM@?5delete?$AA@ 00480270     LIBCMT:undname.obj
 0002:00006278       ??_C@_04NIHEBCM@?5new?$AA@ 00480278     LIBCMT:undname.obj
 0002:00006280       ??_C@_0M@GFIIJFMG@__unaligned?$AA@ 00480280     LIBCMT:undname.obj
 0002:0000628c       ??_C@_0L@PILCLIHE@__restrict?$AA@ 0048028c     LIBCMT:undname.obj
 0002:00006298       ??_C@_07JOMMBBKO@__ptr64?$AA@ 00480298     LIBCMT:undname.obj
 0002:000062a0       ??_C@_09HIJEGCPM@__clrcall?$AA@ 004802a0     LIBCMT:undname.obj
 0002:000062ac       ??_C@_0L@JMKHOMEK@__fastcall?$AA@ 004802ac     LIBCMT:undname.obj
 0002:000062b8       ??_C@_0L@NPHFGOKO@__thiscall?$AA@ 004802b8     LIBCMT:undname.obj
 0002:000062c4       ??_C@_09IFJBGAPI@__stdcall?$AA@ 004802c4     LIBCMT:undname.obj
 0002:000062d0       ??_C@_08GHMPAG@__pascal?$AA@ 004802d0     LIBCMT:undname.obj
 0002:000062dc       ??_C@_07KOLFKCDI@__cdecl?$AA@ 004802dc     LIBCMT:undname.obj
 0002:000062e4       ??_C@_08EHJDFFNH@__based?$CI?$AA@ 004802e4     LIBCMT:undname.obj
 0002:00006474       ??_7DNameNode@@6B@         00480474     LIBCMT:undname.obj
 0002:00006484       ??_7charNode@@6B@          00480484     LIBCMT:undname.obj
 0002:00006494       ??_7pDNameNode@@6B@        00480494     LIBCMT:undname.obj
 0002:000064a4       ??_7DNameStatusNode@@6B@   004804a4     LIBCMT:undname.obj
 0002:000064b4       ??_7pcharNode@@6B@         004804b4     LIBCMT:undname.obj
 0002:000064c0       ??_C@_04OKOHEJBO@?5?$DP?$DP?5?$AA@ 004804c0     LIBCMT:undname.obj
 0002:000064c8       ??_C@_06EEGAIFAK@?$HLflat?$HN?$AA@ 004804c8     LIBCMT:undname.obj
 0002:000064d0       ??_C@_05JIBOFOHK@?$HLfor?5?$AA@ 004804d0     LIBCMT:undname.obj
 0002:000064d8       ??_C@_0BN@IBLMMFAP@?$GAnon?9type?9template?9parameter?$AA@ 004804d8     LIBCMT:undname.obj
 0002:000064f8       ??_C@_09EBBEKKIH@unsigned?5?$AA@ 004804f8     LIBCMT:undname.obj
 0002:00006504       ??_C@_05CJIMAING@long?5?$AA@ 00480504     LIBCMT:undname.obj
 0002:0000650c       ??_C@_04LAHKHJMA@int?5?$AA@ 0048050c     LIBCMT:undname.obj
 0002:00006514       ??_C@_06EHJMALKF@short?5?$AA@ 00480514     LIBCMT:undname.obj
 0002:0000651c       ??_C@_05CIHEBHNO@char?5?$AA@ 0048051c     LIBCMT:undname.obj
 0002:00006524       ??_C@_04GKJNKENE@void?$AA@ 00480524     LIBCMT:undname.obj
 0002:0000652c       ??_C@_0L@EGPHHEKN@?$DMellipsis?$DO?$AA@ 0048052c     LIBCMT:undname.obj
 0002:00006538       ??_C@_0M@ELJOJFFH@?0?$DMellipsis?$DO?$AA@ 00480538     LIBCMT:undname.obj
 0002:00006544       ??_C@_04EENFHACM@?0?4?4?4?$AA@ 00480544     LIBCMT:undname.obj
 0002:0000654c       ??_C@_07HDJPLPEK@?5throw?$CI?$AA@ 0048054c     LIBCMT:undname.obj
 0002:00006554       ??_C@_02GOGNNPBN@?$CJ?$FL?$AA@ 00480554     LIBCMT:undname.obj
 0002:00006558       ??_C@_02MDINNEEG@s?5?$AA@  00480558     LIBCMT:undname.obj
 0002:0000655c       ??_C@_0BE@EODMJLIF@?$GAtemplate?9parameter?$AA@ 0048055c     LIBCMT:undname.obj
 0002:00006570       ??_C@_01GEODFPGF@?8?$AA@   00480570     LIBCMT:undname.obj
 0002:00006574       ??_C@_04HIBGFPH@NULL?$AA@  00480574     LIBCMT:undname.obj
 0002:0000657c       ??_C@_0O@GKABPPIF@cli?3?3pin_ptr?$DM?$AA@ 0048057c     LIBCMT:undname.obj
 0002:0000658c       ??_C@_0M@EALIELKG@cli?3?3array?$DM?$AA@ 0048058c     LIBCMT:undname.obj
 0002:00006598       ??_C@_05BEFAKPML@void?5?$AA@ 00480598     LIBCMT:undname.obj
 0002:000065a0       ??_C@_02OHHJMEON@?8?8?$AA@ 004805a0     LIBCMT:undname.obj
 0002:000065a4       ??_C@_0BG@JNJLAMPM@?$GAanonymous?5namespace?8?$AA@ 004805a4     LIBCMT:undname.obj
 0002:000065bc       ??_C@_01NLNLIGKH@?$GA?$AA@ 004805bc     LIBCMT:undname.obj
 0002:000065c0       ??_C@_0O@KHGCOMHP@generic?9type?9?$AA@ 004805c0     LIBCMT:undname.obj
 0002:000065d0       ??_C@_0BE@JAEOCHPE@template?9parameter?9?$AA@ 004805d0     LIBCMT:undname.obj
 0002:000065e4       ??_C@_02MOLJINC@?3?3?$AA@  004805e4     LIBCMT:undname.obj
 0002:000065e8       ??_C@_0P@GCIFDJCJ@?$GAunknown?5ecsu?8?$AA@ 004805e8     LIBCMT:undname.obj
 0002:000065f8       ??_C@_06MOJHIBMG@union?5?$AA@ 004805f8     LIBCMT:undname.obj
 0002:00006600       ??_C@_07DIBCDNGL@struct?5?$AA@ 00480600     LIBCMT:undname.obj
 0002:00006608       ??_C@_06LJBABKPM@class?5?$AA@ 00480608     LIBCMT:undname.obj
 0002:00006610       ??_C@_05LJGMCFOG@enum?5?$AA@ 00480610     LIBCMT:undname.obj
 0002:00006618       ??_C@_08KOFANOFK@coclass?5?$AA@ 00480618     LIBCMT:undname.obj
 0002:00006624       ??_C@_0N@DLIEFKNA@cointerface?5?$AA@ 00480624     LIBCMT:undname.obj
 0002:00006634       ??_C@_0M@DHNBOJMP@extern?5?$CCC?$CC?5?$AA@ 00480634     LIBCMT:undname.obj
 0002:00006640       ??_C@_08KJLFOPNE@?$FLthunk?$FN?3?$AA@ 00480640     LIBCMT:undname.obj
 0002:0000664c       ??_C@_08GPDDCMKI@public?3?5?$AA@ 0048064c     LIBCMT:undname.obj
 0002:00006658       ??_C@_0M@GAIFPFIP@protected?3?5?$AA@ 00480658     LIBCMT:undname.obj
 0002:00006664       ??_C@_09LAPHOOG@private?3?5?$AA@ 00480664     LIBCMT:undname.obj
 0002:00006670       ??_C@_08NIEOINHE@virtual?5?$AA@ 00480670     LIBCMT:undname.obj
 0002:0000667c       ??_C@_07PGOEDBHP@static?5?$AA@ 0048067c     LIBCMT:undname.obj
 0002:00006684       ??_C@_0DA@HGFJFBBE@?$GAtemplate?5static?5data?5member?5des@ 00480684     LIBCMT:undname.obj
 0002:000066b4       ??_C@_0DB@ILEFOCIJ@?$GAtemplate?5static?5data?5member?5con@ 004806b4     LIBCMT:undname.obj
 0002:000066e8       ??_C@_0CB@KJDOOODE@?$GAlocal?5static?5destructor?5helper?8@ 004806e8     LIBCMT:undname.obj
 0002:0000670c       ??_C@_0L@HNGCOGAE@?$GAadjustor?$HL?$AA@ 0048070c     LIBCMT:undname.obj
 0002:00006718       ??_C@_0L@GHPFDFH@?$GAvtordisp?$HL?$AA@ 00480718     LIBCMT:undname.obj
 0002:00006724       ??_C@_0N@CBHHHENL@?$GAvtordispex?$HL?$AA@ 00480724     LIBCMT:undname.obj
 0002:00006734       ??_C@_02IGFCGPIL@?$HN?8?$AA@ 00480734     LIBCMT:undname.obj
 0002:00006738       ??_C@_03OPGICMGF@?$HN?8?5?$AA@ 00480738     LIBCMT:undname.obj
 0002:0000673c       ??_C@_06LIJLOJAG@const?5?$AA@ 0048073c     LIBCMT:undname.obj
 0002:00006744       ??_C@_09GAIEOBLP@volatile?5?$AA@ 00480744     LIBCMT:undname.obj
 0002:00006750       ??_C@_04HEJADOOB@CV?3?5?$AA@ 00480750     LIBCMT:undname.obj
 0002:00006758       ??_C@_08PABEKFH@volatile?$AA@ 00480758     LIBCMT:undname.obj
 0002:00006764       ??_C@_09EFNPDFFP@?5volatile?$AA@ 00480764     LIBCMT:undname.obj
 0002:00006770       ??_C@_05BNCCCJPP@const?$AA@ 00480770     LIBCMT:undname.obj
 0002:00006778       ??_C@_07EDHNAJHC@signed?5?$AA@ 00480778     LIBCMT:undname.obj
 0002:00006780       ??_C@_06BNJCAIGJ@double?$AA@ 00480780     LIBCMT:undname.obj
 0002:00006788       ??_C@_04DDKJGDCM@bool?$AA@ 00480788     LIBCMT:undname.obj
 0002:00006790       ??_C@_07CLGGIAMF@wchar_t?$AA@ 00480790     LIBCMT:undname.obj
 0002:00006798       ??_C@_07NFANNNEC@UNKNOWN?$AA@ 00480798     LIBCMT:undname.obj
 0002:000067a0       ??_C@_08GAHOLHEO@__int128?$AA@ 004807a0     LIBCMT:undname.obj
 0002:000067ac       ??_C@_07OFLPPHGP@__int32?$AA@ 004807ac     LIBCMT:undname.obj
 0002:000067b4       ??_C@_07LFCOJCAC@__int64?$AA@ 004807b4     LIBCMT:undname.obj
 0002:000067bc       ??_C@_07ICFHOGAF@__int16?$AA@ 004807bc     LIBCMT:undname.obj
 0002:000067c4       ??_C@_06GCICPBLB@__w64?5?$AA@ 004807c4     LIBCMT:undname.obj
 0002:000067cc       ??_C@_06EBGKOKIG@__int8?$AA@ 004807cc     LIBCMT:undname.obj
 0002:000067d4       ??_C@_05KNFBNCOH@float?$AA@ 004807d4     LIBCMT:undname.obj
 0002:000067dc       ??_C@_04GOKPGOLB@long?$AA@ 004807dc     LIBCMT:undname.obj
 0002:000067e4       ??_C@_03JBIPMCLC@int?$AA@  004807e4     LIBCMT:undname.obj
 0002:000067e8       ??_C@_05BFKKPKCG@short?$AA@ 004807e8     LIBCMT:undname.obj
 0002:000067f0       ??_C@_04ENMBGAPA@char?$AA@ 004807f0     LIBCMT:undname.obj
 0002:000067f8       ??_C@_0BI@DFKBFLJE@GetProcessWindowStation?$AA@ 004807f8     LIBCMT:crtmbox.obj
 0002:00006810       ??_C@_0BK@CIDNPOGP@GetUserObjectInformationA?$AA@ 00480810     LIBCMT:crtmbox.obj
 0002:0000682c       ??_C@_0BD@HHGDFDBJ@GetLastActivePopup?$AA@ 0048082c     LIBCMT:crtmbox.obj
 0002:00006840       ??_C@_0BA@HNOPNCHB@GetActiveWindow?$AA@ 00480840     LIBCMT:crtmbox.obj
 0002:00006850       ??_C@_0M@CHKKJDAI@MessageBoxA?$AA@ 00480850     LIBCMT:crtmbox.obj
 0002:0000685c       ??_C@_0L@NDEGIDAG@USER32?4DLL?$AA@ 0048085c     LIBCMT:crtmbox.obj
 0002:00006868       ___dnames                  00480868     LIBCMT:timeset.obj
 0002:00006880       ___mnames                  00480880     LIBCMT:timeset.obj
 0002:000068a8       ??_C@_02CLFPBFFP@TZ?$AA@   004808a8     LIBCMT:tzset.obj
 0002:000068ac       ??_C@_06IMKFLFPG@1?$CDQNAN?$AA@ 004808ac     LIBCMT:x10fout.obj
 0002:000068b4       ??_C@_05DNEBIAHO@1?$CDINF?$AA@ 004808b4     LIBCMT:x10fout.obj
 0002:000068bc       ??_C@_05PHHOCPM@1?$CDIND?$AA@ 004808bc     LIBCMT:x10fout.obj
 0002:000068c4       ??_C@_06PGGFOGJG@1?$CDSNAN?$AA@ 004808c4     LIBCMT:x10fout.obj
 0002:000068cc       ??_C@_06GDENEHCP@CONIN$?$AA@ 004808cc     LIBCMT:initcon.obj
 0002:000068d4       ??_C@_07GPDNMNG@CONOUT$?$AA@ 004808d4     LIBCMT:initcon.obj
 0002:000068e0       __load_config_used         004808e0     LIBCMT:loadcfg.obj
 0002:000079e0       ??_R4DICOMDataObject@@6B@  004819e0     dicomp.obj
 0002:000079f8       ??_R3DICOMDataObject@@8    004819f8     dicomp.obj
 0002:00007a0c       ??_R2DICOMDataObject@@8    00481a0c     dicomp.obj
 0002:00007a20       ??_R1A@?0A@EA@DICOMDataObject@@8 00481a20     dicomp.obj
 0002:00007a44       ??_R1A@?0A@EA@DICOMObject@@8 00481a44     dicomp.obj
 0002:00007a68       ??_R3DICOMObject@@8        00481a68     dicomp.obj
 0002:00007a7c       ??_R2DICOMObject@@8        00481a7c     dicomp.obj
 0002:00007a8c       ??_R1A@?0A@EA@?$PQueueOfPtr@PAVVRGroupPQueue@@@@8 00481a8c     dicomp.obj
 0002:00007ab0       ??_R3?$PQueueOfPtr@PAVVRGroupPQueue@@@@8 00481ab0     dicomp.obj
 0002:00007ac4       ??_R2?$PQueueOfPtr@PAVVRGroupPQueue@@@@8 00481ac4     dicomp.obj
 0002:00007ad0       ??_R1A@?0A@EA@?$Array@PAVVRGroupPQueue@@@@8 00481ad0     dicomp.obj
 0002:00007af4       ??_R3?$Array@PAVVRGroupPQueue@@@@8 00481af4     dicomp.obj
 0002:00007b08       ??_R2?$Array@PAVVRGroupPQueue@@@@8 00481b08     dicomp.obj
 0002:00007b10       ??_R4PolaroidPDU_Service@@6BBuffer@@@ 00481b10     dicomp.obj
 0002:00007b28       ??_R3PolaroidPDU_Service@@8 00481b28     dicomp.obj
 0002:00007b3c       ??_R2PolaroidPDU_Service@@8 00481b3c     dicomp.obj
 0002:00007b70       ??_R1A@?0A@EA@PolaroidPDU_Service@@8 00481b70     dicomp.obj
 0002:00007b94       ??_R1A@?0A@EA@PDU_Service@@8 00481b94     dicomp.obj
 0002:00007bb8       ??_R3PDU_Service@@8        00481bb8     dicomp.obj
 0002:00007bcc       ??_R2PDU_Service@@8        00481bcc     dicomp.obj
 0002:00007bf8       ??_R1A@?0A@EA@Buffer@@8    00481bf8     dicomp.obj
 0002:00007c1c       ??_R3Buffer@@8             00481c1c     dicomp.obj
 0002:00007c30       ??_R2Buffer@@8             00481c30     dicomp.obj
 0002:00007c38       ??_R1FA@?0A@EA@AAssociateRQ@@8 00481c38     dicomp.obj
 0002:00007c5c       ??_R3AAssociateRQ@@8       00481c5c     dicomp.obj
 0002:00007c70       ??_R2AAssociateRQ@@8       00481c70     dicomp.obj
 0002:00007c78       ??_R1A@?0A@EA@AAssociateRQ@@8 00481c78     dicomp.obj
 0002:00007c9c       ??_R1CAM@?0A@EA@AAssociateAC@@8 00481c9c     dicomp.obj
 0002:00007cc0       ??_R3AAssociateAC@@8       00481cc0     dicomp.obj
 0002:00007cd4       ??_R2AAssociateAC@@8       00481cd4     dicomp.obj
 0002:00007cdc       ??_R1A@?0A@EA@AAssociateAC@@8 00481cdc     dicomp.obj
 0002:00007d00       ??_R1DMI@?0A@EA@AAssociateRJ@@8 00481d00     dicomp.obj
 0002:00007d24       ??_R3AAssociateRJ@@8       00481d24     dicomp.obj
 0002:00007d38       ??_R2AAssociateRJ@@8       00481d38     dicomp.obj
 0002:00007d40       ??_R1A@?0A@EA@AAssociateRJ@@8 00481d40     dicomp.obj
 0002:00007d64       ??_R1DNI@?0A@EA@AReleaseRQ@@8 00481d64     dicomp.obj
 0002:00007d88       ??_R3AReleaseRQ@@8         00481d88     dicomp.obj
 0002:00007d9c       ??_R2AReleaseRQ@@8         00481d9c     dicomp.obj
 0002:00007da4       ??_R1A@?0A@EA@AReleaseRQ@@8 00481da4     dicomp.obj
 0002:00007dc8       ??_R1DOI@?0A@EA@AReleaseRP@@8 00481dc8     dicomp.obj
 0002:00007dec       ??_R3AReleaseRP@@8         00481dec     dicomp.obj
 0002:00007e00       ??_R2AReleaseRP@@8         00481e00     dicomp.obj
 0002:00007e08       ??_R1A@?0A@EA@AReleaseRP@@8 00481e08     dicomp.obj
 0002:00007e2c       ??_R1DPI@?0A@EA@AAbortRQ@@8 00481e2c     dicomp.obj
 0002:00007e50       ??_R3AAbortRQ@@8           00481e50     dicomp.obj
 0002:00007e64       ??_R2AAbortRQ@@8           00481e64     dicomp.obj
 0002:00007e6c       ??_R1A@?0A@EA@AAbortRQ@@8  00481e6c     dicomp.obj
 0002:00007e90       ??_R1EAI@?0A@EA@PDataTF@@8 00481e90     dicomp.obj
 0002:00007eb4       ??_R3PDataTF@@8            00481eb4     dicomp.obj
 0002:00007ec8       ??_R2PDataTF@@8            00481ec8     dicomp.obj
 0002:00007ed0       ??_R1A@?0A@EA@PDataTF@@8   00481ed0     dicomp.obj
 0002:00007ef4       ??_R4PolaroidPDU_Service@@6BAAssociateRQ@@@ 00481ef4     dicomp.obj
 0002:00007f0c       ??_R4PolaroidPDU_Service@@6BAAssociateAC@@@ 00481f0c     dicomp.obj
 0002:00007f24       ??_R4PolaroidPDU_Service@@6BAAssociateRJ@@@ 00481f24     dicomp.obj
 0002:00007f3c       ??_R4PolaroidPDU_Service@@6BAReleaseRQ@@@ 00481f3c     dicomp.obj
 0002:00007f54       ??_R4PolaroidPDU_Service@@6BAReleaseRP@@@ 00481f54     dicomp.obj
 0002:00007f6c       ??_R4PolaroidPDU_Service@@6BAAbortRQ@@@ 00481f6c     dicomp.obj
 0002:00007f84       ??_R4PolaroidPDU_Service@@6BPDataTF@@@ 00481f84     dicomp.obj
 0002:00007f9c       ??_R4NSetRQ@@6B@           00481f9c     dicomp.obj
 0002:00007fb4       ??_R3NSetRQ@@8             00481fb4     dicomp.obj
 0002:00007fc8       ??_R2NSetRQ@@8             00481fc8     dicomp.obj
 0002:00007fd0       ??_R1A@?0A@EA@NSetRQ@@8    00481fd0     dicomp.obj
 0002:00007ff4       ??_R4NSetRSP@@6B@          00481ff4     dicomp.obj
 0002:0000800c       ??_R3NSetRSP@@8            0048200c     dicomp.obj
 0002:00008020       ??_R2NSetRSP@@8            00482020     dicomp.obj
 0002:00008028       ??_R1A@?0A@EA@NSetRSP@@8   00482028     dicomp.obj
 0002:0000804c       ??_R4DICOMCommandObject@@6B@ 0048204c     dicomp.obj
 0002:00008064       ??_R3DICOMCommandObject@@8 00482064     dicomp.obj
 0002:00008078       ??_R2DICOMCommandObject@@8 00482078     dicomp.obj
 0002:0000808c       ??_R1A@?0A@EA@DICOMCommandObject@@8 0048208c     dicomp.obj
 0002:000080b0       ??_R4?$Array@PAVDICOMDataObject@@@@6B@ 004820b0     dicomp.obj
 0002:000080c8       ??_R3?$Array@PAVDICOMDataObject@@@@8 004820c8     dicomp.obj
 0002:000080dc       ??_R2?$Array@PAVDICOMDataObject@@@@8 004820dc     dicomp.obj
 0002:000080e4       ??_R1A@?0A@EA@?$Array@PAVDICOMDataObject@@@@8 004820e4     dicomp.obj
 0002:00008108       ??_R4StandardBox@@6BNSetRQ@@@ 00482108     dicomp.obj
 0002:00008120       ??_R3StandardBox@@8        00482120     dicomp.obj
 0002:00008134       ??_R2StandardBox@@8        00482134     dicomp.obj
 0002:00008144       ??_R1A@?0A@EA@StandardBox@@8 00482144     dicomp.obj
 0002:00008168       ??_R13?0A@EA@NSetRSP@@8    00482168     dicomp.obj
 0002:0000818c       ??_R4StandardBox@@6BNSetRSP@@@ 0048218c     dicomp.obj
 0002:000081a4       ??_R4BasicGrayscaleImageBox@@6BNSetRQ@@@ 004821a4     dicomp.obj
 0002:000081bc       ??_R3BasicGrayscaleImageBox@@8 004821bc     dicomp.obj
 0002:000081d0       ??_R2BasicGrayscaleImageBox@@8 004821d0     dicomp.obj
 0002:000081e4       ??_R1A@?0A@EA@BasicGrayscaleImageBox@@8 004821e4     dicomp.obj
 0002:00008208       ??_R4BasicGrayscaleImageBox@@6BNSetRSP@@@ 00482208     dicomp.obj
 0002:00008220       ??_R4BasicGrayscalePrintManagementMeta@@6B@ 00482220     dicomp.obj
 0002:00008238       ??_R3BasicGrayscalePrintManagementMeta@@8 00482238     dicomp.obj
 0002:0000824c       ??_R2BasicGrayscalePrintManagementMeta@@8 0048224c     dicomp.obj
 0002:00008270       ??_R1A@?0A@EA@BasicGrayscalePrintManagementMeta@@8 00482270     dicomp.obj
 0002:00008294       ??_R1A@?0A@EA@AbstractPrintManagementMeta@@8 00482294     dicomp.obj
 0002:000082b8       ??_R3AbstractPrintManagementMeta@@8 004822b8     dicomp.obj
 0002:000082cc       ??_R2AbstractPrintManagementMeta@@8 004822cc     dicomp.obj
 0002:000082ec       ??_R1A@?0A@EA@AbstractFilmSession@@8 004822ec     dicomp.obj
 0002:00008310       ??_R3AbstractFilmSession@@8 00482310     dicomp.obj
 0002:00008324       ??_R2AbstractFilmSession@@8 00482324     dicomp.obj
 0002:00008340       ??_R4MyGrayscalePrintManagement@@6B@ 00482340     dicomp.obj
 0002:00008358       ??_R3MyGrayscalePrintManagement@@8 00482358     dicomp.obj
 0002:0000836c       ??_R2MyGrayscalePrintManagement@@8 0048236c     dicomp.obj
 0002:00008394       ??_R1A@?0A@EA@MyGrayscalePrintManagement@@8 00482394     dicomp.obj
 0002:000083b8       ??_R4bad_alloc@std@@6B@    004823b8     dicomp.obj
 0002:000083d0       ??_R3bad_alloc@std@@8      004823d0     dicomp.obj
 0002:000083e4       ??_R2bad_alloc@std@@8      004823e4     dicomp.obj
 0002:000083f0       ??_R1A@?0A@EA@bad_alloc@std@@8 004823f0     dicomp.obj
 0002:00008414       ??_R1A@?0A@EA@exception@std@@8 00482414     dicomp.obj
 0002:00008438       ??_R3exception@std@@8      00482438     dicomp.obj
 0002:0000844c       ??_R2exception@std@@8      0048244c     dicomp.obj
 0002:00008454       ??_R4facet@locale@std@@6B@ 00482454     dicomp.obj
 0002:0000846c       ??_R3facet@locale@std@@8   0048246c     dicomp.obj
 0002:00008480       ??_R2facet@locale@std@@8   00482480     dicomp.obj
 0002:00008488       ??_R1A@?0A@EA@facet@locale@std@@8 00482488     dicomp.obj
 0002:000084ac       ??_R4runtime_error@std@@6B@ 004824ac     dicomp.obj
 0002:000084c4       ??_R3runtime_error@std@@8  004824c4     dicomp.obj
 0002:000084d8       ??_R2runtime_error@std@@8  004824d8     dicomp.obj
 0002:000084e4       ??_R1A@?0A@EA@runtime_error@std@@8 004824e4     dicomp.obj
 0002:00008508       ??_R4failure@ios_base@std@@6B@ 00482508     dicomp.obj
 0002:00008520       ??_R3failure@ios_base@std@@8 00482520     dicomp.obj
 0002:00008534       ??_R2failure@ios_base@std@@8 00482534     dicomp.obj
 0002:00008544       ??_R1A@?0A@EA@failure@ios_base@std@@8 00482544     dicomp.obj
 0002:00008568       ??_R4?$num_put@DV?$ostreambuf_iterator@DU?$char_traits@D@std@@@std@@@std@@6B@ 00482568     dicomp.obj
 0002:00008580       ??_R3?$num_put@DV?$ostreambuf_iterator@DU?$char_traits@D@std@@@std@@@std@@8 00482580     dicomp.obj
 0002:00008594       ??_R2?$num_put@DV?$ostreambuf_iterator@DU?$char_traits@D@std@@@std@@@std@@8 00482594     dicomp.obj
 0002:000085a0       ??_R1A@?0A@EA@?$num_put@DV?$ostreambuf_iterator@DU?$char_traits@D@std@@@std@@@std@@8 004825a0     dicomp.obj
 0002:000085c4       ??_R4?$numpunct@D@std@@6B@ 004825c4     dicomp.obj
 0002:000085dc       ??_R3?$numpunct@D@std@@8   004825dc     dicomp.obj
 0002:000085f0       ??_R2?$numpunct@D@std@@8   004825f0     dicomp.obj
 0002:000085fc       ??_R1A@?0A@EA@?$numpunct@D@std@@8 004825fc     dicomp.obj
 0002:00008620       ??_R4AbstractPrinter@@6B@  00482620     printsop.obj
 0002:00008638       ??_R3AbstractPrinter@@8    00482638     printsop.obj
 0002:0000864c       ??_R2AbstractPrinter@@8    0048264c     printsop.obj
 0002:00008668       ??_R1A@?0A@EA@AbstractPrinter@@8 00482668     printsop.obj
 0002:0000868c       ??_R4AbstractPrintJob@@6B@ 0048268c     printsop.obj
 0002:000086a4       ??_R3AbstractPrintJob@@8   004826a4     printsop.obj
 0002:000086b8       ??_R2AbstractPrintJob@@8   004826b8     printsop.obj
 0002:000086d4       ??_R1A@?0A@EA@AbstractPrintJob@@8 004826d4     printsop.obj
 0002:000086f8       ??_R4AbstractOverlayBox@@6B@ 004826f8     printsop.obj
 0002:00008710       ??_R3AbstractOverlayBox@@8 00482710     printsop.obj
 0002:00008724       ??_R2AbstractOverlayBox@@8 00482724     printsop.obj
 0002:00008740       ??_R1A@?0A@EA@AbstractOverlayBox@@8 00482740     printsop.obj
 0002:00008764       ??_R4AbstractLUTBox@@6B@   00482764     printsop.obj
 0002:0000877c       ??_R3AbstractLUTBox@@8     0048277c     printsop.obj
 0002:00008790       ??_R2AbstractLUTBox@@8     00482790     printsop.obj
 0002:000087ac       ??_R1A@?0A@EA@AbstractLUTBox@@8 004827ac     printsop.obj
 0002:000087d0       ??_R4AbstractAnnotationBox@@6B@ 004827d0     printsop.obj
 0002:000087e8       ??_R3AbstractAnnotationBox@@8 004827e8     printsop.obj
 0002:000087fc       ??_R2AbstractAnnotationBox@@8 004827fc     printsop.obj
 0002:00008818       ??_R1A@?0A@EA@AbstractAnnotationBox@@8 00482818     printsop.obj
 0002:0000883c       ??_R4AbstractImageBox@@6B@ 0048283c     printsop.obj
 0002:00008854       ??_R3AbstractImageBox@@8   00482854     printsop.obj
 0002:00008868       ??_R2AbstractImageBox@@8   00482868     printsop.obj
 0002:00008884       ??_R1A@?0A@EA@AbstractImageBox@@8 00482884     printsop.obj
 0002:000088a8       ??_R4AbstractFilmBox@@6B@  004828a8     printsop.obj
 0002:000088c0       ??_R3AbstractFilmBox@@8    004828c0     printsop.obj
 0002:000088d4       ??_R2AbstractFilmBox@@8    004828d4     printsop.obj
 0002:000088f0       ??_R1A@?0A@EA@AbstractFilmBox@@8 004828f0     printsop.obj
 0002:00008914       ??_R4NCreateRQ@@6B@        00482914     printsop.obj
 0002:0000892c       ??_R3NCreateRQ@@8          0048292c     printsop.obj
 0002:00008940       ??_R2NCreateRQ@@8          00482940     printsop.obj
 0002:00008948       ??_R1A@?0A@EA@NCreateRQ@@8 00482948     printsop.obj
 0002:0000896c       ??_R4NCreateRSP@@6B@       0048296c     printsop.obj
 0002:00008984       ??_R3NCreateRSP@@8         00482984     printsop.obj
 0002:00008998       ??_R2NCreateRSP@@8         00482998     printsop.obj
 0002:000089a0       ??_R1A@?0A@EA@NCreateRSP@@8 004829a0     printsop.obj
 0002:000089c4       ??_R4NDeleteRQ@@6B@        004829c4     printsop.obj
 0002:000089dc       ??_R3NDeleteRQ@@8          004829dc     printsop.obj
 0002:000089f0       ??_R2NDeleteRQ@@8          004829f0     printsop.obj
 0002:000089f8       ??_R1A@?0A@EA@NDeleteRQ@@8 004829f8     printsop.obj
 0002:00008a1c       ??_R4NDeleteRSP@@6B@       00482a1c     printsop.obj
 0002:00008a34       ??_R3NDeleteRSP@@8         00482a34     printsop.obj
 0002:00008a48       ??_R2NDeleteRSP@@8         00482a48     printsop.obj
 0002:00008a50       ??_R1A@?0A@EA@NDeleteRSP@@8 00482a50     printsop.obj
 0002:00008a74       ??_R4NActionRQ@@6B@        00482a74     printsop.obj
 0002:00008a8c       ??_R3NActionRQ@@8          00482a8c     printsop.obj
 0002:00008aa0       ??_R2NActionRQ@@8          00482aa0     printsop.obj
 0002:00008aa8       ??_R1A@?0A@EA@NActionRQ@@8 00482aa8     printsop.obj
 0002:00008acc       ??_R4NActionRSP@@6B@       00482acc     printsop.obj
 0002:00008ae4       ??_R3NActionRSP@@8         00482ae4     printsop.obj
 0002:00008af8       ??_R2NActionRSP@@8         00482af8     printsop.obj
 0002:00008b00       ??_R1A@?0A@EA@NActionRSP@@8 00482b00     printsop.obj
 0002:00008b24       ??_R4NGetRQ@@6B@           00482b24     printsop.obj
 0002:00008b3c       ??_R3NGetRQ@@8             00482b3c     printsop.obj
 0002:00008b50       ??_R2NGetRQ@@8             00482b50     printsop.obj
 0002:00008b58       ??_R1A@?0A@EA@NGetRQ@@8    00482b58     printsop.obj
 0002:00008b7c       ??_R4NGetRSP@@6B@          00482b7c     printsop.obj
 0002:00008b94       ??_R3NGetRSP@@8            00482b94     printsop.obj
 0002:00008ba8       ??_R2NGetRSP@@8            00482ba8     printsop.obj
 0002:00008bb0       ??_R1A@?0A@EA@NGetRSP@@8   00482bb0     printsop.obj
 0002:00008bd4       ??_R4NEventReportRQ@@6B@   00482bd4     printsop.obj
 0002:00008bec       ??_R3NEventReportRQ@@8     00482bec     printsop.obj
 0002:00008c00       ??_R2NEventReportRQ@@8     00482c00     printsop.obj
 0002:00008c08       ??_R1A@?0A@EA@NEventReportRQ@@8 00482c08     printsop.obj
 0002:00008c2c       ??_R4NEventReportRSP@@6B@  00482c2c     printsop.obj
 0002:00008c44       ??_R3NEventReportRSP@@8    00482c44     printsop.obj
 0002:00008c58       ??_R2NEventReportRSP@@8    00482c58     printsop.obj
 0002:00008c60       ??_R1A@?0A@EA@NEventReportRSP@@8 00482c60     printsop.obj
 0002:00008c84       ??_R4StandardAdvancedBox@@6BNSetRQ@@@ 00482c84     printsop.obj
 0002:00008c9c       ??_R3StandardAdvancedBox@@8 00482c9c     printsop.obj
 0002:00008cb0       ??_R2StandardAdvancedBox@@8 00482cb0     printsop.obj
 0002:00008cd4       ??_R1A@?0A@EA@StandardAdvancedBox@@8 00482cd4     printsop.obj
 0002:00008cf8       ??_R17?0A@EA@NCreateRQ@@8  00482cf8     printsop.obj
 0002:00008d1c       ??_R1M@?0A@EA@NCreateRSP@@8 00482d1c     printsop.obj
 0002:00008d40       ??_R1BA@?0A@EA@NDeleteRQ@@8 00482d40     printsop.obj
 0002:00008d64       ??_R1BE@?0A@EA@NDeleteRSP@@8 00482d64     printsop.obj
 0002:00008d88       ??_R4StandardAdvancedBox@@6BNSetRSP@@@ 00482d88     printsop.obj
 0002:00008da0       ??_R4StandardAdvancedBox@@6BNCreateRQ@@@ 00482da0     printsop.obj
 0002:00008db8       ??_R4StandardAdvancedBox@@6BNCreateRSP@@@ 00482db8     printsop.obj
 0002:00008dd0       ??_R4StandardAdvancedBox@@6BNDeleteRQ@@@ 00482dd0     printsop.obj
 0002:00008de8       ??_R4StandardAdvancedBox@@6BNDeleteRSP@@@ 00482de8     printsop.obj
 0002:00008e00       ??_R4?$Array@PAVAbstractOverlayBox@@@@6B@ 00482e00     printsop.obj
 0002:00008e18       ??_R3?$Array@PAVAbstractOverlayBox@@@@8 00482e18     printsop.obj
 0002:00008e2c       ??_R2?$Array@PAVAbstractOverlayBox@@@@8 00482e2c     printsop.obj
 0002:00008e34       ??_R1A@?0A@EA@?$Array@PAVAbstractOverlayBox@@@@8 00482e34     printsop.obj
 0002:00008e58       ??_R4?$Array@PAVAbstractLUTBox@@@@6B@ 00482e58     printsop.obj
 0002:00008e70       ??_R3?$Array@PAVAbstractLUTBox@@@@8 00482e70     printsop.obj
 0002:00008e84       ??_R2?$Array@PAVAbstractLUTBox@@@@8 00482e84     printsop.obj
 0002:00008e8c       ??_R1A@?0A@EA@?$Array@PAVAbstractLUTBox@@@@8 00482e8c     printsop.obj
 0002:00008eb0       ??_R4?$Array@PAVAbstractImageBox@@@@6B@ 00482eb0     printsop.obj
 0002:00008ec8       ??_R3?$Array@PAVAbstractImageBox@@@@8 00482ec8     printsop.obj
 0002:00008edc       ??_R2?$Array@PAVAbstractImageBox@@@@8 00482edc     printsop.obj
 0002:00008ee4       ??_R1A@?0A@EA@?$Array@PAVAbstractImageBox@@@@8 00482ee4     printsop.obj
 0002:00008f08       ??_R4?$Array@PAVAbstractAnnotationBox@@@@6B@ 00482f08     printsop.obj
 0002:00008f20       ??_R3?$Array@PAVAbstractAnnotationBox@@@@8 00482f20     printsop.obj
 0002:00008f34       ??_R2?$Array@PAVAbstractAnnotationBox@@@@8 00482f34     printsop.obj
 0002:00008f3c       ??_R1A@?0A@EA@?$Array@PAVAbstractAnnotationBox@@@@8 00482f3c     printsop.obj
 0002:00008f60       ??_R4?$Array@PAVAbstractFilmBox@@@@6B@ 00482f60     printsop.obj
 0002:00008f78       ??_R3?$Array@PAVAbstractFilmBox@@@@8 00482f78     printsop.obj
 0002:00008f8c       ??_R2?$Array@PAVAbstractFilmBox@@@@8 00482f8c     printsop.obj
 0002:00008f94       ??_R1A@?0A@EA@?$Array@PAVAbstractFilmBox@@@@8 00482f94     printsop.obj
 0002:00008fb8       ??_R4?$Array@PAVAbstractPrintJob@@@@6B@ 00482fb8     printsop.obj
 0002:00008fd0       ??_R3?$Array@PAVAbstractPrintJob@@@@8 00482fd0     printsop.obj
 0002:00008fe4       ??_R2?$Array@PAVAbstractPrintJob@@@@8 00482fe4     printsop.obj
 0002:00008fec       ??_R1A@?0A@EA@?$Array@PAVAbstractPrintJob@@@@8 00482fec     printsop.obj
 0002:00009010       ??_R4StandardFilm@@6BNCreateRQ@@@ 00483010     printsop.obj
 0002:00009028       ??_R3StandardFilm@@8       00483028     printsop.obj
 0002:0000903c       ??_R2StandardFilm@@8       0048303c     printsop.obj
 0002:00009068       ??_R1A@?0A@EA@StandardFilm@@8 00483068     printsop.obj
 0002:0000908c       ??_R13?0A@EA@NCreateRSP@@8 0048308c     printsop.obj
 0002:000090b0       ??_R17?0A@EA@NSetRQ@@8     004830b0     printsop.obj
 0002:000090d4       ??_R1M@?0A@EA@NSetRSP@@8   004830d4     printsop.obj
 0002:000090f8       ??_R1BI@?0A@EA@NActionRQ@@8 004830f8     printsop.obj
 0002:0000911c       ??_R1BM@?0A@EA@NActionRSP@@8 0048311c     printsop.obj
 0002:00009140       ??_R4StandardFilm@@6BNCreateRSP@@@ 00483140     printsop.obj
 0002:00009158       ??_R4StandardFilm@@6BNSetRQ@@@ 00483158     printsop.obj
 0002:00009170       ??_R4StandardFilm@@6BNSetRSP@@@ 00483170     printsop.obj
 0002:00009188       ??_R4StandardFilm@@6BNDeleteRQ@@@ 00483188     printsop.obj
 0002:000091a0       ??_R4StandardFilm@@6BNDeleteRSP@@@ 004831a0     printsop.obj
 0002:000091b8       ??_R4StandardFilm@@6BNActionRQ@@@ 004831b8     printsop.obj
 0002:000091d0       ??_R4StandardFilm@@6BNActionRSP@@@ 004831d0     printsop.obj
 0002:000091e8       ??_R4StandardStatus@@6BNGetRQ@@@ 004831e8     printsop.obj
 0002:00009200       ??_R3StandardStatus@@8     00483200     printsop.obj
 0002:00009214       ??_R2StandardStatus@@8     00483214     printsop.obj
 0002:00009230       ??_R1A@?0A@EA@StandardStatus@@8 00483230     printsop.obj
 0002:00009254       ??_R13?0A@EA@NGetRSP@@8    00483254     printsop.obj
 0002:00009278       ??_R17?0A@EA@NEventReportRQ@@8 00483278     printsop.obj
 0002:0000929c       ??_R1M@?0A@EA@NEventReportRSP@@8 0048329c     printsop.obj
 0002:000092c0       ??_R4StandardStatus@@6BNGetRSP@@@ 004832c0     printsop.obj
 0002:000092d8       ??_R4StandardStatus@@6BNEventReportRQ@@@ 004832d8     printsop.obj
 0002:000092f0       ??_R4StandardStatus@@6BNEventReportRSP@@@ 004832f0     printsop.obj
 0002:00009308       ??_R4BasicFilmBox@@6BNCreateRQ@@@ 00483308     printsop.obj
 0002:00009320       ??_R3BasicFilmBox@@8       00483320     printsop.obj
 0002:00009334       ??_R2BasicFilmBox@@8       00483334     printsop.obj
 0002:00009368       ??_R1A@?0A@EA@BasicFilmBox@@8 00483368     printsop.obj
 0002:0000938c       ??_R4BasicFilmBox@@6BNCreateRSP@@@ 0048338c     printsop.obj
 0002:000093a4       ??_R4BasicFilmBox@@6BNSetRQ@@@ 004833a4     printsop.obj
 0002:000093bc       ??_R4BasicFilmBox@@6BNSetRSP@@@ 004833bc     printsop.obj
 0002:000093d4       ??_R4BasicFilmBox@@6BNDeleteRQ@@@ 004833d4     printsop.obj
 0002:000093ec       ??_R4BasicFilmBox@@6BNDeleteRSP@@@ 004833ec     printsop.obj
 0002:00009404       ??_R4BasicFilmBox@@6BNActionRQ@@@ 00483404     printsop.obj
 0002:0000941c       ??_R4BasicFilmBox@@6BNActionRSP@@@ 0048341c     printsop.obj
 0002:00009434       ??_R4BasicAnnotationBox@@6BNSetRQ@@@ 00483434     printsop.obj
 0002:0000944c       ??_R3BasicAnnotationBox@@8 0048344c     printsop.obj
 0002:00009460       ??_R2BasicAnnotationBox@@8 00483460     printsop.obj
 0002:00009474       ??_R1A@?0A@EA@BasicAnnotationBox@@8 00483474     printsop.obj
 0002:00009498       ??_R4BasicAnnotationBox@@6BNSetRSP@@@ 00483498     printsop.obj
 0002:000094b0       ??_R4ImageOverlayBox@@6BNSetRQ@@@ 004834b0     printsop.obj
 0002:000094c8       ??_R3ImageOverlayBox@@8    004834c8     printsop.obj
 0002:000094dc       ??_R2ImageOverlayBox@@8    004834dc     printsop.obj
 0002:00009504       ??_R1A@?0A@EA@ImageOverlayBox@@8 00483504     printsop.obj
 0002:00009528       ??_R4ImageOverlayBox@@6BNSetRSP@@@ 00483528     printsop.obj
 0002:00009540       ??_R4ImageOverlayBox@@6BNCreateRQ@@@ 00483540     printsop.obj
 0002:00009558       ??_R4ImageOverlayBox@@6BNCreateRSP@@@ 00483558     printsop.obj
 0002:00009570       ??_R4ImageOverlayBox@@6BNDeleteRQ@@@ 00483570     printsop.obj
 0002:00009588       ??_R4ImageOverlayBox@@6BNDeleteRSP@@@ 00483588     printsop.obj
 0002:000095a0       ??_R4BasicFilmSession@@6BNCreateRQ@@@ 004835a0     printsop.obj
 0002:000095b8       ??_R3BasicFilmSession@@8   004835b8     printsop.obj
 0002:000095cc       ??_R2BasicFilmSession@@8   004835cc     printsop.obj
 0002:00009600       ??_R1A@?0A@EA@BasicFilmSession@@8 00483600     printsop.obj
 0002:00009624       ??_R4BasicFilmSession@@6BNCreateRSP@@@ 00483624     printsop.obj
 0002:0000963c       ??_R4BasicFilmSession@@6BNSetRQ@@@ 0048363c     printsop.obj
 0002:00009654       ??_R4BasicFilmSession@@6BNSetRSP@@@ 00483654     printsop.obj
 0002:0000966c       ??_R4BasicFilmSession@@6BNDeleteRQ@@@ 0048366c     printsop.obj
 0002:00009684       ??_R4BasicFilmSession@@6BNDeleteRSP@@@ 00483684     printsop.obj
 0002:0000969c       ??_R4BasicFilmSession@@6BNActionRQ@@@ 0048369c     printsop.obj
 0002:000096b4       ??_R4BasicFilmSession@@6BNActionRSP@@@ 004836b4     printsop.obj
 0002:000096cc       ??_R4BasicPrinter@@6BNGetRQ@@@ 004836cc     printsop.obj
 0002:000096e4       ??_R3BasicPrinter@@8       004836e4     printsop.obj
 0002:000096f8       ??_R2BasicPrinter@@8       004836f8     printsop.obj
 0002:00009718       ??_R1A@?0A@EA@BasicPrinter@@8 00483718     printsop.obj
 0002:0000973c       ??_R4BasicPrinter@@6BNGetRSP@@@ 0048373c     printsop.obj
 0002:00009754       ??_R4BasicPrinter@@6BNEventReportRQ@@@ 00483754     printsop.obj
 0002:0000976c       ??_R4BasicPrinter@@6BNEventReportRSP@@@ 0048376c     printsop.obj
 0002:00009784       ??_R4BasicPrintJob@@6BNGetRQ@@@ 00483784     printsop.obj
 0002:0000979c       ??_R3BasicPrintJob@@8      0048379c     printsop.obj
 0002:000097b0       ??_R2BasicPrintJob@@8      004837b0     printsop.obj
 0002:000097d0       ??_R1A@?0A@EA@BasicPrintJob@@8 004837d0     printsop.obj
 0002:000097f4       ??_R4BasicPrintJob@@6BNGetRSP@@@ 004837f4     printsop.obj
 0002:0000980c       ??_R4BasicPrintJob@@6BNEventReportRQ@@@ 0048380c     printsop.obj
 0002:00009824       ??_R4BasicPrintJob@@6BNEventReportRSP@@@ 00483824     printsop.obj
 0002:0000983c       ??_R4AbstractFilmSession@@6B@ 0048383c     printsop.obj
 0002:00009854       ??_R4AbstractPrintManagementMeta@@6B@ 00483854     printsop.obj
 0002:0000986c       ??_R4Socket@@6B@           0048386c     dicom:cong.obj
 0002:00009880       ??_R3Socket@@8             00483880     dicom:cong.obj
 0002:00009890       ??_R2Socket@@8             00483890     dicom:cong.obj
 0002:00009898       ??_R1A@?0A@EA@Socket@@8    00483898     dicom:cong.obj
 0002:000098b4       ??_R4AAssociateRJ@@6B@     004838b4     dicom:cong.obj
 0002:000098c8       ??_R4AReleaseRQ@@6B@       004838c8     dicom:cong.obj
 0002:000098dc       ??_R4AReleaseRP@@6B@       004838dc     dicom:cong.obj
 0002:000098f0       ??_R4AAbortRQ@@6B@         004838f0     dicom:cong.obj
 0002:00009904       ??_R4codecvt_base@std@@6B@ 00483904     dicom:cong.obj
 0002:00009918       ??_R3codecvt_base@std@@8   00483918     dicom:cong.obj
 0002:00009928       ??_R2codecvt_base@std@@8   00483928     dicom:cong.obj
 0002:00009934       ??_R1A@?0A@EA@codecvt_base@std@@8 00483934     dicom:cong.obj
 0002:00009950       ??_R4ctype_base@std@@6B@   00483950     dicom:cong.obj
 0002:00009964       ??_R3ctype_base@std@@8     00483964     dicom:cong.obj
 0002:00009974       ??_R2ctype_base@std@@8     00483974     dicom:cong.obj
 0002:00009980       ??_R1A@?0A@EA@ctype_base@std@@8 00483980     dicom:cong.obj
 0002:0000999c       ??_R4ios_base@std@@6B@     0048399c     dicom:cong.obj
 0002:000099b0       ??_R3ios_base@std@@8       004839b0     dicom:cong.obj
 0002:000099c0       ??_R2ios_base@std@@8       004839c0     dicom:cong.obj
 0002:000099cc       ??_R1A@?0A@EA@ios_base@std@@8 004839cc     dicom:cong.obj
 0002:000099e8       ??_R13?0A@EA@?$_Iosb@H@std@@8 004839e8     dicom:cong.obj
 0002:00009a04       ??_R3?$_Iosb@H@std@@8      00483a04     dicom:cong.obj
 0002:00009a14       ??_R2?$_Iosb@H@std@@8      00483a14     dicom:cong.obj
 0002:00009a1c       ??_R1A@?0A@EA@?$_Iosb@H@std@@8 00483a1c     dicom:cong.obj
 0002:00009a38       ??_R4?$Array@PAVBufferSpace@@@@6B@ 00483a38     dicom:cong.obj
 0002:00009a4c       ??_R3?$Array@PAVBufferSpace@@@@8 00483a4c     dicom:cong.obj
 0002:00009a5c       ??_R2?$Array@PAVBufferSpace@@@@8 00483a5c     dicom:cong.obj
 0002:00009a64       ??_R1A@?0A@EA@?$Array@PAVBufferSpace@@@@8 00483a64     dicom:cong.obj
 0002:00009a80       ??_R4?$Array@PAVVR@@@@6B@  00483a80     dicom:cong.obj
 0002:00009a94       ??_R3?$Array@PAVVR@@@@8    00483a94     dicom:cong.obj
 0002:00009aa4       ??_R2?$Array@PAVVR@@@@8    00483aa4     dicom:cong.obj
 0002:00009aac       ??_R1A@?0A@EA@?$Array@PAVVR@@@@8 00483aac     dicom:cong.obj
 0002:00009ac8       ??_R4?$Array@PAVVRGroupPQueue@@@@6B@ 00483ac8     dicom:cong.obj
 0002:00009adc       ??_R4?$Array@VTransferSyntax@@@@6B@ 00483adc     dicom:cong.obj
 0002:00009af0       ??_R3?$Array@VTransferSyntax@@@@8 00483af0     dicom:cong.obj
 0002:00009b00       ??_R2?$Array@VTransferSyntax@@@@8 00483b00     dicom:cong.obj
 0002:00009b08       ??_R1A@?0A@EA@?$Array@VTransferSyntax@@@@8 00483b08     dicom:cong.obj
 0002:00009b24       ??_R4?$Array@VPresentationContext@@@@6B@ 00483b24     dicom:cong.obj
 0002:00009b38       ??_R3?$Array@VPresentationContext@@@@8 00483b38     dicom:cong.obj
 0002:00009b48       ??_R2?$Array@VPresentationContext@@@@8 00483b48     dicom:cong.obj
 0002:00009b50       ??_R1A@?0A@EA@?$Array@VPresentationContext@@@@8 00483b50     dicom:cong.obj
 0002:00009b6c       ??_R4?$Array@VPresentationContextAccept@@@@6B@ 00483b6c     dicom:cong.obj
 0002:00009b80       ??_R3?$Array@VPresentationContextAccept@@@@8 00483b80     dicom:cong.obj
 0002:00009b90       ??_R2?$Array@VPresentationContextAccept@@@@8 00483b90     dicom:cong.obj
 0002:00009b98       ??_R1A@?0A@EA@?$Array@VPresentationContextAccept@@@@8 00483b98     dicom:cong.obj
 0002:00009bb4       ??_R4?$Array@VAbstractSyntax@@@@6B@ 00483bb4     dicom:cong.obj
 0002:00009bc8       ??_R3?$Array@VAbstractSyntax@@@@8 00483bc8     dicom:cong.obj
 0002:00009bd8       ??_R2?$Array@VAbstractSyntax@@@@8 00483bd8     dicom:cong.obj
 0002:00009be0       ??_R1A@?0A@EA@?$Array@VAbstractSyntax@@@@8 00483be0     dicom:cong.obj
 0002:00009bfc       ??_R4?$Array@PAVDICOMObject@@@@6B@ 00483bfc     dicom:cong.obj
 0002:00009c10       ??_R3?$Array@PAVDICOMObject@@@@8 00483c10     dicom:cong.obj
 0002:00009c20       ??_R2?$Array@PAVDICOMObject@@@@8 00483c20     dicom:cong.obj
 0002:00009c28       ??_R1A@?0A@EA@?$Array@PAVDICOMObject@@@@8 00483c28     dicom:cong.obj
 0002:00009c44       ??_R4?$Array@U_RTCElement@@@@6B@ 00483c44     dicom:cong.obj
 0002:00009c58       ??_R3?$Array@U_RTCElement@@@@8 00483c58     dicom:cong.obj
 0002:00009c68       ??_R2?$Array@U_RTCElement@@@@8 00483c68     dicom:cong.obj
 0002:00009c70       ??_R1A@?0A@EA@?$Array@U_RTCElement@@@@8 00483c70     dicom:cong.obj
 0002:00009c8c       ??_R4?$Array@PAU_ACRNemaAddress@@@@6B@ 00483c8c     dicom:cong.obj
 0002:00009ca0       ??_R3?$Array@PAU_ACRNemaAddress@@@@8 00483ca0     dicom:cong.obj
 0002:00009cb0       ??_R2?$Array@PAU_ACRNemaAddress@@@@8 00483cb0     dicom:cong.obj
 0002:00009cb8       ??_R1A@?0A@EA@?$Array@PAU_ACRNemaAddress@@@@8 00483cb8     dicom:cong.obj
 0002:00009cd4       ??_R4?$basic_ios@DU?$char_traits@D@std@@@std@@6B@ 00483cd4     dicom:cong.obj
 0002:00009ce8       ??_R3?$basic_ios@DU?$char_traits@D@std@@@std@@8 00483ce8     dicom:cong.obj
 0002:00009cf8       ??_R2?$basic_ios@DU?$char_traits@D@std@@@std@@8 00483cf8     dicom:cong.obj
 0002:00009d08       ??_R1A@?0A@EA@?$basic_ios@DU?$char_traits@D@std@@@std@@8 00483d08     dicom:cong.obj
 0002:00009d24       ??_R4?$basic_istream@DU?$char_traits@D@std@@@std@@6B@ 00483d24     dicom:cong.obj
 0002:00009d38       ??_R3?$basic_istream@DU?$char_traits@D@std@@@std@@8 00483d38     dicom:cong.obj
 0002:00009d48       ??_R2?$basic_istream@DU?$char_traits@D@std@@@std@@8 00483d48     dicom:cong.obj
 0002:00009d5c       ??_R1A@?0A@EA@?$basic_istream@DU?$char_traits@D@std@@@std@@8 00483d5c     dicom:cong.obj
 0002:00009d78       ??_R1A@A@3FA@?$basic_ios@DU?$char_traits@D@std@@@std@@8 00483d78     dicom:cong.obj
 0002:00009d94       ??_R1A@A@3EA@ios_base@std@@8 00483d94     dicom:cong.obj
 0002:00009db0       ??_R13A@3EA@?$_Iosb@H@std@@8 00483db0     dicom:cong.obj
 0002:00009dcc       ??_R4?$Array@V?$FixedArrayElement@IU_RTCElement@@@@@@6B@ 00483dcc     dicom:cong.obj
 0002:00009de0       ??_R3?$Array@V?$FixedArrayElement@IU_RTCElement@@@@@@8 00483de0     dicom:cong.obj
 0002:00009df0       ??_R2?$Array@V?$FixedArrayElement@IU_RTCElement@@@@@@8 00483df0     dicom:cong.obj
 0002:00009df8       ??_R1A@?0A@EA@?$Array@V?$FixedArrayElement@IU_RTCElement@@@@@@8 00483df8     dicom:cong.obj
 0002:00009e14       ??_R4?$PQueueOfPtr@PAVVR@@@@6B@ 00483e14     dicom:cong.obj
 0002:00009e28       ??_R3?$PQueueOfPtr@PAVVR@@@@8 00483e28     dicom:cong.obj
 0002:00009e38       ??_R2?$PQueueOfPtr@PAVVR@@@@8 00483e38     dicom:cong.obj
 0002:00009e44       ??_R1A@?0A@EA@?$PQueueOfPtr@PAVVR@@@@8 00483e44     dicom:cong.obj
 0002:00009e60       ??_R4Buffer@@6B@           00483e60     dicom:cong.obj
 0002:00009e74       ??_R4?$PQueueOfPtr@PAVVRGroupPQueue@@@@6B@ 00483e74     dicom:cong.obj
 0002:00009e88       ??_R4?$basic_streambuf@DU?$char_traits@D@std@@@std@@6B@ 00483e88     dicom:cong.obj
 0002:00009e9c       ??_R3?$basic_streambuf@DU?$char_traits@D@std@@@std@@8 00483e9c     dicom:cong.obj
 0002:00009eac       ??_R2?$basic_streambuf@DU?$char_traits@D@std@@@std@@8 00483eac     dicom:cong.obj
 0002:00009eb4       ??_R1A@?0A@EA@?$basic_streambuf@DU?$char_traits@D@std@@@std@@8 00483eb4     dicom:cong.obj
 0002:00009ed0       ??_R4VRGroupPQueue@@6B@    00483ed0     dicom:cong.obj
 0002:00009ee4       ??_R3VRGroupPQueue@@8      00483ee4     dicom:cong.obj
 0002:00009ef4       ??_R2VRGroupPQueue@@8      00483ef4     dicom:cong.obj
 0002:00009f04       ??_R1A@?0A@EA@VRGroupPQueue@@8 00483f04     dicom:cong.obj
 0002:00009f20       ??_R4LinkedBuffer@@6B@     00483f20     dicom:cong.obj
 0002:00009f34       ??_R3LinkedBuffer@@8       00483f34     dicom:cong.obj
 0002:00009f44       ??_R2LinkedBuffer@@8       00483f44     dicom:cong.obj
 0002:00009f50       ??_R1A@?0A@EA@LinkedBuffer@@8 00483f50     dicom:cong.obj
 0002:00009f6c       ??_R4DICOMObject@@6B@      00483f6c     dicom:cong.obj
 0002:00009f80       ??_R4MemoryBuffer@@6B@     00483f80     dicom:cong.obj
 0002:00009f94       ??_R3MemoryBuffer@@8       00483f94     dicom:cong.obj
 0002:00009fa4       ??_R2MemoryBuffer@@8       00483fa4     dicom:cong.obj
 0002:00009fb4       ??_R1A@?0A@EA@MemoryBuffer@@8 00483fb4     dicom:cong.obj
 0002:00009fd0       ??_R4PDataTF@@6B@          00483fd0     dicom:cong.obj
 0002:00009fe4       ??_R4FileBuffer@@6B@       00483fe4     dicom:cong.obj
 0002:00009ff8       ??_R3FileBuffer@@8         00483ff8     dicom:cong.obj
 0002:0000a008       ??_R2FileBuffer@@8         00484008     dicom:cong.obj
 0002:0000a018       ??_R1A@?0A@EA@FileBuffer@@8 00484018     dicom:cong.obj
 0002:0000a034       ??_R4?$PQueue@V?$FixedArrayElement@IU_RTCElement@@@@@@6B@ 00484034     dicom:cong.obj
 0002:0000a048       ??_R3?$PQueue@V?$FixedArrayElement@IU_RTCElement@@@@@@8 00484048     dicom:cong.obj
 0002:0000a058       ??_R2?$PQueue@V?$FixedArrayElement@IU_RTCElement@@@@@@8 00484058     dicom:cong.obj
 0002:0000a064       ??_R1A@?0A@EA@?$PQueue@V?$FixedArrayElement@IU_RTCElement@@@@@@8 00484064     dicom:cong.obj
 0002:0000a080       ??_R4AAssociateAC@@6B@     00484080     dicom:cong.obj
 0002:0000a094       ??_R4?$basic_filebuf@DU?$char_traits@D@std@@@std@@6B@ 00484094     dicom:cong.obj
 0002:0000a0a8       ??_R3?$basic_filebuf@DU?$char_traits@D@std@@@std@@8 004840a8     dicom:cong.obj
 0002:0000a0b8       ??_R2?$basic_filebuf@DU?$char_traits@D@std@@@std@@8 004840b8     dicom:cong.obj
 0002:0000a0c4       ??_R1A@?0A@EA@?$basic_filebuf@DU?$char_traits@D@std@@@std@@8 004840c4     dicom:cong.obj
 0002:0000a0e0       ??_R4AAssociateRQ@@6B@     004840e0     dicom:cong.obj
 0002:0000a0f4       ??_R4PDU_Service@@6BBuffer@@@ 004840f4     dicom:cong.obj
 0002:0000a108       ??_R4PDU_Service@@6BAAssociateRQ@@@ 00484108     dicom:cong.obj
 0002:0000a11c       ??_R4PDU_Service@@6BAAssociateAC@@@ 0048411c     dicom:cong.obj
 0002:0000a130       ??_R4PDU_Service@@6BAAssociateRJ@@@ 00484130     dicom:cong.obj
 0002:0000a144       ??_R4PDU_Service@@6BAReleaseRQ@@@ 00484144     dicom:cong.obj
 0002:0000a158       ??_R4PDU_Service@@6BAReleaseRP@@@ 00484158     dicom:cong.obj
 0002:0000a16c       ??_R4PDU_Service@@6BAAbortRQ@@@ 0048416c     dicom:cong.obj
 0002:0000a180       ??_R4PDU_Service@@6BPDataTF@@@ 00484180     dicom:cong.obj
 0002:0000a194       ??_R4CheckedPDU_Service@@6BBuffer@@@ 00484194     dicom:cong.obj
 0002:0000a1a8       ??_R3CheckedPDU_Service@@8 004841a8     dicom:cong.obj
 0002:0000a1b8       ??_R2CheckedPDU_Service@@8 004841b8     dicom:cong.obj
 0002:0000a1e4       ??_R1A@?0A@EA@CheckedPDU_Service@@8 004841e4     dicom:cong.obj
 0002:0000a200       ??_R4CheckedPDU_Service@@6BAAssociateRQ@@@ 00484200     dicom:cong.obj
 0002:0000a214       ??_R4CheckedPDU_Service@@6BAAssociateAC@@@ 00484214     dicom:cong.obj
 0002:0000a228       ??_R4CheckedPDU_Service@@6BAAssociateRJ@@@ 00484228     dicom:cong.obj
 0002:0000a23c       ??_R4CheckedPDU_Service@@6BAReleaseRQ@@@ 0048423c     dicom:cong.obj
 0002:0000a250       ??_R4CheckedPDU_Service@@6BAReleaseRP@@@ 00484250     dicom:cong.obj
 0002:0000a264       ??_R4CheckedPDU_Service@@6BAAbortRQ@@@ 00484264     dicom:cong.obj
 0002:0000a278       ??_R4CheckedPDU_Service@@6BPDataTF@@@ 00484278     dicom:cong.obj
 0002:0000a28c       ??_R4?$ctype@D@std@@6B@    0048428c     dicom:cong.obj
 0002:0000a2a0       ??_R3?$ctype@D@std@@8      004842a0     dicom:cong.obj
 0002:0000a2b0       ??_R2?$ctype@D@std@@8      004842b0     dicom:cong.obj
 0002:0000a2c0       ??_R1A@?0A@EA@?$ctype@D@std@@8 004842c0     dicom:cong.obj
 0002:0000a2dc       ??_R4?$codecvt@DDH@std@@6B@ 004842dc     dicom:cong.obj
 0002:0000a2f0       ??_R3?$codecvt@DDH@std@@8  004842f0     dicom:cong.obj
 0002:0000a300       ??_R2?$codecvt@DDH@std@@8  00484300     dicom:cong.obj
 0002:0000a310       ??_R1A@?0A@EA@?$codecvt@DDH@std@@8 00484310     dicom:cong.obj
 0002:0000a32c       ??_R4?$basic_ifstream@DU?$char_traits@D@std@@@std@@6B@ 0048432c     dicom:cong.obj
 0002:0000a340       ??_R3?$basic_ifstream@DU?$char_traits@D@std@@@std@@8 00484340     dicom:cong.obj
 0002:0000a350       ??_R2?$basic_ifstream@DU?$char_traits@D@std@@@std@@8 00484350     dicom:cong.obj
 0002:0000a368       ??_R1A@?0A@EA@?$basic_ifstream@DU?$char_traits@D@std@@@std@@8 00484368     dicom:cong.obj
 0002:0000a384       ??_R4_Locimp@locale@std@@6B@ 00484384     libcpmt:locale0.obj
 0002:0000a398       ??_R3_Locimp@locale@std@@8 00484398     libcpmt:locale0.obj
 0002:0000a3a8       ??_R2_Locimp@locale@std@@8 004843a8     libcpmt:locale0.obj
 0002:0000a3b4       ??_R1A@?0A@EA@_Locimp@locale@std@@8 004843b4     libcpmt:locale0.obj
 0002:0000a3d0       ??_R4logic_error@std@@6B@  004843d0     libcpmt:string.obj
 0002:0000a3e4       ??_R3logic_error@std@@8    004843e4     libcpmt:string.obj
 0002:0000a3f4       ??_R2logic_error@std@@8    004843f4     libcpmt:string.obj
 0002:0000a400       ??_R1A@?0A@EA@logic_error@std@@8 00484400     libcpmt:string.obj
 0002:0000a41c       ??_R4invalid_argument@std@@6B@ 0048441c     libcpmt:string.obj
 0002:0000a430       ??_R3invalid_argument@std@@8 00484430     libcpmt:string.obj
 0002:0000a440       ??_R2invalid_argument@std@@8 00484440     libcpmt:string.obj
 0002:0000a450       ??_R1A@?0A@EA@invalid_argument@std@@8 00484450     libcpmt:string.obj
 0002:0000a46c       ??_R4length_error@std@@6B@ 0048446c     libcpmt:string.obj
 0002:0000a480       ??_R3length_error@std@@8   00484480     libcpmt:string.obj
 0002:0000a490       ??_R2length_error@std@@8   00484490     libcpmt:string.obj
 0002:0000a4a0       ??_R1A@?0A@EA@length_error@std@@8 004844a0     libcpmt:string.obj
 0002:0000a4bc       ??_R4out_of_range@std@@6B@ 004844bc     libcpmt:string.obj
 0002:0000a4d0       ??_R3out_of_range@std@@8   004844d0     libcpmt:string.obj
 0002:0000a4e0       ??_R2out_of_range@std@@8   004844e0     libcpmt:string.obj
 0002:0000a4f0       ??_R1A@?0A@EA@out_of_range@std@@8 004844f0     libcpmt:string.obj
 0002:0000a50c       ??_R4?$basic_ostream@DU?$char_traits@D@std@@@std@@6B@ 0048450c     libcpmt:cerr.obj
 0002:0000a520       ??_R3?$basic_ostream@DU?$char_traits@D@std@@@std@@8 00484520     libcpmt:cerr.obj
 0002:0000a530       ??_R2?$basic_ostream@DU?$char_traits@D@std@@@std@@8 00484530     libcpmt:cerr.obj
 0002:0000a544       ??_R1A@?0A@EA@?$basic_ostream@DU?$char_traits@D@std@@@std@@8 00484544     libcpmt:cerr.obj
 0002:0000a560       ??_R4type_info@@6B@        00484560     LIBCMT:typinfo.obj
 0002:0000a574       ??_R3type_info@@8          00484574     LIBCMT:typinfo.obj
 0002:0000a584       ??_R2type_info@@8          00484584     LIBCMT:typinfo.obj
 0002:0000a58c       ??_R1A@?0A@EA@type_info@@8 0048458c     LIBCMT:typinfo.obj
 0002:0000a5a8       ??_R4exception@std@@6B@    004845a8     LIBCMT:stdexcpt.obj
 0002:0000a5bc       ??_R4bad_cast@std@@6B@     004845bc     LIBCMT:stdexcpt.obj
 0002:0000a5d0       ??_R3bad_cast@std@@8       004845d0     LIBCMT:stdexcpt.obj
 0002:0000a5e0       ??_R2bad_cast@std@@8       004845e0     LIBCMT:stdexcpt.obj
 0002:0000a5ec       ??_R1A@?0A@EA@bad_cast@std@@8 004845ec     LIBCMT:stdexcpt.obj
 0002:0000a608       ??_R4bad_typeid@std@@6B@   00484608     LIBCMT:stdexcpt.obj
 0002:0000a61c       ??_R3bad_typeid@std@@8     0048461c     LIBCMT:stdexcpt.obj
 0002:0000a62c       ??_R2bad_typeid@std@@8     0048462c     LIBCMT:stdexcpt.obj
 0002:0000a638       ??_R1A@?0A@EA@bad_typeid@std@@8 00484638     LIBCMT:stdexcpt.obj
 0002:0000a654       ??_R4__non_rtti_object@std@@6B@ 00484654     LIBCMT:stdexcpt.obj
 0002:0000a668       ??_R3__non_rtti_object@std@@8 00484668     LIBCMT:stdexcpt.obj
 0002:0000a678       ??_R2__non_rtti_object@std@@8 00484678     LIBCMT:stdexcpt.obj
 0002:0000a688       ??_R1A@?0A@EA@__non_rtti_object@std@@8 00484688     LIBCMT:stdexcpt.obj
 0002:0000a6a4       ??_R4bad_exception@std@@6B@ 004846a4     LIBCMT:frame.obj
 0002:0000a6b8       ??_R3bad_exception@std@@8  004846b8     LIBCMT:frame.obj
 0002:0000a6c8       ??_R2bad_exception@std@@8  004846c8     LIBCMT:frame.obj
 0002:0000a6d4       ??_R1A@?0A@EA@bad_exception@std@@8 004846d4     LIBCMT:frame.obj
 0002:0000a6f0       ??_R4DNameNode@@6B@        004846f0     LIBCMT:undname.obj
 0002:0000a704       ??_R3DNameNode@@8          00484704     LIBCMT:undname.obj
 0002:0000a714       ??_R2DNameNode@@8          00484714     LIBCMT:undname.obj
 0002:0000a71c       ??_R1A@?0A@EA@DNameNode@@8 0048471c     LIBCMT:undname.obj
 0002:0000a738       ??_R4charNode@@6B@         00484738     LIBCMT:undname.obj
 0002:0000a74c       ??_R3charNode@@8           0048474c     LIBCMT:undname.obj
 0002:0000a75c       ??_R2charNode@@8           0048475c     LIBCMT:undname.obj
 0002:0000a768       ??_R1A@?0A@EA@charNode@@8  00484768     LIBCMT:undname.obj
 0002:0000a784       ??_R4pDNameNode@@6B@       00484784     LIBCMT:undname.obj
 0002:0000a798       ??_R3pDNameNode@@8         00484798     LIBCMT:undname.obj
 0002:0000a7a8       ??_R2pDNameNode@@8         004847a8     LIBCMT:undname.obj
 0002:0000a7b4       ??_R1A@?0A@EA@pDNameNode@@8 004847b4     LIBCMT:undname.obj
 0002:0000a7d0       ??_R4DNameStatusNode@@6B@  004847d0     LIBCMT:undname.obj
 0002:0000a7e4       ??_R3DNameStatusNode@@8    004847e4     LIBCMT:undname.obj
 0002:0000a7f4       ??_R2DNameStatusNode@@8    004847f4     LIBCMT:undname.obj
 0002:0000a800       ??_R1A@?0A@EA@DNameStatusNode@@8 00484800     LIBCMT:undname.obj
 0002:0000a81c       ??_R4pcharNode@@6B@        0048481c     LIBCMT:undname.obj
 0002:0000a830       ??_R3pcharNode@@8          00484830     LIBCMT:undname.obj
 0002:0000a840       ??_R2pcharNode@@8          00484840     LIBCMT:undname.obj
 0002:0000a84c       ??_R1A@?0A@EA@pcharNode@@8 0048484c     LIBCMT:undname.obj
 0002:0000ad40       ___safe_se_handler_table   00484d40     <linker-defined>
 0002:0000b3d8       ___rtc_iaa                 004853d8     LIBCMT:initsect.obj
 0002:0000b4dc       ___rtc_izz                 004854dc     LIBCMT:initsect.obj
 0002:0000b5e0       ___rtc_taa                 004855e0     LIBCMT:initsect.obj
 0002:0000b6e4       ___rtc_tzz                 004856e4     LIBCMT:initsect.obj
 0002:0000bcec       __TI2?AVbad_alloc@std@@    00485cec     dicomp.obj
 0002:0000bd00       __CTA2?AVbad_alloc@std@@   00485d00     dicomp.obj
 0002:0000bd10       __CT??_R0?AVbad_alloc@std@@@8??0bad_alloc@std@@QAE@ABV01@@Z12 00485d10     dicomp.obj
 0002:0000bd30       __CT??_R0?AVexception@std@@@8??0exception@std@@QAE@ABV01@@Z12 00485d30     dicomp.obj
 0002:0000c17c       __TI2?AVruntime_error@std@@ 0048617c     dicomp.obj
 0002:0000c1ec       __CTA2?AVruntime_error@std@@ 004861ec     dicomp.obj
 0002:0000c1fc       __CT??_R0?AVruntime_error@std@@@8??0runtime_error@std@@QAE@ABV01@@Z40 004861fc     dicomp.obj
 0002:0000c258       __TI3?AVfailure@ios_base@std@@ 00486258     dicomp.obj
 0002:0000c2b0       __CTA3?AVfailure@ios_base@std@@ 004862b0     dicomp.obj
 0002:0000c2c4       __CT??_R0?AVfailure@ios_base@std@@@8??0failure@ios_base@std@@QAE@ABV012@@Z40 004862c4     dicomp.obj
 0002:0000c68c       __TI2?AVbad_cast@std@@     0048668c     dicomp.obj
 0002:0000c6d0       __CTA2?AVbad_cast@std@@    004866d0     dicomp.obj
 0002:0000c6e0       __CT??_R0?AVbad_cast@std@@@8??0bad_cast@std@@QAE@ABV01@@Z12 004866e0     dicomp.obj
 0002:0000fbbc       __TI3?AVlength_error@std@@ 00489bbc     libcpmt:string.obj
 0002:0000fbf8       __CTA3?AVlength_error@std@@ 00489bf8     libcpmt:string.obj
 0002:0000fc08       __CT??_R0?AVlength_error@std@@@8??0length_error@std@@QAE@ABV01@@Z40 00489c08     libcpmt:string.obj
 0002:0000fc24       __CT??_R0?AVlogic_error@std@@@8??0logic_error@std@@QAE@ABV01@@Z40 00489c24     libcpmt:string.obj
 0002:0000fc6c       __TI3?AVout_of_range@std@@ 00489c6c     libcpmt:string.obj
 0002:0000fca8       __CTA3?AVout_of_range@std@@ 00489ca8     libcpmt:string.obj
 0002:0000fcb8       __CT??_R0?AVout_of_range@std@@@8??0out_of_range@std@@QAE@ABV01@@Z40 00489cb8     libcpmt:string.obj
 0002:0000fcd4       __TI3?AVinvalid_argument@std@@ 00489cd4     libcpmt:string.obj
 0002:0000fd10       __CTA3?AVinvalid_argument@std@@ 00489d10     libcpmt:string.obj
 0002:0000fd20       __CT??_R0?AVinvalid_argument@std@@@8??0invalid_argument@std@@QAE@ABV01@@Z40 00489d20     libcpmt:string.obj
 0002:0001020c       __TI2?AVbad_exception@std@@ 0048a20c     LIBCMT:frame.obj
 0002:0001021c       __CTA2?AVbad_exception@std@@ 0048a21c     LIBCMT:frame.obj
 0002:00010228       __CT??_R0?AVbad_exception@std@@@8??0bad_exception@std@@QAE@ABV01@@Z12 0048a228     LIBCMT:frame.obj
 0003:00000004       ??_R0?AVDICOMDataObject@@@8 0048c004     dicomp.obj
 0003:00000028       ??_R0?AVDICOMObject@@@8    0048c028     dicomp.obj
 0003:00000048       ??_R0?AV?$PQueueOfPtr@PAVVRGroupPQueue@@@@@8 0048c048     dicomp.obj
 0003:00000080       ??_R0?AV?$Array@PAVVRGroupPQueue@@@@@8 0048c080     dicomp.obj
 0003:000000b4       ??_R0?AVPolaroidPDU_Service@@@8 0048c0b4     dicomp.obj
 0003:000000dc       ??_R0?AVPDU_Service@@@8    0048c0dc     dicomp.obj
 0003:000000fc       ??_R0?AVBuffer@@@8         0048c0fc     dicomp.obj
 0003:00000118       ??_R0?AVAAssociateRQ@@@8   0048c118     dicomp.obj
 0003:00000138       ??_R0?AVAAssociateAC@@@8   0048c138     dicomp.obj
 0003:00000158       ??_R0?AVAAssociateRJ@@@8   0048c158     dicomp.obj
 0003:00000178       ??_R0?AVAReleaseRQ@@@8     0048c178     dicomp.obj
 0003:00000198       ??_R0?AVAReleaseRP@@@8     0048c198     dicomp.obj
 0003:000001b8       ??_R0?AVAAbortRQ@@@8       0048c1b8     dicomp.obj
 0003:000001d4       ??_R0?AVPDataTF@@@8        0048c1d4     dicomp.obj
 0003:000001f0       ??_R0?AVNSetRQ@@@8         0048c1f0     dicomp.obj
 0003:0000020c       ??_R0?AVNSetRSP@@@8        0048c20c     dicomp.obj
 0003:00000228       ??_R0?AVDICOMCommandObject@@@8 0048c228     dicomp.obj
 0003:00000250       ??_R0?AV?$Array@PAVDICOMDataObject@@@@@8 0048c250     dicomp.obj
 0003:00000284       ??_R0?AVStandardBox@@@8    0048c284     dicomp.obj
 0003:000002a4       ??_R0?AVBasicGrayscaleImageBox@@@8 0048c2a4     dicomp.obj
 0003:000002d0       ??_R0?AVBasicGrayscalePrintManagementMeta@@@8 0048c2d0     dicomp.obj
 0003:0000030c       ??_R0?AVAbstractPrintManagementMeta@@@8 0048c30c     dicomp.obj
 0003:00000340       ??_R0?AVAbstractFilmSession@@@8 0048c340     dicomp.obj
 0003:00000368       ??_R0?AVMyGrayscalePrintManagement@@@8 0048c368     dicomp.obj
 0003:0000039c       ??_R0?AVbad_alloc@std@@@8  0048c39c     dicomp.obj
 0003:000003c0       ??_R0?AVexception@std@@@8  0048c3c0     dicomp.obj
 0003:000003e4       ??_R0?AVfacet@locale@std@@@8 0048c3e4     dicomp.obj
 0003:0000040c       ??_R0?AVruntime_error@std@@@8 0048c40c     dicomp.obj
 0003:00000434       ??_R0?AVfailure@ios_base@std@@@8 0048c434     dicomp.obj
 0003:00000460       ??_R0?AV?$num_put@DV?$ostreambuf_iterator@DU?$char_traits@D@std@@@std@@@std@@@8 0048c460     dicomp.obj
 0003:000004c4       ??_R0?AV?$numpunct@D@std@@@8 0048c4c4     dicomp.obj
 0003:000004ec       ??_R0?AVbad_cast@std@@@8   0048c4ec     dicomp.obj
 0003:0000050c       ??_R0?AVAbstractPrinter@@@8 0048c50c     printsop.obj
 0003:00000530       ??_R0?AVAbstractPrintJob@@@8 0048c530     printsop.obj
 0003:00000558       ??_R0?AVAbstractOverlayBox@@@8 0048c558     printsop.obj
 0003:00000580       ??_R0?AVAbstractLUTBox@@@8 0048c580     printsop.obj
 0003:000005a4       ??_R0?AVAbstractAnnotationBox@@@8 0048c5a4     printsop.obj
 0003:000005d0       ??_R0?AVAbstractImageBox@@@8 0048c5d0     printsop.obj
 0003:000005f8       ??_R0?AVAbstractFilmBox@@@8 0048c5f8     printsop.obj
 0003:0000061c       ??_R0?AVNCreateRQ@@@8      0048c61c     printsop.obj
 0003:00000638       ??_R0?AVNCreateRSP@@@8     0048c638     printsop.obj
 0003:00000658       ??_R0?AVNDeleteRQ@@@8      0048c658     printsop.obj
 0003:00000674       ??_R0?AVNDeleteRSP@@@8     0048c674     printsop.obj
 0003:00000694       ??_R0?AVNActionRQ@@@8      0048c694     printsop.obj
 0003:000006b0       ??_R0?AVNActionRSP@@@8     0048c6b0     printsop.obj
 0003:000006d0       ??_R0?AVNGetRQ@@@8         0048c6d0     printsop.obj
 0003:000006ec       ??_R0?AVNGetRSP@@@8        0048c6ec     printsop.obj
 0003:00000708       ??_R0?AVNEventReportRQ@@@8 0048c708     printsop.obj
 0003:0000072c       ??_R0?AVNEventReportRSP@@@8 0048c72c     printsop.obj
 0003:00000750       ??_R0?AVStandardAdvancedBox@@@8 0048c750     printsop.obj
 0003:00000778       ??_R0?AV?$Array@PAVAbstractOverlayBox@@@@@8 0048c778     printsop.obj
 0003:000007b0       ??_R0?AV?$Array@PAVAbstractLUTBox@@@@@8 0048c7b0     printsop.obj
 0003:000007e4       ??_R0?AV?$Array@PAVAbstractImageBox@@@@@8 0048c7e4     printsop.obj
 0003:00000818       ??_R0?AV?$Array@PAVAbstractAnnotationBox@@@@@8 0048c818     printsop.obj
 0003:00000854       ??_R0?AV?$Array@PAVAbstractFilmBox@@@@@8 0048c854     printsop.obj
 0003:00000888       ??_R0?AV?$Array@PAVAbstractPrintJob@@@@@8 0048c888     printsop.obj
 0003:000008bc       ??_R0?AVStandardFilm@@@8   0048c8bc     printsop.obj
 0003:000008dc       ??_R0?AVStandardStatus@@@8 0048c8dc     printsop.obj
 0003:00000900       ??_R0?AVBasicFilmBox@@@8   0048c900     printsop.obj
 0003:00000920       ??_R0?AVBasicAnnotationBox@@@8 0048c920     printsop.obj
 0003:00000948       ??_R0?AVImageOverlayBox@@@8 0048c948     printsop.obj
 0003:0000096c       ??_R0?AVBasicFilmSession@@@8 0048c96c     printsop.obj
 0003:00000994       ??_R0?AVBasicPrinter@@@8   0048c994     printsop.obj
 0003:000009b4       ??_R0?AVBasicPrintJob@@@8  0048c9b4     printsop.obj
 0003:000009d8       ?TransferSyntaxAliases@@3PAU_TransferSyntaxAlias@@A 0048c9d8     dicom:cong.obj
 0003:00000ab8       ??_R0?AVSocket@@@8         0048cab8     dicom:cong.obj
 0003:00000ad0       ??_R0?AVcodecvt_base@std@@@8 0048cad0     dicom:cong.obj
 0003:00000af0       ??_R0?AUctype_base@std@@@8 0048caf0     dicom:cong.obj
 0003:00000b10       ??_R0?AVios_base@std@@@8   0048cb10     dicom:cong.obj
 0003:00000b2c       ??_R0?AV?$_Iosb@H@std@@@8  0048cb2c     dicom:cong.obj
 0003:00000b48       ??_R0?AV?$Array@PAVBufferSpace@@@@@8 0048cb48     dicom:cong.obj
 0003:00000b70       ??_R0?AV?$Array@PAVVR@@@@@8 0048cb70     dicom:cong.obj
 0003:00000b90       ??_R0?AV?$Array@VTransferSyntax@@@@@8 0048cb90     dicom:cong.obj
 0003:00000bb8       ??_R0?AV?$Array@VPresentationContext@@@@@8 0048cbb8     dicom:cong.obj
 0003:00000be8       ??_R0?AV?$Array@VPresentationContextAccept@@@@@8 0048cbe8     dicom:cong.obj
 0003:00000c1c       ??_R0?AV?$Array@VAbstractSyntax@@@@@8 0048cc1c     dicom:cong.obj
 0003:00000c44       ??_R0?AV?$Array@PAVDICOMObject@@@@@8 0048cc44     dicom:cong.obj
 0003:00000c6c       ??_R0?AV?$Array@U_RTCElement@@@@@8 0048cc6c     dicom:cong.obj
 0003:00000c94       ??_R0?AV?$Array@PAU_ACRNemaAddress@@@@@8 0048cc94     dicom:cong.obj
 0003:00000cc0       ??_R0?AV?$basic_ios@DU?$char_traits@D@std@@@std@@@8 0048ccc0     dicom:cong.obj
 0003:00000cf8       ??_R0?AV?$basic_istream@DU?$char_traits@D@std@@@std@@@8 0048ccf8     dicom:cong.obj
 0003:00000d34       ??_R0?AV?$Array@V?$FixedArrayElement@IU_RTCElement@@@@@@@8 0048cd34     dicom:cong.obj
 0003:00000d74       ??_R0?AV?$PQueueOfPtr@PAVVR@@@@@8 0048cd74     dicom:cong.obj
 0003:00000d98       ??_R0?AV?$basic_streambuf@DU?$char_traits@D@std@@@std@@@8 0048cd98     dicom:cong.obj
 0003:00000dd4       ??_R0?AVVRGroupPQueue@@@8  0048cdd4     dicom:cong.obj
 0003:00000df0       ??_R0?AVLinkedBuffer@@@8   0048cdf0     dicom:cong.obj
 0003:00000e0c       ??_R0?AVMemoryBuffer@@@8   0048ce0c     dicom:cong.obj
 0003:00000e28       ??_R0?AVFileBuffer@@@8     0048ce28     dicom:cong.obj
 0003:00000e44       ??_R0?AV?$PQueue@V?$FixedArrayElement@IU_RTCElement@@@@@@@8 0048ce44     dicom:cong.obj
 0003:00000e84       ??_R0?AV?$basic_filebuf@DU?$char_traits@D@std@@@std@@@8 0048ce84     dicom:cong.obj
 0003:00000ec0       ??_R0?AVCheckedPDU_Service@@@8 0048cec0     dicom:cong.obj
 0003:00000ee4       ??_R0?AV?$ctype@D@std@@@8  0048cee4     dicom:cong.obj
 0003:00000f00       ??_R0?AV?$codecvt@DDH@std@@@8 0048cf00     dicom:cong.obj
 0003:00000f20       ??_R0?AV?$basic_ifstream@DU?$char_traits@D@std@@@std@@@8 0048cf20     dicom:cong.obj
 0003:00000f64       ??_R0?AV_Locimp@locale@std@@@8 0048cf64     libcpmt:locale0.obj
 0003:00000f8c       ??_R0?AVlogic_error@std@@@8 0048cf8c     libcpmt:string.obj
 0003:00000fac       ??_R0?AVinvalid_argument@std@@@8 0048cfac     libcpmt:string.obj
 0003:00000fd0       ??_R0?AVlength_error@std@@@8 0048cfd0     libcpmt:string.obj
 0003:00000ff0       ??_R0?AVout_of_range@std@@@8 0048cff0     libcpmt:string.obj
 0003:0000101c       ??_R0?AV?$basic_ostream@DU?$char_traits@D@std@@@std@@@8 0048d01c     libcpmt:cerr.obj
 0003:0000105c       ?_Sync@ios_base@std@@0_NA  0048d05c     libcpmt:ios.obj
 0003:000010a8       ?_PJP_CPP_Copyright@@3PADA 0048d0a8     libcpmt:iosptrs.obj
 0003:00001110       __iob                      0048d110     LIBCMT:_file.obj
 0003:00001390       ___security_cookie         0048d390     LIBCMT:gs_cookie.obj
 0003:00001394       ___security_cookie_complement 0048d394     LIBCMT:gs_cookie.obj
 0003:0000139c       ??_R0?AVtype_info@@@8      0048d39c     LIBCMT:typinfo.obj
 0003:000013c4       ??_R0?AVbad_typeid@std@@@8 0048d3c4     LIBCMT:stdexcpt.obj
 0003:000013e4       ??_R0?AV__non_rtti_object@std@@@8 0048d3e4     LIBCMT:stdexcpt.obj
 0003:00001408       ___lconv_static_decimal    0048d408     LIBCMT:lconv.obj
 0003:0000140c       ___lconv_c                 0048d40c     LIBCMT:lconv.obj
 0003:0000143c       ___lconv                   0048d43c     LIBCMT:lconv.obj
 0003:00001440       __fltused                  0048d440     LIBCMT:fpinit.obj
 0003:00001444       __ldused                   0048d444     LIBCMT:fpinit.obj
 0003:00001448       ___app_type                0048d448     LIBCMT:crt0.obj
 0003:000015c8       ??_R0?AVbad_exception@std@@@8 0048d5c8     LIBCMT:frame.obj
 0003:000015e8       __pctype                   0048d5e8     LIBCMT:ctype.obj
 0003:000015ec       __pwctype                  0048d5ec     LIBCMT:ctype.obj
 0003:000015f0       __aexit_rtn                0048d5f0     LIBCMT:crt0dat.obj
 0003:000015f4       ___abort_behavior          0048d5f4     LIBCMT:abort.obj
 0003:000015f8       ___nullstring              0048d5f8     LIBCMT:output.obj
 0003:000015fc       ___wnullstring             0048d5fc     LIBCMT:output.obj
 0003:00001600       ___badioinfo               0048d600     LIBCMT:ioinit.obj
 0003:00001758       ___flsindex                0048d758     LIBCMT:tidtable.obj
 0003:0000175c       ___getvalueindex           0048d75c     LIBCMT:tidtable.obj
 0003:00001830       ___globallocalestatus      0048d830     LIBCMT:glstatus.obj
 0003:00001838       ___clocalestr              0048d838     LIBCMT:nlsdata2.obj
 0003:00001840       ___initiallocinfo          0048d840     LIBCMT:nlsdata2.obj
 0003:00001918       ___ptlocinfo               0048d918     LIBCMT:nlsdata2.obj
 0003:0000191c       ___lc_clike                0048d91c     LIBCMT:nlsdata2.obj
 0003:00001920       ___initiallocalestructinfo 0048d920     LIBCMT:nlsdata2.obj
 0003:00001928       __cfltcvt_tab              0048d928     LIBCMT:cmiscdat.obj
 0003:00001950       __XcptActTab               0048d950     LIBCMT:winxfltr.obj
 0003:000019c8       __First_FPE_Indx           0048d9c8     LIBCMT:winxfltr.obj
 0003:000019cc       __Num_FPE                  0048d9cc     LIBCMT:winxfltr.obj
 0003:000019d0       __XcptActTabSize           0048d9d0     LIBCMT:winxfltr.obj
 0003:000019d4       __XcptActTabCount          0048d9d4     LIBCMT:winxfltr.obj
 0003:000019d8       __amblksiz                 0048d9d8     LIBCMT:heapinit.obj
 0003:000019e0       __lookuptrailbytes         0048d9e0     LIBCMT:read.obj
 0003:00001ae0       __sys_errlist              0048dae0     LIBCMT:syserr.obj
 0003:00001b90       __sys_nerr                 0048db90     LIBCMT:syserr.obj
 0003:00001b98       ___lc_time_c               0048db98     LIBCMT:strftime.obj
 0003:00001c50       ___lc_time_curr            0048dc50     LIBCMT:strftime.obj
 0003:00001c54       ___mb_cur_max              0048dc54     LIBCMT:nlsdata1.obj
 0003:00001c58       ___decimal_point           0048dc58     LIBCMT:nlsdata1.obj
 0003:00001c5c       ___decimal_point_length    0048dc5c     LIBCMT:nlsdata1.obj
 0003:00001c60       ___initialmbcinfo          0048dc60     LIBCMT:mbctype.obj
 0003:00001e80       __mbctype                  0048de80     LIBCMT:mbctype.obj
 0003:00001f88       __mbcasemap                0048df88     LIBCMT:mbctype.obj
 0003:00002088       ___ptmbcinfo               0048e088     LIBCMT:mbctype.obj
 0003:00002180       __NLG_Destination          0048e180     LIBCMT:exsup.obj
 0003:00002190       ??_R0?AVDNameNode@@@8      0048e190     LIBCMT:undname.obj
 0003:000021a8       ??_R0?AVcharNode@@@8       0048e1a8     LIBCMT:undname.obj
 0003:000021c0       ??_R0?AVpDNameNode@@@8     0048e1c0     LIBCMT:undname.obj
 0003:000021dc       ??_R0?AVDNameStatusNode@@@8 0048e1dc     LIBCMT:undname.obj
 0003:000021fc       ??_R0?AVpcharNode@@@8      0048e1fc     LIBCMT:undname.obj
 0003:00002220       __timezone                 0048e220     LIBCMT:timeset.obj
 0003:00002224       __daylight                 0048e224     LIBCMT:timeset.obj
 0003:00002228       __dstbias                  0048e228     LIBCMT:timeset.obj
 0003:000022b0       __tzname                   0048e2b0     LIBCMT:timeset.obj
 0003:000022b8       __lpdays                   0048e2b8     LIBCMT:days.obj
 0003:000022ec       __days                     0048e2ec     LIBCMT:days.obj
 0003:00002374       __coninpfh                 0048e374     LIBCMT:initcon.obj
 0003:00002378       __confh                    0048e378     LIBCMT:initcon.obj
 0003:00002380       __pow10pos                 0048e380     LIBCMT:constpow.obj
 0003:000024e0       __pow10neg                 0048e4e0     LIBCMT:constpow.obj
 0003:00002d40       ?_Psave@?$_Facetptr@V?$num_put@DV?$ostreambuf_iterator@DU?$char_traits@D@std@@@std@@@std@@@std@@2PBVfacet@locale@2@B 0048ed40     dicomp.obj
 0003:00002d44       ?_Psave@?$_Facetptr@V?$numpunct@D@std@@@std@@2PBVfacet@locale@2@B 0048ed44     dicomp.obj
 0003:00002d48       ?id@?$num_put@DV?$ostreambuf_iterator@DU?$char_traits@D@std@@@std@@@std@@2V0locale@2@A 0048ed48     dicomp.obj
 0003:00002d4c       ?id@?$numpunct@D@std@@2V0locale@2@A 0048ed4c     dicomp.obj
 0003:00002ee4       ?DicomErrorHandler@@3P6AXHPBDH@ZA 0048eee4     dicom:cong.obj
 0003:00002ee8       ?_Stinit@?1??_Init@?$basic_filebuf@DU?$char_traits@D@std@@@std@@IAEXPAU_iobuf@@W4_Initfl@23@@Z@4HA 0048eee8     dicom:cong.obj
 0003:00002eec       ?_Psave@?$_Facetptr@V?$ctype@D@std@@@std@@2PBVfacet@locale@2@B 0048eeec     dicom:cong.obj
 0003:00002ef0       ?_Psave@?$_Facetptr@V?$codecvt@DDH@std@@@std@@2PBVfacet@locale@2@B 0048eef0     dicom:cong.obj
 0003:00002ef4       ?id@?$codecvt@DDH@std@@2V0locale@2@A 0048eef4     dicom:cong.obj
 0003:00002f64       ?_Clocptr@_Locimp@locale@std@@0PAV123@A 0048ef64     libcpmt:locale0.obj
 0003:00002f68       ?_Id_cnt@id@locale@std@@0HA 0048ef68     libcpmt:locale0.obj
 0003:00002f6c       ?id@?$ctype@D@std@@2V0locale@2@A 0048ef6c     libcpmt:locale0.obj
 0003:00002f70       ?id@?$codecvt@GDH@std@@2V0locale@2@A 0048ef70     libcpmt:locale0.obj
 0003:00002f74       ?id@?$ctype@_W@std@@2V0locale@2@A 0048ef74     libcpmt:locale0.obj
 0003:00002f78       ?id@?$codecvt@_WDH@std@@2V0locale@2@A 0048ef78     libcpmt:locale0.obj
 0003:00002f80       ?id@?$ctype@G@std@@2V0locale@2@A 0048ef80     libcpmt:locale0.obj
 0003:00002fd8       ?cerr@std@@3V?$basic_ostream@DU?$char_traits@D@std@@@1@A 0048efd8     libcpmt:cerr.obj
 0003:00003018       ?_Fpz@std@@3_JA            0048f018     libcpmt:ios.obj
 0003:00003020       ?_Index@ios_base@std@@0HA  0048f020     libcpmt:ios.obj
 0003:00003150       ?_Ptr_cin@std@@3PAV?$basic_istream@DU?$char_traits@D@std@@@1@A 0048f150     libcpmt:iosptrs.obj
 0003:00003154       ?_Ptr_cout@std@@3PAV?$basic_ostream@DU?$char_traits@D@std@@@1@A 0048f154     libcpmt:iosptrs.obj
 0003:00003158       ?_Ptr_cerr@std@@3PAV?$basic_ostream@DU?$char_traits@D@std@@@1@A 0048f158     libcpmt:iosptrs.obj
 0003:0000315c       ?_Ptr_clog@std@@3PAV?$basic_ostream@DU?$char_traits@D@std@@@1@A 0048f15c     libcpmt:iosptrs.obj
 0003:00003160       ?_Ptr_wcin@std@@3PAV?$basic_istream@_WU?$char_traits@_W@std@@@1@A 0048f160     libcpmt:iosptrs.obj
 0003:00003164       ?_Ptr_wcout@std@@3PAV?$basic_ostream@_WU?$char_traits@_W@std@@@1@A 0048f164     libcpmt:iosptrs.obj
 0003:00003168       ?_Ptr_wcerr@std@@3PAV?$basic_ostream@_WU?$char_traits@_W@std@@@1@A 0048f168     libcpmt:iosptrs.obj
 0003:0000316c       ?_Ptr_wclog@std@@3PAV?$basic_ostream@_WU?$char_traits@_W@std@@@1@A 0048f16c     libcpmt:iosptrs.obj
 0003:0000319c       __cflush                   0048f19c     LIBCMT:_file.obj
 0003:000031b4       ___lconv_static_null       0048f1b4     LIBCMT:lconv.obj
 0003:000031b8       ___pInvalidArgHandler      0048f1b8     LIBCMT:invarg.obj
 0003:000031bc       ___fastflag                0048f1bc     LIBCMT:fpinit.obj
 0003:000031c0       __adjust_fdiv              0048f1c0     LIBCMT:fpinit.obj
 0003:000031c4       __aenvptr                  0048f1c4     LIBCMT:crt0.obj
 0003:000031c8       __wenvptr                  0048f1c8     LIBCMT:crt0.obj
 0003:000031cc       ___error_mode              0048f1cc     LIBCMT:crt0.obj
 0003:000031d0       ___locale_changed          0048f1d0     LIBCMT:setlocal.obj
 0003:000031d8       __maxwait                  0048f1d8     LIBCMT:crtheap.obj
 0003:000031dc       __umaskval                 0048f1dc     LIBCMT:crt0dat.obj
 0003:000031e0       __osplatform               0048f1e0     LIBCMT:crt0dat.obj
 0003:000031e4       __osver                    0048f1e4     LIBCMT:crt0dat.obj
 0003:000031e8       __winver                   0048f1e8     LIBCMT:crt0dat.obj
 0003:000031ec       __winmajor                 0048f1ec     LIBCMT:crt0dat.obj
 0003:000031f0       __winminor                 0048f1f0     LIBCMT:crt0dat.obj
 0003:000031f4       ___argc                    0048f1f4     LIBCMT:crt0dat.obj
 0003:000031f8       ___argv                    0048f1f8     LIBCMT:crt0dat.obj
 0003:000031fc       ___wargv                   0048f1fc     LIBCMT:crt0dat.obj
 0003:00003200       __environ                  0048f200     LIBCMT:crt0dat.obj
 0003:00003204       ___initenv                 0048f204     LIBCMT:crt0dat.obj
 0003:00003208       __wenviron                 0048f208     LIBCMT:crt0dat.obj
 0003:0000320c       ___winitenv                0048f20c     LIBCMT:crt0dat.obj
 0003:00003210       __pgmptr                   0048f210     LIBCMT:crt0dat.obj
 0003:00003214       __wpgmptr                  0048f214     LIBCMT:crt0dat.obj
 0003:00003218       __exitflag                 0048f218     LIBCMT:crt0dat.obj
 0003:0000321c       __C_Termination_Done       0048f21c     LIBCMT:crt0dat.obj
 0003:00003220       __C_Exit_Done              0048f220     LIBCMT:crt0dat.obj
 0003:00003224       __stdbuf                   0048f224     LIBCMT:_sftbuf.obj
 0003:000036a4       _gpFlsAlloc                0048f6a4     LIBCMT:tidtable.obj
 0003:000036a8       _gpFlsGetValue             0048f6a8     LIBCMT:tidtable.obj
 0003:000036ac       _gpFlsSetValue             0048f6ac     LIBCMT:tidtable.obj
 0003:000036b0       _gpFlsFree                 0048f6b0     LIBCMT:tidtable.obj
 0003:000036b4       ?__pInconsistency@@3P6AXXZA 0048f6b4     LIBCMT:hooks.obj
 0003:000039dc       ___pPurecall               0048f9dc     LIBCMT:inithelp.obj
 0003:000039e0       ?_pnhHeap@@3P6AHI@ZA       0048f9e0     LIBCMT:handler.obj
 0003:000039e4       ___lc_handle               0048f9e4     LIBCMT:nlsdata2.obj
 0003:000039fc       ___lc_codepage             0048f9fc     LIBCMT:nlsdata2.obj
 0003:00003a00       ___lc_collate_cp           0048fa00     LIBCMT:nlsdata2.obj
 0003:00003b14       __crtheap                  0048fb14     LIBCMT:heapinit.obj
 0003:00003b34       ___sbh_pHeaderDefer        0048fb34     LIBCMT:sbheap.obj
 0003:00003b38       __newmode                  0048fb38     LIBCMT:_newmode.obj
 0003:00003b44       ___mbulinfo                0048fb44     LIBCMT:mbctype.obj
 0003:00003b50       ___mbcodepage              0048fb50     LIBCMT:mbctype.obj
 0003:00003b54       ___ismbcodepage            0048fb54     LIBCMT:mbctype.obj
 0003:00003b58       ___mblcid                  0048fb58     LIBCMT:mbctype.obj
 0003:00003b8c       ?pArgList@UnDecorator@@0PAVReplicator@@A 0048fb8c     LIBCMT:undname.obj
 0003:00003b90       ?pZNameList@UnDecorator@@0PAVReplicator@@A 0048fb90     LIBCMT:undname.obj
 0003:00003b94       ?pTemplateArgList@UnDecorator@@0PAVReplicator@@A 0048fb94     LIBCMT:undname.obj
 0003:00003b98       ?gName@UnDecorator@@0PBDB  0048fb98     LIBCMT:undname.obj
 0003:00003b9c       ?name@UnDecorator@@0PBDB   0048fb9c     LIBCMT:undname.obj
 0003:00003ba0       ?outputString@UnDecorator@@0PADA 0048fba0     LIBCMT:undname.obj
 0003:00003ba4       ?maxStringLength@UnDecorator@@0HA 0048fba4     LIBCMT:undname.obj
 0003:00003ba8       ?disableFlags@UnDecorator@@0KA 0048fba8     LIBCMT:undname.obj
 0003:00003bac       ?m_pGetParameter@UnDecorator@@0P6APADJ@ZA 0048fbac     LIBCMT:undname.obj
 0003:00003bb0       ?fExplicitTemplateParams@UnDecorator@@0_NA 0048fbb0     LIBCMT:undname.obj
 0003:00003bb1       ?fGetTemplateArgumentList@UnDecorator@@0_NA 0048fbb1     LIBCMT:undname.obj
 0003:00003bd0       __outputformat             0048fbd0     LIBCMT:outputformat.obj
 0003:00003c90       __commode                  0048fc90     LIBCMT:ncommode.obj
 0003:00003c98       __fmode                    0048fc98     LIBCMT:txtmode.obj
 0003:00003ca4       ___sbh_initialized         0048fca4     <common>
 0003:00003cb8       ___sbh_cntHeaderList       0048fcb8     <common>
 0003:00003cbc       ___sbh_pHeaderList         0048fcbc     <common>
 0003:00003cc0       ___sbh_threshold           0048fcc0     <common>
 0003:00003cc4       ___sbh_pHeaderScan         0048fcc4     <common>
 0003:00003cc8       ___sbh_sizeHeaderList      0048fcc8     <common>
 0003:00003ccc       ___sbh_indGroupDefer       0048fccc     <common>
 0003:00003cd0       ___active_heap             0048fcd0     <common>
 0003:00003cdc       __debugger_hook_dummy      0048fcdc     <common>
 0003:00003ce8       __nhandle                  0048fce8     <common>
 0003:00003d40       ___pioinfo                 0048fd40     <common>
 0003:00003e40       ___use_sse2_mathfcns       0048fe40     <common>
 0003:00003e50       ___sse2_available          0048fe50     <common>
 0003:00003e54       ___env_initialized         0048fe54     <common>
 0003:00003e64       ___onexitend               0048fe64     <common>
 0003:00003e68       ___onexitbegin             0048fe68     <common>
 0003:00003e6c       ___mbctype_initialized     0048fe6c     <common>
 0003:00003e70       ___dyn_tls_init_callback   0048fe70     <common>
 0003:00003e74       ___setlc_active            0048fe74     <common>
 0003:00003e84       ___unguarded_readlc_active 0048fe84     <common>
 0003:00003e88       __acmdln                   0048fe88     <common>
 0003:00003e94       ___piob                    0048fe94     <common>
 0003:000041e0       __bufin                    004901e0     <common>
 0003:000051e0       __nstream                  004911e0     <common>
 0004:00000000       __IMPORT_DESCRIPTOR_WSOCK32 00492000     wsock32:WSOCK32.dll
 0004:00000014       __IMPORT_DESCRIPTOR_KERNEL32 00492014     kernel32:KERNEL32.dll
 0004:00000028       __NULL_IMPORT_DESCRIPTOR   00492028     wsock32:WSOCK32.dll
 0004:00000298       __imp__TlsGetValue@4       00492298     kernel32:KERNEL32.dll
 0004:0000029c       __imp__SetEnvironmentVariableA@8 0049229c     kernel32:KERNEL32.dll
 0004:000002a0       __imp__CompareStringW@24   004922a0     kernel32:KERNEL32.dll
 0004:000002a4       __imp__CompareStringA@24   004922a4     kernel32:KERNEL32.dll
 0004:000002a8       __imp__SetEndOfFile@4      004922a8     kernel32:KERNEL32.dll
 0004:000002ac       __imp__CreateFileW@28      004922ac     kernel32:KERNEL32.dll
 0004:000002b0       __imp__WriteConsoleW@20    004922b0     kernel32:KERNEL32.dll
 0004:000002b4       __imp__GetConsoleOutputCP@0 004922b4     kernel32:KERNEL32.dll
 0004:000002b8       __imp__WriteConsoleA@20    004922b8     kernel32:KERNEL32.dll
 0004:000002bc       __imp__CreateFileA@28      004922bc     kernel32:KERNEL32.dll
 0004:000002c0       __imp__SetStdHandle@8      004922c0     kernel32:KERNEL32.dll
 0004:000002c4       __imp__GetTimeZoneInformation@4 004922c4     kernel32:KERNEL32.dll
 0004:000002c8       __imp__GetLocaleInfoW@16   004922c8     kernel32:KERNEL32.dll
 0004:000002cc       __imp__LoadLibraryA@4      004922cc     kernel32:KERNEL32.dll
 0004:000002d0       __imp__FreeLibrary@4       004922d0     kernel32:KERNEL32.dll
 0004:000002d4       __imp__SetConsoleCtrlHandler@8 004922d4     kernel32:KERNEL32.dll
 0004:000002d8       __imp__IsValidLocale@8     004922d8     kernel32:KERNEL32.dll
 0004:000002dc       __imp__EnumSystemLocalesA@8 004922dc     kernel32:KERNEL32.dll
 0004:000002e0       __imp__GetLocaleInfoA@16   004922e0     kernel32:KERNEL32.dll
 0004:000002e4       __imp__Sleep@4             004922e4     kernel32:KERNEL32.dll
 0004:000002e8       __imp__WideCharToMultiByte@32 004922e8     kernel32:KERNEL32.dll
 0004:000002ec       __imp__InterlockedIncrement@4 004922ec     kernel32:KERNEL32.dll
 0004:000002f0       __imp__InterlockedDecrement@4 004922f0     kernel32:KERNEL32.dll
 0004:000002f4       __imp__InterlockedCompareExchange@12 004922f4     kernel32:KERNEL32.dll
 0004:000002f8       __imp__InterlockedExchange@8 004922f8     kernel32:KERNEL32.dll
 0004:000002fc       __imp__MultiByteToWideChar@24 004922fc     kernel32:KERNEL32.dll
 0004:00000300       __imp__InitializeCriticalSection@4 00492300     kernel32:KERNEL32.dll
 0004:00000304       __imp__DeleteCriticalSection@4 00492304     kernel32:KERNEL32.dll
 0004:00000308       __imp__EnterCriticalSection@4 00492308     kernel32:KERNEL32.dll
 0004:0000030c       __imp__LeaveCriticalSection@4 0049230c     kernel32:KERNEL32.dll
 0004:00000310       __imp__RtlUnwind@16        00492310     kernel32:KERNEL32.dll
 0004:00000314       __imp__RaiseException@16   00492314     kernel32:KERNEL32.dll
 0004:00000318       __imp__TerminateProcess@8  00492318     kernel32:KERNEL32.dll
 0004:0000031c       __imp__GetCurrentProcess@0 0049231c     kernel32:KERNEL32.dll
 0004:00000320       __imp__UnhandledExceptionFilter@4 00492320     kernel32:KERNEL32.dll
 0004:00000324       __imp__SetUnhandledExceptionFilter@4 00492324     kernel32:KERNEL32.dll
 0004:00000328       __imp__IsDebuggerPresent@0 00492328     kernel32:KERNEL32.dll
 0004:0000032c       __imp__GetCommandLineA@0   0049232c     kernel32:KERNEL32.dll
 0004:00000330       __imp__HeapFree@12         00492330     kernel32:KERNEL32.dll
 0004:00000334       __imp__GetVersionExA@4     00492334     kernel32:KERNEL32.dll
 0004:00000338       __imp__HeapAlloc@12        00492338     kernel32:KERNEL32.dll
 0004:0000033c       __imp__GetProcessHeap@0    0049233c     kernel32:KERNEL32.dll
 0004:00000340       __imp__GetSystemTimeAsFileTime@4 00492340     kernel32:KERNEL32.dll
 0004:00000344       __imp__GetLastError@0      00492344     kernel32:KERNEL32.dll
 0004:00000348       __imp__GetCPInfo@8         00492348     kernel32:KERNEL32.dll
 0004:0000034c       __imp__LCMapStringA@24     0049234c     kernel32:KERNEL32.dll
 0004:00000350       __imp__LCMapStringW@24     00492350     kernel32:KERNEL32.dll
 0004:00000354       __imp__GetProcAddress@8    00492354     kernel32:KERNEL32.dll
 0004:00000358       __imp__GetModuleHandleA@4  00492358     kernel32:KERNEL32.dll
 0004:0000035c       __imp__ExitProcess@4       0049235c     kernel32:KERNEL32.dll
 0004:00000360       __imp__SetHandleCount@4    00492360     kernel32:KERNEL32.dll
 0004:00000364       __imp__GetStdHandle@4      00492364     kernel32:KERNEL32.dll
 0004:00000368       __imp__GetFileType@4       00492368     kernel32:KERNEL32.dll
 0004:0000036c       __imp__GetStartupInfoA@4   0049236c     kernel32:KERNEL32.dll
 0004:00000370       __imp__FatalAppExitA@8     00492370     kernel32:KERNEL32.dll
 0004:00000374       __imp__TlsAlloc@0          00492374     kernel32:KERNEL32.dll
 0004:00000378       __imp__TlsSetValue@8       00492378     kernel32:KERNEL32.dll
 0004:0000037c       __imp__TlsFree@4           0049237c     kernel32:KERNEL32.dll
 0004:00000380       __imp__SetLastError@4      00492380     kernel32:KERNEL32.dll
 0004:00000384       __imp__GetCurrentThreadId@0 00492384     kernel32:KERNEL32.dll
 0004:00000388       __imp__GetCurrentThread@0  00492388     kernel32:KERNEL32.dll
 0004:0000038c       __imp__WriteFile@20        0049238c     kernel32:KERNEL32.dll
 0004:00000390       __imp__GetModuleFileNameA@12 00492390     kernel32:KERNEL32.dll
 0004:00000394       __imp__FreeEnvironmentStringsA@4 00492394     kernel32:KERNEL32.dll
 0004:00000398       __imp__GetEnvironmentStrings@0 00492398     kernel32:KERNEL32.dll
 0004:0000039c       __imp__FreeEnvironmentStringsW@4 0049239c     kernel32:KERNEL32.dll
 0004:000003a0       __imp__GetEnvironmentStringsW@0 004923a0     kernel32:KERNEL32.dll
 0004:000003a4       __imp__HeapDestroy@4       004923a4     kernel32:KERNEL32.dll
 0004:000003a8       __imp__HeapCreate@12       004923a8     kernel32:KERNEL32.dll
 0004:000003ac       __imp__VirtualFree@12      004923ac     kernel32:KERNEL32.dll
 0004:000003b0       __imp__QueryPerformanceCounter@4 004923b0     kernel32:KERNEL32.dll
 0004:000003b4       __imp__GetTickCount@0      004923b4     kernel32:KERNEL32.dll
 0004:000003b8       __imp__GetCurrentProcessId@0 004923b8     kernel32:KERNEL32.dll
 0004:000003bc       __imp__VirtualAlloc@16     004923bc     kernel32:KERNEL32.dll
 0004:000003c0       __imp__HeapReAlloc@16      004923c0     kernel32:KERNEL32.dll
 0004:000003c4       __imp__CloseHandle@4       004923c4     kernel32:KERNEL32.dll
 0004:000003c8       __imp__SetFilePointer@16   004923c8     kernel32:KERNEL32.dll
 0004:000003cc       __imp__GetConsoleCP@0      004923cc     kernel32:KERNEL32.dll
 0004:000003d0       __imp__GetConsoleMode@8    004923d0     kernel32:KERNEL32.dll
 0004:000003d4       __imp__ReadFile@20         004923d4     kernel32:KERNEL32.dll
 0004:000003d8       __imp__FlushFileBuffers@4  004923d8     kernel32:KERNEL32.dll
 0004:000003dc       __imp__GetStringTypeA@20   004923dc     kernel32:KERNEL32.dll
 0004:000003e0       __imp__GetStringTypeW@16   004923e0     kernel32:KERNEL32.dll
 0004:000003e4       __imp__HeapSize@12         004923e4     kernel32:KERNEL32.dll
 0004:000003e8       __imp__GetTimeFormatA@24   004923e8     kernel32:KERNEL32.dll
 0004:000003ec       __imp__GetDateFormatA@24   004923ec     kernel32:KERNEL32.dll
 0004:000003f0       __imp__GetACP@0            004923f0     kernel32:KERNEL32.dll
 0004:000003f4       __imp__GetOEMCP@0          004923f4     kernel32:KERNEL32.dll
 0004:000003f8       __imp__IsValidCodePage@4   004923f8     kernel32:KERNEL32.dll
 0004:000003fc       __imp__GetUserDefaultLCID@0 004923fc     kernel32:KERNEL32.dll
 0004:00000400       \177KERNEL32_NULL_THUNK_DATA 00492400     kernel32:KERNEL32.dll
 0004:00000474       __imp__accept@12           00492474     wsock32:WSOCK32.dll
 0004:00000478       __imp__listen@8            00492478     wsock32:WSOCK32.dll
 0004:0000047c       __imp__bind@12             0049247c     wsock32:WSOCK32.dll
 0004:00000480       __imp__WSAGetLastError@0   00492480     wsock32:WSOCK32.dll
 0004:00000484       __imp__recv@16             00492484     wsock32:WSOCK32.dll
 0004:00000488       __imp__send@16             00492488     wsock32:WSOCK32.dll
 0004:0000048c       __imp__select@20           0049248c     wsock32:WSOCK32.dll
 0004:00000490       __imp__socket@12           00492490     wsock32:WSOCK32.dll
 0004:00000494       __imp__setsockopt@20       00492494     wsock32:WSOCK32.dll
 0004:00000498       __imp__connect@12          00492498     wsock32:WSOCK32.dll
 0004:0000049c       __imp__getservbyname@8     0049249c     wsock32:WSOCK32.dll
 0004:000004a0       __imp__htons@4             004924a0     wsock32:WSOCK32.dll
 0004:000004a4       __imp__gethostbyname@4     004924a4     wsock32:WSOCK32.dll
 0004:000004a8       __imp__inet_addr@4         004924a8     wsock32:WSOCK32.dll
 0004:000004ac       __imp__shutdown@8          004924ac     wsock32:WSOCK32.dll
 0004:000004b0       __imp__closesocket@4       004924b0     wsock32:WSOCK32.dll
 0004:000004b4       __imp__WSACleanup@0        004924b4     wsock32:WSOCK32.dll
 0004:000004b8       __imp__WSAStartup@8        004924b8     wsock32:WSOCK32.dll
 0004:000004bc       \177WSOCK32_NULL_THUNK_DATA 004924bc     wsock32:WSOCK32.dll

 entry point at        0001:00036dd2

