 test

 Timestamp is 51685470 (Fri Apr 12 14:37:36 2013)

 Preferred load address is 00400000

 Start         Length     Name                   Class
 0001:00000000 0005f958H .text                   CODE
 0001:0005f960 0000596dH .text$x                 CODE
 0001:000652d0 00001075H .text$yc                CODE
 0001:00066350 00001057H .text$yd                CODE
 0002:00000000 00000104H .CRT$XCA                DATA
 0002:00000104 0000010eH .CRT$XCC                DATA
 0002:00000214 00000109H .CRT$XCU                DATA
 0002:00000320 00000104H .CRT$XCZ                DATA
 0002:00000424 00000104H .CRT$XIA                DATA
 0002:00000528 00000118H .CRT$XIC                DATA
 0002:00000640 00000104H .CRT$XIY                DATA
 0002:00000744 00000104H .CRT$XIZ                DATA
 0002:00000848 00000104H .CRT$XPA                DATA
 0002:0000094c 00000104H .CRT$XPX                DATA
 0002:00000a50 00000104H .CRT$XPXA               DATA
 0002:00000b54 00000104H .CRT$XPZ                DATA
 0002:00000c58 00000104H .CRT$XTA                DATA
 0002:00000d5c 00000104H .CRT$XTZ                DATA
 0002:00000e60 00005f8fH .rdata                  DATA
 0002:00006df0 00000148H .rdata$debug            DATA
 0002:00006f38 00001c7fH .rdata$r                DATA
 0002:00008bc0 000004f9H .rdata$sxdata           DATA
 0002:000090bc 00000104H .rtc$IAA                DATA
 0002:000091c0 00000104H .rtc$IZZ                DATA
 0002:000092c4 00000104H .rtc$TAA                DATA
 0002:000093c8 00000104H .rtc$TZZ                DATA
 0002:000094d0 00004b31H .xdata$x                DATA
 0002:0000e001 00000000H .edata                  DATA
 0003:00000000 000023e0H .data                   DATA
 0003:000023e0 00002384H .bss                    DATA
 0004:00000000 00000028H .idata$2                DATA
 0004:00000028 00000014H .idata$3                DATA
 0004:0000003c 00000260H .idata$4                DATA
 0004:0000029c 00000260H .idata$5                DATA
 0004:000004fc 00000833H .idata$6                DATA

  Address         Publics by Value              Rva+Base       Lib:Object

 0000:00000000       __except_list              00000000     <absolute>
 0000:000000d4       ___safe_se_handler_count   000000d4     <absolute>
 0000:00000000       ___ImageBase               00400000     <linker-defined>
 0001:000002e0       ??0UID@@QAE@XZ             004012e0 f i test.obj
 0001:00000310       ?Set@UID@@QAEXPAE@Z        00401310 f i test.obj
 0001:00000360       ?Set@UID@@QAEXPBD@Z        00401360 f i test.obj
 0001:000003b0       ?GetBuffer@UID@@QAEPAEI@Z  004013b0 f i test.obj
 0001:000003c0       ?SetLength@UID@@QAEXI@Z    004013c0 f i test.obj
 0001:000003f0       ?GetSize@UID@@QAEIXZ       004013f0 f i test.obj
 0001:00000400       ??4UID@@QAE?AV0@AAV0@@Z    00401400 f i test.obj
 0001:00000460       ??4AbstractSyntax@@QAEAAV0@AAV0@@Z 00401460 f i test.obj
 0001:000004d0       ??4TransferSyntax@@QAEAAV0@AAV0@@Z 004014d0 f i test.obj
 0001:00000550       ?IsAlpha@@YAHE@Z           00401550 f   test.obj
 0001:00000580       ?IsDataAlpha@@YAHIPAE@Z    00401580 f   test.obj
 0001:000005d0       ?PrintUDATA@@YAHIPAXG@Z    004015d0 f   test.obj
 0001:00000aa0       ?DumpVR@@YAHPAVVR@@@Z      00401aa0 f   test.obj
 0001:00000bc0       ??_GVR@@QAEPAXI@Z          00401bc0 f i test.obj
 0001:00000bf0       ?NonDestructiveDumpDICOMObject@@YAHPAVDICOMObject@@@Z 00401bf0 f   test.obj
 0001:00000cf0       ??0DICOMCommandObject@@QAE@XZ 00401cf0 f i test.obj
 0001:00000d60       ??1DICOMCommandObject@@UAE@XZ 00401d60 f i test.obj
 0001:00000dc0       ??_GDICOMCommandObject@@UAEPAXI@Z 00401dc0 f i test.obj
 0001:00000dc0       ??_EDICOMCommandObject@@UAEPAXI@Z 00401dc0 f i test.obj
 0001:00000e30       ?SetStringVR@@YAXPAPAVVR@@HHPAD@Z 00401e30 f   test.obj
 0001:00000f90       ??0DICOMDataObject@@QAE@XZ 00401f90 f i test.obj
 0001:00001000       ??1DICOMDataObject@@UAE@XZ 00402000 f i test.obj
 0001:00001060       ??_EDICOMDataObject@@UAEPAXI@Z 00402060 f i test.obj
 0001:00001060       ??_GDICOMDataObject@@UAEPAXI@Z 00402060 f i test.obj
 0001:000010d0       ?CMoveClient@@YAHPAE0HQAPAD@Z 004020d0 f   test.obj
 0001:00001e60       ?DICOMParseProc@@YAHPAVDICOMDataObject@@@Z 00402e60 f   test.obj
 0001:00001e80       ?Fork@@YAHPAX@Z            00402e80 f   test.obj
 0001:00001eb0       ?CStoreServer@@YAHXZ       00402eb0 f   test.obj
 0001:00002570       ?CMEchoStoreServerProc@@YAHH@Z 00403570 f   test.obj
 0001:00002d80       ?CMEchoStoreServer@@YAHXZ  00403d80 f   test.obj
 0001:00002e60       ?CEchoStoreServer@@YAHXZ   00403e60 f   test.obj
 0001:00003690       ?Write@RunTimeClassStorage@@QAEHPAVPDU_Service@@PAVDICOMDataObject@@@Z 00404690 f i test.obj
 0001:000036b0       ?GetUID@RunTimeClassStorage@@UAEHAAVUID@@@Z 004046b0 f   test.obj
 0001:00003700       ?SetUID@RunTimeClassStorage@@QAEHAAVUID@@@Z 00404700 f   test.obj
 0001:00003750       ?SetUID@RunTimeClassStorage@@QAEHPAVVR@@@Z 00404750 f   test.obj
 0001:00003810       ?SetUID@RunTimeClassStorage@@QAEHPAVDICOMDataObject@@@Z 00404810 f   test.obj
 0001:00003840       ??0CStoreRQ@@QAE@XZ        00404840 f i test.obj
 0001:00003850       ??0CStoreRSP@@QAE@XZ       00404850 f i test.obj
 0001:00003860       ?FixImage@@YAHPAVDICOMDataObject@@@Z 00404860 f   test.obj
 0001:00003e10       ?ForwardProcMain@@YAHPAUForwardData@@@Z 00404e10 f   test.obj
 0001:00003e50       ?PrintOptions@@YAHXZ       00404e50 f   test.obj
 0001:00003e80       ?GetSize@?$Array@VTransferSyntax@@@@QAEIXZ 00404e80 f i test.obj
 0001:00003e90       ??4?$Array@VTransferSyntax@@@@QAEABV0@AAV0@@Z 00404e90 f i test.obj
 0001:00003ec0       ?GetSize@?$Array@VPresentationContext@@@@QAEIXZ 00404ec0 f i test.obj
 0001:00003ed0       ?GetSize@?$Array@VPresentationContextAccept@@@@QAEIXZ 00404ed0 f i test.obj
 0001:00003ee0       ?GetSize@?$Array@PAVDICOMDataObject@@@@QAEIXZ 00404ee0 f i test.obj
 0001:00003ef0       ?Get@?$Array@VTransferSyntax@@@@QAEAAVTransferSyntax@@I@Z 00404ef0 f i test.obj
 0001:00003f90       ?Get@?$Array@VPresentationContext@@@@QAEAAVPresentationContext@@I@Z 00404f90 f i test.obj
 0001:00004030       ?Get@?$Array@VPresentationContextAccept@@@@QAEAAVPresentationContextAccept@@I@Z 00405030 f i test.obj
 0001:000040d0       ?Get@?$Array@PAVDICOMDataObject@@@@QAEAAPAVDICOMDataObject@@I@Z 004050d0 f i test.obj
 0001:00004170       ??0UID@@QAE@PBD@Z          00405170 f i test.obj
 0001:000041c0       ??4PresentationContext@@QAEAAV0@AAV0@@Z 004051c0 f i test.obj
 0001:00004240       ?Dump@@YAXAAVAAssociateRQ@@@Z 00405240 f   test.obj
 0001:00004630       ??4PresentationContextAccept@@QAEAAV0@AAV0@@Z 00405630 f i test.obj
 0001:00004690       ?DumpDDO@@YAHPAVDICOMDataObject@@I@Z 00405690 f   test.obj
 0001:000047c0       ?DumpDDOFile@@YAHPAD@Z     004057c0 f   test.obj
 0001:00004910       ?CEchoServer@@YAHXZ        00405910 f   test.obj
 0001:00004c50       ?CFindClient@@YAHPAE0HQAPAD@Z 00405c50 f   test.obj
 0001:00005810       ??0StandardStorage@@QAE@XZ 00406810 f i test.obj
 0001:00005830       ?GetUID@StandardStorage@@UAEHAAVUID@@@Z 00406830 f i test.obj
 0001:00005840       ?CheckObject@StandardStorage@@UAEGPAVDICOMDataObject@@PAVPDU_Service@@@Z 00406840 f i test.obj
 0001:00005850       ?GetUID@StandardStorage@@W3AEHAAVUID@@@Z 00406850 f i test.obj
 0001:00005860       ?IARQ@@YAXAAVAAssociateRQ@@@Z 00406860 f   test.obj
 0001:00005bc0       ?Dump@@YAXAAVAAssociateAC@@@Z 00406bc0 f   test.obj
 0001:00005ef0       ?CEchoClient@@YAHPAE0PAD1@Z 00406ef0 f   test.obj
 0001:00006670       ??0RunTimeClassStorage@@QAE@XZ 00407670 f i test.obj
 0001:000066b0       ?uGetUID@RunTimeClassStorage@@UAEHAAVUID@@@Z 004076b0 f i test.obj
 0001:000066c0       ?GetUID@RunTimeClassStorage@@W3AEHAAVUID@@@Z 004076c0 f i test.obj
 0001:000066d0       ?CForwarder@@YAHPAE00HHHH@Z 004076d0 f   test.obj
 0001:000079f0       ?cstoreclient@@YAXPAD00@Z  004089f0 f   test.obj
 0001:00007d20       ?ForwardProc@@YAHPAUForwardData@@@Z 00408d20 f   test.obj
 0001:00007d60       ?CForwarderMain@@YAHPAE00HH@Z 00408d60 f   test.obj
 0001:00007f40       _main                      00408f40 f   test.obj
 0001:00008820       ?strchr@@YAPADPADH@Z       00409820 f i dicom:cong.obj
 0001:00008830       ?strstr@@YAPADPADPBD@Z     00409830 f i dicom:cong.obj
 0001:00008860       ?GetIncomingEndian@Buffer@@QAEIXZ 00409860 f i dicom:cong.obj
 0001:00008870       ??0VR@@QAE@XZ              00409870 f i dicom:cong.obj
 0001:00008890       ??8UID@@QAEHAAV0@@Z        00409890 f i dicom:cong.obj
 0001:000088e0       ??9UID@@QAEHAAV0@@Z        004098e0 f i dicom:cong.obj
 0001:00008930       ?SetType@TransferSyntax@@QAEXI@Z 00409930 f i dicom:cong.obj
 0001:00008940       ??0BufferSpace@@QAE@XZ     00409940 f   dicom:cong.obj
 0001:00008960       ??1BufferSpace@@QAE@XZ     00409960 f   dicom:cong.obj
 0001:00008980       ??_GBufferSpace@@QAEPAXI@Z 00409980 f i dicom:cong.obj
 0001:000089b0       ?SetIncomingEndian@Buffer@@QAEHI@Z 004099b0 f   dicom:cong.obj
 0001:000089c0       ?SetOutgoingEndian@Buffer@@QAEHI@Z 004099c0 f   dicom:cong.obj
 0001:000089d0       ?SetBreakSize@Buffer@@QAEHI@Z 004099d0 f   dicom:cong.obj
 0001:000089e0       ?Poll@Buffer@@QAEHXZ       004099e0 f   dicom:cong.obj
 0001:000089f0       ??0Socket@@QAE@XZ          004099f0 f   dicom:cong.obj
 0001:00008a40       ??1Socket@@UAE@XZ          00409a40 f   dicom:cong.obj
 0001:00008aa0       ?Gethostbyname@Socket@@QAEPAUhostent@@PAD@Z 00409aa0 f   dicom:cong.obj
 0001:00008b50       ?Getservbyname@Socket@@QAEPAUservent@@PBDPAD@Z 00409b50 f   dicom:cong.obj
 0001:00008bb0       ?Open@Socket@@UAEHPAD0@Z   00409bb0 f   dicom:cong.obj
 0001:00008cc0       ?Close@Socket@@QAEHXZ      00409cc0 f   dicom:cong.obj
 0001:00008d00       ?Poll@Socket@@UAEHXZ       00409d00 f   dicom:cong.obj
 0001:00008d60       ?SendBinary@Socket@@UAEHPAEI@Z 00409d60 f   dicom:cong.obj
 0001:00008d90       ?ReadBinary@Socket@@UAEHPAEI@Z 00409d90 f   dicom:cong.obj
 0001:00008e20       ?GetLinkError@Socket@@QAEHXZ 00409e20 f   dicom:cong.obj
 0001:00008e30       ?SetTimeOut@Socket@@QAEHH@Z 00409e30 f   dicom:cong.obj
 0001:00008e40       ?BindUDPServer@Socket@@QAEHPAD@Z 00409e40 f   dicom:cong.obj
 0001:00008f10       ?BindUDPClient@Socket@@QAEHPADPBD@Z 00409f10 f   dicom:cong.obj
 0001:00009040       ?SetDicomErrorHandler@@YAXP6AXHPBDH@Z@Z 0040a040 f   dicom:cong.obj
 0001:00009050       ?DicomError@@YAHHPBDH@Z    0040a050 f   dicom:cong.obj
 0001:000090a0       ??0VR@@QAE@GGIH@Z          0040a0a0 f   dicom:cong.obj
 0001:00009130       ??0VR@@QAE@GGIPAG@Z        0040a130 f   dicom:cong.obj
 0001:00009170       ??0VR@@QAE@GGIPAGH@Z       0040a170 f   dicom:cong.obj
 0001:000091b0       ??0VR@@QAE@GGIPAX@Z        0040a1b0 f   dicom:cong.obj
 0001:000091f0       ??0VR@@QAE@GGIPAXH@Z       0040a1f0 f   dicom:cong.obj
 0001:00009230       ??OVR@@QAEIAAV0@@Z         0040a230 f   dicom:cong.obj
 0001:00009260       ??MVR@@QAEIAAV0@@Z         0040a260 f   dicom:cong.obj
 0001:00009290       ??8VR@@QAEIAAV0@@Z         0040a290 f   dicom:cong.obj
 0001:000092c0       ?GroupLength@VRGroupPQueue@@QAEPAVVR@@XZ 0040a2c0 f   dicom:cong.obj
 0001:000093a0       ??OVRGroupPQueue@@QAEIAAV0@@Z 0040a3a0 f   dicom:cong.obj
 0001:000093c0       ??MVRGroupPQueue@@QAEIAAV0@@Z 0040a3c0 f   dicom:cong.obj
 0001:000093e0       ??8VRGroupPQueue@@QAEIAAV0@@Z 0040a3e0 f   dicom:cong.obj
 0001:00009400       ?GetSpecialValueCodeOfVR@VR@@AAEHPAV1@@Z 0040a400 f   dicom:cong.obj
 0001:000094b0       ?GetUINT16@VR@@QAEGXZ      0040a4b0 f   dicom:cong.obj
 0001:000094f0       ?GetUINT@VR@@QAEIXZ        0040a4f0 f   dicom:cong.obj
 0001:00009520       ?GetULongLong@VR@@QAE_KXZ  0040a520 f   dicom:cong.obj
 0001:00009590       ?Getatoi@VR@@QAEHXZ        0040a590 f   dicom:cong.obj
 0001:000095f0       ?SwapBigEndianData@VR@@QAEXXZ 0040a5f0 f   dicom:cong.obj
 0001:000096e0       ??1ApplicationContext@@QAE@XZ 0040a6e0 f   dicom:cong.obj
 0001:000096f0       ?Set@ApplicationContext@@QAEXAAVUID@@@Z 0040a6f0 f   dicom:cong.obj
 0001:00009730       ?Size@ApplicationContext@@QAEIXZ 0040a730 f   dicom:cong.obj
 0001:00009740       ??1AbstractSyntax@@QAE@XZ  0040a740 f   dicom:cong.obj
 0001:00009750       ?Set@AbstractSyntax@@QAEXAAVUID@@@Z 0040a750 f   dicom:cong.obj
 0001:00009790       ?Size@AbstractSyntax@@QAEIXZ 0040a790 f   dicom:cong.obj
 0001:000097a0       ??1TransferSyntax@@QAE@XZ  0040a7a0 f   dicom:cong.obj
 0001:000097b0       ?Set@TransferSyntax@@QAEXAAVUID@@@Z 0040a7b0 f   dicom:cong.obj
 0001:000097f0       ?Size@TransferSyntax@@QAEIXZ 0040a7f0 f   dicom:cong.obj
 0001:00009800       ??1ImplementationClass@@QAE@XZ 0040a800 f   dicom:cong.obj
 0001:00009810       ?Set@ImplementationClass@@QAEXAAVUID@@@Z 0040a810 f   dicom:cong.obj
 0001:00009850       ?Size@ImplementationClass@@QAEIXZ 0040a850 f   dicom:cong.obj
 0001:00009860       ??1ImplementationVersion@@QAE@XZ 0040a860 f   dicom:cong.obj
 0001:00009870       ?Set@ImplementationVersion@@QAEXAAVUID@@@Z 0040a870 f   dicom:cong.obj
 0001:000098b0       ?Size@ImplementationVersion@@QAEIXZ 0040a8b0 f   dicom:cong.obj
 0001:000098c0       ?SetAbstractSyntax@PresentationContext@@QAEXAAVAbstractSyntax@@@Z 0040a8c0 f   dicom:cong.obj
 0001:000098d0       ??0MaximumSubLength@@QAE@XZ 0040a8d0 f   dicom:cong.obj
 0001:000098e0       ??0MaximumSubLength@@QAE@I@Z 0040a8e0 f   dicom:cong.obj
 0001:00009900       ??1MaximumSubLength@@QAE@XZ 0040a900 f   dicom:cong.obj
 0001:00009910       ?Set@MaximumSubLength@@QAEXI@Z 0040a910 f   dicom:cong.obj
 0001:00009920       ?Get@MaximumSubLength@@QAEIXZ 0040a920 f   dicom:cong.obj
 0001:00009930       ?Size@MaximumSubLength@@QAEIXZ 0040a930 f   dicom:cong.obj
 0001:00009940       ??1SCPSCURoleSelect@@QAE@XZ 0040a940 f   dicom:cong.obj
 0001:00009950       ?Size@SCPSCURoleSelect@@QAEIXZ 0040a950 f   dicom:cong.obj
 0001:00009970       ??1UserInformation@@QAE@XZ 0040a970 f   dicom:cong.obj
 0001:00009980       ?SetMax@UserInformation@@QAEXAAVMaximumSubLength@@@Z 0040a980 f   dicom:cong.obj
 0001:000099a0       ?GetMax@UserInformation@@QAEIXZ 0040a9a0 f   dicom:cong.obj
 0001:000099b0       ?Size@UserInformation@@QAEIXZ 0040a9b0 f   dicom:cong.obj
 0001:000099f0       ??4ApplicationContext@@QAEAAV0@AAV0@@Z 0040a9f0 f i dicom:cong.obj
 0001:00009a50       ?SetApplicationContext@AAssociateRQ@@QAEXAAVUID@@@Z 0040aa50 f   dicom:cong.obj
 0001:00009a90       ??4ImplementationClass@@QAEAAV0@AAV0@@Z 0040aa90 f i dicom:cong.obj
 0001:00009af0       ??4ImplementationVersion@@QAEAAV0@AAV0@@Z 0040aaf0 f i dicom:cong.obj
 0001:00009b50       ??4SCPSCURoleSelect@@QAEAAV0@AAV0@@Z 0040ab50 f i dicom:cong.obj
 0001:00009bc0       ??1PresentationContextAccept@@QAE@XZ 0040abc0 f   dicom:cong.obj
 0001:00009bd0       ?SetTransferSyntax@PresentationContextAccept@@QAEXAAVTransferSyntax@@@Z 0040abd0 f   dicom:cong.obj
 0001:00009be0       ?Size@PresentationContextAccept@@QAEIXZ 0040abe0 f   dicom:cong.obj
 0001:00009c00       ?SetApplicationContext@AAssociateAC@@QAEXAAVApplicationContext@@@Z 0040ac00 f   dicom:cong.obj
 0001:00009c10       ??0AAssociateRJ@@QAE@XZ    0040ac10 f   dicom:cong.obj
 0001:00009c40       ??0AAssociateRJ@@QAE@EEE@Z 0040ac40 f   dicom:cong.obj
 0001:00009c70       ??1AAssociateRJ@@UAE@XZ    0040ac70 f   dicom:cong.obj
 0001:00009c80       ?Size@AAssociateRJ@@QAEIXZ 0040ac80 f   dicom:cong.obj
 0001:00009c90       ??0AReleaseRQ@@QAE@XZ      0040ac90 f   dicom:cong.obj
 0001:00009cb0       ??1AReleaseRQ@@UAE@XZ      0040acb0 f   dicom:cong.obj
 0001:00009cc0       ?Size@AReleaseRQ@@QAEIXZ   0040acc0 f   dicom:cong.obj
 0001:00009cd0       ??0AReleaseRP@@QAE@XZ      0040acd0 f   dicom:cong.obj
 0001:00009cf0       ??1AReleaseRP@@UAE@XZ      0040acf0 f   dicom:cong.obj
 0001:00009d00       ?Size@AReleaseRP@@QAEIXZ   0040ad00 f   dicom:cong.obj
 0001:00009d10       ??0AAbortRQ@@QAE@XZ        0040ad10 f   dicom:cong.obj
 0001:00009d30       ??0AAbortRQ@@QAE@EE@Z      0040ad30 f   dicom:cong.obj
 0001:00009d60       ??1AAbortRQ@@UAE@XZ        0040ad60 f   dicom:cong.obj
 0001:00009d70       ?Size@AAbortRQ@@QAEIXZ     0040ad70 f   dicom:cong.obj
 0001:00009d80       ?ReadBinary@MemoryBuffer@@UAEHPAEI@Z 0040ad80 f   dicom:cong.obj
 0001:00009de0       ?SendBinary@MemoryBuffer@@UAEHPAEI@Z 0040ade0 f   dicom:cong.obj
 0001:00009df0       ?GetOutgoingSize@LinkedBuffer@@QAEIXZ 0040adf0 f   dicom:cong.obj
 0001:00009e00       ?GetIncomingSize@LinkedBuffer@@QAEIXZ 0040ae00 f   dicom:cong.obj
 0001:00009e10       ?CanYouHandleTransferSyntax@PDU_Service@@UAEHAAVTransferSyntax@@@Z 0040ae10 f   dicom:cong.obj
 0001:00009e40       ?SetApplicationContext@PDU_Service@@UAEHAAVUID@@@Z 0040ae40 f   dicom:cong.obj
 0001:00009e90       ?GetLocalAddress@PDU_Service@@UAEHPAE@Z 0040ae90 f   dicom:cong.obj
 0001:00009ed0       ?GetRemoteAddress@PDU_Service@@UAEHPAE@Z 0040aed0 f   dicom:cong.obj
 0001:00009f10       ?ImplicitLittleEndian_ParseRawVRIntoDCM@PDU_Service@@MAEHAAVLinkedBuffer@@PAVDICOMObject@@@Z 0040af10 f   dicom:cong.obj
 0001:00009f30       ?ImplicitLittleEndian_ParseDCMIntoRawVR@PDU_Service@@MAEHPAVDICOMObject@@AAVLinkedBuffer@@@Z 0040af30 f   dicom:cong.obj
 0001:00009f50       ?ExplicitLittleEndian_ParseRawVRIntoDCM@PDU_Service@@MAEHAAVLinkedBuffer@@PAVDICOMObject@@@Z 0040af50 f   dicom:cong.obj
 0001:00009f70       ?ExplicitLittleEndian_ParseDCMIntoRawVR@PDU_Service@@MAEHPAVDICOMObject@@AAVLinkedBuffer@@@Z 0040af70 f   dicom:cong.obj
 0001:00009f90       ?ExplicitBigEndian_ParseRawVRIntoDCM@PDU_Service@@MAEHAAVLinkedBuffer@@PAVDICOMObject@@@Z 0040af90 f   dicom:cong.obj
 0001:00009fb0       ?ExplicitBigEndian_ParseDCMIntoRawVR@PDU_Service@@MAEHPAVDICOMObject@@AAVLinkedBuffer@@@Z 0040afb0 f   dicom:cong.obj
 0001:00009ff0       ?GetTransferSyntaxUID@PDU_Service@@QAEPADI@Z 0040aff0 f   dicom:cong.obj
 0001:0000a060       ?SwitchEndian@@YAGG@Z      0040b060 f   dicom:cong.obj
 0001:0000a080       ?SwitchEndian@@YAII@Z      0040b080 f   dicom:cong.obj
 0001:0000a0a0       ?SwitchEndian@@YAFF@Z      0040b0a0 f   dicom:cong.obj
 0001:0000a0c0       ?SwitchEndian@@YAHH@Z      0040b0c0 f   dicom:cong.obj
 0001:0000a0e0       ??4BE_UINT16@@QAEAAV0@AAG@Z 0040b0e0 f   dicom:cong.obj
 0001:0000a100       ??4BE_UINT16@@QAEAAV0@ABV0@@Z 0040b100 f   dicom:cong.obj
 0001:0000a110       ??4BE_UINT16@@QAEAAV0@ABH@Z 0040b110 f   dicom:cong.obj
 0001:0000a130       ??IBE_UINT16@@QAEPAV0@XZ   0040b130 f   dicom:cong.obj
 0001:0000a140       ??BBE_UINT16@@QAEGXZ       0040b140 f   dicom:cong.obj
 0001:0000a160       ??0BE_UINT16@@QAE@XZ       0040b160 f   dicom:cong.obj
 0001:0000a170       ??0BE_UINT16@@QAE@AAV0@@Z  0040b170 f   dicom:cong.obj
 0001:0000a180       ??0BE_UINT16@@QAE@G@Z      0040b180 f   dicom:cong.obj
 0001:0000a1a0       ??0BE_UINT16@@QAE@I@Z      0040b1a0 f   dicom:cong.obj
 0001:0000a1c0       ??0BE_UINT16@@QAE@F@Z      0040b1c0 f   dicom:cong.obj
 0001:0000a1e0       ??0BE_UINT16@@QAE@H@Z      0040b1e0 f   dicom:cong.obj
 0001:0000a200       ??4BE_UINT32@@QAEAAV0@AAI@Z 0040b200 f   dicom:cong.obj
 0001:0000a230       ??4BE_UINT32@@QAEAAV0@ABV0@@Z 0040b230 f   dicom:cong.obj
 0001:0000a240       ??4BE_UINT32@@QAEAAV0@ABH@Z 0040b240 f   dicom:cong.obj
 0001:0000a270       ??IBE_UINT32@@QAEPAV0@XZ   0040b270 f   dicom:cong.obj
 0001:0000a280       ??BBE_UINT32@@QAEIXZ       0040b280 f   dicom:cong.obj
 0001:0000a2a0       ??0BE_UINT32@@QAE@XZ       0040b2a0 f   dicom:cong.obj
 0001:0000a2b0       ??0BE_UINT32@@QAE@AAV0@@Z  0040b2b0 f   dicom:cong.obj
 0001:0000a2c0       ??0BE_UINT32@@QAE@G@Z      0040b2c0 f   dicom:cong.obj
 0001:0000a2f0       ??0BE_UINT32@@QAE@I@Z      0040b2f0 f   dicom:cong.obj
 0001:0000a320       ??0BE_UINT32@@QAE@F@Z      0040b320 f   dicom:cong.obj
 0001:0000a350       ??0BE_UINT32@@QAE@H@Z      0040b350 f   dicom:cong.obj
 0001:0000a380       ??4BE_INT16@@QAEAAV0@AAF@Z 0040b380 f   dicom:cong.obj
 0001:0000a3a0       ??4BE_INT16@@QAEAAV0@ABV0@@Z 0040b3a0 f   dicom:cong.obj
 0001:0000a3b0       ??4BE_INT16@@QAEAAV0@ABH@Z 0040b3b0 f   dicom:cong.obj
 0001:0000a3d0       ??IBE_INT16@@QAEPAV0@XZ    0040b3d0 f   dicom:cong.obj
 0001:0000a3e0       ??BBE_INT16@@QAEFXZ        0040b3e0 f   dicom:cong.obj
 0001:0000a400       ??0BE_INT16@@QAE@XZ        0040b400 f   dicom:cong.obj
 0001:0000a410       ??0BE_INT16@@QAE@AAV0@@Z   0040b410 f   dicom:cong.obj
 0001:0000a420       ??0BE_INT16@@QAE@G@Z       0040b420 f   dicom:cong.obj
 0001:0000a440       ??0BE_INT16@@QAE@I@Z       0040b440 f   dicom:cong.obj
 0001:0000a460       ??0BE_INT16@@QAE@F@Z       0040b460 f   dicom:cong.obj
 0001:0000a480       ??0BE_INT16@@QAE@H@Z       0040b480 f   dicom:cong.obj
 0001:0000a4a0       ??4BE_INT32@@QAEAAV0@AAH@Z 0040b4a0 f   dicom:cong.obj
 0001:0000a4d0       ??4BE_INT32@@QAEAAV0@ABV0@@Z 0040b4d0 f   dicom:cong.obj
 0001:0000a4e0       ??4BE_INT32@@QAEAAV0@ABH@Z 0040b4e0 f   dicom:cong.obj
 0001:0000a510       ??IBE_INT32@@QAEPAV0@XZ    0040b510 f   dicom:cong.obj
 0001:0000a520       ??BBE_INT32@@QAEHXZ        0040b520 f   dicom:cong.obj
 0001:0000a540       ??0BE_INT32@@QAE@XZ        0040b540 f   dicom:cong.obj
 0001:0000a550       ??0BE_INT32@@QAE@AAV0@@Z   0040b550 f   dicom:cong.obj
 0001:0000a560       ??0BE_INT32@@QAE@G@Z       0040b560 f   dicom:cong.obj
 0001:0000a590       ??0BE_INT32@@QAE@I@Z       0040b590 f   dicom:cong.obj
 0001:0000a5c0       ??0BE_INT32@@QAE@F@Z       0040b5c0 f   dicom:cong.obj
 0001:0000a5f0       ??0BE_INT32@@QAE@H@Z       0040b5f0 f   dicom:cong.obj
 0001:0000a620       ?uniq@@YAIXZ               0040b620 f   dicom:cong.obj
 0001:0000a640       ?uniq32@@YAIXZ             0040b640 f   dicom:cong.obj
 0001:0000a660       ?uniq16@@YAGXZ             0040b660 f   dicom:cong.obj
 0001:0000a680       ?uniq8@@YAEXZ              0040b680 f   dicom:cong.obj
 0001:0000a6a0       ?uniq8odd@@YAEXZ           0040b6a0 f   dicom:cong.obj
 0001:0000a6c0       ?uniq16odd@@YAGXZ          0040b6c0 f   dicom:cong.obj
 0001:0000a6e0       ?Hex2Dec@@YAGD@Z           0040b6e0 f   dicom:cong.obj
 0001:0000a720       ?secofday@@YAIPAUtm@@@Z    0040b720 f   dicom:cong.obj
 0001:0000a750       ?SpaceMem@@YAHPAEI@Z       0040b750 f   dicom:cong.obj
 0001:0000a770       ?strcpylim@@YAPADPADPBDI@Z 0040b770 f   dicom:cong.obj
 0001:0000a7b0       ?strcpysplim@@YAPADPADPBDI@Z 0040b7b0 f   dicom:cong.obj
 0001:0000a7f0       ?streq@@YAHPBD0@Z          0040b7f0 f   dicom:cong.obj
 0001:0000a840       ?strneq@@YAHPBD0I@Z        0040b840 f   dicom:cong.obj
 0001:0000a890       ?strieq@@YAHPBD0@Z         0040b890 f   dicom:cong.obj
 0001:0000a900       ?strnieq@@YAHPBD0I@Z       0040b900 f   dicom:cong.obj
 0001:0000a970       ?strileq@@YAHPBD0@Z        0040b970 f   dicom:cong.obj
 0001:0000a9d0       ?strnileq@@YAHPBD0I@Z      0040b9d0 f   dicom:cong.obj
 0001:0000aa40       ?strnlen32@@YAHPBDI@Z      0040ba40 f   dicom:cong.obj
 0001:0000aa80       ?strnlen32u@@YAIPBDI@Z     0040ba80 f   dicom:cong.obj
 0001:0000aab0       ?strnlenint@@YAHPBDI@Z     0040bab0 f   dicom:cong.obj
 0001:0000aaf0       _strnlen                   0040baf0 f   dicom:cong.obj
 0001:0000ab20       ?timeofdayeq@@YAHPAUtm@@0@Z 0040bb20 f   dicom:cong.obj
 0001:0000ab90       ?ZeroMem@@YAHPAEI@Z        0040bb90 f   dicom:cong.obj
 0001:0000abb0       ?TranslateUIDToVR@@YAPAVVR@@PAVUID@@GG@Z 0040bbb0 f   dicom:cong.obj
 0001:0000ae10       ?SetUID@@YAHAAVUID@@PAVVR@@@Z 0040be10 f   dicom:cong.obj
 0001:0000aea0       ?GetUID@UnknownStorage@@UAEHAAVUID@@@Z 0040bea0 f   dicom:cong.obj
 0001:0000aed0       ?ReleaseMemory@CheckedPDU_Service@@QAEHXZ 0040bed0 f   dicom:cong.obj
 0001:0000b120       ?InitializeFrom@CheckedPDU_Service@@QAEHPAD@Z 0040c120 f   dicom:cong.obj
 0001:0000bcf0       ?ShouldIAcceptRemoteApTitle@CheckedPDU_Service@@EAEHPAE@Z 0040ccf0 f   dicom:cong.obj
 0001:0000be10       ?ShouldIAcceptLocalApTitle@CheckedPDU_Service@@EAEHPAE@Z 0040ce10 f   dicom:cong.obj
 0001:0000bf30       ?OpenForRead@FileBuffer@@QAEHPAD@Z 0040cf30 f   dicom:cong.obj
 0001:0000bf60       ?OpenForWrite@FileBuffer@@QAEHPAD@Z 0040cf60 f   dicom:cong.obj
 0001:0000bf90       ?Close@FileBuffer@@QAEHXZ  0040cf90 f   dicom:cong.obj
 0001:0000bfb0       ?SendBinary@FileBuffer@@UAEHPAEI@Z 0040cfb0 f   dicom:cong.obj
 0001:0000bfd0       ?ReadBinary@FileBuffer@@UAEHPAEI@Z 0040cfd0 f   dicom:cong.obj
 0001:0000c010       ?Pack@@YAHEEAAG@Z          0040d010 f   dicom:cong.obj
 0001:0000c030       ?Pack@@YAHGAAE0@Z          0040d030 f   dicom:cong.obj
 0001:0000c180       ?GetFileName@ACRNemaMap@@QAEPBDXZ 0040d180 f   dicom:cong.obj
 0001:0000c190       ?getItemNotEnd@ACRNemaMap@@AAEHPADPAPADI@Z 0040d190 f   dicom:cong.obj
 0001:0000c230       ?iswhitespacea@ACRNemaMap@@AAEHD@Z 0040d230 f   dicom:cong.obj
 0001:0000c290       ?wildIPCheck@ACRNemaMap@@AAEXPADPBD0@Z 0040d290 f   dicom:cong.obj
 0001:0000c380       ??0bad_alloc@std@@QAE@PBD@Z 0040d380 f i dicom:cong.obj
 0001:0000c3e0       ??1bad_alloc@std@@UAE@XZ   0040d3e0 f i dicom:cong.obj
 0001:0000c430       ??_Ebad_alloc@std@@UAEPAXI@Z 0040d430 f i dicom:cong.obj
 0001:0000c430       ??_Gbad_alloc@std@@UAEPAXI@Z 0040d430 f i dicom:cong.obj
 0001:0000c490       ?assign@?$char_traits@D@std@@SAXAADABD@Z 0040d490 f i dicom:cong.obj
 0001:0000c4a0       ?length@?$char_traits@D@std@@SAIPBD@Z 0040d4a0 f i dicom:cong.obj
 0001:0000c4c0       ?_Copy_s@?$char_traits@D@std@@SAPADPADIPBDI@Z 0040d4c0 f i dicom:cong.obj
 0001:0000c4f0       ?_Move_s@?$char_traits@D@std@@SAPADPADIPBDI@Z 0040d4f0 f i dicom:cong.obj
 0001:0000c520       ?assign@?$char_traits@D@std@@SAPADPADID@Z 0040d520 f i dicom:cong.obj
 0001:0000c540       ?to_char_type@?$char_traits@D@std@@SADABH@Z 0040d540 f i dicom:cong.obj
 0001:0000c550       ?to_int_type@?$char_traits@D@std@@SAHABD@Z 0040d550 f i dicom:cong.obj
 0001:0000c560       ?eq_int_type@?$char_traits@D@std@@SA_NABH0@Z 0040d560 f i dicom:cong.obj
 0001:0000c580       ?eof@?$char_traits@D@std@@SAHXZ 0040d580 f i dicom:cong.obj
 0001:0000c590       ??0_Iterator_base@std@@QAE@XZ 0040d590 f i dicom:cong.obj
 0001:0000c5a0       ?_Getctype@_Locinfo@std@@QBE?AU_Ctypevec@@XZ 0040d5a0 f i dicom:cong.obj
 0001:0000c5d0       ??0id@locale@std@@QAE@I@Z  0040d5d0 f i dicom:cong.obj
 0001:0000c5e0       ??Bid@locale@std@@QAEIXZ   0040d5e0 f i dicom:cong.obj
 0001:0000c660       ?_Incref@facet@locale@std@@QAEXXZ 0040d660 f i dicom:cong.obj
 0001:0000c6d0       ?_Decref@facet@locale@std@@QAEPAV123@XZ 0040d6d0 f i dicom:cong.obj
 0001:0000c750       ?_Register@facet@locale@std@@QAEXXZ 0040d750 f i dicom:cong.obj
 0001:0000c760       ??1facet@locale@std@@UAE@XZ 0040d760 f i dicom:cong.obj
 0001:0000c770       ??0facet@locale@std@@IAE@I@Z 0040d770 f i dicom:cong.obj
 0001:0000c790       ??0locale@std@@QAE@XZ      0040d790 f i dicom:cong.obj
 0001:0000c7b0       ??0locale@std@@QAE@ABV01@@Z 0040d7b0 f i dicom:cong.obj
 0001:0000c7d0       ??1locale@std@@QAE@XZ      0040d7d0 f i dicom:cong.obj
 0001:0000c7f0       ?_Getfacet@locale@std@@QBEPBVfacet@12@I@Z 0040d7f0 f i dicom:cong.obj
 0001:0000c830       ??_Efacet@locale@std@@UAEPAXI@Z 0040d830 f i dicom:cong.obj
 0001:0000c830       ??_Gfacet@locale@std@@UAEPAXI@Z 0040d830 f i dicom:cong.obj
 0001:0000c850       ??0codecvt_base@std@@QAE@I@Z 0040d850 f i dicom:cong.obj
 0001:0000c8b0       ?always_noconv@codecvt_base@std@@QBE_NXZ 0040d8b0 f i dicom:cong.obj
 0001:0000c8c0       ??1codecvt_base@std@@UAE@XZ 0040d8c0 f i dicom:cong.obj
 0001:0000c910       ?do_always_noconv@codecvt_base@std@@MBE_NXZ 0040d910 f i dicom:cong.obj
 0001:0000c920       ?do_max_length@codecvt_base@std@@MBEHXZ 0040d920 f i dicom:cong.obj
 0001:0000c930       ?do_encoding@codecvt_base@std@@MBEHXZ 0040d930 f i dicom:cong.obj
 0001:0000c940       ??_Ecodecvt_base@std@@UAEPAXI@Z 0040d940 f i dicom:cong.obj
 0001:0000c940       ??_Gcodecvt_base@std@@UAEPAXI@Z 0040d940 f i dicom:cong.obj
 0001:0000c9b0       ??0ctype_base@std@@QAE@I@Z 0040d9b0 f i dicom:cong.obj
 0001:0000ca10       ??1ctype_base@std@@UAE@XZ  0040da10 f i dicom:cong.obj
 0001:0000ca60       ??_Gctype_base@std@@UAEPAXI@Z 0040da60 f i dicom:cong.obj
 0001:0000ca60       ??_Ectype_base@std@@UAEPAXI@Z 0040da60 f i dicom:cong.obj
 0001:0000cad0       ?is@?$ctype@D@std@@QBE_NFD@Z 0040dad0 f i dicom:cong.obj
 0001:0000caf0       ?widen@?$ctype@D@std@@QBEDD@Z 0040daf0 f i dicom:cong.obj
 0001:0000cb00       ?_Init@?$ctype@D@std@@IAEXABV_Locinfo@2@@Z 0040db00 f i dicom:cong.obj
 0001:0000cb40       ?_Tidy@?$ctype@D@std@@IAEXXZ 0040db40 f i dicom:cong.obj
 0001:0000cb70       ?rdstate@ios_base@std@@QBEHXZ 0040db70 f i dicom:cong.obj
 0001:0000cb80       ?good@ios_base@std@@QBE_NXZ 0040db80 f i dicom:cong.obj
 0001:0000cb90       ?fail@ios_base@std@@QBE_NXZ 0040db90 f i dicom:cong.obj
 0001:0000cba0       ?flags@ios_base@std@@QBEHXZ 0040dba0 f i dicom:cong.obj
 0001:0000cbb0       ?getloc@ios_base@std@@QBE?AVlocale@2@XZ 0040dbb0 f i dicom:cong.obj
 0001:0000cc10       ??1ios_base@std@@UAE@XZ    0040dc10 f i dicom:cong.obj
 0001:0000cc20       ??0ios_base@std@@IAE@XZ    0040dc20 f i dicom:cong.obj
 0001:0000cc30       ??_Eios_base@std@@UAEPAXI@Z 0040dc30 f i dicom:cong.obj
 0001:0000cc30       ??_Gios_base@std@@UAEPAXI@Z 0040dc30 f i dicom:cong.obj
 0001:0000cc60       ?commentSize@@YAHPBDH@Z    0040dc60 f   dicom:cong.obj
 0001:0000cca0       ?GetSize@?$Array@PAVBufferSpace@@@@QAEIXZ 0040dca0 f i dicom:cong.obj
 0001:0000ccb0       ??0?$Array@PAVBufferSpace@@@@QAE@XZ 0040dcb0 f i dicom:cong.obj
 0001:0000cce0       ?GetSize@?$Array@PAVVR@@@@QAEIXZ 0040dce0 f i dicom:cong.obj
 0001:0000ccf0       ??0?$Array@PAVVR@@@@QAE@XZ 0040dcf0 f i dicom:cong.obj
 0001:0000cd20       ?GetSize@?$Array@PAVVRGroupPQueue@@@@QAEIXZ 0040dd20 f i dicom:cong.obj
 0001:0000cd30       ??0?$Array@PAVVRGroupPQueue@@@@QAE@XZ 0040dd30 f i dicom:cong.obj
 0001:0000cd60       ?Clear@?$Array@VTransferSyntax@@@@QAEHXZ 0040dd60 f i dicom:cong.obj
 0001:0000cd80       ??0?$Array@VTransferSyntax@@@@QAE@XZ 0040dd80 f i dicom:cong.obj
 0001:0000cdb0       ??0?$Array@VTransferSyntax@@@@QAE@ABV0@@Z 0040ddb0 f i dicom:cong.obj
 0001:0000cdf0       ??0?$Array@VPresentationContext@@@@QAE@XZ 0040ddf0 f i dicom:cong.obj
 0001:0000ce20       ??4?$Array@VPresentationContext@@@@QAEABV0@AAV0@@Z 0040de20 f i dicom:cong.obj
 0001:0000ce50       ??0?$Array@VPresentationContextAccept@@@@QAE@XZ 0040de50 f i dicom:cong.obj
 0001:0000ce80       ??4?$Array@VPresentationContextAccept@@@@QAEABV0@AAV0@@Z 0040de80 f i dicom:cong.obj
 0001:0000ceb0       ?GetSize@?$Array@VAbstractSyntax@@@@QAEIXZ 0040deb0 f i dicom:cong.obj
 0001:0000cec0       ??0?$Array@VAbstractSyntax@@@@QAE@XZ 0040dec0 f i dicom:cong.obj
 0001:0000cef0       ?GetSize@?$Array@PAVDICOMObject@@@@QAEIXZ 0040def0 f i dicom:cong.obj
 0001:0000cf00       ??0?$Array@PAVDICOMObject@@@@QAE@XZ 0040df00 f i dicom:cong.obj
 0001:0000cf30       ??0?$Array@PAVDICOMDataObject@@@@QAE@XZ 0040df30 f i dicom:cong.obj
 0001:0000cf60       ?Get@?$FixedArray@IU_RTCElement@@@@QAEAAU_RTCElement@@H@Z 0040df60 f i dicom:cong.obj
 0001:0000cf70       ?GetSize@?$FixedArray@IU_RTCElement@@@@QAEIXZ 0040df70 f i dicom:cong.obj
 0001:0000cf80       ?GetSize@?$Array@U_RTCElement@@@@QAEIXZ 0040df80 f i dicom:cong.obj
 0001:0000cf90       ??0?$Array@U_RTCElement@@@@QAE@XZ 0040df90 f i dicom:cong.obj
 0001:0000cfc0       ?GetSize@?$Array@PAU_ACRNemaAddress@@@@QAEIXZ 0040dfc0 f i dicom:cong.obj
 0001:0000cfd0       ??0?$Array@PAU_ACRNemaAddress@@@@QAE@XZ 0040dfd0 f i dicom:cong.obj
 0001:0000d000       ?size@?$basic_string@DU?$char_traits@D@std@@V?$allocator@D@2@@std@@QBEIXZ 0040e000 f i dicom:cong.obj
 0001:0000d010       ??1?$basic_ios@DU?$char_traits@D@std@@@std@@UAE@XZ 0040e010 f i dicom:cong.obj
 0001:0000d070       ?rdbuf@?$basic_ios@DU?$char_traits@D@std@@@std@@QBEPAV?$basic_streambuf@DU?$char_traits@D@std@@@2@XZ 0040e070 f i dicom:cong.obj
 0001:0000d080       ??1?$basic_istream@DU?$char_traits@D@std@@@std@@UAE@XZ 0040e080 f i dicom:cong.obj
 0001:0000d090       ?gcount@?$basic_istream@DU?$char_traits@D@std@@@std@@QBEHXZ 0040e090 f i dicom:cong.obj
 0001:0000d0a0       ??Bsentry@?$basic_istream@DU?$char_traits@D@std@@@std@@QBE_NXZ 0040e0a0 f i dicom:cong.obj
 0001:0000d0b0       ??0?$fpos@H@std@@QAE@J@Z   0040e0b0 f i dicom:cong.obj
 0001:0000d0d0       ??B?$fpos@H@std@@QBEJXZ    0040e0d0 f i dicom:cong.obj
 0001:0000d0e0       ??_G?$basic_ios@DU?$char_traits@D@std@@@std@@UAEPAXI@Z 0040e0e0 f i dicom:cong.obj
 0001:0000d0e0       ??_E?$basic_ios@DU?$char_traits@D@std@@@std@@UAEPAXI@Z 0040e0e0 f i dicom:cong.obj
 0001:0000d100       ??_Glocale@std@@QAEPAXI@Z  0040e100 f i dicom:cong.obj
 0001:0000d140       ??_D?$basic_istream@DU?$char_traits@D@std@@@std@@QAEXXZ 0040e140 f i dicom:cong.obj
 0001:0000d160       ?_Myptr@?$basic_string@DU?$char_traits@D@std@@V?$allocator@D@2@@std@@IBEPBDXZ 0040e160 f i dicom:cong.obj
 0001:0000d170       ??0?$allocator@D@std@@QAE@XZ 0040e170 f i dicom:cong.obj
 0001:0000d180       ??0?$basic_ios@DU?$char_traits@D@std@@@std@@IAE@XZ 0040e180 f i dicom:cong.obj
 0001:0000d1e0       ?pubseekoff@?$basic_streambuf@DU?$char_traits@D@std@@@std@@QAE?AV?$fpos@H@2@JHH@Z 0040e1e0 f i dicom:cong.obj
 0001:0000d210       ?pubsync@?$basic_streambuf@DU?$char_traits@D@std@@@std@@QAEHXZ 0040e210 f i dicom:cong.obj
 0001:0000d220       ?_Unlock@?$basic_streambuf@DU?$char_traits@D@std@@@std@@QAEXXZ 0040e220 f i dicom:cong.obj
 0001:0000d230       ?gptr@?$basic_streambuf@DU?$char_traits@D@std@@@std@@IBEPADXZ 0040e230 f i dicom:cong.obj
 0001:0000d240       ?setg@?$basic_streambuf@DU?$char_traits@D@std@@@std@@IAEXPAD00@Z 0040e240 f i dicom:cong.obj
 0001:0000d260       ?_Gninc@?$basic_streambuf@DU?$char_traits@D@std@@@std@@IAEPADXZ 0040e260 f i dicom:cong.obj
 0001:0000d280       ?_Gnpreinc@?$basic_streambuf@DU?$char_traits@D@std@@@std@@IAEPADXZ 0040e280 f i dicom:cong.obj
 0001:0000d2a0       ?_Gnavail@?$basic_streambuf@DU?$char_traits@D@std@@@std@@IBEHXZ 0040e2a0 f i dicom:cong.obj
 0001:0000d2c0       ?is_open@?$basic_filebuf@DU?$char_traits@D@std@@@std@@QBE_NXZ 0040e2c0 f i dicom:cong.obj
 0001:0000d2d0       ?_Myptr@?$basic_string@DU?$char_traits@D@std@@V?$allocator@D@2@@std@@IAEPADXZ 0040e2d0 f i dicom:cong.obj
 0001:0000d2e0       ??0?$allocator@D@std@@QAE@ABV01@@Z 0040e2e0 f i dicom:cong.obj
 0001:0000d2f0       ?deallocate@?$allocator@D@std@@QAEXPADI@Z 0040e2f0 f i dicom:cong.obj
 0001:0000d300       ?tie@?$basic_ios@DU?$char_traits@D@std@@@std@@QBEPAV?$basic_ostream@DU?$char_traits@D@std@@@2@XZ 0040e300 f i dicom:cong.obj
 0001:0000d310       ?getloc@?$basic_streambuf@DU?$char_traits@D@std@@@std@@QBE?AVlocale@2@XZ 0040e310 f i dicom:cong.obj
 0001:0000d370       ?_Sgetn_s@?$basic_streambuf@DU?$char_traits@D@std@@@std@@QAEHPADIH@Z 0040e370 f i dicom:cong.obj
 0001:0000d380       ?_Lock@?$basic_streambuf@DU?$char_traits@D@std@@@std@@QAEXXZ 0040e380 f i dicom:cong.obj
 0001:0000d390       ?_Init@?$basic_streambuf@DU?$char_traits@D@std@@@std@@IAEXPAPAD0PAH001@Z 0040e390 f i dicom:cong.obj
 0001:0000d3c0       ??D?$_String_const_iterator@DU?$char_traits@D@std@@V?$allocator@D@2@@std@@QBEABDXZ 0040e3c0 f i dicom:cong.obj
 0001:0000d400       ?unshift@?$codecvt@DDH@std@@QBEHAAHPAD1AAPAD@Z 0040e400 f i dicom:cong.obj
 0001:0000d410       ?_Inside@?$basic_string@DU?$char_traits@D@std@@V?$allocator@D@2@@std@@IAE_NPBD@Z 0040e410 f i dicom:cong.obj
 0001:0000d450       ?setp@?$basic_streambuf@DU?$char_traits@D@std@@@std@@IAEXPAD0@Z 0040e450 f i dicom:cong.obj
 0001:0000d470       ??0?$_Ranit_base@DHPBDABDU_Iterator_base@std@@@std@@QAE@XZ 0040e470 f i dicom:cong.obj
 0001:0000d480       ?max_size@?$allocator@D@std@@QBEIXZ 0040e480 f i dicom:cong.obj
 0001:0000d490       ?Get@?$Array@PAVBufferSpace@@@@QAEAAPAVBufferSpace@@I@Z 0040e490 f i dicom:cong.obj
 0001:0000d510       ?RemoveAt@?$Array@PAVBufferSpace@@@@QAEHI@Z 0040e510 f i dicom:cong.obj
 0001:0000d5a0       ??1?$Array@PAVBufferSpace@@@@UAE@XZ 0040e5a0 f i dicom:cong.obj
 0001:0000d630       ?Get@?$Array@PAVVR@@@@QAEAAPAVVR@@I@Z 0040e630 f i dicom:cong.obj
 0001:0000d6b0       ?RemoveAt@?$Array@PAVVR@@@@QAEHI@Z 0040e6b0 f i dicom:cong.obj
 0001:0000d740       ??1?$Array@PAVVR@@@@UAE@XZ 0040e740 f i dicom:cong.obj
 0001:0000d7d0       ?Pop@?$PQueueOfPtr@PAVVR@@@@QAEAAPAVVR@@XZ 0040e7d0 f i dicom:cong.obj
 0001:0000d910       ?Get@?$Array@PAVVRGroupPQueue@@@@QAEAAPAVVRGroupPQueue@@I@Z 0040e910 f i dicom:cong.obj
 0001:0000d990       ?RemoveAt@?$Array@PAVVRGroupPQueue@@@@QAEHI@Z 0040e990 f i dicom:cong.obj
 0001:0000da20       ??1?$Array@PAVVRGroupPQueue@@@@UAE@XZ 0040ea20 f i dicom:cong.obj
 0001:0000dab0       ?Pop@?$PQueueOfPtr@PAVVRGroupPQueue@@@@QAEAAPAVVRGroupPQueue@@XZ 0040eab0 f i dicom:cong.obj
 0001:0000dc00       ??0?$Array@VPresentationContext@@@@QAE@I@Z 0040ec00 f i dicom:cong.obj
 0001:0000dc30       ??0?$Array@VPresentationContextAccept@@@@QAE@I@Z 0040ec30 f i dicom:cong.obj
 0001:0000dc60       ?Get@?$Array@VAbstractSyntax@@@@QAEAAVAbstractSyntax@@I@Z 0040ec60 f i dicom:cong.obj
 0001:0000dce0       ?Get@?$Array@PAVDICOMObject@@@@QAEAAPAVDICOMObject@@I@Z 0040ece0 f i dicom:cong.obj
 0001:0000dd60       ?RemoveAt@?$Array@PAVDICOMObject@@@@QAEHI@Z 0040ed60 f i dicom:cong.obj
 0001:0000ddf0       ??1?$Array@PAVDICOMObject@@@@UAE@XZ 0040edf0 f i dicom:cong.obj
 0001:0000de80       ?RemoveAt@?$Array@PAVDICOMDataObject@@@@QAEHI@Z 0040ee80 f i dicom:cong.obj
 0001:0000df10       ??1?$Array@PAVDICOMDataObject@@@@UAE@XZ 0040ef10 f i dicom:cong.obj
 0001:0000dfa0       ??0?$FixedArray@IU_RTCElement@@@@QAE@IH@Z 0040efa0 f i dicom:cong.obj
 0001:0000e000       ??1?$FixedArray@IU_RTCElement@@@@QAE@XZ 0040f000 f i dicom:cong.obj
 0001:0000e030       ?Add@?$FixedArray@IU_RTCElement@@@@QAEAAU_RTCElement@@AAIAAU2@@Z 0040f030 f i dicom:cong.obj
 0001:0000e090       ?IndexOf@?$FixedArray@IU_RTCElement@@@@QAEHAAI@Z 0040f090 f i dicom:cong.obj
 0001:0000e150       ?Get@?$Array@U_RTCElement@@@@QAEAAU_RTCElement@@I@Z 0040f150 f i dicom:cong.obj
 0001:0000e1d0       ?RemoveAt@?$Array@U_RTCElement@@@@QAEHI@Z 0040f1d0 f i dicom:cong.obj
 0001:0000e260       ??1?$Array@U_RTCElement@@@@UAE@XZ 0040f260 f i dicom:cong.obj
 0001:0000e2f0       ?Get@?$Array@PAU_ACRNemaAddress@@@@QAEAAPAU_ACRNemaAddress@@I@Z 0040f2f0 f i dicom:cong.obj
 0001:0000e370       ?ReplaceAt@?$Array@PAU_ACRNemaAddress@@@@QAEAAPAU_ACRNemaAddress@@AAPAU2@I@Z 0040f370 f i dicom:cong.obj
 0001:0000e410       ?RemoveAt@?$Array@PAU_ACRNemaAddress@@@@QAEHI@Z 0040f410 f i dicom:cong.obj
 0001:0000e4a0       ??1?$Array@PAU_ACRNemaAddress@@@@UAE@XZ 0040f4a0 f i dicom:cong.obj
 0001:0000e530       ??$_Allocate@D@std@@YAPADIPAD@Z 0040f530 f i dicom:cong.obj
 0001:0000e580       ??0bad_alloc@std@@QAE@ABV01@@Z 0040f580 f i dicom:cong.obj
 0001:0000e5e0       ??1?$DataLink@VPresentationContextAccept@@@@QAE@XZ 0040f5e0 f i dicom:cong.obj
 0001:0000e5f0       ??1?$DataLink@VAbstractSyntax@@@@QAE@XZ 0040f5f0 f i dicom:cong.obj
 0001:0000e600       ??0?$DataLink@PAVBufferSpace@@@@QAE@XZ 0040f600 f i dicom:cong.obj
 0001:0000e610       ??0?$DataLink@PAVVRGroupPQueue@@@@QAE@XZ 0040f610 f i dicom:cong.obj
 0001:0000e620       ??0?$DataLink@PAVDICOMObject@@@@QAE@XZ 0040f620 f i dicom:cong.obj
 0001:0000e630       ??0?$DataLink@PAVDICOMDataObject@@@@QAE@XZ 0040f630 f i dicom:cong.obj
 0001:0000e640       ??0?$Array@V?$FixedArrayElement@IU_RTCElement@@@@@@QAE@XZ 0040f640 f i dicom:cong.obj
 0001:0000e670       ??0?$DataLink@U_RTCElement@@@@QAE@XZ 0040f670 f i dicom:cong.obj
 0001:0000e680       ??0?$DataLink@PAU_ACRNemaAddress@@@@QAE@XZ 0040f680 f i dicom:cong.obj
 0001:0000e690       ?_Init@?$codecvt@DDH@std@@IAEXABV_Locinfo@2@@Z 0040f690 f i dicom:cong.obj
 0001:0000e6a0       ??$_Char_traits_cat@U?$char_traits@D@std@@@std@@YA?AU_Secure_char_traits_tag@0@XZ 0040f6a0 f i dicom:cong.obj
 0001:0000e6b0       ??$copy_s@U?$char_traits@D@std@@@_Traits_helper@std@@YAPADPADIPBDIU_Secure_char_traits_tag@1@@Z 0040f6b0 f i dicom:cong.obj
 0001:0000e6e0       ??$move_s@U?$char_traits@D@std@@@_Traits_helper@std@@YAPADPADIPBDIU_Secure_char_traits_tag@1@@Z 0040f6e0 f i dicom:cong.obj
 0001:0000e710       ??1?$DataLink@VTransferSyntax@@@@QAE@XZ 0040f710 f i dicom:cong.obj
 0001:0000e720       ??0?$DataLink@PAVVR@@@@QAE@XZ 0040f720 f i dicom:cong.obj
 0001:0000e730       ??O?$FixedArrayElement@IU_RTCElement@@@@QAEIAAV0@@Z 0040f730 f i dicom:cong.obj
 0001:0000e740       ??M?$FixedArrayElement@IU_RTCElement@@@@QAEIAAV0@@Z 0040f740 f i dicom:cong.obj
 0001:0000e750       ?GetSize@?$Array@V?$FixedArrayElement@IU_RTCElement@@@@@@QAEIXZ 0040f750 f i dicom:cong.obj
 0001:0000e760       ?Get@?$Array@V?$FixedArrayElement@IU_RTCElement@@@@@@QAEAAV?$FixedArrayElement@IU_RTCElement@@@@I@Z 0040f760 f i dicom:cong.obj
 0001:0000e7e0       ?RemoveAt@?$Array@V?$FixedArrayElement@IU_RTCElement@@@@@@QAEHI@Z 0040f7e0 f i dicom:cong.obj
 0001:0000e870       ??0?$DataLink@V?$FixedArrayElement@IU_RTCElement@@@@@@QAE@XZ 0040f870 f i dicom:cong.obj
 0001:0000e880       ??0?$PQueueOfPtr@PAVVR@@@@QAE@XZ 0040f880 f i dicom:cong.obj
 0001:0000e8f0       ??1?$PQueueOfPtr@PAVVR@@@@UAE@XZ 0040f8f0 f i dicom:cong.obj
 0001:0000e940       ??_G?$PQueueOfPtr@PAVVR@@@@UAEPAXI@Z 0040f940 f i dicom:cong.obj
 0001:0000e940       ??_E?$PQueueOfPtr@PAVVR@@@@UAEPAXI@Z 0040f940 f i dicom:cong.obj
 0001:0000e9a0       ??0BufferSpace@@QAE@I@Z    0040f9a0 f   dicom:cong.obj
 0001:0000e9f0       ??0Buffer@@QAE@XZ          0040f9f0 f   dicom:cong.obj
 0001:0000ea90       ??1Buffer@@UAE@XZ          0040fa90 f   dicom:cong.obj
 0001:0000ecd0       ?Flush@Buffer@@QAEHXZ      0040fcd0 f   dicom:cong.obj
 0001:0000ee20       ?Flush@Buffer@@QAEHI@Z     0040fe20 f   dicom:cong.obj
 0001:0000efe0       ??_ESocket@@UAEPAXI@Z      0040ffe0 f i dicom:cong.obj
 0001:0000efe0       ??_GSocket@@UAEPAXI@Z      0040ffe0 f i dicom:cong.obj
 0001:0000f000       ?Listen@Socket@@QAEHPAD@Z  00410000 f   dicom:cong.obj
 0001:0000f120       ?Accept@Socket@@QAEHXZ     00410120 f   dicom:cong.obj
 0001:0000f190       ??1VR@@QAE@XZ              00410190 f   dicom:cong.obj
 0001:0000f2a0       ?Pop@VRGroupPQueue@@QAEPAVVR@@XZ 004102a0 f   dicom:cong.obj
 0001:0000f2e0       ??0?$PQueueOfPtr@PAVVRGroupPQueue@@@@QAE@XZ 004102e0 f i dicom:cong.obj
 0001:0000f350       ??1?$PQueueOfPtr@PAVVRGroupPQueue@@@@UAE@XZ 00410350 f i dicom:cong.obj
 0001:0000f3a0       ??_G?$PQueueOfPtr@PAVVRGroupPQueue@@@@UAEPAXI@Z 004103a0 f i dicom:cong.obj
 0001:0000f3a0       ??_E?$PQueueOfPtr@PAVVRGroupPQueue@@@@UAEPAXI@Z 004103a0 f i dicom:cong.obj
 0001:0000f400       ?GetVR@DICOMObject@@QAEPAVVR@@GG@Z 00410400 f   dicom:cong.obj
 0001:0000f470       ?GetBYTE@DICOMObject@@QAEEGG@Z 00410470 f   dicom:cong.obj
 0001:0000f4b0       ?GetUINT16@DICOMObject@@QAEGGG@Z 004104b0 f   dicom:cong.obj
 0001:0000f510       ?GetUINT@DICOMObject@@QAEIGG@Z 00410510 f   dicom:cong.obj
 0001:0000f560       ?GetULongLong@DICOMObject@@QAE_KGG@Z 00410560 f   dicom:cong.obj
 0001:0000f5f0       ?Getatoi@DICOMObject@@QAEHGG@Z 004105f0 f   dicom:cong.obj
 0001:0000f680       ?GetCString@DICOMObject@@QAEPADGGI@Z 00410680 f   dicom:cong.obj
 0001:0000f6f0       ?DeleteVR@DICOMObject@@QAEHPAVVR@@@Z 004106f0 f   dicom:cong.obj
 0001:0000f800       ?Reset@DICOMObject@@UAEHXZ 00410800 f   dicom:cong.obj
 0001:0000f850       ?SetIf@VR@@QAEHPAV1@@Z     00410850 f   dicom:cong.obj
 0001:0000fc20       ?Reset@VR@@QAEHXZ          00410c20 f   dicom:cong.obj
 0001:0000fd30       ?ReAlloc@VR@@QAEHI@Z       00410d30 f   dicom:cong.obj
 0001:0000fdb0       ??0ApplicationContext@@QAE@XZ 00410db0 f   dicom:cong.obj
 0001:0000fde0       ??0ApplicationContext@@QAE@AAVUID@@@Z 00410de0 f   dicom:cong.obj
 0001:0000fe50       ??0ApplicationContext@@QAE@PAE@Z 00410e50 f   dicom:cong.obj
 0001:0000fe90       ?Set@ApplicationContext@@QAEXPAE@Z 00410e90 f   dicom:cong.obj
 0001:0000fea0       ??0AbstractSyntax@@QAE@XZ  00410ea0 f   dicom:cong.obj
 0001:0000fed0       ??0AbstractSyntax@@QAE@AAVUID@@@Z 00410ed0 f   dicom:cong.obj
 0001:0000ff40       ??0AbstractSyntax@@QAE@PAE@Z 00410f40 f   dicom:cong.obj
 0001:0000ff80       ?Set@AbstractSyntax@@QAEXPAE@Z 00410f80 f   dicom:cong.obj
 0001:0000ff90       ??0TransferSyntax@@QAE@XZ  00410f90 f   dicom:cong.obj
 0001:0000ffc0       ??0TransferSyntax@@QAE@AAVUID@@@Z 00410fc0 f   dicom:cong.obj
 0001:00010030       ??0TransferSyntax@@QAE@PAE@Z 00411030 f   dicom:cong.obj
 0001:00010070       ?Set@TransferSyntax@@QAEXPAE@Z 00411070 f   dicom:cong.obj
 0001:00010080       ??0ImplementationClass@@QAE@XZ 00411080 f   dicom:cong.obj
 0001:000100b0       ??0ImplementationClass@@QAE@AAVUID@@@Z 004110b0 f   dicom:cong.obj
 0001:00010120       ??0ImplementationClass@@QAE@PAE@Z 00411120 f   dicom:cong.obj
 0001:00010160       ?Set@ImplementationClass@@QAEXPAE@Z 00411160 f   dicom:cong.obj
 0001:00010170       ??0ImplementationVersion@@QAE@XZ 00411170 f   dicom:cong.obj
 0001:000101a0       ??0ImplementationVersion@@QAE@AAVUID@@@Z 004111a0 f   dicom:cong.obj
 0001:00010210       ??0ImplementationVersion@@QAE@PAE@Z 00411210 f   dicom:cong.obj
 0001:00010250       ?Set@ImplementationVersion@@QAEXPAE@Z 00411250 f   dicom:cong.obj
 0001:00010260       ?Size@PresentationContext@@QAEIXZ 00411260 f   dicom:cong.obj
 0001:000102b0       ??0SCPSCURoleSelect@@QAE@XZ 004112b0 f   dicom:cong.obj
 0001:000102e0       ??0UserInformation@@QAE@XZ 004112e0 f   dicom:cong.obj
 0001:00010360       ?SetCalledApTitle@AAssociateRQ@@QAEXPAE@Z 00411360 f   dicom:cong.obj
 0001:000103b0       ?SetCallingApTitle@AAssociateRQ@@QAEXPAE@Z 004113b0 f   dicom:cong.obj
 0001:00010400       ?SetApplicationContext@AAssociateRQ@@QAEXAAVApplicationContext@@@Z 00411400 f   dicom:cong.obj
 0001:00010410       ??4UserInformation@@QAEAAV0@AAV0@@Z 00411410 f i dicom:cong.obj
 0001:00010470       ??0PresentationContextAccept@@QAE@XZ 00411470 f   dicom:cong.obj
 0001:000104c0       ??0PresentationContextAccept@@QAE@AAVTransferSyntax@@@Z 004114c0 f   dicom:cong.obj
 0001:00010520       ?SetCalledApTitle@AAssociateAC@@QAEXPAE@Z 00411520 f   dicom:cong.obj
 0001:00010570       ?SetCallingApTitle@AAssociateAC@@QAEXPAE@Z 00411570 f   dicom:cong.obj
 0001:000105c0       ?SetUserInformation@AAssociateAC@@QAEXAAVUserInformation@@@Z 004115c0 f   dicom:cong.obj
 0001:000105d0       ??_GAAssociateRJ@@UAEPAXI@Z 004115d0 f i dicom:cong.obj
 0001:000105d0       ??_EAAssociateRJ@@UAEPAXI@Z 004115d0 f i dicom:cong.obj
 0001:000105f0       ??_EAReleaseRQ@@UAEPAXI@Z  004115f0 f i dicom:cong.obj
 0001:000105f0       ??_GAReleaseRQ@@UAEPAXI@Z  004115f0 f i dicom:cong.obj
 0001:00010610       ??_EAReleaseRP@@UAEPAXI@Z  00411610 f i dicom:cong.obj
 0001:00010610       ??_GAReleaseRP@@UAEPAXI@Z  00411610 f i dicom:cong.obj
 0001:00010630       ??_GAAbortRQ@@UAEPAXI@Z    00411630 f i dicom:cong.obj
 0001:00010630       ??_EAAbortRQ@@UAEPAXI@Z    00411630 f i dicom:cong.obj
 0001:00010650       ?Flush@LinkedBuffer@@QAEHAAVBuffer@@I@Z 00411650 f   dicom:cong.obj
 0001:00010670       ?GetAcceptedPCIDForTransferSyntax@PDU_Service@@QAEEAAVUID@@@Z 00411670 f   dicom:cong.obj
 0001:00010810       ?GetTransferSyntaxUID@PDU_Service@@QAEHEAAVUID@@@Z 00411810 f   dicom:cong.obj
 0001:00010900       ?SetLocalAddress@PDU_Service@@UAEHPAE@Z 00411900 f   dicom:cong.obj
 0001:00010920       ?SetRemoteAddress@PDU_Service@@UAEHPAE@Z 00411920 f   dicom:cong.obj
 0001:00010940       ?GetImplementationClass@PDU_Service@@MAEHAAVImplementationClass@@@Z 00411940 f   dicom:cong.obj
 0001:00010960       ?GetImplementationVersion@PDU_Service@@MAEHAAVImplementationVersion@@@Z 00411960 f   dicom:cong.obj
 0001:00010980       ?ParseRawVRIntoDCM@PDU_Service@@MAEHEAAVLinkedBuffer@@PAVDICOMObject@@@Z 00411980 f   dicom:cong.obj
 0001:00010bf0       ?ParseDCMIntoRawVR@PDU_Service@@MAEEPAVDICOMObject@@AAVLinkedBuffer@@@Z 00411bf0 f   dicom:cong.obj
 0001:00010d80       ?ConvertNumber@@YAGPAD@Z   00411d80 f   dicom:cong.obj
 0001:00010e30       ?strcatlim@@YAPADPADPBDI@Z 00411e30 f   dicom:cong.obj
 0001:00010e60       ?Read@CEchoRQ@@QAEHPAVDICOMCommandObject@@@Z 00411e60 f   dicom:cong.obj
 0001:00010e90       ?Read@CEchoRSP@@QAEHPAVDICOMCommandObject@@@Z 00411e90 f   dicom:cong.obj
 0001:00010ec0       ?Read@CStoreRSP@@QAEHPAVDICOMCommandObject@@@Z 00411ec0 f   dicom:cong.obj
 0001:00010ef0       ?Read@NDeleteRQ@@QAEHPAVDICOMCommandObject@@PAVPDU_Service@@@Z 00411ef0 f   dicom:cong.obj
 0001:00010f30       ?Read@NDeleteRSP@@QAEHPAVDICOMCommandObject@@PAVPDU_Service@@@Z 00411f30 f   dicom:cong.obj
 0001:00010f70       ?GetUID@Verification@@UAEHAAVUID@@@Z 00411f70 f   dicom:cong.obj
 0001:00010f90       ?ReadRequest@Verification@@QAEHPAVPDU_Service@@PAVDICOMCommandObject@@@Z 00411f90 f   dicom:cong.obj
 0001:00011070       ?GetUID@CRStorage@@UAEHAAVUID@@@Z 00412070 f   dicom:cong.obj
 0001:00011090       ?GetUID@CTStorage@@UAEHAAVUID@@@Z 00412090 f   dicom:cong.obj
 0001:000110b0       ?GetUID@USMultiframeStorage@@UAEHAAVUID@@@Z 004120b0 f   dicom:cong.obj
 0001:000110d0       ?GetUID@MRStorage@@UAEHAAVUID@@@Z 004120d0 f   dicom:cong.obj
 0001:000110f0       ?GetUID@NMStorage@@UAEHAAVUID@@@Z 004120f0 f   dicom:cong.obj
 0001:00011110       ?GetUID@USStorage@@UAEHAAVUID@@@Z 00412110 f   dicom:cong.obj
 0001:00011130       ?GetUID@SCStorage@@UAEHAAVUID@@@Z 00412130 f   dicom:cong.obj
 0001:00011150       ?GetUID@StandaloneOverlayStorage@@UAEHAAVUID@@@Z 00412150 f   dicom:cong.obj
 0001:00011170       ?GetUID@StandaloneCurveStorage@@UAEHAAVUID@@@Z 00412170 f   dicom:cong.obj
 0001:00011190       ?GetUID@StandaloneModalityLUTStorage@@UAEHAAVUID@@@Z 00412190 f   dicom:cong.obj
 0001:000111b0       ?GetUID@StandaloneVOILUTStorage@@UAEHAAVUID@@@Z 004121b0 f   dicom:cong.obj
 0001:000111d0       ?GetUID@GEMRStorage@@UAEHAAVUID@@@Z 004121d0 f   dicom:cong.obj
 0001:000111f0       ?GetUID@GECTStorage@@UAEHAAVUID@@@Z 004121f0 f   dicom:cong.obj
 0001:00011210       ?GetUID@PatientRootQuery@@UAEHAAVUID@@@Z 00412210 f   dicom:cong.obj
 0001:00011230       ?GetUID@PatientRootRetrieve@@UAEHAAVUID@@@Z 00412230 f   dicom:cong.obj
 0001:00011250       ?GetUID@StudyRootQuery@@UAEHAAVUID@@@Z 00412250 f   dicom:cong.obj
 0001:00011270       ?GetUID@StudyRootRetrieve@@UAEHAAVUID@@@Z 00412270 f   dicom:cong.obj
 0001:00011290       ?GetUID@PatientStudyOnlyQuery@@UAEHAAVUID@@@Z 00412290 f   dicom:cong.obj
 0001:000112b0       ?GetUID@PatientStudyOnlyRetrieve@@UAEHAAVUID@@@Z 004122b0 f   dicom:cong.obj
 0001:000112d0       ?GetUID@ModalityWorkListQuery@@UAEHAAVUID@@@Z 004122d0 f   dicom:cong.obj
 0001:000112f0       ??_G?$FixedArray@IU_RTCElement@@@@QAEPAXI@Z 004122f0 f i dicom:cong.obj
 0001:00011330       ?RunTimeClass@RTC@@QAEGGGPAD@Z 00412330 f   dicom:cong.obj
 0001:000113c0       ?RunTimeClass@RTC@@QAEHPAVVR@@@Z 004123c0 f   dicom:cong.obj
 0001:00011440       ?GetGroupElement@RTC@@QAEHPAU_RTCElement@@@Z 00412440 f   dicom:cong.obj
 0001:00011500       ?AttachBinaryRTC@RTC@@QAEHPAD@Z 00412500 f   dicom:cong.obj
 0001:000117e0       ?AttachResourceRTC@RTC@@QAEHPAD@Z 004127e0 f   dicom:cong.obj
 0001:00011a30       ??0ACRNemaMap@@IAE@XZ      00412a30 f   dicom:cong.obj
 0001:00011b00       ?ClearMap@ACRNemaMap@@QAEXXZ 00412b00 f   dicom:cong.obj
 0001:00011bf0       ?DeleteEntry@ACRNemaMap@@QAEHI@Z 00412bf0 f   dicom:cong.obj
 0001:00011c30       ?GetACRNema@ACRNemaMap@@QAEHPAD000@Z 00412c30 f   dicom:cong.obj
 0001:00012160       ?GetOneEntry@ACRNemaMap@@QAEXIPADI0@Z 00413160 f   dicom:cong.obj
 0001:000121b0       ?GetOneACRNemaAddress@ACRNemaMap@@QAEPAU_ACRNemaAddress@@I@Z 004131b0 f   dicom:cong.obj
 0001:000121d0       ?GetSize@ACRNemaMap@@QAEIXZ 004131d0 f   dicom:cong.obj
 0001:000121e0       ?GetWholeAMapToString@ACRNemaMap@@QAEPADPAD@Z 004131e0 f   dicom:cong.obj
 0001:000122e0       ?PrintAMapToString@ACRNemaMap@@QAEPADPAD@Z 004132e0 f   dicom:cong.obj
 0001:00012350       ?WriteAMapToTheFile@ACRNemaMap@@QAEHPAD@Z 00413350 f   dicom:cong.obj
 0001:000124e0       ?decommentBuffer@@YAHPADH@Z 004134e0 f   dicom:cong.obj
 0001:00012670       ??A?$Array@VTransferSyntax@@@@QAEAAVTransferSyntax@@I@Z 00413670 f i dicom:cong.obj
 0001:00012680       ??A?$Array@VPresentationContext@@@@QAEAAVPresentationContext@@I@Z 00413680 f i dicom:cong.obj
 0001:00012690       ??A?$Array@VPresentationContextAccept@@@@QAEAAVPresentationContextAccept@@I@Z 00413690 f i dicom:cong.obj
 0001:000126a0       ?tellg@?$basic_istream@DU?$char_traits@D@std@@@std@@QAE?AV?$fpos@H@2@XZ 004136a0 f i dicom:cong.obj
 0001:000126f0       ??1_Sentry_base@?$basic_istream@DU?$char_traits@D@std@@@std@@QAE@XZ 004136f0 f i dicom:cong.obj
 0001:00012710       ??1?$basic_streambuf@DU?$char_traits@D@std@@@std@@UAE@XZ 00413710 f i dicom:cong.obj
 0001:000127a0       ?overflow@?$basic_streambuf@DU?$char_traits@D@std@@@std@@MAEHH@Z 004137a0 f i dicom:cong.obj
 0001:000127b0       ?pbackfail@?$basic_streambuf@DU?$char_traits@D@std@@@std@@MAEHH@Z 004137b0 f i dicom:cong.obj
 0001:000127c0       ?showmanyc@?$basic_streambuf@DU?$char_traits@D@std@@@std@@MAEHXZ 004137c0 f i dicom:cong.obj
 0001:000127d0       ?underflow@?$basic_streambuf@DU?$char_traits@D@std@@@std@@MAEHXZ 004137d0 f i dicom:cong.obj
 0001:000127e0       ?xsgetn@?$basic_streambuf@DU?$char_traits@D@std@@@std@@MAEHPADH@Z 004137e0 f i dicom:cong.obj
 0001:00012800       ?setbuf@?$basic_streambuf@DU?$char_traits@D@std@@@std@@MAEPAV12@PADH@Z 00413800 f i dicom:cong.obj
 0001:00012810       ?sync@?$basic_streambuf@DU?$char_traits@D@std@@@std@@MAEHXZ 00413810 f i dicom:cong.obj
 0001:00012820       ?imbue@?$basic_streambuf@DU?$char_traits@D@std@@@std@@MAEXABVlocale@2@@Z 00413820 f i dicom:cong.obj
 0001:00012830       ?pptr@?$basic_streambuf@DU?$char_traits@D@std@@@std@@IBEPADXZ 00413830 f i dicom:cong.obj
 0001:00012840       ?gbump@?$basic_streambuf@DU?$char_traits@D@std@@@std@@IAEXH@Z 00413840 f i dicom:cong.obj
 0001:00012860       ?pbump@?$basic_streambuf@DU?$char_traits@D@std@@@std@@IAEXH@Z 00413860 f i dicom:cong.obj
 0001:00012880       ?_Pnavail@?$basic_streambuf@DU?$char_traits@D@std@@@std@@IBEHXZ 00413880 f i dicom:cong.obj
 0001:000128a0       ?sgetc@?$basic_streambuf@DU?$char_traits@D@std@@@std@@QAEHXZ 004138a0 f i dicom:cong.obj
 0001:000128c0       ?uflow@?$basic_streambuf@DU?$char_traits@D@std@@@std@@MAEHXZ 004138c0 f i dicom:cong.obj
 0001:000128f0       ?seekoff@?$basic_streambuf@DU?$char_traits@D@std@@@std@@MAE?AV?$fpos@H@2@JHH@Z 004138f0 f i dicom:cong.obj
 0001:00012910       ?seekpos@?$basic_streambuf@DU?$char_traits@D@std@@@std@@MAE?AV?$fpos@H@2@V32@H@Z 00413910 f i dicom:cong.obj
 0001:00012930       ?is_open@?$basic_ifstream@DU?$char_traits@D@std@@@std@@QBE_NXZ 00413930 f i dicom:cong.obj
 0001:00012940       ??_E?$Array@PAVBufferSpace@@@@UAEPAXI@Z 00413940 f i dicom:cong.obj
 0001:00012940       ??_G?$Array@PAVBufferSpace@@@@UAEPAXI@Z 00413940 f i dicom:cong.obj
 0001:00012960       ??_E?$Array@PAVVR@@@@UAEPAXI@Z 00413960 f i dicom:cong.obj
 0001:00012960       ??_G?$Array@PAVVR@@@@UAEPAXI@Z 00413960 f i dicom:cong.obj
 0001:00012980       ??_G?$Array@PAVVRGroupPQueue@@@@UAEPAXI@Z 00413980 f i dicom:cong.obj
 0001:00012980       ??_E?$Array@PAVVRGroupPQueue@@@@UAEPAXI@Z 00413980 f i dicom:cong.obj
 0001:000129a0       ??_G?$Array@PAVDICOMObject@@@@UAEPAXI@Z 004139a0 f i dicom:cong.obj
 0001:000129a0       ??_E?$Array@PAVDICOMObject@@@@UAEPAXI@Z 004139a0 f i dicom:cong.obj
 0001:000129c0       ??_E?$Array@PAVDICOMDataObject@@@@UAEPAXI@Z 004139c0 f i dicom:cong.obj
 0001:000129c0       ??_G?$Array@PAVDICOMDataObject@@@@UAEPAXI@Z 004139c0 f i dicom:cong.obj
 0001:000129e0       ??_G?$Array@U_RTCElement@@@@UAEPAXI@Z 004139e0 f i dicom:cong.obj
 0001:000129e0       ??_E?$Array@U_RTCElement@@@@UAEPAXI@Z 004139e0 f i dicom:cong.obj
 0001:00012a00       ??_E?$Array@PAU_ACRNemaAddress@@@@UAEPAXI@Z 00413a00 f i dicom:cong.obj
 0001:00012a00       ??_G?$Array@PAU_ACRNemaAddress@@@@UAEPAXI@Z 00413a00 f i dicom:cong.obj
 0001:00012a20       ??_G?$basic_istream@DU?$char_traits@D@std@@@std@@UAEPAXI@Z 00413a20 f i dicom:cong.obj
 0001:00012a20       ??_E?$basic_istream@DU?$char_traits@D@std@@@std@@UAEPAXI@Z 00413a20 f i dicom:cong.obj
 0001:00012a50       ??_E?$basic_streambuf@DU?$char_traits@D@std@@@std@@UAEPAXI@Z 00413a50 f i dicom:cong.obj
 0001:00012a50       ??_G?$basic_streambuf@DU?$char_traits@D@std@@@std@@UAEPAXI@Z 00413a50 f i dicom:cong.obj
 0001:00012a70       ??0?$_String_val@DV?$allocator@D@std@@@std@@IAE@V?$allocator@D@1@@Z 00413a70 f i dicom:cong.obj
 0001:00012a80       ??0?$_String_val@DV?$allocator@D@std@@@std@@QAE@ABV01@@Z 00413a80 f i dicom:cong.obj
 0001:00012a90       ??0_Sentry_base@?$basic_istream@DU?$char_traits@D@std@@@std@@QAE@AAV12@@Z 00413a90 f i dicom:cong.obj
 0001:00012ac0       ?sbumpc@?$basic_streambuf@DU?$char_traits@D@std@@@std@@QAEHXZ 00413ac0 f i dicom:cong.obj
 0001:00012af0       ??D?$_String_iterator@DU?$char_traits@D@std@@V?$allocator@D@2@@std@@QBEAADXZ 00413af0 f i dicom:cong.obj
 0001:00012b30       ?_Chassign@?$basic_string@DU?$char_traits@D@std@@V?$allocator@D@2@@std@@IAEXIID@Z 00413b30 f i dicom:cong.obj
 0001:00012b90       ?_Eos@?$basic_string@DU?$char_traits@D@std@@V?$allocator@D@2@@std@@IAEXI@Z 00413b90 f i dicom:cong.obj
 0001:00012bb0       ?_Init@?$basic_streambuf@DU?$char_traits@D@std@@@std@@IAEXXZ 00413bb0 f i dicom:cong.obj
 0001:00012c10       ?max_size@?$basic_string@DU?$char_traits@D@std@@V?$allocator@D@2@@std@@QBEIXZ 00413c10 f i dicom:cong.obj
 0001:00012c20       ??0?$_String_const_iterator@DU?$char_traits@D@std@@V?$allocator@D@2@@std@@QAE@PBDPBU_Container_base@1@@Z 00413c20 f i dicom:cong.obj
 0001:00012c80       ?allocate@?$allocator@D@std@@QAEPADI@Z 00413c80 f i dicom:cong.obj
 0001:00012cd0       ?Add@?$Array@PAVBufferSpace@@@@QAEAAPAVBufferSpace@@AAPAV2@@Z 00413cd0 f i dicom:cong.obj
 0001:00012d70       ?Add@?$Array@PAVVRGroupPQueue@@@@QAEAAPAVVRGroupPQueue@@AAPAV2@@Z 00413d70 f i dicom:cong.obj
 0001:00012e10       ?Push@?$PQueueOfPtr@PAVVRGroupPQueue@@@@QAEAAPAVVRGroupPQueue@@AAPAV2@@Z 00413e10 f i dicom:cong.obj
 0001:00012ea0       ?Add@?$Array@PAVDICOMObject@@@@QAEAAPAVDICOMObject@@AAPAV2@@Z 00413ea0 f i dicom:cong.obj
 0001:00012f40       ?Add@?$Array@PAVDICOMDataObject@@@@QAEAAPAVDICOMDataObject@@AAPAV2@@Z 00413f40 f i dicom:cong.obj
 0001:00012fe0       ?Add@?$Array@U_RTCElement@@@@QAEAAU_RTCElement@@AAU2@@Z 00413fe0 f i dicom:cong.obj
 0001:00013080       ?Add@?$Array@PAU_ACRNemaAddress@@@@QAEAAPAU_ACRNemaAddress@@AAPAU2@@Z 00414080 f i dicom:cong.obj
 0001:00013120       ??$copy_s@U?$char_traits@D@std@@@_Traits_helper@std@@YAPADPADIPBDI@Z 00414120 f i dicom:cong.obj
 0001:00013150       ??$move_s@U?$char_traits@D@std@@@_Traits_helper@std@@YAPADPADIPBDI@Z 00414150 f i dicom:cong.obj
 0001:00013180       ??_G?$DataLink@VPresentationContextAccept@@@@QAEPAXI@Z 00414180 f i dicom:cong.obj
 0001:000131a0       ??_G?$DataLink@VAbstractSyntax@@@@QAEPAXI@Z 004141a0 f i dicom:cong.obj
 0001:000131c0       ??0?$DataLink@VTransferSyntax@@@@QAE@XZ 004141c0 f i dicom:cong.obj
 0001:000131f0       ??0?$DataLink@VPresentationContextAccept@@@@QAE@XZ 004141f0 f i dicom:cong.obj
 0001:00013240       ??0?$DataLink@VAbstractSyntax@@@@QAE@XZ 00414240 f i dicom:cong.obj
 0001:00013270       ?Add@?$Array@PAVVR@@@@QAEAAPAVVR@@AAPAV2@@Z 00414270 f i dicom:cong.obj
 0001:00013310       ??1?$Array@V?$FixedArrayElement@IU_RTCElement@@@@@@UAE@XZ 00414310 f i dicom:cong.obj
 0001:000133a0       ?Pop@?$PQueue@V?$FixedArrayElement@IU_RTCElement@@@@@@QAEAAV?$FixedArrayElement@IU_RTCElement@@@@XZ 004143a0 f i dicom:cong.obj
 0001:00013590       ??_G?$DataLink@VTransferSyntax@@@@QAEPAXI@Z 00414590 f i dicom:cong.obj
 0001:000135b0       ?Add@?$Array@V?$FixedArrayElement@IU_RTCElement@@@@@@QAEAAV?$FixedArrayElement@IU_RTCElement@@@@AAV2@@Z 004145b0 f i dicom:cong.obj
 0001:00013660       ??0VRGroupPQueue@@QAE@G@Z  00414660 f i dicom:cong.obj
 0001:000136d0       ??1VRGroupPQueue@@UAE@XZ   004146d0 f i dicom:cong.obj
 0001:00013720       ??_EVRGroupPQueue@@UAEPAXI@Z 00414720 f i dicom:cong.obj
 0001:00013720       ??_GVRGroupPQueue@@UAEPAXI@Z 00414720 f i dicom:cong.obj
 0001:00013780       ??0LinkedBuffer@@QAE@XZ    00414780 f i dicom:cong.obj
 0001:000137e0       ??1LinkedBuffer@@UAE@XZ    004147e0 f i dicom:cong.obj
 0001:00013840       ??_ELinkedBuffer@@UAEPAXI@Z 00414840 f i dicom:cong.obj
 0001:00013840       ??_GLinkedBuffer@@UAEPAXI@Z 00414840 f i dicom:cong.obj
 0001:00013860       ??_EBuffer@@UAEPAXI@Z      00414860 f i dicom:cong.obj
 0001:00013860       ??_GBuffer@@UAEPAXI@Z      00414860 f i dicom:cong.obj
 0001:00013880       ?Write@Buffer@@QAEHPAEI@Z  00414880 f   dicom:cong.obj
 0001:00013af0       ?ReadBlock@Buffer@@QAEHXZ  00414af0 f   dicom:cong.obj
 0001:00013bf0       ??0DICOMObject@@QAE@XZ     00414bf0 f   dicom:cong.obj
 0001:00013c90       ?Push@DICOMObject@@UAEHPAV1@@Z 00414c90 f   dicom:cong.obj
 0001:00013d80       ?ReplaceVR@DICOMObject@@QAEHPAVVR@@@Z 00414d80 f   dicom:cong.obj
 0001:00013e30       ?ChangeVR@DICOMObject@@QAEHGGPBDGH@Z 00414e30 f   dicom:cong.obj
 0001:00013f50       ?ChangeVR@DICOMObject@@QAEHGGEG@Z 00414f50 f   dicom:cong.obj
 0001:00014060       ?ChangeVR@DICOMObject@@QAEHGGGG@Z 00415060 f   dicom:cong.obj
 0001:00014180       ?ChangeVR@DICOMObject@@QAEHGGIG@Z 00415180 f   dicom:cong.obj
 0001:000142a0       ?Package@DICOMObject@@AAEHXZ 004152a0 f   dicom:cong.obj
 0001:00014360       ?SetUserInformation@AAssociateRQ@@QAEXAAVUserInformation@@@Z 00415360 f   dicom:cong.obj
 0001:00014370       ?Size@AAssociateRQ@@QAEIXZ 00415370 f   dicom:cong.obj
 0001:00014470       ?Size@AAssociateAC@@QAEIXZ 00415470 f   dicom:cong.obj
 0001:00014540       ??0MemoryBuffer@@QAE@PAEIHI@Z 00415540 f   dicom:cong.obj
 0001:00014610       ??1MemoryBuffer@@UAE@XZ    00415610 f   dicom:cong.obj
 0001:00014680       ?SendBinary@LinkedBuffer@@UAEHPAEI@Z 00415680 f   dicom:cong.obj
 0001:000146b0       ??0PDataTF@@QAE@XZ         004156b0 f   dicom:cong.obj
 0001:00014710       ??1PDataTF@@UAE@XZ         00415710 f   dicom:cong.obj
 0001:00014760       ?CanYouHandleTransferSyntax@CheckedPDU_Service@@UAEHAAVTransferSyntax@@@Z 00415760 f   dicom:cong.obj
 0001:00014940       ?ShouldIAcceptApplicationContext@CheckedPDU_Service@@EAEHAAVApplicationContext@@@Z 00415940 f   dicom:cong.obj
 0001:00014a40       ?ShouldIAcceptAbstractSyntax@CheckedPDU_Service@@EAEHAAVAbstractSyntax@@@Z 00415a40 f   dicom:cong.obj
 0001:00014b40       ??0FileBuffer@@QAE@XZ      00415b40 f i dicom:cong.obj
 0001:00014ba0       ??1FileBuffer@@UAE@XZ      00415ba0 f i dicom:cong.obj
 0001:00014bf0       ??_GFileBuffer@@UAEPAXI@Z  00415bf0 f i dicom:cong.obj
 0001:00014bf0       ??_EFileBuffer@@UAEPAXI@Z  00415bf0 f i dicom:cong.obj
 0001:00014c50       ?SaveDICOMDataObject@PDU_Service@@QAEHPADIPAVDICOMDataObject@@@Z 00415c50 f   dicom:cong.obj
 0001:00014f60       ?DetachRTC@RTC@@QAEHXZ     00415f60 f   dicom:cong.obj
 0001:00014ff0       ??1ACRNemaMap@@IAE@XZ      00415ff0 f   dicom:cong.obj
 0001:00015020       ?AppendMapToOpenFile@ACRNemaMap@@AAEHPAU_iobuf@@PAD@Z 00416020 f   dicom:cong.obj
 0001:00015080       ?GetACRNemaNoWild@ACRNemaMap@@QAEHPAD000@Z 00416080 f   dicom:cong.obj
 0001:00015090       ?ReplaceEntry@ACRNemaMap@@QAEHIPBD000@Z 00416090 f   dicom:cong.obj
 0001:00015180       ?WriteAMapToAFile@ACRNemaMap@@QAEHPBDPAD@Z 00416180 f   dicom:cong.obj
 0001:000151f0       ??1sentry@?$basic_istream@DU?$char_traits@D@std@@@std@@QAE@XZ 004161f0 f i dicom:cong.obj
 0001:00015250       ?snextc@?$basic_streambuf@DU?$char_traits@D@std@@@std@@QAEHXZ 00416250 f i dicom:cong.obj
 0001:000152d0       ?_Xsgetn_s@?$basic_streambuf@DU?$char_traits@D@std@@@std@@MAEHPADIH@Z 004162d0 f i dicom:cong.obj
 0001:00015370       ?xsputn@?$basic_streambuf@DU?$char_traits@D@std@@@std@@MAEHPBDH@Z 00416370 f i dicom:cong.obj
 0001:00015410       ?erase@?$basic_string@DU?$char_traits@D@std@@V?$allocator@D@2@@std@@QAEAAV12@II@Z 00416410 f i dicom:cong.obj
 0001:000154a0       ?_Tidy@?$basic_string@DU?$char_traits@D@std@@V?$allocator@D@2@@std@@IAEX_NI@Z 004164a0 f i dicom:cong.obj
 0001:000154f0       ?_Init@?$basic_filebuf@DU?$char_traits@D@std@@@std@@IAEXPAU_iobuf@@W4_Initfl@12@@Z 004164f0 f i dicom:cong.obj
 0001:00015540       ?_Initcvt@?$basic_filebuf@DU?$char_traits@D@std@@@std@@IAEXPAV?$codecvt@DDH@2@@Z 00416540 f i dicom:cong.obj
 0001:00015570       ??0?$basic_streambuf@DU?$char_traits@D@std@@@std@@IAE@XZ 00416570 f i dicom:cong.obj
 0001:00015600       ??0?$_String_iterator@DU?$char_traits@D@std@@V?$allocator@D@2@@std@@QAE@PADPBU_Container_base@1@@Z 00416600 f i dicom:cong.obj
 0001:00015620       ?_Copy@?$basic_string@DU?$char_traits@D@std@@V?$allocator@D@2@@std@@IAEXII@Z 00416620 f i dicom:cong.obj
 0001:00015770       ?Push@?$PQueueOfPtr@PAVVR@@@@QAEAAPAVVR@@AAPAV2@@Z 00416770 f i dicom:cong.obj
 0001:00015810       ?Add@?$Array@VTransferSyntax@@@@QAEAAVTransferSyntax@@AAV2@@Z 00416810 f i dicom:cong.obj
 0001:000158d0       ?Add@?$Array@VPresentationContextAccept@@@@QAEAAVPresentationContextAccept@@AAV2@@Z 004168d0 f i dicom:cong.obj
 0001:000159a0       ?RemoveAt@?$Array@VPresentationContextAccept@@@@QAEHI@Z 004169a0 f i dicom:cong.obj
 0001:00015a30       ??1?$Array@VPresentationContextAccept@@@@UAE@XZ 00416a30 f i dicom:cong.obj
 0001:00015ac0       ?Add@?$Array@VAbstractSyntax@@@@QAEAAVAbstractSyntax@@AAV2@@Z 00416ac0 f i dicom:cong.obj
 0001:00015b80       ?RemoveAt@?$Array@VAbstractSyntax@@@@QAEHI@Z 00416b80 f i dicom:cong.obj
 0001:00015c10       ??1?$Array@VAbstractSyntax@@@@UAE@XZ 00416c10 f i dicom:cong.obj
 0001:00015ca0       ??0?$PQueue@V?$FixedArrayElement@IU_RTCElement@@@@@@QAE@XZ 00416ca0 f i dicom:cong.obj
 0001:00015d10       ??1?$PQueue@V?$FixedArrayElement@IU_RTCElement@@@@@@UAE@XZ 00416d10 f i dicom:cong.obj
 0001:00015d60       ??_G?$PQueue@V?$FixedArrayElement@IU_RTCElement@@@@@@UAEPAXI@Z 00416d60 f i dicom:cong.obj
 0001:00015d60       ??_E?$PQueue@V?$FixedArrayElement@IU_RTCElement@@@@@@UAEPAXI@Z 00416d60 f i dicom:cong.obj
 0001:00015dc0       ??_G?$Array@V?$FixedArrayElement@IU_RTCElement@@@@@@UAEPAXI@Z 00416dc0 f i dicom:cong.obj
 0001:00015dc0       ??_E?$Array@V?$FixedArrayElement@IU_RTCElement@@@@@@UAEPAXI@Z 00416dc0 f i dicom:cong.obj
 0001:00015de0       ?RemoveAt@?$Array@VTransferSyntax@@@@QAEHI@Z 00416de0 f i dicom:cong.obj
 0001:00015e70       ?Push@?$PQueue@V?$FixedArrayElement@IU_RTCElement@@@@@@QAEAAV?$FixedArrayElement@IU_RTCElement@@@@AAV2@@Z 00416e70 f i dicom:cong.obj
 0001:00015f40       ??6Buffer@@QAEAAV0@AAE@Z   00416f40 f   dicom:cong.obj
 0001:00015f70       ??6Buffer@@QAEAAV0@AAG@Z   00416f70 f   dicom:cong.obj
 0001:00015fe0       ??6Buffer@@QAEAAV0@AAI@Z   00416fe0 f   dicom:cong.obj
 0001:00016040       ?Fill@Buffer@@QAEHI@Z      00417040 f   dicom:cong.obj
 0001:00016090       ?Read@Buffer@@QAEHPAEI@Z   00417090 f   dicom:cong.obj
 0001:000161e0       ?Push@VRGroupPQueue@@QAEHPAVVR@@@Z 004171e0 f   dicom:cong.obj
 0001:00016220       ?Push@DICOMObject@@UAEHPAVVR@@@Z 00417220 f   dicom:cong.obj
 0001:00016370       ?Pop@DICOMObject@@UAEPAVVR@@XZ 00417370 f   dicom:cong.obj
 0001:00016410       ?Write@ApplicationContext@@QAEHAAVBuffer@@@Z 00417410 f   dicom:cong.obj
 0001:00016470       ?Write@AbstractSyntax@@QAEHAAVBuffer@@@Z 00417470 f   dicom:cong.obj
 0001:000164d0       ?Write@TransferSyntax@@QAEHAAVBuffer@@@Z 004174d0 f   dicom:cong.obj
 0001:00016530       ?Write@ImplementationClass@@QAEHAAVBuffer@@@Z 00417530 f   dicom:cong.obj
 0001:00016590       ?Write@ImplementationVersion@@QAEHAAVBuffer@@@Z 00417590 f   dicom:cong.obj
 0001:000165f0       ?AddTransferSyntax@PresentationContext@@QAEXAAVTransferSyntax@@@Z 004175f0 f   dicom:cong.obj
 0001:00016600       ?Write@PresentationContext@@QAEHAAVBuffer@@@Z 00417600 f   dicom:cong.obj
 0001:00016750       ?Write@MaximumSubLength@@QAEHAAVBuffer@@@Z 00417750 f   dicom:cong.obj
 0001:000167a0       ?Write@SCPSCURoleSelect@@QAEHAAVBuffer@@@Z 004177a0 f   dicom:cong.obj
 0001:00016830       ?Write@UserInformation@@QAEHAAVBuffer@@@Z 00417830 f   dicom:cong.obj
 0001:000168d0       ?Write@AAssociateRQ@@QAEHAAVBuffer@@@Z 004178d0 f   dicom:cong.obj
 0001:000169b0       ?Write@PresentationContextAccept@@QAEHAAVBuffer@@@Z 004179b0 f   dicom:cong.obj
 0001:00016a30       ??0AAssociateAC@@QAE@XZ    00417a30 f   dicom:cong.obj
 0001:00016b40       ??0AAssociateAC@@QAE@PAE0@Z 00417b40 f   dicom:cong.obj
 0001:00016cc0       ??1AAssociateAC@@UAE@XZ    00417cc0 f   dicom:cong.obj
 0001:00016d10       ?AddPresentationContextAccept@AAssociateAC@@QAEXAAVPresentationContextAccept@@@Z 00417d10 f   dicom:cong.obj
 0001:00016d20       ?Write@AAssociateAC@@QAEHAAVBuffer@@@Z 00417d20 f   dicom:cong.obj
 0001:00016e00       ?Write@AAssociateRJ@@QAEHAAVBuffer@@@Z 00417e00 f   dicom:cong.obj
 0001:00016eb0       ?Write@AReleaseRQ@@QAEHAAVBuffer@@@Z 00417eb0 f   dicom:cong.obj
 0001:00016f10       ?Write@AReleaseRP@@QAEHAAVBuffer@@@Z 00417f10 f   dicom:cong.obj
 0001:00016f70       ?Write@AAbortRQ@@QAEHAAVBuffer@@@Z 00417f70 f   dicom:cong.obj
 0001:00017020       ??_EMemoryBuffer@@UAEPAXI@Z 00418020 f i dicom:cong.obj
 0001:00017020       ??_GMemoryBuffer@@UAEPAXI@Z 00418020 f i dicom:cong.obj
 0001:00017040       ?Fill@LinkedBuffer@@QAEHAAVBuffer@@I@Z 00418040 f   dicom:cong.obj
 0001:00017060       ?ReadBinary@LinkedBuffer@@UAEHPAEI@Z 00418060 f   dicom:cong.obj
 0001:00017090       ?Write@PDataTF@@QAEHAAVBuffer@@@Z 00418090 f   dicom:cong.obj
 0001:00017220       ??_GPDataTF@@UAEPAXI@Z     00418220 f i dicom:cong.obj
 0001:00017220       ??_EPDataTF@@UAEPAXI@Z     00418220 f i dicom:cong.obj
 0001:00017290       ?InterogateAAssociateAC@PDU_Service@@IAEHXZ 00418290 f   dicom:cong.obj
 0001:00017530       ?ClearAbstractSyntaxs@PDU_Service@@QAEHXZ 00418530 f   dicom:cong.obj
 0001:000175e0       ?AddAbstractSyntax@PDU_Service@@UAEHAAVUID@@@Z 004185e0 f   dicom:cong.obj
 0001:000176e0       ?AddTransferSyntaxs@PDU_Service@@MAEHAAVPresentationContext@@@Z 004186e0 f   dicom:cong.obj
 0001:000177a0       ?ParseImagePixelDataDCMToRaw@PDU_Service@@MAEHPAV?$Array@PAVDICOMDataObject@@@@AAVLinkedBuffer@@@Z 004187a0 f   dicom:cong.obj
 0001:00017940       ?Implicit_ParseDCMIntoRawVR@PDU_Service@@MAEHPAVDICOMObject@@AAVLinkedBuffer@@@Z 00418940 f   dicom:cong.obj
 0001:00017f20       ?Explicit_ParseDCMIntoRawVR@PDU_Service@@MAEHPAVDICOMObject@@AAVLinkedBuffer@@@Z 00418f20 f   dicom:cong.obj
 0001:000185e0       ?Dynamic_ParseDCMIntoRawVR@PDU_Service@@MAEHPAVDICOMObject@@AAVLinkedBuffer@@I@Z 004195e0 f   dicom:cong.obj
 0001:00018e40       ??1RTC@@QAE@XZ             00419e40 f   dicom:cong.obj
 0001:00018e50       ??0?$basic_string@DU?$char_traits@D@std@@V?$allocator@D@2@@std@@QAE@XZ 00419e50 f i dicom:cong.obj
 0001:00018e70       ??1?$basic_string@DU?$char_traits@D@std@@V?$allocator@D@2@@std@@QAE@XZ 00419e70 f i dicom:cong.obj
 0001:00018ea0       ??_G?$Array@VPresentationContextAccept@@@@UAEPAXI@Z 00419ea0 f i dicom:cong.obj
 0001:00018ea0       ??_E?$Array@VPresentationContextAccept@@@@UAEPAXI@Z 00419ea0 f i dicom:cong.obj
 0001:00018ec0       ??_G?$Array@VAbstractSyntax@@@@UAEPAXI@Z 00419ec0 f i dicom:cong.obj
 0001:00018ec0       ??_E?$Array@VAbstractSyntax@@@@UAEPAXI@Z 00419ec0 f i dicom:cong.obj
 0001:00018ee0       ?begin@?$basic_string@DU?$char_traits@D@std@@V?$allocator@D@2@@std@@QAE?AV?$_String_iterator@DU?$char_traits@D@std@@V?$allocator@D@2@@2@XZ 00419ee0 f i dicom:cong.obj
 0001:00018f20       ??0?$basic_filebuf@DU?$char_traits@D@std@@@std@@QAE@PAU_iobuf@@@Z 00419f20 f i dicom:cong.obj
 0001:00018fc0       ?not_eof@?$char_traits@D@std@@SAHABH@Z 00419fc0 f i dicom:cong.obj
 0001:00018fe0       ??$_Fgetc@D@std@@YA_NAADPAU_iobuf@@@Z 00419fe0 f i dicom:cong.obj
 0001:00019000       ??$_Fputc@D@std@@YA_NDPAU_iobuf@@@Z 0041a000 f i dicom:cong.obj
 0001:00019020       ??$_Ungetc@D@std@@YA_NABDPAU_iobuf@@@Z 0041a020 f i dicom:cong.obj
 0001:00019040       ?sync@?$basic_filebuf@DU?$char_traits@D@std@@@std@@MAEHXZ 0041a040 f i dicom:cong.obj
 0001:00019070       ?eback@?$basic_streambuf@DU?$char_traits@D@std@@@std@@IBEPADXZ 0041a070 f i dicom:cong.obj
 0001:00019080       ?egptr@?$basic_streambuf@DU?$char_traits@D@std@@@std@@IBEPADXZ 0041a080 f i dicom:cong.obj
 0001:00019090       ?epptr@?$basic_streambuf@DU?$char_traits@D@std@@@std@@IBEPADXZ 0041a090 f i dicom:cong.obj
 0001:000190a0       ?_Gndec@?$basic_streambuf@DU?$char_traits@D@std@@@std@@IAEPADXZ 0041a0a0 f i dicom:cong.obj
 0001:000190c0       ?_Pninc@?$basic_streambuf@DU?$char_traits@D@std@@@std@@IAEPADXZ 0041a0c0 f i dicom:cong.obj
 0001:000190e0       ??0?$fpos@H@std@@QAE@H_J@Z 0041a0e0 f i dicom:cong.obj
 0001:00019100       ?state@?$fpos@H@std@@QBEHXZ 0041a100 f i dicom:cong.obj
 0001:00019110       ?seekpos@?$fpos@H@std@@QBE_JXZ 0041a110 f i dicom:cong.obj
 0001:00019120       ?in@?$codecvt@DDH@std@@QBEHAAHPBD1AAPBDPAD3AAPAD@Z 0041a120 f i dicom:cong.obj
 0001:00019130       ?out@?$codecvt@DDH@std@@QBEHAAHPBD1AAPBDPAD3AAPAD@Z 0041a130 f i dicom:cong.obj
 0001:00019140       ?pbackfail@?$basic_filebuf@DU?$char_traits@D@std@@@std@@MAEHH@Z 0041a140 f i dicom:cong.obj
 0001:000191b0       ?underflow@?$basic_filebuf@DU?$char_traits@D@std@@@std@@MAEHXZ 0041a1b0 f i dicom:cong.obj
 0001:00019200       ?setbuf@?$basic_filebuf@DU?$char_traits@D@std@@@std@@MAEPAV?$basic_streambuf@DU?$char_traits@D@std@@@2@PADH@Z 0041a200 f i dicom:cong.obj
 0001:00019280       ?_Grow@?$basic_string@DU?$char_traits@D@std@@V?$allocator@D@2@@std@@IAE_NI_N@Z 0041a280 f i dicom:cong.obj
 0001:00019340       ??1?$Array@VTransferSyntax@@@@UAE@XZ 0041a340 f i dicom:cong.obj
 0001:000193d0       ?Sort@?$FixedArray@IU_RTCElement@@@@QAEHXZ 0041a3d0 f i dicom:cong.obj
 0001:00019500       ??5Buffer@@QAEAAV0@AAE@Z   0041a500 f   dicom:cong.obj
 0001:00019530       ??5Buffer@@QAEAAV0@AAG@Z   0041a530 f   dicom:cong.obj
 0001:00019590       ??5Buffer@@QAEAAV0@AAI@Z   0041a590 f   dicom:cong.obj
 0001:00019600       ?Kill@Buffer@@QAEHI@Z      0041a600 f   dicom:cong.obj
 0001:00019670       ??1DICOMObject@@UAE@XZ     0041a670 f   dicom:cong.obj
 0001:00019730       ?ReadDynamic@ApplicationContext@@QAEHAAVBuffer@@@Z 0041a730 f   dicom:cong.obj
 0001:000197a0       ?ReadDynamic@AbstractSyntax@@QAEHAAVBuffer@@@Z 0041a7a0 f   dicom:cong.obj
 0001:00019810       ?ReadDynamic@TransferSyntax@@QAEHAAVBuffer@@@Z 0041a810 f   dicom:cong.obj
 0001:00019880       ?ReadDynamic@ImplementationClass@@QAEHAAVBuffer@@@Z 0041a880 f   dicom:cong.obj
 0001:000198f0       ?ReadDynamic@ImplementationVersion@@QAEHAAVBuffer@@@Z 0041a8f0 f   dicom:cong.obj
 0001:00019960       ??0PresentationContext@@QAE@XZ 0041a960 f   dicom:cong.obj
 0001:00019a10       ??0PresentationContext@@QAE@AAVAbstractSyntax@@AAVTransferSyntax@@@Z 0041aa10 f   dicom:cong.obj
 0001:00019ae0       ??1PresentationContext@@QAE@XZ 0041aae0 f   dicom:cong.obj
 0001:00019b30       ?ReadDynamic@MaximumSubLength@@QAEHAAVBuffer@@@Z 0041ab30 f   dicom:cong.obj
 0001:00019b70       ?ReadDynamic@SCPSCURoleSelect@@QAEHAAVBuffer@@@Z 0041ab70 f   dicom:cong.obj
 0001:00019c10       ?ReadDynamic@UserInformation@@QAEHAAVBuffer@@@Z 0041ac10 f   dicom:cong.obj
 0001:00019dc0       ??_GPresentationContext@@QAEPAXI@Z 0041adc0 f i dicom:cong.obj
 0001:00019e20       ??_GAAssociateAC@@UAEPAXI@Z 0041ae20 f i dicom:cong.obj
 0001:00019e20       ??_EAAssociateAC@@UAEPAXI@Z 0041ae20 f i dicom:cong.obj
 0001:00019e40       ?ReadDynamic@AAssociateRJ@@QAEHAAVBuffer@@@Z 0041ae40 f   dicom:cong.obj
 0001:00019ec0       ?ReadDynamic@AReleaseRQ@@QAEHAAVBuffer@@@Z 0041aec0 f   dicom:cong.obj
 0001:00019f00       ?ReadDynamic@AReleaseRP@@QAEHAAVBuffer@@@Z 0041af00 f   dicom:cong.obj
 0001:00019f40       ?ReadDynamic@AAbortRQ@@QAEHAAVBuffer@@@Z 0041af40 f   dicom:cong.obj
 0001:00019fc0       ?ReadDynamic@PDataTF@@QAEHAAVBuffer@@@Z 0041afc0 f   dicom:cong.obj
 0001:0001a190       ??_GRTC@@QAEPAXI@Z         0041b190 f i dicom:cong.obj
 0001:0001a1b0       ?DetachRTC@PDU_Service@@QAEPAVRTC@@XZ 0041b1b0 f   dicom:cong.obj
 0001:0001a1f0       ?Implicit_ParseRawVRIntoDCM@PDU_Service@@MAEHAAVLinkedBuffer@@PAVDICOMObject@@H@Z 0041b1f0 f   dicom:cong.obj
 0001:0001a8f0       ?Explicit_ParseRawVRIntoDCM@PDU_Service@@MAEHAAVLinkedBuffer@@PAVDICOMObject@@@Z 0041b8f0 f   dicom:cong.obj
 0001:0001b4f0       ?LoadDICOMDataObject@PDU_Service@@QAEPAVDICOMDataObject@@PAD@Z 0041c4f0 f   dicom:cong.obj
 0001:0001b6e0       ?MakeChapter10@PDU_Service@@UAEHPAVDICOMDataObject@@PBD@Z 0041c6e0 f   dicom:cong.obj
 0001:0001bc10       ?AttachRTC@RTC@@QAEHPAD@Z  0041cc10 f   dicom:cong.obj
 0001:0001c540       ?RunTimeClass@RTC@@QAEHPAVDICOMObject@@@Z 0041d540 f   dicom:cong.obj
 0001:0001c610       ??1runtime_error@std@@UAE@XZ 0041d610 f i dicom:cong.obj
 0001:0001c690       ?c_str@?$basic_string@DU?$char_traits@D@std@@V?$allocator@D@2@@std@@QBEPBDXZ 0041d690 f i dicom:cong.obj
 0001:0001c6a0       ?what@runtime_error@std@@UBEPBDXZ 0041d6a0 f i dicom:cong.obj
 0001:0001c6b0       ??_Gruntime_error@std@@UAEPAXI@Z 0041d6b0 f i dicom:cong.obj
 0001:0001c6b0       ??_Eruntime_error@std@@UAEPAXI@Z 0041d6b0 f i dicom:cong.obj
 0001:0001c6d0       ??1_Locinfo@std@@QAE@XZ    0041d6d0 f i dicom:cong.obj
 0001:0001c7c0       ??_G?$Array@VTransferSyntax@@@@UAEPAXI@Z 0041d7c0 f i dicom:cong.obj
 0001:0001c7c0       ??_E?$Array@VTransferSyntax@@@@UAEPAXI@Z 0041d7c0 f i dicom:cong.obj
 0001:0001c7e0       ?append@?$basic_string@DU?$char_traits@D@std@@V?$allocator@D@2@@std@@QAEAAV12@ID@Z 0041d7e0 f i dicom:cong.obj
 0001:0001c890       ?assign@?$basic_string@DU?$char_traits@D@std@@V?$allocator@D@2@@std@@QAEAAV12@ABV12@II@Z 0041d890 f i dicom:cong.obj
 0001:0001c970       ?assign@?$basic_string@DU?$char_traits@D@std@@V?$allocator@D@2@@std@@QAEAAV12@PBDI@Z 0041d970 f i dicom:cong.obj
 0001:0001ca40       ?assign@?$basic_string@DU?$char_traits@D@std@@V?$allocator@D@2@@std@@QAEAAV12@ID@Z 0041da40 f i dicom:cong.obj
 0001:0001cad0       ??1?$DataLink@VPresentationContext@@@@QAE@XZ 0041dad0 f i dicom:cong.obj
 0001:0001cb20       ??0?$DataLink@VPresentationContext@@@@QAE@XZ 0041db20 f i dicom:cong.obj
 0001:0001cb80       ??5Buffer@@QAEAAV0@AAD@Z   0041db80 f i dicom:cong.obj
 0001:0001cbb0       ??_EDICOMObject@@UAEPAXI@Z 0041dbb0 f i dicom:cong.obj
 0001:0001cbb0       ??_GDICOMObject@@UAEPAXI@Z 0041dbb0 f i dicom:cong.obj
 0001:0001cbd0       ?Read@ApplicationContext@@QAEHAAVBuffer@@@Z 0041dbd0 f   dicom:cong.obj
 0001:0001cc00       ?Read@AbstractSyntax@@QAEHAAVBuffer@@@Z 0041dc00 f   dicom:cong.obj
 0001:0001cc30       ?Read@TransferSyntax@@QAEHAAVBuffer@@@Z 0041dc30 f   dicom:cong.obj
 0001:0001cc60       ?Read@ImplementationClass@@QAEHAAVBuffer@@@Z 0041dc60 f   dicom:cong.obj
 0001:0001cc90       ?Read@ImplementationVersion@@QAEHAAVBuffer@@@Z 0041dc90 f   dicom:cong.obj
 0001:0001ccc0       ?ReadDynamic@PresentationContext@@QAEHAAVBuffer@@@Z 0041dcc0 f   dicom:cong.obj
 0001:0001ce80       ?Read@MaximumSubLength@@QAEHAAVBuffer@@@Z 0041de80 f   dicom:cong.obj
 0001:0001cec0       ?Read@SCPSCURoleSelect@@QAEHAAVBuffer@@@Z 0041dec0 f   dicom:cong.obj
 0001:0001cee0       ?Read@UserInformation@@QAEHAAVBuffer@@@Z 0041dee0 f   dicom:cong.obj
 0001:0001cf10       ?ReadDynamic@PresentationContextAccept@@QAEHAAVBuffer@@@Z 0041df10 f   dicom:cong.obj
 0001:0001cfb0       ?ReadDynamic@AAssociateAC@@QAEHAAVBuffer@@@Z 0041dfb0 f   dicom:cong.obj
 0001:0001d230       ?Read@AAssociateRJ@@QAEHAAVBuffer@@@Z 0041e230 f   dicom:cong.obj
 0001:0001d260       ?Read@AReleaseRQ@@QAEHAAVBuffer@@@Z 0041e260 f   dicom:cong.obj
 0001:0001d2b0       ?Read@AReleaseRP@@QAEHAAVBuffer@@@Z 0041e2b0 f   dicom:cong.obj
 0001:0001d300       ?Read@AAbortRQ@@QAEHAAVBuffer@@@Z 0041e300 f   dicom:cong.obj
 0001:0001d330       ?AttachRTC@PDU_Service@@QAEHPAVRTC@@H@Z 0041e330 f   dicom:cong.obj
 0001:0001d380       ?Close@PDU_Service@@QAEHXZ 0041e380 f   dicom:cong.obj
 0001:0001d430       ?ParseImagePixelDataRawToDCM@PDU_Service@@MAEHAAVLinkedBuffer@@PAVDICOMObject@@@Z 0041e430 f   dicom:cong.obj
 0001:0001d770       ?Dynamic_ParseRawVRIntoDCM@PDU_Service@@MAEHAAVLinkedBuffer@@PAVDICOMObject@@I@Z 0041e770 f   dicom:cong.obj
 0001:0001e350       ?Read@NGetRQ@@QAEHPAVDICOMCommandObject@@PAVPDU_Service@@PAVDICOMDataObject@@@Z 0041f350 f   dicom:cong.obj
 0001:0001e3a0       ??0RTC@@QAE@HPAD@Z         0041f3a0 f   dicom:cong.obj
 0001:0001e3d0       ?MkBinaryRtc@@YAHPAD0H@Z   0041f3d0 f   dicom:cong.obj
 0001:0001e6c0       ??0?$basic_string@DU?$char_traits@D@std@@V?$allocator@D@2@@std@@QAE@ABV01@@Z 0041f6c0 f i dicom:cong.obj
 0001:0001e6f0       ?uflow@?$basic_filebuf@DU?$char_traits@D@std@@@std@@MAEHXZ 0041f6f0 f i dicom:cong.obj
 0001:0001ea70       ??0?$basic_string@DU?$char_traits@D@std@@V?$allocator@D@2@@std@@QAE@ID@Z 0041fa70 f i dicom:cong.obj
 0001:0001eaa0       ?assign@?$basic_string@DU?$char_traits@D@std@@V?$allocator@D@2@@std@@QAEAAV12@PBD@Z 0041faa0 f i dicom:cong.obj
 0001:0001ead0       ?_Endwrite@?$basic_filebuf@DU?$char_traits@D@std@@@std@@IAE_NXZ 0041fad0 f i dicom:cong.obj
 0001:0001ee00       ?Add@?$Array@VPresentationContext@@@@QAEAAVPresentationContext@@AAV2@@Z 0041fe00 f i dicom:cong.obj
 0001:0001eea0       ??_G?$DataLink@VPresentationContext@@@@QAEPAXI@Z 0041fea0 f i dicom:cong.obj
 0001:0001ef00       ?Read@PresentationContext@@QAEHAAVBuffer@@@Z 0041ff00 f   dicom:cong.obj
 0001:0001ef20       ?AddPresentationContext@AAssociateRQ@@QAEXAAVPresentationContext@@@Z 0041ff20 f   dicom:cong.obj
 0001:0001ef60       ?ReadDynamic@AAssociateRQ@@QAEHAAVBuffer@@@Z 0041ff60 f   dicom:cong.obj
 0001:0001f140       ?Read@PresentationContextAccept@@QAEHAAVBuffer@@@Z 00420140 f   dicom:cong.obj
 0001:0001f160       ?Read@AAssociateAC@@QAEHAAVBuffer@@@Z 00420160 f   dicom:cong.obj
 0001:0001f190       ??0runtime_error@std@@QAE@ABV?$basic_string@DU?$char_traits@D@std@@V?$allocator@D@2@@1@@Z 00420190 f i dicom:cong.obj
 0001:0001f210       ??0failure@ios_base@std@@QAE@ABV?$basic_string@DU?$char_traits@D@std@@V?$allocator@D@2@@2@@Z 00420210 f i dicom:cong.obj
 0001:0001f270       ??1failure@ios_base@std@@UAE@XZ 00420270 f i dicom:cong.obj
 0001:0001f2c0       ??_Efailure@ios_base@std@@UAEPAXI@Z 004202c0 f i dicom:cong.obj
 0001:0001f2c0       ??_Gfailure@ios_base@std@@UAEPAXI@Z 004202c0 f i dicom:cong.obj
 0001:0001f320       ??0?$basic_string@DU?$char_traits@D@std@@V?$allocator@D@2@@std@@QAE@PBD@Z 00420320 f i dicom:cong.obj
 0001:0001f360       ?overflow@?$basic_filebuf@DU?$char_traits@D@std@@@std@@MAEHH@Z 00420360 f i dicom:cong.obj
 0001:0001f730       ?seekoff@?$basic_filebuf@DU?$char_traits@D@std@@@std@@MAE?AV?$fpos@H@2@JHH@Z 00420730 f i dicom:cong.obj
 0001:0001f810       ?seekpos@?$basic_filebuf@DU?$char_traits@D@std@@@std@@MAE?AV?$fpos@H@2@V32@H@Z 00420810 f i dicom:cong.obj
 0001:0001f900       ?close@?$basic_filebuf@DU?$char_traits@D@std@@@std@@QAEPAV12@XZ 00420900 f i dicom:cong.obj
 0001:0001f950       ?RemoveAt@?$Array@VPresentationContext@@@@QAEHI@Z 00420950 f i dicom:cong.obj
 0001:0001fa30       ??1?$Array@VPresentationContext@@@@UAE@XZ 00420a30 f i dicom:cong.obj
 0001:0001fa60       ??0AAssociateRQ@@QAE@XZ    00420a60 f   dicom:cong.obj
 0001:0001fb70       ??0AAssociateRQ@@QAE@PAE0@Z 00420b70 f   dicom:cong.obj
 0001:0001fcf0       ??1AAssociateRQ@@UAE@XZ    00420cf0 f   dicom:cong.obj
 0001:0001fdf0       ?ClearPresentationContexts@AAssociateRQ@@QAEXXZ 00420df0 f   dicom:cong.obj
 0001:0001fe20       ?Read@AAssociateRQ@@QAEHAAVBuffer@@@Z 00420e20 f   dicom:cong.obj
 0001:0001fe50       ??0PDU_Service@@QAE@XZ     00420e50 f   dicom:cong.obj
 0001:00020080       ?ShouldIAcceptRemoteApTitle@PDU_Service@@MAEHPAE@Z 00421080 f i dicom:cong.obj
 0001:00020090       ?ShouldIAcceptLocalApTitle@PDU_Service@@MAEHPAE@Z 00421090 f i dicom:cong.obj
 0001:000200a0       ?ShouldIAcceptApplicationContext@PDU_Service@@MAEHAAVApplicationContext@@@Z 004210a0 f i dicom:cong.obj
 0001:000200b0       ?ShouldIAcceptPresentationContext@PDU_Service@@MAEHAAVPresentationContext@@AAVPresentationContextAccept@@@Z 004210b0 f i dicom:cong.obj
 0001:000200c0       ?ShouldIAcceptAbstractSyntax@PDU_Service@@MAEHAAVAbstractSyntax@@@Z 004210c0 f i dicom:cong.obj
 0001:000200d0       ?ReadBinary@PDU_Service@@UAEHPAEI@Z 004210d0 f i dicom:cong.obj
 0001:000200e0       ?SendBinary@PDU_Service@@UAEHPAEI@Z 004210e0 f i dicom:cong.obj
 0001:000200f0       ??_EPDU_Service@@WFA@AEPAXI@Z 004210f0 f i dicom:cong.obj
 0001:00020100       ??_EPDU_Service@@WDNI@AEPAXI@Z 00421100 f i dicom:cong.obj
 0001:00020110       ??_EPDU_Service@@WDPI@AEPAXI@Z 00421110 f i dicom:cong.obj
 0001:00020120       ??_EPDU_Service@@WCAM@AEPAXI@Z 00421120 f i dicom:cong.obj
 0001:00020130       ??_EPDU_Service@@WDMI@AEPAXI@Z 00421130 f i dicom:cong.obj
 0001:00020140       ??_EPDU_Service@@WDOI@AEPAXI@Z 00421140 f i dicom:cong.obj
 0001:00020150       ??_EPDU_Service@@WEAI@AEPAXI@Z 00421150 f i dicom:cong.obj
 0001:00020160       ??1PDU_Service@@UAE@XZ     00421160 f   dicom:cong.obj
 0001:00020390       ?Read@PDU_Service@@QAEHPAVDICOMObject@@@Z 00421390 f   dicom:cong.obj
 0001:00020500       ?InterogateAAssociateRQ@PDU_Service@@IAEHXZ 00421500 f   dicom:cong.obj
 0001:00020ab0       ?Listen@PDU_Service@@QAEHPAE@Z 00421ab0 f   dicom:cong.obj
 0001:00020b70       ?Listen@PDU_Service@@QAEHH@Z 00421b70 f   dicom:cong.obj
 0001:00020cc0       ?Multiplex@PDU_Service@@QAEHH@Z 00421cc0 f   dicom:cong.obj
 0001:00020df0       ?GetPresentationContextID@PDU_Service@@QAEEAAVUID@@@Z 00421df0 f   dicom:cong.obj
 0001:00021080       ?GetPresentationContextID@PDU_Service@@QAEEAAVUID@@0@Z 00422080 f   dicom:cong.obj
 0001:000214a0       ?IsAbstractSyntaxAccepted@PDU_Service@@QAEHAAVUID@@@Z 004224a0 f   dicom:cong.obj
 0001:00021560       ?AddAbstractSyntaxAlias@PDU_Service@@UAEHAAVUID@@0@Z 00422560 f   dicom:cong.obj
 0001:00021950       ?Connect@PDU_Service@@QAEHPAE0@Z 00422950 f   dicom:cong.obj
 0001:00021c40       ?ParseDCMIntoRawVR@PDU_Service@@MAEEPAVDICOMObject@@AAVLinkedBuffer@@AAVUID@@H@Z 00422c40 f   dicom:cong.obj
 0001:00021df0       ?Read@CStoreRQ@@QAEHPAVDICOMCommandObject@@PAVPDU_Service@@PAVDICOMDataObject@@@Z 00422df0 f   dicom:cong.obj
 0001:00021e50       ?Read@CStoreRQ@@QAEHPAVDICOMCommandObject@@@Z 00422e50 f   dicom:cong.obj
 0001:00021e90       ?Read@CFindRQ@@QAEHPAVDICOMCommandObject@@PAVPDU_Service@@PAVDICOMDataObject@@@Z 00422e90 f   dicom:cong.obj
 0001:00021ef0       ?Read@CFindRQ@@QAEHPAVDICOMCommandObject@@@Z 00422ef0 f   dicom:cong.obj
 0001:00021f30       ?Read@CFindRSP@@QAEHPAVDICOMCommandObject@@PAVPDU_Service@@PAVDICOMDataObject@@@Z 00422f30 f   dicom:cong.obj
 0001:00021f90       ?Read@CFindRSP@@QAEHPAVDICOMCommandObject@@@Z 00422f90 f   dicom:cong.obj
 0001:00021fc0       ?Read@CMoveRQ@@QAEHPAVDICOMCommandObject@@PAVPDU_Service@@PAVDICOMDataObject@@@Z 00422fc0 f   dicom:cong.obj
 0001:00022020       ?Read@CMoveRQ@@QAEHPAVDICOMCommandObject@@@Z 00423020 f   dicom:cong.obj
 0001:00022060       ?Read@CMoveRSP@@QAEHPAVDICOMCommandObject@@PAVPDU_Service@@PAVDICOMDataObject@@@Z 00423060 f   dicom:cong.obj
 0001:000220c0       ?Read@CMoveRSP@@QAEHPAVDICOMCommandObject@@@Z 004230c0 f   dicom:cong.obj
 0001:000220f0       ?Read@NEventReportRQ@@QAEHPAVDICOMCommandObject@@PAVPDU_Service@@PAVDICOMDataObject@@@Z 004230f0 f   dicom:cong.obj
 0001:00022150       ?Read@NEventReportRSP@@QAEHPAVDICOMCommandObject@@PAVPDU_Service@@PAVDICOMDataObject@@@Z 00423150 f   dicom:cong.obj
 0001:000221b0       ?Read@NGetRSP@@QAEHPAVDICOMCommandObject@@PAVPDU_Service@@PAVDICOMDataObject@@@Z 004231b0 f   dicom:cong.obj
 0001:00022210       ?Read@NSetRQ@@QAEHPAVDICOMCommandObject@@PAVPDU_Service@@PAVDICOMDataObject@@@Z 00423210 f   dicom:cong.obj
 0001:00022270       ?Read@NSetRSP@@QAEHPAVDICOMCommandObject@@PAVPDU_Service@@PAVDICOMDataObject@@@Z 00423270 f   dicom:cong.obj
 0001:000222d0       ?Read@NActionRQ@@QAEHPAVDICOMCommandObject@@PAVPDU_Service@@PAVDICOMDataObject@@@Z 004232d0 f   dicom:cong.obj
 0001:00022330       ?Read@NActionRSP@@QAEHPAVDICOMCommandObject@@PAVPDU_Service@@PAVDICOMDataObject@@@Z 00423330 f   dicom:cong.obj
 0001:00022390       ?Read@NCreateRQ@@QAEHPAVDICOMCommandObject@@PAVPDU_Service@@PAVDICOMDataObject@@@Z 00423390 f   dicom:cong.obj
 0001:000223f0       ?Read@NCreateRSP@@QAEHPAVDICOMCommandObject@@PAVPDU_Service@@PAVDICOMDataObject@@@Z 004233f0 f   dicom:cong.obj
 0001:00022450       ??0CheckedPDU_Service@@QAE@PAD@Z 00423450 f   dicom:cong.obj
 0001:00022500       ??_ECheckedPDU_Service@@WDOI@AEPAXI@Z 00423500 f i dicom:cong.obj
 0001:00022510       ??_ECheckedPDU_Service@@WEAI@AEPAXI@Z 00423510 f i dicom:cong.obj
 0001:00022520       ??_ECheckedPDU_Service@@WFA@AEPAXI@Z 00423520 f i dicom:cong.obj
 0001:00022530       ??_ECheckedPDU_Service@@WDNI@AEPAXI@Z 00423530 f i dicom:cong.obj
 0001:00022540       ??_ECheckedPDU_Service@@WDPI@AEPAXI@Z 00423540 f i dicom:cong.obj
 0001:00022550       ??_ECheckedPDU_Service@@WCAM@AEPAXI@Z 00423550 f i dicom:cong.obj
 0001:00022560       ??_ECheckedPDU_Service@@WDMI@AEPAXI@Z 00423560 f i dicom:cong.obj
 0001:00022570       ??1CheckedPDU_Service@@UAE@XZ 00423570 f   dicom:cong.obj
 0001:00022610       ??0_Locinfo@std@@QAE@PBD@Z 00423610 f i dicom:cong.obj
 0001:00022700       ??0runtime_error@std@@QAE@ABV01@@Z 00423700 f i dicom:cong.obj
 0001:00022780       ??0?$ctype@D@std@@QAE@PBF_NI@Z 00423780 f i dicom:cong.obj
 0001:000228a0       ?do_tolower@?$ctype@D@std@@MBEDD@Z 004238a0 f i dicom:cong.obj
 0001:000228c0       ?do_tolower@?$ctype@D@std@@MBEPBDPADPBD@Z 004238c0 f i dicom:cong.obj
 0001:000228f0       ?do_toupper@?$ctype@D@std@@MBEDD@Z 004238f0 f i dicom:cong.obj
 0001:00022910       ?do_toupper@?$ctype@D@std@@MBEPBDPADPBD@Z 00423910 f i dicom:cong.obj
 0001:00022940       ?do_widen@?$ctype@D@std@@MBEDD@Z 00423940 f i dicom:cong.obj
 0001:00022950       ?do_widen@?$ctype@D@std@@MBEPBDPBD0PAD@Z 00423950 f i dicom:cong.obj
 0001:00022980       ?_Do_widen_s@?$ctype@D@std@@MBEPBDPBD0PADI@Z 00423980 f i dicom:cong.obj
 0001:000229c0       ?do_narrow@?$ctype@D@std@@MBEDDD@Z 004239c0 f i dicom:cong.obj
 0001:000229d0       ?do_narrow@?$ctype@D@std@@MBEPBDPBD0DPAD@Z 004239d0 f i dicom:cong.obj
 0001:00022a00       ?_Do_narrow_s@?$ctype@D@std@@MBEPBDPBD0DPADI@Z 00423a00 f i dicom:cong.obj
 0001:00022a40       ??1?$ctype@D@std@@MAE@XZ   00423a40 f i dicom:cong.obj
 0001:00022ac0       ??_G?$ctype@D@std@@MAEPAXI@Z 00423ac0 f i dicom:cong.obj
 0001:00022ac0       ??_E?$ctype@D@std@@MAEPAXI@Z 00423ac0 f i dicom:cong.obj
 0001:00022ae0       ?_Getcat@?$ctype@D@std@@SAIPAPBVfacet@locale@2@@Z 00423ae0 f i dicom:cong.obj
 0001:00022b60       ?clear@ios_base@std@@QAEXH_N@Z 00423b60 f i dicom:cong.obj
 0001:00022c60       ??0failure@ios_base@std@@QAE@ABV012@@Z 00423c60 f i dicom:cong.obj
 0001:00022cc0       ?clear@ios_base@std@@QAEXH@Z 00423cc0 f i dicom:cong.obj
 0001:00022cd0       ?_Init@ios_base@std@@IAEXXZ 00423cd0 f i dicom:cong.obj
 0001:00022d30       ??1?$basic_filebuf@DU?$char_traits@D@std@@@std@@UAE@XZ 00423d30 f i dicom:cong.obj
 0001:00022da0       ??_E?$Array@VPresentationContext@@@@UAEPAXI@Z 00423da0 f i dicom:cong.obj
 0001:00022da0       ??_G?$Array@VPresentationContext@@@@UAEPAXI@Z 00423da0 f i dicom:cong.obj
 0001:00022de0       ??_E?$basic_filebuf@DU?$char_traits@D@std@@@std@@UAEPAXI@Z 00423de0 f i dicom:cong.obj
 0001:00022de0       ??_G?$basic_filebuf@DU?$char_traits@D@std@@@std@@UAEPAXI@Z 00423de0 f i dicom:cong.obj
 0001:00022e00       ?clear@?$basic_ios@DU?$char_traits@D@std@@@std@@QAEXH_N@Z 00423e00 f i dicom:cong.obj
 0001:00022e20       ??$use_facet@V?$ctype@D@std@@@std@@YAABV?$ctype@D@0@ABVlocale@0@@Z 00423e20 f i dicom:cong.obj
 0001:00022f20       ??0?$codecvt@DDH@std@@QAE@I@Z 00423f20 f i dicom:cong.obj
 0001:00022fd0       ??1?$codecvt@DDH@std@@MAE@XZ 00423fd0 f i dicom:cong.obj
 0001:00023030       ?do_in@?$codecvt@DDH@std@@MBEHAAHPBD1AAPBDPAD3AAPAD@Z 00424030 f i dicom:cong.obj
 0001:00023050       ?do_out@?$codecvt@DDH@std@@MBEHAAHPBD1AAPBDPAD3AAPAD@Z 00424050 f i dicom:cong.obj
 0001:00023070       ?do_unshift@?$codecvt@DDH@std@@MBEHAAHPAD1AAPAD@Z 00424070 f i dicom:cong.obj
 0001:00023090       ?do_length@?$codecvt@DDH@std@@MBEHABHPBD1I@Z 00424090 f i dicom:cong.obj
 0001:000230b0       ??_G?$codecvt@DDH@std@@MAEPAXI@Z 004240b0 f i dicom:cong.obj
 0001:000230b0       ??_E?$codecvt@DDH@std@@MAEPAXI@Z 004240b0 f i dicom:cong.obj
 0001:00023120       ??_EAAssociateRQ@@UAEPAXI@Z 00424120 f i dicom:cong.obj
 0001:00023120       ??_GAAssociateRQ@@UAEPAXI@Z 00424120 f i dicom:cong.obj
 0001:00023140       ??_GPDU_Service@@UAEPAXI@Z 00424140 f i dicom:cong.obj
 0001:00023140       ??_EPDU_Service@@UAEPAXI@Z 00424140 f i dicom:cong.obj
 0001:00023160       ?Write@PDU_Service@@QAEHPAVDICOMCommandObject@@AAVUID@@@Z 00424160 f   dicom:cong.obj
 0001:000231c0       ?Write@PDU_Service@@QAEHPAVDICOMDataObject@@AAVUID@@@Z 004241c0 f   dicom:cong.obj
 0001:00023220       ?Multiplex@PDU_Service@@QAEHPAE@Z 00424220 f   dicom:cong.obj
 0001:000232b0       ?Write@CEchoRQ@@QAEHPAVPDU_Service@@@Z 004242b0 f   dicom:cong.obj
 0001:00023550       ?Write@CEchoRSP@@QAEHPAVPDU_Service@@PAVDICOMCommandObject@@GPAVVR@@@Z 00424550 f   dicom:cong.obj
 0001:000237c0       ?Write@CEchoRSP@@QAEHPAVPDU_Service@@PAVDICOMCommandObject@@G@Z 004247c0 f   dicom:cong.obj
 0001:000237e0       ?Write@CEchoRSP@@QAEHPAVPDU_Service@@PAVDICOMCommandObject@@@Z 004247e0 f   dicom:cong.obj
 0001:00023800       ?Write@CStoreRQ@@QAEHPAVPDU_Service@@PAVDICOMDataObject@@PAVVR@@PAE@Z 00424800 f   dicom:cong.obj
 0001:00023cb0       ?Write@CStoreRSP@@QAEHPAVPDU_Service@@PAVDICOMCommandObject@@G@Z 00424cb0 f   dicom:cong.obj
 0001:00023ff0       ?Write@CStoreRSP@@QAEHPAVPDU_Service@@PAVDICOMCommandObject@@@Z 00424ff0 f   dicom:cong.obj
 0001:00024010       ?Write@CFindRQ@@QAEHPAVPDU_Service@@PAVDICOMDataObject@@@Z 00425010 f   dicom:cong.obj
 0001:00024330       ?Write@CFindRSP@@QAEHPAVPDU_Service@@PAVDICOMCommandObject@@GPAVDICOMDataObject@@PAD@Z 00425330 f   dicom:cong.obj
 0001:00024810       ?Write@CFindRSP@@QAEHPAVPDU_Service@@PAVDICOMCommandObject@@PAVDICOMDataObject@@PAD@Z 00425810 f   dicom:cong.obj
 0001:00024850       ?Write@CMoveRQ@@QAEHPAVPDU_Service@@PAVDICOMDataObject@@PAE@Z 00425850 f   dicom:cong.obj
 0001:00024c40       ?Write@CMoveRSP@@QAEHPAVPDU_Service@@PAVDICOMCommandObject@@GGGGGPAVDICOMDataObject@@@Z 00425c40 f   dicom:cong.obj
 0001:000251b0       ?Write@NEventReportRQ@@QAEHPAVPDU_Service@@PAVDICOMDataObject@@PAVUID@@G@Z 004261b0 f   dicom:cong.obj
 0001:000254d0       ?Write@NEventReportRQ@@QAEHPAVPDU_Service@@PAVUID@@G@Z 004264d0 f   dicom:cong.obj
 0001:000254f0       ?Write@NEventReportRSP@@QAEHPAVPDU_Service@@PAVDICOMCommandObject@@PAVUID@@GGPAVDICOMDataObject@@@Z 004264f0 f   dicom:cong.obj
 0001:00025880       ?Write@NEventReportRSP@@QAEHPAVPDU_Service@@PAVDICOMCommandObject@@PAVUID@@GPAVDICOMDataObject@@@Z 00426880 f   dicom:cong.obj
 0001:000258b0       ?Write@NGetRQ@@QAEHPAVPDU_Service@@PAVDICOMDataObject@@PAVUID@@@Z 004268b0 f   dicom:cong.obj
 0001:00025b70       ?Write@NGetRSP@@QAEHPAVPDU_Service@@PAVDICOMCommandObject@@PAVUID@@GPAVDICOMDataObject@@@Z 00426b70 f   dicom:cong.obj
 0001:00025ea0       ?Write@NSetRQ@@QAEHPAVPDU_Service@@PAVDICOMDataObject@@PAVUID@@@Z 00426ea0 f   dicom:cong.obj
 0001:00026150       ?Write@NSetRQ@@QAEHPAVPDU_Service@@PAVUID@@@Z 00427150 f   dicom:cong.obj
 0001:00026170       ?Write@NSetRSP@@QAEHPAVPDU_Service@@PAVDICOMCommandObject@@PAVUID@@GPAVDICOMDataObject@@@Z 00427170 f   dicom:cong.obj
 0001:000264a0       ?Write@NActionRQ@@QAEHPAVPDU_Service@@PAVDICOMDataObject@@PAVUID@@G@Z 004274a0 f   dicom:cong.obj
 0001:000267c0       ?Write@NActionRQ@@QAEHPAVPDU_Service@@PAVUID@@G@Z 004277c0 f   dicom:cong.obj
 0001:000267e0       ?Write@NActionRSP@@QAEHPAVPDU_Service@@PAVDICOMCommandObject@@PAVUID@@GGPAVDICOMDataObject@@@Z 004277e0 f   dicom:cong.obj
 0001:00026b70       ?Write@NCreateRQ@@QAEHPAVPDU_Service@@PAVDICOMDataObject@@PAVUID@@@Z 00427b70 f   dicom:cong.obj
 0001:00026e20       ?Write@NCreateRQ@@QAEHPAVPDU_Service@@PAVUID@@@Z 00427e20 f   dicom:cong.obj
 0001:00026e40       ?Write@NCreateRSP@@QAEHPAVPDU_Service@@PAVDICOMCommandObject@@PAVUID@@GPAVDICOMDataObject@@@Z 00427e40 f   dicom:cong.obj
 0001:00027170       ?Write@NDeleteRQ@@QAEHPAVPDU_Service@@PAVUID@@@Z 00428170 f   dicom:cong.obj
 0001:00027400       ?Write@NDeleteRSP@@QAEHPAVPDU_Service@@PAVDICOMCommandObject@@PAVUID@@G@Z 00428400 f   dicom:cong.obj
 0001:00027700       ?Read@Verification@@QAEHPAVPDU_Service@@PAVDICOMCommandObject@@@Z 00428700 f   dicom:cong.obj
 0001:000277e0       ?WriteResponse@Verification@@QAEHPAVPDU_Service@@PAVDICOMCommandObject@@PAVVR@@@Z 004287e0 f   dicom:cong.obj
 0001:00027800       ?Write@Verification@@QAEHPAVPDU_Service@@@Z 00428800 f   dicom:cong.obj
 0001:000278f0       ?Read@StandardStorage@@QAEHPAVPDU_Service@@PAVDICOMCommandObject@@PAVDICOMDataObject@@@Z 004288f0 f   dicom:cong.obj
 0001:000279f0       ?Write@StandardStorage@@QAEHPAVPDU_Service@@PAVDICOMDataObject@@PAVVR@@PAE@Z 004289f0 f   dicom:cong.obj
 0001:00027b10       ?Read@UnknownStorage@@QAEHPAVPDU_Service@@PAVDICOMCommandObject@@PAVDICOMDataObject@@@Z 00428b10 f   dicom:cong.obj
 0001:00027bb0       ?Read@StandardQuery@@QAEHPAVPDU_Service@@PAVDICOMCommandObject@@@Z 00428bb0 f   dicom:cong.obj
 0001:00027e70       ?Write@StandardQuery@@QAEHPAVPDU_Service@@PAVDICOMDataObject@@PAV?$Array@PAVDICOMDataObject@@@@@Z 00428e70 f   dicom:cong.obj
 0001:000280d0       ?Read@StandardRetrieve@@QAEHPAVPDU_Service@@PAVDICOMCommandObject@@@Z 004290d0 f   dicom:cong.obj
 0001:000286c0       ?Write@StandardRetrieve@@QAEHPAVPDU_Service@@PAVDICOMDataObject@@PAE@Z 004296c0 f   dicom:cong.obj
 0001:00028950       ??_ECheckedPDU_Service@@UAEPAXI@Z 00429950 f i dicom:cong.obj
 0001:00028950       ??_GCheckedPDU_Service@@UAEPAXI@Z 00429950 f i dicom:cong.obj
 0001:00028970       ?setstate@?$basic_ios@DU?$char_traits@D@std@@@std@@QAEXH_N@Z 00429970 f i dicom:cong.obj
 0001:000289a0       ?seekg@?$basic_istream@DU?$char_traits@D@std@@@std@@QAEAAV12@JH@Z 004299a0 f i dicom:cong.obj
 0001:00028a10       ??1?$basic_ifstream@DU?$char_traits@D@std@@@std@@UAE@XZ 00429a10 f i dicom:cong.obj
 0001:00028a80       ?close@?$basic_ifstream@DU?$char_traits@D@std@@@std@@QAEXXZ 00429a80 f i dicom:cong.obj
 0001:00028ab0       ?widen@?$basic_ios@DU?$char_traits@D@std@@@std@@QBEDD@Z 00429ab0 f i dicom:cong.obj
 0001:00028b40       ?_Getcat@?$codecvt@DDH@std@@SAIPAPBVfacet@locale@2@@Z 00429b40 f i dicom:cong.obj
 0001:00028bc0       ??_D?$basic_ifstream@DU?$char_traits@D@std@@@std@@QAEXXZ 00429bc0 f i dicom:cong.obj
 0001:00028be0       ?flush@?$basic_ostream@DU?$char_traits@D@std@@@std@@QAEAAV12@XZ 00429be0 f i dicom:cong.obj
 0001:00028c30       ??_G?$basic_ifstream@DU?$char_traits@D@std@@@std@@UAEPAXI@Z 00429c30 f i dicom:cong.obj
 0001:00028c30       ??_E?$basic_ifstream@DU?$char_traits@D@std@@@std@@UAEPAXI@Z 00429c30 f i dicom:cong.obj
 0001:00028c60       ?_Ipfx@?$basic_istream@DU?$char_traits@D@std@@@std@@QAE_N_N@Z 00429c60 f i dicom:cong.obj
 0001:00028df0       ?init@?$basic_ios@DU?$char_traits@D@std@@@std@@IAEXPAV?$basic_streambuf@DU?$char_traits@D@std@@@2@_N@Z 00429df0 f i dicom:cong.obj
 0001:00028e50       ??$use_facet@V?$codecvt@DDH@std@@@std@@YAABV?$codecvt@DDH@0@ABVlocale@0@@Z 00429e50 f i dicom:cong.obj
 0001:00028f50       ??0sentry@?$basic_istream@DU?$char_traits@D@std@@@std@@QAE@AAV12@_N@Z 00429f50 f i dicom:cong.obj
 0001:00028fd0       ?imbue@?$basic_filebuf@DU?$char_traits@D@std@@@std@@MAEXABVlocale@2@@Z 00429fd0 f i dicom:cong.obj
 0001:00029010       ??0?$basic_istream@DU?$char_traits@D@std@@@std@@QAE@PAV?$basic_streambuf@DU?$char_traits@D@std@@@1@_N@Z 0042a010 f i dicom:cong.obj
 0001:000290b0       ?_Read_s@?$basic_istream@DU?$char_traits@D@std@@@std@@QAEAAV12@PADIH@Z 0042a0b0 f i dicom:cong.obj
 0001:000291c0       ?open@?$basic_filebuf@DU?$char_traits@D@std@@@std@@QAEPAV12@PBDHH@Z 0042a1c0 f i dicom:cong.obj
 0001:000292d0       ?read@?$basic_istream@DU?$char_traits@D@std@@@std@@QAEAAV12@PADH@Z 0042a2d0 f i dicom:cong.obj
 0001:000292f0       ??0?$basic_ifstream@DU?$char_traits@D@std@@@std@@QAE@XZ 0042a2f0 f i dicom:cong.obj
 0001:00029400       ?open@?$basic_ifstream@DU?$char_traits@D@std@@@std@@QAEXPBDHH@Z 0042a400 f i dicom:cong.obj
 0001:00029450       ?fileToBuffer@@YAHPAPAXPBDH@Z 0042a450 f   dicom:cong.obj
 0001:000296d0       ?fileToBufferWithErr@@YAHPAPAXPBDPADHH@Z 0042a6d0 f   dicom:cong.obj
 0001:000298a0       ?InitACRNemaAddressArray@ACRNemaMap@@QAEHPAD@Z 0042a8a0 f   dicom:cong.obj
 0001:00029a5c       _WSAStartup@8              0042aa5c f   wsock32:WSOCK32.dll
 0001:00029a62       _WSACleanup@0              0042aa62 f   wsock32:WSOCK32.dll
 0001:00029a68       _closesocket@4             0042aa68 f   wsock32:WSOCK32.dll
 0001:00029a6e       _shutdown@8                0042aa6e f   wsock32:WSOCK32.dll
 0001:00029a74       _inet_addr@4               0042aa74 f   wsock32:WSOCK32.dll
 0001:00029a7a       _gethostbyname@4           0042aa7a f   wsock32:WSOCK32.dll
 0001:00029a80       _htons@4                   0042aa80 f   wsock32:WSOCK32.dll
 0001:00029a86       _getservbyname@8           0042aa86 f   wsock32:WSOCK32.dll
 0001:00029a8c       _connect@12                0042aa8c f   wsock32:WSOCK32.dll
 0001:00029a92       _setsockopt@20             0042aa92 f   wsock32:WSOCK32.dll
 0001:00029a98       _socket@12                 0042aa98 f   wsock32:WSOCK32.dll
 0001:00029a9e       _select@20                 0042aa9e f   wsock32:WSOCK32.dll
 0001:00029aa4       _send@16                   0042aaa4 f   wsock32:WSOCK32.dll
 0001:00029aaa       _recv@16                   0042aaaa f   wsock32:WSOCK32.dll
 0001:00029ab0       _WSAGetLastError@0         0042aab0 f   wsock32:WSOCK32.dll
 0001:00029ab6       _bind@12                   0042aab6 f   wsock32:WSOCK32.dll
 0001:00029abc       _listen@8                  0042aabc f   wsock32:WSOCK32.dll
 0001:00029ac2       _accept@12                 0042aac2 f   wsock32:WSOCK32.dll
 0001:00029ad0       _memset                    0042aad0 f   LIBCMT:memset.obj
 0001:00029b4a       _fprintf                   0042ab4a f   LIBCMT:fprintf.obj
 0001:00029c99       __fprintf_l                0042ac99 f   LIBCMT:fprintf.obj
 0001:00029cb3       __fprintf_s_l              0042acb3 f   LIBCMT:fprintf.obj
 0001:00029ccd       _fprintf_s                 0042accd f   LIBCMT:fprintf.obj
 0001:00029ce5       __fprintf_p_l              0042ace5 f   LIBCMT:fprintf.obj
 0001:00029cff       __fprintf_p                0042acff f   LIBCMT:fprintf.obj
 0001:00029d17       ___iob_func                0042ad17 f   LIBCMT:_file.obj
 0001:00029d1d       ___initstdio               0042ad1d f   LIBCMT:_file.obj
 0001:00029dce       ___endstdio                0042adce f   LIBCMT:_file.obj
 0001:00029dee       __lock_file                0042adee f   LIBCMT:_file.obj
 0001:00029e2a       __lock_file2               0042ae2a f   LIBCMT:_file.obj
 0001:00029e58       __unlock_file              0042ae58 f   LIBCMT:_file.obj
 0001:00029e8e       __unlock_file2             0042ae8e f   LIBCMT:_file.obj
 0001:00029ec0       _strncpy                   0042aec0 f   LIBCMT:strncpy.obj
 0001:00029fe4       @__security_check_cookie@4 0042afe4 f   LIBCMT:secchk.obj
 0001:00029ff3       ??3@YAXPAX@Z               0042aff3 f   LIBCMT:delete.obj
 0001:00029ff8       ?_JumpToContinuation@@YGXPAXPAUEHRegistrationNode@@@Z 0042aff8 f   LIBCMT:trnsctrl.obj
 0001:0002a028       ?_CallMemberFunction0@@YGXPAX0@Z 0042b028 f   LIBCMT:trnsctrl.obj
 0001:0002a02f       ?_CallMemberFunction1@@YGXPAX00@Z 0042b02f f   LIBCMT:trnsctrl.obj
 0001:0002a036       ?_CallMemberFunction2@@YGXPAX00H@Z 0042b036 f   LIBCMT:trnsctrl.obj
 0001:0002a03d       ?_UnwindNestedFrames@@YGXPAUEHRegistrationNode@@PAUEHExceptionRecord@@@Z 0042b03d f   LIBCMT:trnsctrl.obj
 0001:0002a08f       ___CxxFrameHandler         0042b08f f   LIBCMT:trnsctrl.obj
 0001:0002a0c5       ___CxxFrameHandler3        0042b0c5 f   LIBCMT:trnsctrl.obj
 0001:0002a0fb       ___CxxFrameHandler2        0042b0fb f   LIBCMT:trnsctrl.obj
 0001:0002a131       ___CxxLongjmpUnwind@4      0042b131 f   LIBCMT:trnsctrl.obj
 0001:0002a17b       ?_CallSETranslator@@YAHPAUEHExceptionRecord@@PAUEHRegistrationNode@@PAX2PBU_s_FuncInfo@@H1@Z 0042b17b f   LIBCMT:trnsctrl.obj
 0001:0002a2ed       ?_GetRangeOfTrysToCheck@@YAPBU_s_TryBlockMapEntry@@PBU_s_FuncInfo@@HHPAI1@Z 0042b2ed f   LIBCMT:trnsctrl.obj
 0001:0002a360       __CreateFrameInfo          0042b360 f   LIBCMT:trnsctrl.obj
 0001:0002a388       __IsExceptionObjectToBeDestroyed 0042b388 f   LIBCMT:trnsctrl.obj
 0001:0002a3a9       __FindAndUnlinkFrame       0042b3a9 f   LIBCMT:trnsctrl.obj
 0001:0002a3f5       ?_CallCatchBlock2@@YAPAXPAUEHRegistrationNode@@PBU_s_FuncInfo@@PAXHK@Z 0042b3f5 f   LIBCMT:trnsctrl.obj
 0001:0002a453       ?name@type_info@@QBEPBDPAU__type_info_node@@@Z 0042b453 f   LIBCMT:typinfo.obj
 0001:0002a462       ??1type_info@@UAE@XZ       0042b462 f   LIBCMT:typinfo.obj
 0001:0002a470       ??_Gtype_info@@UAEPAXI@Z   0042b470 f i LIBCMT:typinfo.obj
 0001:0002a470       ??_Etype_info@@UAEPAXI@Z   0042b470 f i LIBCMT:typinfo.obj
 0001:0002a48c       ?_name_internal_method@type_info@@QBEPBDPAU__type_info_node@@@Z 0042b48c f   LIBCMT:typinfo.obj
 0001:0002a49b       ?_type_info_dtor_internal_method@type_info@@QAEXXZ 0042b49b f   LIBCMT:typinfo.obj
 0001:0002a4a3       ??8type_info@@QBE_NABV0@@Z 0042b4a3 f   LIBCMT:typinfo.obj
 0001:0002a4be       ??9type_info@@QBE_NABV0@@Z 0042b4be f   LIBCMT:typinfo.obj
 0001:0002a4da       ?before@type_info@@QBEHABV1@@Z 0042b4da f   LIBCMT:typinfo.obj
 0001:0002a4f9       ?raw_name@type_info@@QBEPBDXZ 0042b4f9 f   LIBCMT:typinfo.obj
 0001:0002a4fd       ??0type_info@@AAE@ABV0@@Z  0042b4fd f   LIBCMT:typinfo.obj
 0001:0002a508       ??4type_info@@AAEAAV0@ABV0@@Z 0042b508 f   LIBCMT:typinfo.obj
 0001:0002a50d       ??0bad_alloc@std@@QAE@XZ   0042b50d f i LIBCMT:new.obj
 0001:0002a526       ??2@YAPAXI@Z               0042b526 f   LIBCMT:new.obj
 0001:0002a590       _sprintf                   0042b590 f   LIBCMT:sprintf.obj
 0001:0002a60b       __sprintf_l                0042b60b f   LIBCMT:sprintf.obj
 0001:0002a625       _sprintf_s                 0042b625 f   LIBCMT:sprintf.obj
 0001:0002a641       __sprintf_s_l              0042b641 f   LIBCMT:sprintf.obj
 0001:0002a65e       __snprintf_s               0042b65e f   LIBCMT:sprintf.obj
 0001:0002a67d       __snprintf_s_l             0042b67d f   LIBCMT:sprintf.obj
 0001:0002a69d       __sprintf_p                0042b69d f   LIBCMT:sprintf.obj
 0001:0002a6b9       __sprintf_p_l              0042b6b9 f   LIBCMT:sprintf.obj
 0001:0002a6d6       __scprintf                 0042b6d6 f   LIBCMT:sprintf.obj
 0001:0002a6e7       __scprintf_p               0042b6e7 f   LIBCMT:sprintf.obj
 0001:0002a6f8       __scprintf_l               0042b6f8 f   LIBCMT:sprintf.obj
 0001:0002a70e       __scprintf_p_l             0042b70e f   LIBCMT:sprintf.obj
 0001:0002a730       _memcpy                    0042b730 f   LIBCMT:memcpy.obj
 0001:0002aa95       __purecall                 0042ba95 f   LIBCMT:purevirt.obj
 0001:0002aabf       __set_purecall_handler     0042babf f   LIBCMT:purevirt.obj
 0001:0002aae1       __get_purecall_handler     0042bae1 f   LIBCMT:purevirt.obj
 0001:0002aaee       _atol                      0042baee f   LIBCMT:atox.obj
 0001:0002aaff       __atol_l                   0042baff f   LIBCMT:atox.obj
 0001:0002ab14       _atoi                      0042bb14 f   LIBCMT:atox.obj
 0001:0002ab19       __atoi_l                   0042bb19 f   LIBCMT:atox.obj
 0001:0002ab1e       __atoi64                   0042bb1e f   LIBCMT:atox.obj
 0001:0002ab2f       __atoi64_l                 0042bb2f f   LIBCMT:atox.obj
 0001:0002ab44       _printf                    0042bb44 f   LIBCMT:printf.obj
 0001:0002abf3       __printf_l                 0042bbf3 f   LIBCMT:printf.obj
 0001:0002ac09       __printf_s_l               0042bc09 f   LIBCMT:printf.obj
 0001:0002ac1f       _printf_s                  0042bc1f f   LIBCMT:printf.obj
 0001:0002ac33       __printf_p_l               0042bc33 f   LIBCMT:printf.obj
 0001:0002ac49       __printf_p                 0042bc49 f   LIBCMT:printf.obj
 0001:0002ac5d       __set_printf_count_output  0042bc5d f   LIBCMT:printf.obj
 0001:0002ac82       __get_printf_count_output  0042bc82 f   LIBCMT:printf.obj
 0001:0002aca0       __alloca_probe             0042bca0     LIBCMT:chkstk.obj
 0001:0002aca0       __chkstk                   0042bca0 f   LIBCMT:chkstk.obj
 0001:0002accb       __amsg_exit                0042bccb f   LIBCMT:crt0dat.obj
 0001:0002acef       ___crtCorExitProcess       0042bcef f   LIBCMT:crt0dat.obj
 0001:0002ad15       ___crtExitProcess          0042bd15 f   LIBCMT:crt0dat.obj
 0001:0002ad2a       __lockexit                 0042bd2a f   LIBCMT:crt0dat.obj
 0001:0002ad33       __unlockexit               0042bd33 f   LIBCMT:crt0dat.obj
 0001:0002ad54       __initterm_e               0042bd54 f   LIBCMT:crt0dat.obj
 0001:0002ad74       __get_osplatform           0042bd74 f   LIBCMT:crt0dat.obj
 0001:0002adab       __get_osver                0042bdab f   LIBCMT:crt0dat.obj
 0001:0002ade7       __get_winver               0042bde7 f   LIBCMT:crt0dat.obj
 0001:0002ae23       __get_winmajor             0042be23 f   LIBCMT:crt0dat.obj
 0001:0002ae5f       __get_winminor             0042be5f f   LIBCMT:crt0dat.obj
 0001:0002ae9b       __get_wpgmptr              0042be9b f   LIBCMT:crt0dat.obj
 0001:0002aed2       __get_pgmptr               0042bed2 f   LIBCMT:crt0dat.obj
 0001:0002af09       __cinit                    0042bf09 f   LIBCMT:crt0dat.obj
 0001:0002b07d       _exit                      0042c07d f   LIBCMT:crt0dat.obj
 0001:0002b08e       __exit                     0042c08e f   LIBCMT:crt0dat.obj
 0001:0002b09f       __cexit                    0042c09f f   LIBCMT:crt0dat.obj
 0001:0002b0ae       __c_exit                   0042c0ae f   LIBCMT:crt0dat.obj
 0001:0002b0bd       __init_pointers            0042c0bd f   LIBCMT:crt0dat.obj
 0001:0002b1c2       ___onexitinit              0042c1c2 f   LIBCMT:onexit.obj
 0001:0002b1f1       __onexit                   0042c1f1 f   LIBCMT:onexit.obj
 0001:0002b22d       _atexit                    0042c22d f   LIBCMT:onexit.obj
 0001:0002b23f       __set_osplatform           0042c23f f i LIBCMT:crt0.obj
 0001:0002b249       __set_osver                0042c249 f i LIBCMT:crt0.obj
 0001:0002b253       __set_winver               0042c253 f i LIBCMT:crt0.obj
 0001:0002b25d       __set_winmajor             0042c25d f i LIBCMT:crt0.obj
 0001:0002b267       __set_winminor             0042c267 f i LIBCMT:crt0.obj
 0001:0002b48c       _mainCRTStartup            0042c48c f   LIBCMT:crt0.obj
 0001:0002b4b0       _strchr                    0042c4b0 f   LIBCMT:strchr.obj
 0001:0002b4b6       ___from_strstr_to_strchr   0042c4b6     LIBCMT:strchr.obj
 0001:0002b570       _strstr                    0042c570 f   LIBCMT:strstr.obj
 0001:0002b5f6       __ctime64_s                0042c5f6 f   LIBCMT:ctime64.obj
 0001:0002b66b       __ctime64                  0042c66b f   LIBCMT:ctime64.obj
 0001:0002b6cc       __time64                   0042c6cc f   LIBCMT:time64.obj
 0001:0002b708       _V6_HeapAlloc              0042c708 f   LIBCMT:malloc.obj
 0001:0002b757       __heap_alloc               0042c757 f i LIBCMT:malloc.obj
 0001:0002b7cc       _malloc                    0042c7cc f   LIBCMT:malloc.obj
 0001:0002b88f       _strncmp                   0042c88f f   LIBCMT:strncmp.obj
 0001:0002b950       __allmul                   0042c950 f   LIBCMT:llmul.obj
 0001:0002b984       __fclose_nolock            0042c984 f   LIBCMT:fclose.obj
 0001:0002b9f6       _fclose                    0042c9f6 f   LIBCMT:fclose.obj
 0001:0002ba72       __fseek_nolock             0042ca72 f   LIBCMT:fseek.obj
 0001:0002baf9       _fseek                     0042caf9 f   LIBCMT:fseek.obj
 0001:0002bb7e       _feof                      0042cb7e f   LIBCMT:feoferr.obj
 0001:0002bbad       _ferror                    0042cbad f   LIBCMT:feoferr.obj
 0001:0002bbdc       _fgets                     0042cbdc f   LIBCMT:fgets.obj
 0001:0002bd63       __fsopen                   0042cd63 f   LIBCMT:fopen.obj
 0001:0002be27       _fopen                     0042ce27 f   LIBCMT:fopen.obj
 0001:0002be3a       _fopen_s                   0042ce3a f   LIBCMT:fopen.obj
 0001:0002be8a       __fwrite_nolock            0042ce8a f   LIBCMT:fwrite.obj
 0001:0002bfe9       _fwrite                    0042cfe9 f   LIBCMT:fwrite.obj
 0001:0002c06b       __fread_nolock_s           0042d06b f   LIBCMT:fread.obj
 0001:0002c271       __fread_nolock             0042d271 f   LIBCMT:fread.obj
 0001:0002c28c       _fread_s                   0042d28c f   LIBCMT:fread.obj
 0001:0002c322       _fread                     0042d322 f   LIBCMT:fread.obj
 0001:0002c33d       ??0exception@std@@QAE@XZ   0042d33d f   LIBCMT:stdexcpt.obj
 0001:0002c34e       ??0exception@std@@QAE@ABQBD@Z 0042d34e f   LIBCMT:stdexcpt.obj
 0001:0002c39c       ??0exception@std@@QAE@ABQBDH@Z 0042d39c f   LIBCMT:stdexcpt.obj
 0001:0002c3b4       ??0exception@std@@QAE@ABV01@@Z 0042d3b4 f   LIBCMT:stdexcpt.obj
 0001:0002c40c       ??4exception@std@@QAEAAV01@ABV01@@Z 0042d40c f   LIBCMT:stdexcpt.obj
 0001:0002c462       ??1exception@std@@UAE@XZ   0042d462 f   LIBCMT:stdexcpt.obj
 0001:0002c478       ?what@exception@std@@UBEPBDXZ 0042d478 f   LIBCMT:stdexcpt.obj
 0001:0002c485       ??0bad_cast@std@@QAE@PBD@Z 0042d485 f   LIBCMT:stdexcpt.obj
 0001:0002c49e       ??0bad_cast@std@@QAE@ABV01@@Z 0042d49e f   LIBCMT:stdexcpt.obj
 0001:0002c4b6       ??1bad_cast@std@@UAE@XZ    0042d4b6 f   LIBCMT:stdexcpt.obj
 0001:0002c4c1       ??0bad_typeid@std@@QAE@PBD@Z 0042d4c1 f   LIBCMT:stdexcpt.obj
 0001:0002c4da       ??0bad_typeid@std@@QAE@ABV01@@Z 0042d4da f   LIBCMT:stdexcpt.obj
 0001:0002c4f2       ??1bad_typeid@std@@UAE@XZ  0042d4f2 f   LIBCMT:stdexcpt.obj
 0001:0002c4fd       ??0__non_rtti_object@std@@QAE@PBD@Z 0042d4fd f   LIBCMT:stdexcpt.obj
 0001:0002c515       ??0__non_rtti_object@std@@QAE@ABV01@@Z 0042d515 f   LIBCMT:stdexcpt.obj
 0001:0002c52d       ??1__non_rtti_object@std@@UAE@XZ 0042d52d f   LIBCMT:stdexcpt.obj
 0001:0002c538       ??_Gexception@std@@UAEPAXI@Z 0042d538 f i LIBCMT:stdexcpt.obj
 0001:0002c538       ??_Eexception@std@@UAEPAXI@Z 0042d538 f i LIBCMT:stdexcpt.obj
 0001:0002c554       ??_Ebad_cast@std@@UAEPAXI@Z 0042d554 f i LIBCMT:stdexcpt.obj
 0001:0002c554       ??_Gbad_cast@std@@UAEPAXI@Z 0042d554 f i LIBCMT:stdexcpt.obj
 0001:0002c576       ??_Gbad_typeid@std@@UAEPAXI@Z 0042d576 f i LIBCMT:stdexcpt.obj
 0001:0002c576       ??_Ebad_typeid@std@@UAEPAXI@Z 0042d576 f i LIBCMT:stdexcpt.obj
 0001:0002c598       ??_G__non_rtti_object@std@@UAEPAXI@Z 0042d598 f i LIBCMT:stdexcpt.obj
 0001:0002c598       ??_E__non_rtti_object@std@@UAEPAXI@Z 0042d598 f i LIBCMT:stdexcpt.obj
 0001:0002c5ba       _memcpy_s                  0042d5ba f   LIBCMT:memcpy_s.obj
 0001:0002c635       _memmove_s                 0042d635 f   LIBCMT:memmove_s.obj
 0001:0002c690       ??_V@YAXPAX@Z              0042d690 f   LIBCMT:delete2.obj
 0001:0002c695       _free                      0042d695 f   LIBCMT:free.obj
 0001:0002c723       __initp_misc_invarg        0042d723 f   LIBCMT:invarg.obj
 0001:0002c72d       __invoke_watson            0042d72d f   LIBCMT:invarg.obj
 0001:0002c829       __set_invalid_parameter_handler 0042d829 f   LIBCMT:invarg.obj
 0001:0002c84b       __get_invalid_parameter_handler 0042d84b f   LIBCMT:invarg.obj
 0001:0002c858       ?_invoke_watson@@YAXPBG00II@Z 0042d858 f   LIBCMT:invarg.obj
 0001:0002c861       __invalid_parameter        0042d861 f   LIBCMT:invarg.obj
 0001:0002c885       __invalid_parameter_noinfo 0042d885 f   LIBCMT:invarg.obj
 0001:0002c895       ?_invalid_parameter@@YAXPBG00II@Z 0042d895 f   LIBCMT:invarg.obj
 0001:0002c89e       ??_U@YAPAXI@Z              0042d89e f   LIBCMT:new2.obj
 0001:0002c8a3       __CxxThrowException@8      0042d8a3 f   LIBCMT:throw.obj
 0001:0002c8ed       __snprintf                 0042d8ed f   LIBCMT:snprintf.obj
 0001:0002c99a       __snprintf_l               0042d99a f   LIBCMT:snprintf.obj
 0001:0002c9b7       _fgetc                     0042d9b7 f   LIBCMT:fgetc.obj
 0001:0002caee       _getc                      0042daee f   LIBCMT:fgetc.obj
 0001:0002cc25       __getc_nolock              0042dc25 f   LIBCMT:fgetc.obj
 0001:0002cc3f       _fputc                     0042dc3f f   LIBCMT:fputc.obj
 0001:0002cd7e       _putc                      0042dd7e f   LIBCMT:fputc.obj
 0001:0002cebd       __ungetc_nolock            0042debd f   LIBCMT:ungetc.obj
 0001:0002cfdb       _ungetc                    0042dfdb f   LIBCMT:ungetc.obj
 0001:0002d04d       __flush                    0042e04d f   LIBCMT:fflush.obj
 0001:0002d0af       __fflush_nolock            0042e0af f   LIBCMT:fflush.obj
 0001:0002d1cb       _fflush                    0042e1cb f   LIBCMT:fflush.obj
 0001:0002d21e       __flushall                 0042e21e f   LIBCMT:fflush.obj
 0001:0002d227       _setvbuf                   0042e227 f   LIBCMT:setvbuf.obj
 0001:0002d325       _fgetpos                   0042e325 f   LIBCMT:fgetpos.obj
 0001:0002d390       _fsetpos                   0042e390 f   LIBCMT:fsetpos.obj
 0001:0002d3d2       __get_errno_from_oserr     0042e3d2 f   LIBCMT:dosmap.obj
 0001:0002d40d       __errno                    0042e40d f   LIBCMT:dosmap.obj
 0001:0002d420       ___doserrno                0042e420 f   LIBCMT:dosmap.obj
 0001:0002d433       __dosmaperr                0042e433 f   LIBCMT:dosmap.obj
 0001:0002d451       __set_errno                0042e451 f   LIBCMT:dosmap.obj
 0001:0002d46c       __get_errno                0042e46c f   LIBCMT:dosmap.obj
 0001:0002d496       __set_doserrno             0042e496 f   LIBCMT:dosmap.obj
 0001:0002d4b1       __get_doserrno             0042e4b1 f   LIBCMT:dosmap.obj
 0001:0002d4db       __invoke_watson_if_error   0042e4db f i LIBCMT:strerror.obj
 0001:0002d4fd       __get_sys_err_msg          0042e4fd f i LIBCMT:strerror.obj
 0001:0002d520       _strerror                  0042e520 f   LIBCMT:strerror.obj
 0001:0002d587       _strerror_s                0042e587 f   LIBCMT:strerror.obj
 0001:0002d63d       __VEC_memzero              0042e63d f   LIBCMT:p4_memset.obj
 0001:0002d6cc       __sse2_mathfcns_init       0042e6cc f   LIBCMT:mathfcns.obj
 0001:0002d6e0       __set_SSE2_enable          0042e6e0 f   LIBCMT:mathfcns.obj
 0001:0002d6f4       __stbuf                    0042e6f4 f   LIBCMT:_sftbuf.obj
 0001:0002d78a       __ftbuf                    0042e78a f   LIBCMT:_sftbuf.obj
 0001:0002d7b9       ??0_LocaleUpdate@@QAE@PAUlocaleinfo_struct@@@Z 0042e7b9 f i LIBCMT:output.obj
 0001:0002d83b       ??1_LocaleUpdate@@QAE@XZ   0042e83b f i LIBCMT:output.obj
 0001:0002d849       ?GetLocaleT@_LocaleUpdate@@QAEPAUlocaleinfo_struct@@XZ 0042e849 f i LIBCMT:output.obj
 0001:0002d8ed       _get_int_arg               0042e8ed f i LIBCMT:output.obj
 0001:0002d8fa       _get_int64_arg             0042e8fa f i LIBCMT:output.obj
 0001:0002d90a       _get_short_arg             0042e90a f i LIBCMT:output.obj
 0001:0002d918       __output_l                 0042e918 f   LIBCMT:output.obj
 0001:0002e2ac       __ioinit                   0042f2ac f   LIBCMT:ioinit.obj
 0001:0002e4ec       __ioterm                   0042f4ec f   LIBCMT:ioinit.obj
 0001:0002e538       __fileno                   0042f538 f   LIBCMT:fileno.obj
 0001:0002e568       __SEH_prolog4              0042f568 f   LIBCMT:sehprolg4.obj
 0001:0002e5ad       __SEH_epilog4              0042f5ad f   LIBCMT:sehprolg4.obj
 0001:0002e600       __except_handler4          0042f600 f   LIBCMT:chandler4.obj
 0001:0002e796       _vfprintf_helper           0042f796 f   LIBCMT:vfprintf.obj
 0001:0002e8e4       __vfprintf_l               0042f8e4 f   LIBCMT:vfprintf.obj
 0001:0002e902       __vfprintf_s_l             0042f902 f   LIBCMT:vfprintf.obj
 0001:0002e920       __vfprintf_p_l             0042f920 f   LIBCMT:vfprintf.obj
 0001:0002e93e       _vfprintf                  0042f93e f   LIBCMT:vfprintf.obj
 0001:0002e95a       _vfprintf_s                0042f95a f   LIBCMT:vfprintf.obj
 0001:0002e976       __vfprintf_p               0042f976 f   LIBCMT:vfprintf.obj
 0001:0002e992       _wait_a_bit                0042f992 f i LIBCMT:crtheap.obj
 0001:0002e9b3       __set_malloc_crt_max_wait  0042f9b3 f   LIBCMT:crtheap.obj
 0001:0002e9c3       __malloc_crt               0042f9c3 f   LIBCMT:crtheap.obj
 0001:0002ea03       __calloc_crt               0042fa03 f   LIBCMT:crtheap.obj
 0001:0002ea4b       __realloc_crt              0042fa4b f   LIBCMT:crtheap.obj
 0001:0002ea96       __recalloc_crt             0042fa96 f   LIBCMT:crtheap.obj
 0001:0002eae6       @_malloc_crt_fastcall@4    0042fae6 f   LIBCMT:crtheap.obj
 0001:0002eaee       @_calloc_crt_fastcall@8    0042faee f   LIBCMT:crtheap.obj
 0001:0002eaf8       @_realloc_crt_fastcall@8   0042faf8 f   LIBCMT:crtheap.obj
 0001:0002eb02       __fcloseall                0042fb02 f   LIBCMT:closeall.obj
 0001:0002eba1       __mtinitlocks              0042fba1 f   LIBCMT:mlock.obj
 0001:0002ebea       __mtdeletelocks            0042fbea f   LIBCMT:mlock.obj
 0001:0002ec3f       __unlock                   0042fc3f f   LIBCMT:mlock.obj
 0001:0002ec54       __lockerr_exit             0042fc54 f   LIBCMT:mlock.obj
 0001:0002ec6c       __mtinitlocknum            0042fc6c f   LIBCMT:mlock.obj
 0001:0002ed2f       __lock                     0042fd2f f   LIBCMT:mlock.obj
 0001:0002ed60       ___report_gsfailure        0042fd60 f   LIBCMT:gs_report.obj
 0001:0002ee64       ??0bad_exception@std@@QAE@PBD@Z 0042fe64 f i LIBCMT:frame.obj
 0001:0002ee7d       ??1bad_exception@std@@UAE@XZ 0042fe7d f i LIBCMT:frame.obj
 0001:0002ee88       ??_Gbad_exception@std@@UAEPAXI@Z 0042fe88 f i LIBCMT:frame.obj
 0001:0002ee88       ??_Ebad_exception@std@@UAEPAXI@Z 0042fe88 f i LIBCMT:frame.obj
 0001:0002eeaa       ___TypeMatch               0042feaa f   LIBCMT:frame.obj
 0001:0002ef06       ___FrameUnwindFilter       0042ff06 f   LIBCMT:frame.obj
 0001:0002ef4a       ___FrameUnwindToState      0042ff4a f   LIBCMT:frame.obj
 0001:0002f070       ___DestructExceptionObject 00430070 f   LIBCMT:frame.obj
 0001:0002f0c4       ___AdjustPointer           004300c4 f   LIBCMT:frame.obj
 0001:0002f0e9       ?__uncaught_exception@@YA_NXZ 004300e9 f   LIBCMT:frame.obj
 0001:0002f0fc       ___CxxRegisterExceptionObject 004300fc f   LIBCMT:frame.obj
 0001:0002f1af       ___CxxDetectRethrow        004301af f   LIBCMT:frame.obj
 0001:0002f1fb       ___CxxUnregisterExceptionObject 004301fb f   LIBCMT:frame.obj
 0001:0002f334       ___CxxQueryExceptionSize   00430334 f   LIBCMT:frame.obj
 0001:0002f338       ___CxxCallUnwindDtor       00430338 f   LIBCMT:frame.obj
 0001:0002f36a       ___CxxCallUnwindDelDtor    0043036a f   LIBCMT:frame.obj
 0001:0002f39d       ___CxxCallUnwindStdDelDtor 0043039d f   LIBCMT:frame.obj
 0001:0002f3cf       ___CxxCallUnwindVecDtor    004303cf f   LIBCMT:frame.obj
 0001:0002f4fc       ?_is_exception_typeof@@YAHABVtype_info@@PAU_EXCEPTION_POINTERS@@@Z 004304fc f   LIBCMT:frame.obj
 0001:0002f71a       ___BuildCatchObjectHelper  0043071a f   LIBCMT:frame.obj
 0001:0002f899       ___BuildCatchObject        00430899 f   LIBCMT:frame.obj
 0001:0002f92a       ___CxxExceptionFilter      0043092a f   LIBCMT:frame.obj
 0001:0002ff21       ??0bad_exception@std@@QAE@ABV01@@Z 00430f21 f i LIBCMT:frame.obj
 0001:0002ff39       ___InternalCxxFrameHandler 00430f39 f   LIBCMT:frame.obj
 0001:00030089       __encode_pointer           00431089 f   LIBCMT:tidtable.obj
 0001:000300f7       __encoded_null             004310f7 f   LIBCMT:tidtable.obj
 0001:00030100       __decode_pointer           00431100 f   LIBCMT:tidtable.obj
 0001:0003016e       ___crtTlsAlloc@4           0043116e f   LIBCMT:tidtable.obj
 0001:00030177       ___fls_getvalue@4          00431177 f   LIBCMT:tidtable.obj
 0001:0003018c       ___get_flsindex            0043118c f   LIBCMT:tidtable.obj
 0001:00030192       ___set_flsgetvalue         00431192 f   LIBCMT:tidtable.obj
 0001:000301c4       ___fls_setvalue@8          004311c4 f   LIBCMT:tidtable.obj
 0001:000301dd       __mtterm                   004311dd f   LIBCMT:tidtable.obj
 0001:0003021a       __initptd                  0043121a f   LIBCMT:tidtable.obj
 0001:000302d9       __getptd_noexit            004312d9 f   LIBCMT:tidtable.obj
 0001:00030350       __getptd                   00431350 f   LIBCMT:tidtable.obj
 0001:00030368       __freefls@4                00431368 f   LIBCMT:tidtable.obj
 0001:00030489       __freeptd                  00431489 f   LIBCMT:tidtable.obj
 0001:000304f2       ___threadid                004314f2 f   LIBCMT:tidtable.obj
 0001:000304f8       ___threadhandle            004314f8 f   LIBCMT:tidtable.obj
 0001:000304fe       __mtinit                   004314fe f   LIBCMT:tidtable.obj
 0001:00030682       ?terminate@@YAXXZ          00431682 f   LIBCMT:hooks.obj
 0001:000306bb       ?unexpected@@YAXXZ         004316bb f   LIBCMT:hooks.obj
 0001:000306ce       ?_inconsistency@@YAXXZ     004316ce f   LIBCMT:hooks.obj
 0001:00030705       __initp_eh_hooks           00431705 f   LIBCMT:hooks.obj
 0001:00030720       __CallSettingFrame@12      00431720 f   LIBCMT:lowhelpr.obj
 0001:00030747       __NLG_Return               00431747     LIBCMT:lowhelpr.obj
 0001:0003076c       ?_Type_info_dtor@type_info@@CAXPAV1@@Z 0043176c f   LIBCMT:typname.obj
 0001:000307dc       ?_Name_base@type_info@@CAPBDPBV1@PAU__type_info_node@@@Z 004317dc f   LIBCMT:typname.obj
 0001:000308d1       ?_Type_info_dtor_internal@type_info@@CAXPAV1@@Z 004318d1 f   LIBCMT:typname.obj
 0001:00030941       ___unDNameHelper           00431941 f   LIBCMT:typname.obj
 0001:00030972       ?_Name_base_internal@type_info@@CAPBDPBV1@PAU__type_info_node@@@Z 00431972 f   LIBCMT:typname.obj
 0001:00030a5d       ___clean_type_info_names_internal 00431a5d f   LIBCMT:typname.obj
 0001:00030ab0       _strcmp                    00431ab0 f   LIBCMT:strcmp.obj
 0001:00030b38       __initp_heap_handler       00431b38 f   LIBCMT:handler.obj
 0001:00030b42       ?_set_new_handler@@YAP6AHI@ZP6AHI@Z@Z 00431b42 f   LIBCMT:handler.obj
 0001:00030b73       ?_set_new_handler@@YAP6AHI@ZH@Z 00431b73 f   LIBCMT:handler.obj
 0001:00030b7c       ?_query_new_handler@@YAP6AHI@ZXZ 00431b7c f   LIBCMT:handler.obj
 0001:00030b89       __callnewh                 00431b89 f   LIBCMT:handler.obj
 0001:00030bab       __flsbuf                   00431bab f   LIBCMT:_flsbuf.obj
 0001:00030d0b       __vsprintf_l               00431d0b f   LIBCMT:vsprintf.obj
 0001:00030d87       _vsprintf                  00431d87 f   LIBCMT:vsprintf.obj
 0001:00030d9e       __vscprintf_helper         00431d9e f   LIBCMT:vsprintf.obj
 0001:00030df3       __vscprintf                00431df3 f   LIBCMT:vsprintf.obj
 0001:00030e0b       __vscprintf_l              00431e0b f   LIBCMT:vsprintf.obj
 0001:00030e25       __vscprintf_p              00431e25 f   LIBCMT:vsprintf.obj
 0001:00030e3d       __vscprintf_p_l            00431e3d f   LIBCMT:vsprintf.obj
 0001:00030e57       __vsnprintf_helper         00431e57 f   LIBCMT:vsnprnc.obj
 0001:00030f21       __vsnprintf_c              00431f21 f   LIBCMT:vsnprnc.obj
 0001:00030f48       __vsnprintf_c_l            00431f48 f   LIBCMT:vsnprnc.obj
 0001:00030f70       __vsprintf_s_l             00431f70 f   LIBCMT:vsnprnc.obj
 0001:00030ff6       _vsprintf_s                00431ff6 f   LIBCMT:vsnprnc.obj
 0001:00031011       __vsnprintf_s_l            00432011 f   LIBCMT:vsnprnc.obj
 0001:00031116       __vsnprintf_s              00432116 f   LIBCMT:vsnprnc.obj
 0001:00031134       __vsprintf_p               00432134 f   LIBCMT:vsnprnc.obj
 0001:0003115b       __vsprintf_p_l             0043215b f   LIBCMT:vsnprnc.obj
 0001:0003120a       __VEC_memcpy               0043220a f   LIBCMT:p4_memcpy.obj
 0001:000312ed       _abort                     004322ed f   LIBCMT:abort.obj
 0001:000313e0       __set_abort_behavior       004323e0 f   LIBCMT:abort.obj
 0001:000313fe       __NMSG_WRITE               004323fe f   LIBCMT:crt0msg.obj
 0001:0003159e       __GET_RTERRMSG             0043259e f   LIBCMT:crt0msg.obj
 0001:000315be       __FF_MSGBANNER             004325be f   LIBCMT:crt0msg.obj
 0001:000315f7       ___getlocaleinfo           004325f7 f   LIBCMT:inithelp.obj
 0001:00031751       __initp_misc_purevirt      00432751 f   LIBCMT:inithelp.obj
 0001:00031986       _strtol                    00432986 f   LIBCMT:strtol.obj
 0001:000319af       __strtol_l                 004329af f   LIBCMT:strtol.obj
 0001:000319ca       _strtoul                   004329ca f   LIBCMT:strtol.obj
 0001:000319f4       __strtoul_l                004329f4 f   LIBCMT:strtol.obj
 0001:00031ca3       __strtoi64                 00432ca3 f   LIBCMT:strtoq.obj
 0001:00031ccc       __strtoi64_l               00432ccc f   LIBCMT:strtoq.obj
 0001:00031ce7       __strtoui64                00432ce7 f   LIBCMT:strtoq.obj
 0001:00031d11       __strtoui64_l              00432d11 f   LIBCMT:strtoq.obj
 0001:00031d2c       _vprintf_helper            00432d2c f   LIBCMT:vprintf.obj
 0001:00031dbc       __vprintf_l                00432dbc f   LIBCMT:vprintf.obj
 0001:00031dd6       __vprintf_s_l              00432dd6 f   LIBCMT:vprintf.obj
 0001:00031df0       __vprintf_p_l              00432df0 f   LIBCMT:vprintf.obj
 0001:00031e0a       _vprintf                   00432e0a f   LIBCMT:vprintf.obj
 0001:00031e22       _vprintf_s                 00432e22 f   LIBCMT:vprintf.obj
 0001:00031e3a       __vprintf_p                00432e3a f   LIBCMT:vprintf.obj
 0001:00031e52       __RTC_Initialize           00432e52 f   LIBCMT:initsect.obj
 0001:00031e76       __RTC_Terminate            00432e76 f   LIBCMT:initsect.obj
 0001:00031e9a       __initp_misc_cfltcvt_tab   00432e9a f   LIBCMT:cmiscdat.obj
 0001:00031ec0       __ValidateImageBase        00432ec0 f   LIBCMT:pesect.obj
 0001:00031ef0       __FindPESection            00432ef0 f   LIBCMT:pesect.obj
 0001:00031f40       __IsNonwritableInCurrentImage 00432f40 f   LIBCMT:pesect.obj
 0001:00031ffb       __initp_misc_winxfltr      00432ffb f   LIBCMT:winxfltr.obj
 0001:0003202e       __XcptFilter               0043302e f   LIBCMT:winxfltr.obj
 0001:0003218c       ___CppXcptFilter           0043318c f   LIBCMT:winxfltr.obj
 0001:000321a7       __initp_misc_winsig        004331a7 f   LIBCMT:winsig.obj
 0001:0003228f       ___get_sigabrt             0043328f f   LIBCMT:winsig.obj
 0001:0003229c       ___fpecode                 0043329c f   LIBCMT:winsig.obj
 0001:000322a5       ___pxcptinfoptrs           004332a5 f   LIBCMT:winsig.obj
 0001:000322ae       _signal                    004332ae f   LIBCMT:winsig.obj
 0001:000324eb       _raise                     004334eb f   LIBCMT:winsig.obj
 0001:0003269b       __initp_misc_rand_s        0043369b f   LIBCMT:rand_s.obj
 0001:000326a5       _rand_s                    004336a5 f   LIBCMT:rand_s.obj
 0001:000327a9       __initp_misc_initcrit      004337a9 f   LIBCMT:initcrit.obj
 0001:000327c3       ___crtInitCritSecAndSpinCount 004337c3 f   LIBCMT:initcrit.obj
 0001:00032888       __msize                    00433888 f   LIBCMT:msize.obj
 0001:0003292b       ?__CxxUnhandledExceptionFilter@@YGJPAU_EXCEPTION_POINTERS@@@Z 0043392b f   LIBCMT:unhandld.obj
 0001:00032968       ___CxxSetUnhandledExceptionFilter 00433968 f   LIBCMT:unhandld.obj
 0001:00032976       __setenvp                  00433976 f   LIBCMT:stdenvp.obj
 0001:00032a51       __set_pgmptr               00433a51 f i LIBCMT:stdargv.obj
 0001:00032bf3       __setargv                  00433bf3 f   LIBCMT:stdargv.obj
 0001:00032cac       ___crtGetEnvironmentStringsA 00433cac f   LIBCMT:a_env.obj
 0001:00032de1       ___heap_select             00433de1 f   LIBCMT:heapinit.obj
 0001:00032e3c       __heap_init                00433e3c f   LIBCMT:heapinit.obj
 0001:00032e96       __heap_term                00433e96 f   LIBCMT:heapinit.obj
 0001:00032f0a       __get_heap_handle          00433f0a f   LIBCMT:heapinit.obj
 0001:00032f10       ___security_init_cookie    00433f10 f   LIBCMT:gs_support.obj
 0001:00032fba       _asctime_s                 00433fba f   LIBCMT:asctime.obj
 0001:000331a8       _asctime                   004341a8 f   LIBCMT:asctime.obj
 0001:000331ef       __localtime64_s            004341ef f   LIBCMT:loctim64.obj
 0001:000334b4       __localtime64              004344b4 f   LIBCMT:loctim64.obj
 0001:000334e0       __aulldiv                  004344e0 f   LIBCMT:ulldiv.obj
 0001:00033548       __get_sbh_threshold        00434548 f   LIBCMT:sbheap.obj
 0001:00033569       __set_amblksiz             00434569 f   LIBCMT:sbheap.obj
 0001:000335af       __get_amblksiz             004345af f   LIBCMT:sbheap.obj
 0001:000335eb       ___sbh_heap_init           004345eb f   LIBCMT:sbheap.obj
 0001:00033633       ___sbh_find_block          00434633 f   LIBCMT:sbheap.obj
 0001:0003365e       ___sbh_free_block          0043465e f   LIBCMT:sbheap.obj
 0001:00033972       ___sbh_alloc_new_region    00434972 f   LIBCMT:sbheap.obj
 0001:00033a22       ___sbh_alloc_new_group     00434a22 f   LIBCMT:sbheap.obj
 0001:00033b28       ___sbh_resize_block        00434b28 f   LIBCMT:sbheap.obj
 0001:00033e07       ___sbh_heapmin             00434e07 f   LIBCMT:sbheap.obj
 0001:00033ed4       ___sbh_heap_check          00434ed4 f   LIBCMT:sbheap.obj
 0001:000341b6       __set_sbh_threshold        004351b6 f   LIBCMT:sbheap.obj
 0001:0003425e       ___sbh_alloc_block         0043525e f   LIBCMT:sbheap.obj
 0001:00034541       __close_nolock             00435541 f   LIBCMT:close.obj
 0001:000345d5       __close                    004355d5 f   LIBCMT:close.obj
 0001:000346a2       __freebuf                  004356a2 f   LIBCMT:_freebuf.obj
 0001:000346ce       __lseek_nolock             004356ce f   LIBCMT:lseek.obj
 0001:00034740       __lseek                    00435740 f   LIBCMT:lseek.obj
 0001:0003481c       __ftell_nolock             0043581c f   LIBCMT:ftell.obj
 0001:000349b4       _ftell                     004359b4 f   LIBCMT:ftell.obj
 0001:00034a22       __filbuf                   00435a22 f   LIBCMT:_filbuf.obj
 0001:00034b42       __openfile                 00435b42 f   LIBCMT:_open.obj
 0001:00034de2       __getstream                00435de2 f   LIBCMT:stream.obj
 0001:00034f14       __local_unwind4            00435f14 f   LIBCMT:exsup4.obj
 0001:00034fea       __seh_longjmp_unwind4@4    00435fea f   LIBCMT:exsup4.obj
 0001:00035006       @_EH4_CallFilterFunc@8     00436006 f   LIBCMT:exsup4.obj
 0001:0003501d       @_EH4_TransferToHandler@8  0043601d f   LIBCMT:exsup4.obj
 0001:00035036       @_EH4_GlobalUnwind@4       00436036 f   LIBCMT:exsup4.obj
 0001:00035050       @_EH4_LocalUnwind@16       00436050 f   LIBCMT:exsup4.obj
 0001:00035067       __write_nolock             00436067 f   LIBCMT:write.obj
 0001:0003562d       __write                    0043662d f   LIBCMT:write.obj
 0001:00035709       __read_nolock              00436709 f   LIBCMT:read.obj
 0001:00035cca       __read                     00436cca f   LIBCMT:read.obj
 0001:00035dc7       _strcpy_s                  00436dc7 f   LIBCMT:strcpy_s.obj
 0001:00035e30       _strlen                    00436e30 f   LIBCMT:strlen.obj
 0001:00035ec0       _memmove                   00436ec0 f   LIBCMT:memmove.obj
 0001:00036225       __crt_debugger_hook        00437225 f   LIBCMT:dbghook.obj
 0001:0003622d       __vsnprintf_l              0043722d f   LIBCMT:vsnprint.obj
 0001:000362de       __vsnprintf                004372de f   LIBCMT:vsnprint.obj
 0001:000362f9       __getbuf                   004372f9 f   LIBCMT:_getbuf.obj
 0001:0003633d       __commit                   0043733d f   LIBCMT:commit.obj
 0001:0003641e       __ftelli64_nolock          0043741e f   LIBCMT:ftelli64.obj
 0001:000366fa       __ftelli64                 004376fa f   LIBCMT:ftelli64.obj
 0001:00036744       __fseeki64_nolock          00437744 f   LIBCMT:fseeki64.obj
 0001:000367dd       __fseeki64                 004377dd f   LIBCMT:fseeki64.obj
 0001:0003682c       ___sys_nerr                0043782c f   LIBCMT:syserr.obj
 0001:00036832       ___sys_errlist             00437832 f   LIBCMT:syserr.obj
 0001:00036838       _strncpy_s                 00437838 f   LIBCMT:strncpy_s.obj
 0001:0003693b       __get_sse2_info            0043793b f   LIBCMT:cpu_disp.obj
 0001:0003699b       ___sse2_available_init     0043799b f   LIBCMT:cpu_disp.obj
 0001:000369a8       __isatty                   004379a8 f   LIBCMT:isatty.obj
 0001:00036c14       ___updatetmbcinfo          00437c14 f   LIBCMT:mbctype.obj
 0001:00036d32       __setmbcp_nolock           00437d32 f   LIBCMT:mbctype.obj
 0001:00036f0b       __getmbcp                  00437f0b f   LIBCMT:mbctype.obj
 0001:00036f47       __setmbcp                  00437f47 f   LIBCMT:mbctype.obj
 0001:000370e1       ___initmbctable            004380e1 f   LIBCMT:mbctype.obj
 0001:000370ff       ____setlc_active_func      004380ff f   LIBCMT:setlocal.obj
 0001:00037105       ____unguarded_readlc_active_add_func 00438105 f   LIBCMT:setlocal.obj
 0001:0003710b       ___freetlocinfo            0043810b f   LIBCMT:setlocal.obj
 0001:0003724b       ___addlocaleref            0043824b f   LIBCMT:setlocal.obj
 0001:000372d1       ___removelocaleref         004382d1 f   LIBCMT:setlocal.obj
 0001:000373bf       ___updatetlocinfo          004383bf f   LIBCMT:setlocal.obj
 0001:00037435       __configthreadlocale       00438435 f   LIBCMT:setlocal.obj
 0001:000374ee       __free_locale              004384ee f   LIBCMT:setlocal.obj
 0001:00037584       ___free_locale             00438584 f   LIBCMT:setlocal.obj
 0001:00037589       __get_current_locale       00438589 f   LIBCMT:setlocal.obj
 0001:00037611       ___get_current_locale      00438611 f   LIBCMT:setlocal.obj
 0001:00037616       ___init_dummy              00438616 f   LIBCMT:setlocal.obj
 0001:00037619       __strcats                  00438619 f   LIBCMT:setlocal.obj
 0001:00037657       ___lc_strtolc              00438657 f   LIBCMT:setlocal.obj
 0001:00037780       ___lc_lctostr              00438780 f   LIBCMT:setlocal.obj
 0001:0003795c       __expandlocale             0043895c f   LIBCMT:setlocal.obj
 0001:00037ff4       __create_locale            00438ff4 f   LIBCMT:setlocal.obj
 0001:000380e7       ___create_locale           004390e7 f   LIBCMT:setlocal.obj
 0001:000380ec       _setlocale                 004390ec f   LIBCMT:setlocal.obj
 0001:0003825c       __wctomb_s_l               0043925c f   LIBCMT:wctomb.obj
 0001:000383bb       _wctomb_s                  004393bb f   LIBCMT:wctomb.obj
 0001:000383d6       __wctomb_l                 004393d6 f   LIBCMT:wctomb.obj
 0001:00038425       _wctomb                    00439425 f   LIBCMT:wctomb.obj
 0001:00038455       __isleadbyte_l             00439455 f i LIBCMT:_wctype.obj
 0001:0003848b       _isleadbyte                0043948b f i LIBCMT:_wctype.obj
 0001:00038499       __iswalpha_l               00439499 f i LIBCMT:_wctype.obj
 0001:000384af       _iswalpha                  004394af f i LIBCMT:_wctype.obj
 0001:000384c0       __iswupper_l               004394c0 f i LIBCMT:_wctype.obj
 0001:000384d3       _iswupper                  004394d3 f i LIBCMT:_wctype.obj
 0001:000384e1       __iswlower_l               004394e1 f i LIBCMT:_wctype.obj
 0001:000384f4       _iswlower                  004394f4 f i LIBCMT:_wctype.obj
 0001:00038502       __iswdigit_l               00439502 f i LIBCMT:_wctype.obj
 0001:00038515       _iswdigit                  00439515 f i LIBCMT:_wctype.obj
 0001:00038523       __iswxdigit_l              00439523 f i LIBCMT:_wctype.obj
 0001:00038539       _iswxdigit                 00439539 f i LIBCMT:_wctype.obj
 0001:0003854a       __iswspace_l               0043954a f i LIBCMT:_wctype.obj
 0001:0003855d       _iswspace                  0043955d f i LIBCMT:_wctype.obj
 0001:0003856b       __iswpunct_l               0043956b f i LIBCMT:_wctype.obj
 0001:0003857e       _iswpunct                  0043957e f i LIBCMT:_wctype.obj
 0001:0003858c       __iswalnum_l               0043958c f i LIBCMT:_wctype.obj
 0001:000385a2       _iswalnum                  004395a2 f i LIBCMT:_wctype.obj
 0001:000385b3       __iswprint_l               004395b3 f i LIBCMT:_wctype.obj
 0001:000385c9       _iswprint                  004395c9 f i LIBCMT:_wctype.obj
 0001:000385da       __iswgraph_l               004395da f i LIBCMT:_wctype.obj
 0001:000385f0       _iswgraph                  004395f0 f i LIBCMT:_wctype.obj
 0001:00038601       __iswcntrl_l               00439601 f i LIBCMT:_wctype.obj
 0001:00038614       _iswcntrl                  00439614 f i LIBCMT:_wctype.obj
 0001:00038622       _iswascii                  00439622 f i LIBCMT:_wctype.obj
 0001:0003862e       __iswcsym_l                0043962e f i LIBCMT:_wctype.obj
 0001:00038654       ___iswcsym                 00439654 f i LIBCMT:_wctype.obj
 0001:00038675       __iswcsymf_l               00439675 f i LIBCMT:_wctype.obj
 0001:0003869b       ___iswcsymf                0043969b f i LIBCMT:_wctype.obj
 0001:000386c0       __aulldvrm                 004396c0 f   LIBCMT:ulldvrm.obj
 0001:000387f6       __output_s_l               004397f6 f   LIBCMT:outputs.obj
 0001:000391a6       __validate_param_reuseA    0043a1a6 f   LIBCMT:outputp.obj
 0001:00039370       _get_crtdouble_arg         0043a370 f i LIBCMT:outputp.obj
 0001:00039380       __output_p_l               0043a380 f   LIBCMT:outputp.obj
 0001:0003a308       __calloc_impl              0043b308 f   LIBCMT:calloc.obj
 0001:0003a426       _calloc                    0043b426 f   LIBCMT:calloc.obj
 0001:0003a465       _realloc                   0043b465 f   LIBCMT:realloc.obj
 0001:0003a680       __recalloc                 0043b680 f   LIBCMT:realloc.obj
 0001:0003a6f9       __EH_prolog3               0043b6f9 f   LIBCMT:ehprolg3.obj
 0001:0003a72c       __EH_prolog3_catch         0043b72c f   LIBCMT:ehprolg3.obj
 0001:0003a762       __EH_prolog3_GS            0043b762 f   LIBCMT:ehprolg3.obj
 0001:0003a798       __EH_prolog3_catch_GS      0043b798 f   LIBCMT:ehprolg3.obj
 0001:0003a7d1       __EH_epilog3               0043b7d1 f   LIBCMT:ehprolg3.obj
 0001:0003a7e5       __EH_epilog3_GS            0043b7e5 f   LIBCMT:ehprolg3.obj
 0001:0003a7f4       __EH_epilog3_catch_GS      0043b7f4 f   LIBCMT:ehprolg3.obj
 0001:0003a803       ?_ValidateRead@@YAHPBXI@Z  0043b803 f   LIBCMT:validate.obj
 0001:0003a810       ?_ValidateWrite@@YAHPAXI@Z 0043b810 f   LIBCMT:validate.obj
 0001:0003a81d       ?_ValidateExecute@@YAHP6GHXZ@Z 0043b81d f   LIBCMT:validate.obj
 0001:0003a82c       __global_unwind2           0043b82c f   LIBCMT:exsup.obj
 0001:0003a891       __local_unwind2            0043b891 f   LIBCMT:exsup.obj
 0001:0003a915       __abnormal_termination     0043b915 f   LIBCMT:exsup.obj
 0001:0003a938       __NLG_Notify1              0043b938 f   LIBCMT:exsup.obj
 0001:0003a941       __NLG_Notify               0043b941 f   LIBCMT:exsup.obj
 0001:0003a958       __NLG_Dispatch             0043b958     LIBCMT:exsup.obj
 0001:0003a958       __NLG_Dispatch2            0043b958     LIBCMT:exsup.obj
 0001:0003a960       __NLG_Call                 0043b960 f   LIBCMT:exsup.obj
 0001:0003a962       __NLG_Return2              0043b962     LIBCMT:exsup.obj
 0001:0003a963       ??0Block@HeapManager@@QAE@XZ 0043b963 f i LIBCMT:undname.obj
 0001:0003a969       ?Constructor@HeapManager@@QAEXP6APAXI@ZP6AXPAX@Z@Z 0043b969 f i LIBCMT:undname.obj
 0001:0003a984       ?Destructor@HeapManager@@QAEXXZ 0043b984 f i LIBCMT:undname.obj
 0001:0003a9aa       ?getNumberOfDimensions@UnDecorator@@CAHXZ 0043b9aa f   LIBCMT:undname.obj
 0001:0003aa0d       ?getTypeEncoding@UnDecorator@@CAHXZ 0043ba0d f i LIBCMT:undname.obj
 0001:0003ae81       ?doUnderScore@UnDecorator@@SAHXZ 0043be81 f i LIBCMT:undname.obj
 0001:0003ae8c       ?doMSKeywords@UnDecorator@@SAHXZ 0043be8c f i LIBCMT:undname.obj
 0001:0003ae99       ?doPtr64@UnDecorator@@SAHXZ 0043be99 f i LIBCMT:undname.obj
 0001:0003aea7       ?doFunctionReturns@UnDecorator@@SAHXZ 0043bea7 f i LIBCMT:undname.obj
 0001:0003aeb5       ?doAllocationModel@UnDecorator@@SAHXZ 0043beb5 f i LIBCMT:undname.obj
 0001:0003aec3       ?doAllocationLanguage@UnDecorator@@SAHXZ 0043bec3 f i LIBCMT:undname.obj
 0001:0003aed1       ?doThisTypes@UnDecorator@@SAHXZ 0043bed1 f i LIBCMT:undname.obj
 0001:0003aee3       ?doAccessSpecifiers@UnDecorator@@SAHXZ 0043bee3 f i LIBCMT:undname.obj
 0001:0003aef1       ?doThrowTypes@UnDecorator@@SAHXZ 0043bef1 f i LIBCMT:undname.obj
 0001:0003aeff       ?doMemberTypes@UnDecorator@@SAHXZ 0043beff f i LIBCMT:undname.obj
 0001:0003af0d       ?doNameOnly@UnDecorator@@SAHXZ 0043bf0d f i LIBCMT:undname.obj
 0001:0003af18       ?doTypeOnly@UnDecorator@@SAHXZ 0043bf18 f i LIBCMT:undname.obj
 0001:0003af23       ?haveTemplateParameters@UnDecorator@@SAHXZ 0043bf23 f i LIBCMT:undname.obj
 0001:0003af2e       ?doEcsu@UnDecorator@@SAHXZ 0043bf2e f i LIBCMT:undname.obj
 0001:0003af3c       ?doNoIdentCharCheck@UnDecorator@@SAHXZ 0043bf3c f i LIBCMT:undname.obj
 0001:0003af47       ?doEllipsis@UnDecorator@@SAHXZ 0043bf47 f i LIBCMT:undname.obj
 0001:0003af55       ?UScore@UnDecorator@@SAPBDW4Tokens@@@Z 0043bf55 f   LIBCMT:undname.obj
 0001:0003af6e       ?getMemory@HeapManager@@QAEPAXIH@Z 0043bf6e f   LIBCMT:undname.obj
 0001:0003aff2       ??0DName@@QAE@XZ           0043bff2 f i LIBCMT:undname.obj
 0001:0003afff       ??0DName@@QAE@PAVDNameNode@@@Z 0043bfff f i LIBCMT:undname.obj
 0001:0003b011       ??0DName@@QAE@ABV0@@Z      0043c011 f i LIBCMT:undname.obj
 0001:0003b0ad       ?status@DName@@QBE?AW4DNameStatus@@XZ 0043c0ad f i LIBCMT:undname.obj
 0001:0003b0b7       ?clearStatus@DName@@QAEXXZ 0043c0b7 f i LIBCMT:undname.obj
 0001:0003b0bc       ?setPtrRef@DName@@QAEAAV1@XZ 0043c0bc f i LIBCMT:undname.obj
 0001:0003b0c3       ?isPtrRef@DName@@QBEHXZ    0043c0c3 f i LIBCMT:undname.obj
 0001:0003b0cd       ?setIsArray@DName@@QAEXXZ  0043c0cd f i LIBCMT:undname.obj
 0001:0003b0d5       ?isArray@DName@@QBEHXZ     0043c0d5 f i LIBCMT:undname.obj
 0001:0003b0df       ?isNoTE@DName@@QBEHXZ      0043c0df f i LIBCMT:undname.obj
 0001:0003b0e9       ?setIsNoTE@DName@@QAEXXZ   0043c0e9 f i LIBCMT:undname.obj
 0001:0003b0f1       ?isPinPtr@DName@@QBEHXZ    0043c0f1 f i LIBCMT:undname.obj
 0001:0003b0fb       ?setIsPinPtr@DName@@QAEXXZ 0043c0fb f i LIBCMT:undname.obj
 0001:0003b103       ?isComArray@DName@@QBEHXZ  0043c103 f i LIBCMT:undname.obj
 0001:0003b10d       ?setIsComArray@DName@@QAEXXZ 0043c10d f i LIBCMT:undname.obj
 0001:0003b115       ?isVCallThunk@DName@@QBEHXZ 0043c115 f i LIBCMT:undname.obj
 0001:0003b11f       ?setIsVCallThunk@DName@@QAEXXZ 0043c11f f i LIBCMT:undname.obj
 0001:0003b127       ??4DName@@QAEAAV0@ABV0@@Z  0043c127 f   LIBCMT:undname.obj
 0001:0003b1a2       ?isFull@Replicator@@QBEHXZ 0043c1a2 f i LIBCMT:undname.obj
 0001:0003b1ab       ??AReplicator@@QBEABVDName@@H@Z 0043c1ab f   LIBCMT:undname.obj
 0001:0003b1d0       ??0DNameNode@@IAE@XZ       0043c1d0 f   LIBCMT:undname.obj
 0001:0003b1dd       ?nextNode@DNameNode@@QBEPAV1@XZ 0043c1dd f i LIBCMT:undname.obj
 0001:0003b1e1       ??YDNameNode@@QAEAAV0@PAV0@@Z 0043c1e1 f   LIBCMT:undname.obj
 0001:0003b20a       ??0charNode@@QAE@D@Z       0043c20a f   LIBCMT:undname.obj
 0001:0003b220       ?length@charNode@@UBEHXZ   0043c220 f i LIBCMT:undname.obj
 0001:0003b224       ?getLastChar@charNode@@UBEDXZ 0043c224 f i LIBCMT:undname.obj
 0001:0003b228       ?getString@charNode@@UBEPADPADH@Z 0043c228 f   LIBCMT:undname.obj
 0001:0003b243       ?length@pcharNode@@UBEHXZ  0043c243 f i LIBCMT:undname.obj
 0001:0003b247       ??0pDNameNode@@QAE@PAVDName@@@Z 0043c247 f   LIBCMT:undname.obj
 0001:0003b276       ??0DNameStatusNode@@QAE@W4DNameStatus@@@Z 0043c276 f   LIBCMT:undname.obj
 0001:0003b29b       ?length@DNameStatusNode@@UBEHXZ 0043c29b f i LIBCMT:undname.obj
 0001:0003b29f       ?getLastChar@DNameStatusNode@@UBEDXZ 0043c29f f i LIBCMT:undname.obj
 0001:0003b2ff       ?getDataIndirectType@UnDecorator@@CA?AVDName@@XZ 0043c2ff f i LIBCMT:undname.obj
 0001:0003b332       ?getThisType@UnDecorator@@CA?AVDName@@XZ 0043c332 f i LIBCMT:undname.obj
 0001:0003b366       ??2@YAPAXIAAVHeapManager@@H@Z 0043c366 f i LIBCMT:undname.obj
 0001:0003b379       ??0DName@@QAE@PAV0@@Z      0043c379 f   LIBCMT:undname.obj
 0001:0003b3cf       ??0DName@@QAE@W4DNameStatus@@@Z 0043c3cf f   LIBCMT:undname.obj
 0001:0003b430       ?isValid@DName@@QBEHXZ     0043c430 f   LIBCMT:undname.obj
 0001:0003b447       ?isEmpty@DName@@QBEHXZ     0043c447 f   LIBCMT:undname.obj
 0001:0003b45c       ?isUDC@DName@@QBEHXZ       0043c45c f i LIBCMT:undname.obj
 0001:0003b470       ?setIsUDC@DName@@QAEXXZ    0043c470 f i LIBCMT:undname.obj
 0001:0003b47e       ?isUDTThunk@DName@@QBEHXZ  0043c47e f i LIBCMT:undname.obj
 0001:0003b492       ?length@DName@@QBEHXZ      0043c492 f   LIBCMT:undname.obj
 0001:0003b4b7       ?getLastChar@DName@@QBEDXZ 0043c4b7 f   LIBCMT:undname.obj
 0001:0003b4ef       ?getString@DName@@QBEPADPADH@Z 0043c4ef f   LIBCMT:undname.obj
 0001:0003b580       ??_5DName@@QAEAAV0@ABV0@@Z 0043c580 f   LIBCMT:undname.obj
 0001:0003b5b5       ??4DName@@QAEAAV0@W4DNameStatus@@@Z 0043c5b5 f   LIBCMT:undname.obj
 0001:0003b636       ??0Replicator@@QAE@XZ      0043c636 f i LIBCMT:undname.obj
 0001:0003b654       ??YReplicator@@QAEAAV0@ABVDName@@@Z 0043c654 f   LIBCMT:undname.obj
 0001:0003b69b       ?clone@DNameNode@@QAEPAV1@XZ 0043c69b f   LIBCMT:undname.obj
 0001:0003b6e2       ??0pcharNode@@QAE@PBDH@Z   0043c6e2 f   LIBCMT:undname.obj
 0001:0003b747       ?getLastChar@pcharNode@@UBEDXZ 0043c747 f i LIBCMT:undname.obj
 0001:0003b759       ?getString@pcharNode@@UBEPADPADH@Z 0043c759 f   LIBCMT:undname.obj
 0001:0003b78a       ?length@pDNameNode@@UBEHXZ 0043c78a f i LIBCMT:undname.obj
 0001:0003b799       ?getLastChar@pDNameNode@@UBEDXZ 0043c799 f i LIBCMT:undname.obj
 0001:0003b7a8       ?getString@pDNameNode@@UBEPADPADH@Z 0043c7a8 f   LIBCMT:undname.obj
 0001:0003b7c5       ?getString@DNameStatusNode@@UBEPADPADH@Z 0043c7c5 f   LIBCMT:undname.obj
 0001:0003b7f8       ??0UnDecorator@@QAE@PADPBDHP6APADJ@ZK@Z 0043c7f8 f i LIBCMT:undname.obj
 0001:0003b86b       ?getReturnType@UnDecorator@@CA?AVDName@@PAV2@@Z 0043c86b f   LIBCMT:undname.obj
 0001:0003b89a       ?getStorageConvention@UnDecorator@@CA?AVDName@@XZ 0043c89a f i LIBCMT:undname.obj
 0001:0003b8a9       ??YDName@@QAEAAV0@W4DNameStatus@@@Z 0043c8a9 f   LIBCMT:undname.obj
 0001:0003b922       ??4DName@@QAEAAV0@PAV0@@Z  0043c922 f   LIBCMT:undname.obj
 0001:0003b98a       ?doPchar@DName@@AAEXPBDH@Z 0043c98a f   LIBCMT:undname.obj
 0001:0003ba30       ??0DName@@QAE@D@Z          0043ca30 f   LIBCMT:undname.obj
 0001:0003ba56       ??0DName@@QAE@PBD@Z        0043ca56 f   LIBCMT:undname.obj
 0001:0003ba87       ??0DName@@QAE@AAPBDD@Z     0043ca87 f   LIBCMT:undname.obj
 0001:0003bb57       ??0DName@@QAE@_K@Z         0043cb57 f   LIBCMT:undname.obj
 0001:0003bbc0       ??0DName@@QAE@_J@Z         0043cbc0 f   LIBCMT:undname.obj
 0001:0003bc56       ??HDName@@QBE?AV0@W4DNameStatus@@@Z 0043cc56 f   LIBCMT:undname.obj
 0001:0003bc84       ??YDName@@QAEAAV0@ABV0@@Z  0043cc84 f   LIBCMT:undname.obj
 0001:0003bce6       ??YDName@@QAEAAV0@PAV0@@Z  0043cce6 f   LIBCMT:undname.obj
 0001:0003bd71       ??4DName@@QAEAAV0@D@Z      0043cd71 f   LIBCMT:undname.obj
 0001:0003bd8d       ??4DName@@QAEAAV0@PBD@Z    0043cd8d f   LIBCMT:undname.obj
 0001:0003bdb7       ?getCallingConvention@UnDecorator@@CA?AVDName@@XZ 0043cdb7 f   LIBCMT:undname.obj
 0001:0003be5d       ?getVCallThunkType@UnDecorator@@CA?AVDName@@XZ 0043ce5d f i LIBCMT:undname.obj
 0001:0003be94       ??HDName@@QBE?AV0@ABV0@@Z  0043ce94 f   LIBCMT:undname.obj
 0001:0003bee5       ??HDName@@QBE?AV0@PAV0@@Z  0043cee5 f   LIBCMT:undname.obj
 0001:0003bf13       ??YDName@@QAEAAV0@D@Z      0043cf13 f   LIBCMT:undname.obj
 0001:0003bf7d       ??YDName@@QAEAAV0@PBD@Z    0043cf7d f   LIBCMT:undname.obj
 0001:0003bfe9       ?getArgumentList@UnDecorator@@CA?AVDName@@XZ 0043cfe9 f   LIBCMT:undname.obj
 0001:0003c0c9       ?getVdispMapType@UnDecorator@@CA?AVDName@@ABV2@@Z 0043d0c9 f i LIBCMT:undname.obj
 0001:0003c118       ??H@YA?AVDName@@DABV0@@Z   0043d118 f i LIBCMT:undname.obj
 0001:0003c13a       ??H@YA?AVDName@@W4DNameStatus@@ABV0@@Z 0043d13a f i LIBCMT:undname.obj
 0001:0003c15c       ??H@YA?AVDName@@PBDABV0@@Z 0043d15c f i LIBCMT:undname.obj
 0001:0003c17e       ??HDName@@QBE?AV0@D@Z      0043d17e f   LIBCMT:undname.obj
 0001:0003c1ac       ??HDName@@QBE?AV0@PBD@Z    0043d1ac f   LIBCMT:undname.obj
 0001:0003c1da       ?getDimension@UnDecorator@@CA?AVDName@@_N@Z 0043d1da f   LIBCMT:undname.obj
 0001:0003c31b       ?getEnumType@UnDecorator@@CA?AVDName@@XZ 0043d31b f i LIBCMT:undname.obj
 0001:0003c3ef       ?getArgumentTypes@UnDecorator@@CA?AVDName@@XZ 0043d3ef f   LIBCMT:undname.obj
 0001:0003c4b3       ?getThrowTypes@UnDecorator@@CA?AVDName@@XZ 0043d4b3 f   LIBCMT:undname.obj
 0001:0003c531       ?getExtendedDataIndirectType@UnDecorator@@CA?AVDName@@AADAA_NH@Z 0043d531 f   LIBCMT:undname.obj
 0001:0003c656       ?getArrayType@UnDecorator@@CA?AVDName@@ABV2@@Z 0043d656 f i LIBCMT:undname.obj
 0001:0003c7b5       ?getLexicalFrame@UnDecorator@@CA?AVDName@@XZ 0043d7b5 f i LIBCMT:undname.obj
 0001:0003c7e6       ?getDisplacement@UnDecorator@@CA?AVDName@@XZ 0043d7e6 f i LIBCMT:undname.obj
 0001:0003c7f8       ?getCallIndex@UnDecorator@@CA?AVDName@@XZ 0043d7f8 f i LIBCMT:undname.obj
 0001:0003c80a       ?getGuardNumber@UnDecorator@@CA?AVDName@@XZ 0043d80a f i LIBCMT:undname.obj
 0001:0003c81c       ?getVfTableType@UnDecorator@@CA?AVDName@@ABV2@@Z 0043d81c f i LIBCMT:undname.obj
 0001:0003c96c       ?getStringEncoding@UnDecorator@@CA?AVDName@@PADH@Z 0043d96c f   LIBCMT:undname.obj
 0001:0003ca0c       ?getSignedDimension@UnDecorator@@CA?AVDName@@XZ 0043da0c f   LIBCMT:undname.obj
 0001:0003ca5c       ?getTemplateConstant@UnDecorator@@CA?AVDName@@XZ 0043da5c f   LIBCMT:undname.obj
 0001:0003cd17       ?getPtrRefDataType@UnDecorator@@CA?AVDName@@ABV2@H@Z 0043dd17 f i LIBCMT:undname.obj
 0001:0003cdf0       ?getVbTableType@UnDecorator@@CA?AVDName@@ABV2@@Z 0043ddf0 f i LIBCMT:undname.obj
 0001:0003ce04       ?getTemplateArgumentList@UnDecorator@@CA?AVDName@@XZ 0043de04 f   LIBCMT:undname.obj
 0001:0003cfbc       ?getOperatorName@UnDecorator@@CA?AVDName@@_NPA_N@Z 0043dfbc f i LIBCMT:undname.obj
 0001:0003d52b       ?getTemplateName@UnDecorator@@CA?AVDName@@_N@Z 0043e52b f   LIBCMT:undname.obj
 0001:0003d67e       ?getZName@UnDecorator@@CA?AVDName@@_N@Z 0043e67e f   LIBCMT:undname.obj
 0001:0003d868       ?getScopedName@UnDecorator@@CA?AVDName@@XZ 0043e868 f   LIBCMT:undname.obj
 0001:0003d94c       ?getECSUName@UnDecorator@@CA?AVDName@@XZ 0043e94c f i LIBCMT:undname.obj
 0001:0003d95b       ?getECSUDataType@UnDecorator@@CA?AVDName@@XZ 0043e95b f   LIBCMT:undname.obj
 0001:0003da5b       ?getSymbolName@UnDecorator@@CA?AVDName@@XZ 0043ea5b f i LIBCMT:undname.obj
 0001:0003daa1       ?getBasedType@UnDecorator@@CA?AVDName@@XZ 0043eaa1 f   LIBCMT:undname.obj
 0001:0003db33       ?composeDeclaration@UnDecorator@@CA?AVDName@@ABV2@@Z 0043eb33 f i LIBCMT:undname.obj
 0001:0003e675       ?getDecoratedName@UnDecorator@@CA?AVDName@@XZ 0043f675 f   LIBCMT:undname.obj
 0001:0003e886       ?getScope@UnDecorator@@CA?AVDName@@XZ 0043f886 f   LIBCMT:undname.obj
 0001:0003eb11       ?getFunctionIndirectType@UnDecorator@@CA?AVDName@@ABV2@@Z 0043fb11 f   LIBCMT:undname.obj
 0001:0003ee52       ?getDataIndirectType@UnDecorator@@CA?AVDName@@ABV2@D0H@Z 0043fe52 f   LIBCMT:undname.obj
 0001:0003f336       ??BUnDecorator@@QAEPADXZ   00440336 f i LIBCMT:undname.obj
 0001:0003f482       ?getPtrRefType@UnDecorator@@CA?AVDName@@ABV2@0D@Z 00440482 f   LIBCMT:undname.obj
 0001:0003f598       ?getPointerType@UnDecorator@@CA?AVDName@@ABV2@0@Z 00440598 f i LIBCMT:undname.obj
 0001:0003f5b3       ?getPointerTypeArray@UnDecorator@@CA?AVDName@@ABV2@0@Z 004405b3 f i LIBCMT:undname.obj
 0001:0003f5ce       ?getReferenceType@UnDecorator@@CA?AVDName@@ABV2@0@Z 004405ce f i LIBCMT:undname.obj
 0001:0003f5e9       ___unDName                 004405e9 f   LIBCMT:undname.obj
 0001:0003f68c       ___unDNameEx               0044068c f   LIBCMT:undname.obj
 0001:0003f72f       ?getBasicDataType@UnDecorator@@CA?AVDName@@ABV2@@Z 0044072f f   LIBCMT:undname.obj
 0001:0003fab6       ?getPrimaryDataType@UnDecorator@@CA?AVDName@@ABV2@@Z 00440ab6 f   LIBCMT:undname.obj
 0001:0003fbf4       ?getDataType@UnDecorator@@CA?AVDName@@PAV2@@Z 00440bf4 f   LIBCMT:undname.obj
 0001:0003fca5       ?getExternalDataType@UnDecorator@@CA?AVDName@@ABV2@@Z 00440ca5 f i LIBCMT:undname.obj
 0001:0003fd09       __lseeki64_nolock          00440d09 f   LIBCMT:lseeki64.obj
 0001:0003fd8c       __lseeki64                 00440d8c f   LIBCMT:lseeki64.obj
 0001:0003fea5       ___crtMessageBoxA          00440ea5 f   LIBCMT:crtmbox.obj
 0001:00040062       _strcat_s                  00441062 f   LIBCMT:strcat_s.obj
 0001:000400d3       __set_error_mode           004410d3 f   LIBCMT:errmode.obj
 0001:00040119       ___set_app_type            00441119 f   LIBCMT:errmode.obj
 0001:00040123       ___get_app_type            00441123 f   LIBCMT:errmode.obj
 0001:00040129       __isalpha_l                00441129 f i LIBCMT:_ctype.obj
 0001:0004017d       _isalpha                   0044117d f i LIBCMT:_ctype.obj
 0001:000401a8       __isupper_l                004411a8 f i LIBCMT:_ctype.obj
 0001:000401f7       _isupper                   004411f7 f i LIBCMT:_ctype.obj
 0001:00040220       __islower_l                00441220 f i LIBCMT:_ctype.obj
 0001:0004026f       _islower                   0044126f f i LIBCMT:_ctype.obj
 0001:00040298       __isdigit_l                00441298 f i LIBCMT:_ctype.obj
 0001:000402e7       _isdigit                   004412e7 f i LIBCMT:_ctype.obj
 0001:00040310       __isxdigit_l               00441310 f i LIBCMT:_ctype.obj
 0001:00040364       _isxdigit                  00441364 f i LIBCMT:_ctype.obj
 0001:0004038f       __isspace_l                0044138f f i LIBCMT:_ctype.obj
 0001:000403de       _isspace                   004413de f i LIBCMT:_ctype.obj
 0001:00040407       __ispunct_l                00441407 f i LIBCMT:_ctype.obj
 0001:00040456       _ispunct                   00441456 f i LIBCMT:_ctype.obj
 0001:0004047f       __isalnum_l                0044147f f i LIBCMT:_ctype.obj
 0001:000404d3       _isalnum                   004414d3 f i LIBCMT:_ctype.obj
 0001:000404fe       __isprint_l                004414fe f i LIBCMT:_ctype.obj
 0001:00040552       _isprint                   00441552 f i LIBCMT:_ctype.obj
 0001:0004057d       __isgraph_l                0044157d f i LIBCMT:_ctype.obj
 0001:000405d1       _isgraph                   004415d1 f i LIBCMT:_ctype.obj
 0001:000405fc       __iscntrl_l                004415fc f i LIBCMT:_ctype.obj
 0001:0004064b       _iscntrl                   0044164b f i LIBCMT:_ctype.obj
 0001:00040674       ___isascii                 00441674 f i LIBCMT:_ctype.obj
 0001:00040681       ___toascii                 00441681 f i LIBCMT:_ctype.obj
 0001:00040689       __iscsymf_l                00441689 f i LIBCMT:_ctype.obj
 0001:000406a8       ___iscsymf                 004416a8 f i LIBCMT:_ctype.obj
 0001:000406c2       __iscsym_l                 004416c2 f i LIBCMT:_ctype.obj
 0001:000406e1       ___iscsym                  004416e1 f i LIBCMT:_ctype.obj
 0001:000406fd       __MarkAllocaS              004416fd f i LIBCMT:w_loc.obj
 0001:0004070f       __freea                    0044170f f i LIBCMT:w_loc.obj
 0001:00040865       ___crtGetLocaleInfoW       00441865 f   LIBCMT:w_loc.obj
 0001:000409dd       ___crtGetLocaleInfoA       004419dd f   LIBCMT:a_loc.obj
 0001:00040a18       __isctype_l                00441a18 f   LIBCMT:isctype.obj
 0001:00040ace       __isctype                  00441ace f   LIBCMT:isctype.obj
 0001:00040afd       __fptrap                   00441afd f   LIBCMT:crt0fp.obj
 0001:00040b57       __ismbbkalnum_l            00441b57 f   LIBCMT:ismbbyte.obj
 0001:00040b6c       __ismbbkalnum              00441b6c f   LIBCMT:ismbbyte.obj
 0001:00040b7f       __ismbbkprint_l            00441b7f f   LIBCMT:ismbbyte.obj
 0001:00040b94       __ismbbkprint              00441b94 f   LIBCMT:ismbbyte.obj
 0001:00040ba7       __ismbbkpunct_l            00441ba7 f   LIBCMT:ismbbyte.obj
 0001:00040bbc       __ismbbkpunct              00441bbc f   LIBCMT:ismbbyte.obj
 0001:00040bcf       __ismbbalnum_l             00441bcf f   LIBCMT:ismbbyte.obj
 0001:00040be7       __ismbbalnum               00441be7 f   LIBCMT:ismbbyte.obj
 0001:00040bfd       __ismbbalpha_l             00441bfd f   LIBCMT:ismbbyte.obj
 0001:00040c15       __ismbbalpha               00441c15 f   LIBCMT:ismbbyte.obj
 0001:00040c2b       __ismbbgraph_l             00441c2b f   LIBCMT:ismbbyte.obj
 0001:00040c43       __ismbbgraph               00441c43 f   LIBCMT:ismbbyte.obj
 0001:00040c59       __ismbbprint_l             00441c59 f   LIBCMT:ismbbyte.obj
 0001:00040c71       __ismbbprint               00441c71 f   LIBCMT:ismbbyte.obj
 0001:00040c87       __ismbbpunct_l             00441c87 f   LIBCMT:ismbbyte.obj
 0001:00040c9c       __ismbbpunct               00441c9c f   LIBCMT:ismbbyte.obj
 0001:00040caf       __ismbblead_l              00441caf f   LIBCMT:ismbbyte.obj
 0001:00040cc4       __ismbblead                00441cc4 f   LIBCMT:ismbbyte.obj
 0001:00040cd7       __ismbbtrail_l             00441cd7 f   LIBCMT:ismbbyte.obj
 0001:00040cec       __ismbbtrail               00441cec f   LIBCMT:ismbbyte.obj
 0001:00040cff       __ismbbkana_l              00441cff f   LIBCMT:ismbbyte.obj
 0001:00040d52       __ismbbkana                00441d52 f   LIBCMT:ismbbyte.obj
 0001:00040d60       __get_daylight             00441d60 f   LIBCMT:timeset.obj
 0001:00040d94       __get_dstbias              00441d94 f   LIBCMT:timeset.obj
 0001:00040dc8       __get_timezone             00441dc8 f   LIBCMT:timeset.obj
 0001:00040dfc       __get_tzname               00441dfc f   LIBCMT:timeset.obj
 0001:00040e9e       ___daylight                00441e9e f   LIBCMT:timeset.obj
 0001:00040ea4       ___dstbias                 00441ea4 f   LIBCMT:timeset.obj
 0001:00040eaa       ___timezone                00441eaa f   LIBCMT:timeset.obj
 0001:00040eb0       ___tzname                  00441eb0 f   LIBCMT:timeset.obj
 0001:00040eb6       __set_daylight             00441eb6 f i LIBCMT:tzset.obj
 0001:00040ec2       __set_dstbias              00441ec2 f i LIBCMT:tzset.obj
 0001:00040ece       __set_timezone             00441ece f i LIBCMT:tzset.obj
 0001:000415c6       ___tzset                   004425c6 f   LIBCMT:tzset.obj
 0001:00041615       __tzset                    00442615 f   LIBCMT:tzset.obj
 0001:0004164d       __isindst                  0044264d f   LIBCMT:tzset.obj
 0001:0004168e       __gmtime64_s               0044268e f   LIBCMT:gmtime64.obj
 0001:000418ca       __gmtime64                 004428ca f   LIBCMT:gmtime64.obj
 0001:000418f0       __alldiv                   004428f0 f   LIBCMT:lldiv.obj
 0001:000419a0       __allrem                   004429a0 f   LIBCMT:llrem.obj
 0001:00041a52       __gmtime32_s               00442a52 f   LIBCMT:gmtime.obj
 0001:00041b7f       ___getgmtimebuf            00442b7f f   LIBCMT:gmtime.obj
 0001:00041bc7       __gmtime32                 00442bc7 f   LIBCMT:gmtime.obj
 0001:00041beb       __set_osfhnd               00442beb f   LIBCMT:osfinfo.obj
 0001:00041c68       __free_osfhnd              00442c68 f   LIBCMT:osfinfo.obj
 0001:00041ce9       __get_osfhandle            00442ce9 f   LIBCMT:osfinfo.obj
 0001:00041d5a       ___lock_fhandle            00442d5a f   LIBCMT:osfinfo.obj
 0001:00041dfa       __unlock_fhandle           00442dfa f   LIBCMT:osfinfo.obj
 0001:00041e1c       __alloc_osfhnd             00442e1c f   LIBCMT:osfinfo.obj
 0001:00041fbb       __open_osfhandle           00442fbb f   LIBCMT:osfinfo.obj
 0001:00042829       __open                     00443829 f   LIBCMT:open.obj
 0001:000428df       __sopen_helper             004438df f   LIBCMT:open.obj
 0001:000429ab       __sopen                    004439ab f   LIBCMT:open.obj
 0001:000429db       __sopen_s                  004439db f   LIBCMT:open.obj
 0001:000429f9       __mbsicmp_l                004439f9 f   LIBCMT:mbsicmp.obj
 0001:00042c13       __mbsicmp                  00443c13 f   LIBCMT:mbsicmp.obj
 0001:00042c26       __mbsnbcmp_l               00443c26 f   LIBCMT:mbsnbcmp.obj
 0001:00042d8f       __mbsnbcmp                 00443d8f f   LIBCMT:mbsnbcmp.obj
 0001:00042da6       __putwch_nolock            00443da6 f   LIBCMT:putwch.obj
 0001:00042e68       __cputws                   00443e68 f   LIBCMT:putwch.obj
 0001:00042f03       __putwch                   00443f03 f   LIBCMT:putwch.obj
 0001:00042f49       __mbtowc_l                 00443f49 f   LIBCMT:mbtowc.obj
 0001:0004305c       _mbtowc                    0044405c f   LIBCMT:mbtowc.obj
 0001:0004342f       ___crtLCMapStringA         0044442f f   LIBCMT:a_map.obj
 0001:0004362a       ___crtGetStringTypeA       0044462a f   LIBCMT:a_str.obj
 0001:0004366a       ___pwctype_func            0044466a f   LIBCMT:ctype.obj
 0001:00043670       ___pctype_func             00444670 f   LIBCMT:ctype.obj
 0001:00043ab2       ___free_lc_time            00444ab2 f   LIBCMT:inittime.obj
 0001:00043c42       ___init_time               00444c42 f   LIBCMT:inittime.obj
 0001:00043ce8       ___free_lconv_num          00444ce8 f   LIBCMT:initnum.obj
 0001:00043d28       ___init_numeric            00444d28 f   LIBCMT:initnum.obj
 0001:00043f23       ___free_lconv_mon          00444f23 f   LIBCMT:initmon.obj
 0001:00043fac       ___init_monetary           00444fac f   LIBCMT:initmon.obj
 0001:00044270       ___init_ctype              00445270 f   LIBCMT:initctyp.obj
 0001:00044605       ____mb_cur_max_func        00445605 f   LIBCMT:initctyp.obj
 0001:0004462e       ____mb_cur_max_l_func      0044562e f   LIBCMT:initctyp.obj
 0001:00044644       ____lc_codepage_func       00445644 f   LIBCMT:initctyp.obj
 0001:0004466a       ____lc_collate_cp_func     0044566a f   LIBCMT:initctyp.obj
 0001:00044690       ____lc_handle_func         00445690 f   LIBCMT:initctyp.obj
 0001:000446b6       ___init_collate            004456b6 f   LIBCMT:initcoll.obj
 0001:000446b9       __Getdays_l                004456b9 f   LIBCMT:strftime.obj
 0001:000447b7       __Getdays                  004457b7 f   LIBCMT:strftime.obj
 0001:000447c0       __Getmonths_l              004457c0 f   LIBCMT:strftime.obj
 0001:000448be       __Getmonths                004458be f   LIBCMT:strftime.obj
 0001:000448c7       __Gettnames_l              004458c7 f   LIBCMT:strftime.obj
 0001:00044c1c       __Gettnames                00445c1c f   LIBCMT:strftime.obj
 0001:00045537       __Strftime_l               00446537 f   LIBCMT:strftime.obj
 0001:000456e6       __strftime_l               004466e6 f   LIBCMT:strftime.obj
 0001:00045704       _strftime                  00446704 f   LIBCMT:strftime.obj
 0001:00045721       __Strftime                 00446721 f   LIBCMT:strftime.obj
 0001:0004573f       _localeconv                0044673f f   LIBCMT:lconv.obj
 0001:00045770       _strcspn                   00446770 f   LIBCMT:strcspn.obj
 0001:00045d70       ___get_qualified_locale    00446d70 f   LIBCMT:getqloc.obj
 0001:000474c5       _memcmp                    004484c5 f   LIBCMT:memcmp.obj
 0001:00048b50       _strpbrk                   00449b50 f   LIBCMT:strpbrk.obj
 0001:00048b90       __iswctype_l               00449b90 f   LIBCMT:iswctype.obj
 0001:00048c12       _iswctype                  00449c12 f   LIBCMT:iswctype.obj
 0001:00048c80       _is_wctype                 00449c80 f   LIBCMT:iswctype.obj
 0001:00048c90       __alloca_probe_16          00449c90 f   LIBCMT:alloca16.obj
 0001:00048ca6       __alloca_probe_8           00449ca6     LIBCMT:alloca16.obj
 0001:00048cbc       __getenv_helper_nolock     00449cbc f   LIBCMT:getenv.obj
 0001:00048e72       _getenv                    00449e72 f   LIBCMT:getenv.obj
 0001:00048ef5       _getenv_s                  00449ef5 f   LIBCMT:getenv.obj
 0001:00048fcd       __dupenv_s                 00449fcd f   LIBCMT:getenv.obj
 0001:000490b3       __chsize_nolock            0044a0b3 f   LIBCMT:chsize.obj
 0001:00049267       __chsize_s                 0044a267 f   LIBCMT:chsize.obj
 0001:00049354       __chsize                   0044a354 f   LIBCMT:chsize.obj
 0001:0004936c       __setmode_nolock           0044a36c f   LIBCMT:setmode.obj
 0001:00049428       __set_fmode                0044a428 f   LIBCMT:setmode.obj
 0001:0004946e       __get_fmode                0044a46e f   LIBCMT:setmode.obj
 0001:000494a2       __setmode                  0044a4a2 f   LIBCMT:setmode.obj
 0001:00049599       ___ascii_stricmp           0044a599 f   LIBCMT:stricmp.obj
 0001:000495ce       __stricmp_l                0044a5ce f   LIBCMT:stricmp.obj
 0001:000496a1       _stricmp                   0044a6a1 f   LIBCMT:stricmp.obj
 0001:000496a1       __stricmp                  0044a6a1 f   LIBCMT:stricmp.obj
 0001:000496f1       ___initconin               0044a6f1 f   LIBCMT:initcon.obj
 0001:00049710       ___initconout              0044a710 f   LIBCMT:initcon.obj
 0001:0004972f       ___termcon                 0044a72f f   LIBCMT:initcon.obj
 0001:0004975c       _wcslen                    0044a75c f   LIBCMT:wcslen.obj
 0001:00049772       ___ansicp                  0044a772 f   LIBCMT:convrtcp.obj
 0001:000497b9       ___convertcp               0044a7b9 f   LIBCMT:convrtcp.obj
 0001:0004996b       __strnicmp_l               0044a96b f   LIBCMT:strnicmp.obj
 0001:00049a5b       __strnicmp                 0044aa5b f   LIBCMT:strnicmp.obj
 0001:00049b92       __itoa_s                   0044ab92 f   LIBCMT:xtoas.obj
 0001:00049bba       __ltoa_s                   0044abba f   LIBCMT:xtoas.obj
 0001:00049bdf       __ultoa_s                  0044abdf f   LIBCMT:xtoas.obj
 0001:00049ced       __i64toa_s                 0044aced f   LIBCMT:xtoas.obj
 0001:00049d20       __ui64toa_s                0044ad20 f   LIBCMT:xtoas.obj
 0001:00049f61       ___crtGetStringTypeW       0044af61 f   LIBCMT:w_str.obj
 0001:00049f9f       __mbsnbicoll_l             0044af9f f   LIBCMT:mbsnbico.obj
 0001:0004a08b       __mbsnbicoll               0044b08b f   LIBCMT:mbsnbico.obj
 0001:0004a0a2       ___wtomb_environ           0044b0a2 f   LIBCMT:wtombenv.obj
 0001:0004a137       __tolower                  0044b137 f   LIBCMT:tolower.obj
 0001:0004a13f       __tolower_l                0044b13f f   LIBCMT:tolower.obj
 0001:0004a256       _tolower                   0044b256 f   LIBCMT:tolower.obj
 0001:0004a280       ___ascii_strnicmp          0044b280 f   LIBCMT:_strnicm.obj
 0001:0004a684       ___crtCompareStringA       0044b684 f   LIBCMT:a_cmp.obj
 0001:0004a6c4       __strnicoll_l              0044b6c4 f   LIBCMT:strnicol.obj
 0001:0004a7bc       __strnicoll                0044b7bc f   LIBCMT:strnicol.obj
 0001:0004a88d       ___crtsetenv               0044b88d f   LIBCMT:setenv.obj
 0001:0004aad9       __strdup                   0044bad9 f   LIBCMT:strdup.obj
 0001:0004aad9       _strdup                    0044bad9 f   LIBCMT:strdup.obj
 0001:0004ab29       __mbschr_l                 0044bb29 f   LIBCMT:mbschr.obj
 0001:0004abe3       __mbschr                   0044bbe3 f   LIBCMT:mbschr.obj
 0001:0004abf6       __Tolower                  0044bbf6 f   libcpmt:_tolower.obj
 0001:0004ad05       __Getctype                 0044bd05 f   libcpmt:_tolower.obj
 0001:0004ad60       ??0_Init_locks@std@@QAE@XZ 0044bd60 f   libcpmt:xlock.obj
 0001:0004ad8f       ??1_Init_locks@std@@QAE@XZ 0044bd8f f   libcpmt:xlock.obj
 0001:0004adb8       ?_Init_locks_ctor@_Init_locks@std@@CAXPAV12@@Z 0044bdb8 f   libcpmt:xlock.obj
 0001:0004ade1       ?_Init_locks_dtor@_Init_locks@std@@CAXPAV12@@Z 0044bde1 f   libcpmt:xlock.obj
 0001:0004ae0a       ??0_Lockit@std@@QAE@XZ     0044be0a f   libcpmt:xlock.obj
 0001:0004ae1f       ??0_Lockit@std@@QAE@H@Z    0044be1f f   libcpmt:xlock.obj
 0001:0004ae40       ??1_Lockit@std@@QAE@XZ     0044be40 f   libcpmt:xlock.obj
 0001:0004ae52       ?_Lockit_ctor@_Lockit@std@@CAXPAV12@@Z 0044be52 f   libcpmt:xlock.obj
 0001:0004ae5e       ?_Lockit_ctor@_Lockit@std@@CAXPAV12@H@Z 0044be5e f   libcpmt:xlock.obj
 0001:0004ae7b       ?_Lockit_dtor@_Lockit@std@@CAXPAV12@@Z 0044be7b f   libcpmt:xlock.obj
 0001:0004ae91       ?_Lockit_ctor@_Lockit@std@@SAXH@Z 0044be91 f   libcpmt:xlock.obj
 0001:0004aea8       ?_Lockit_dtor@_Lockit@std@@SAXH@Z 0044bea8 f   libcpmt:xlock.obj
 0001:0004aebf       ??2@YAPAXIPAX@Z            0044bebf f i libcpmt:locale0.obj
 0001:0004aec4       ??3@YAXPAX0@Z              0044bec4 f i libcpmt:locale0.obj
 0001:0004aec5       ??0locale@std@@QAE@W4_Uninitialized@1@@Z 0044bec5 f i libcpmt:locale0.obj
 0001:0004aeca       ??0locale@std@@AAE@PAV_Locimp@01@@Z 0044beca f i libcpmt:locale0.obj
 0001:0004aed5       ??0_Fac_node@std@@QAE@PAU01@PAVfacet@locale@1@@Z 0044bed5 f i libcpmt:locale0.obj
 0001:0004aee7       ??1_Fac_node@std@@QAE@XZ   0044bee7 f i libcpmt:locale0.obj
 0001:0004aefc       ??_G_Fac_node@std@@QAEPAXI@Z 0044befc f i libcpmt:locale0.obj
 0001:0004af18       __Deletegloballocale       0044bf18 f   libcpmt:locale0.obj
 0001:0004af5e       ?_Getgloballocale@locale@std@@CAPAV_Locimp@12@XZ 0044bf5e f   libcpmt:locale0.obj
 0001:0004af64       ?_Setgloballocale@locale@std@@CAXPAX@Z 0044bf64 f   libcpmt:locale0.obj
 0001:0004af89       ?_Clocptr_func@_Locimp@locale@std@@CAAAPAV123@XZ 0044bf89 f   libcpmt:locale0.obj
 0001:0004af8f       ?_Id_cnt_func@id@locale@std@@CAAAHXZ 0044bf8f f   libcpmt:locale0.obj
 0001:0004af95       ?_Id_func@?$ctype@D@std@@SAAAVid@locale@2@XZ 0044bf95 f   libcpmt:locale0.obj
 0001:0004af9b       ?_Id_func@?$ctype@_W@std@@SAAAVid@locale@2@XZ 0044bf9b f   libcpmt:locale0.obj
 0001:0004afa1       ?_Id_func@?$codecvt@_WDH@std@@SAAAVid@locale@2@XZ 0044bfa1 f   libcpmt:locale0.obj
 0001:0004afa7       ?_Id_func@?$ctype@G@std@@SAAAVid@locale@2@XZ 0044bfa7 f   libcpmt:locale0.obj
 0001:0004afad       ?_Id_func@?$codecvt@GDH@std@@SAAAVid@locale@2@XZ 0044bfad f   libcpmt:locale0.obj
 0001:0004afb3       ?_Locimp_dtor@_Locimp@locale@std@@CAXPAV123@@Z 0044bfb3 f   libcpmt:locale0.obj
 0001:0004b013       __Fac_tidy                 0044c013 f   libcpmt:locale0.obj
 0001:0004b056       ?facet_Register@facet@locale@std@@CAXPAV123@@Z 0044c056 f   libcpmt:locale0.obj
 0001:0004b08f       ?_Locinfo_dtor@_Locinfo@std@@SAXPAV12@@Z 0044c08f f   libcpmt:locale0.obj
 0001:0004b0b2       ??4?$basic_string@DU?$char_traits@D@std@@V?$allocator@D@2@@std@@QAEAAV01@PBD@Z 0044c0b2 f i libcpmt:locale0.obj
 0001:0004b0b7       ??0_Locimp@locale@std@@AAE@_N@Z 0044c0b7 f i libcpmt:locale0.obj
 0001:0004b100       ??1_Locimp@locale@std@@MAE@XZ 0044c100 f i libcpmt:locale0.obj
 0001:0004b13d       ??_G_Locimp@locale@std@@MAEPAXI@Z 0044c13d f i libcpmt:locale0.obj
 0001:0004b13d       ??_E_Locimp@locale@std@@MAEPAXI@Z 0044c13d f i libcpmt:locale0.obj
 0001:0004b159       ?_Init@locale@std@@CAPAV_Locimp@12@XZ 0044c159 f   libcpmt:locale0.obj
 0001:0004b1f3       ?_Locinfo_ctor@_Locinfo@std@@SAXPAV12@PBD@Z 0044c1f3 f   libcpmt:locale0.obj
 0001:0004b23d       ?classic@locale@std@@SAABV12@XZ 0044c23d f   libcpmt:locale0.obj
 0001:0004b248       ?empty@locale@std@@SA?AV12@XZ 0044c248 f   libcpmt:locale0.obj
 0001:0004b28a       ?_Callfns@ios_base@std@@AAEXW4event@12@@Z 0044c28a f i libcpmt:ios.obj
 0001:0004b2ac       ?_Tidy@ios_base@std@@AAAXXZ 0044c2ac f i libcpmt:ios.obj
 0001:0004b2f2       ?_Fpz_func@std@@YAAA_JXZ   0044c2f2 f   libcpmt:ios.obj
 0001:0004b2f8       ?_BADOFF_func@std@@YAABJXZ 0044c2f8 f   libcpmt:ios.obj
 0001:0004b2fe       ?_Index_func@ios_base@std@@CAAAHXZ 0044c2fe f   libcpmt:ios.obj
 0001:0004b304       ?_Sync_func@ios_base@std@@CAAA_NXZ 0044c304 f   libcpmt:ios.obj
 0001:0004b30a       ?_Addstd@ios_base@std@@SAXPAV12@@Z 0044c30a f   libcpmt:ios.obj
 0001:0004b35a       ?_Ios_base_dtor@ios_base@std@@CAXPAV12@@Z 0044c35a f   libcpmt:ios.obj
 0001:0004b398       ??0_Mutex@std@@QAE@XZ      0044c398 f   libcpmt:xmutex.obj
 0001:0004b3b0       ??1_Mutex@std@@QAE@XZ      0044c3b0 f   libcpmt:xmutex.obj
 0001:0004b3c5       ?_Lock@_Mutex@std@@QAEXXZ  0044c3c5 f   libcpmt:xmutex.obj
 0001:0004b3ce       ?_Unlock@_Mutex@std@@QAEXXZ 0044c3ce f   libcpmt:xmutex.obj
 0001:0004b3d7       ?_Mutex_ctor@_Mutex@std@@CAXPAV12@@Z 0044c3d7 f   libcpmt:xmutex.obj
 0001:0004b3ed       ?_Mutex_dtor@_Mutex@std@@CAXPAV12@@Z 0044c3ed f   libcpmt:xmutex.obj
 0001:0004b404       ?_Mutex_Lock@_Mutex@std@@CAXPAV12@@Z 0044c404 f   libcpmt:xmutex.obj
 0001:0004b411       ?_Mutex_Unlock@_Mutex@std@@CAXPAV12@@Z 0044c411 f   libcpmt:xmutex.obj
 0001:0004b41e       ??0logic_error@std@@QAE@ABV?$basic_string@DU?$char_traits@D@std@@V?$allocator@D@2@@1@@Z 0044c41e f i libcpmt:string.obj
 0001:0004b453       ?what@logic_error@std@@UBEPBDXZ 0044c453 f i libcpmt:string.obj
 0001:0004b461       ??1logic_error@std@@UAE@XZ 0044c461 f i libcpmt:string.obj
 0001:0004b47e       ??_Elogic_error@std@@UAEPAXI@Z 0044c47e f i libcpmt:string.obj
 0001:0004b47e       ??_Glogic_error@std@@UAEPAXI@Z 0044c47e f i libcpmt:string.obj
 0001:0004b49a       ??0invalid_argument@std@@QAE@ABV?$basic_string@DU?$char_traits@D@std@@V?$allocator@D@2@@1@@Z 0044c49a f i libcpmt:string.obj
 0001:0004b4b2       ??1invalid_argument@std@@UAE@XZ 0044c4b2 f i libcpmt:string.obj
 0001:0004b4bd       ??_Ginvalid_argument@std@@UAEPAXI@Z 0044c4bd f i libcpmt:string.obj
 0001:0004b4bd       ??_Einvalid_argument@std@@UAEPAXI@Z 0044c4bd f i libcpmt:string.obj
 0001:0004b4df       ??0length_error@std@@QAE@ABV?$basic_string@DU?$char_traits@D@std@@V?$allocator@D@2@@1@@Z 0044c4df f i libcpmt:string.obj
 0001:0004b4f7       ??1length_error@std@@UAE@XZ 0044c4f7 f i libcpmt:string.obj
 0001:0004b502       ??_Glength_error@std@@UAEPAXI@Z 0044c502 f i libcpmt:string.obj
 0001:0004b502       ??_Elength_error@std@@UAEPAXI@Z 0044c502 f i libcpmt:string.obj
 0001:0004b524       ??0out_of_range@std@@QAE@ABV?$basic_string@DU?$char_traits@D@std@@V?$allocator@D@2@@1@@Z 0044c524 f i libcpmt:string.obj
 0001:0004b53c       ??1out_of_range@std@@UAE@XZ 0044c53c f i libcpmt:string.obj
 0001:0004b547       ??_Gout_of_range@std@@UAEPAXI@Z 0044c547 f i libcpmt:string.obj
 0001:0004b547       ??_Eout_of_range@std@@UAEPAXI@Z 0044c547 f i libcpmt:string.obj
 0001:0004b569       ?_Xlen@_String_base@std@@SAXXZ 0044c569 f   libcpmt:string.obj
 0001:0004b5a8       ??0logic_error@std@@QAE@ABV01@@Z 0044c5a8 f i libcpmt:string.obj
 0001:0004b5e2       ??0length_error@std@@QAE@ABV01@@Z 0044c5e2 f i libcpmt:string.obj
 0001:0004b5fa       ?_Xran@_String_base@std@@SAXXZ 0044c5fa f   libcpmt:string.obj
 0001:0004b639       ??0out_of_range@std@@QAE@ABV01@@Z 0044c639 f i libcpmt:string.obj
 0001:0004b651       ?_Xinvarg@_String_base@std@@SAXXZ 0044c651 f   libcpmt:string.obj
 0001:0004b690       ??0invalid_argument@std@@QAE@ABV01@@Z 0044c690 f i libcpmt:string.obj
 0001:0004b6a8       __Toupper                  0044c6a8 f   libcpmt:_toupper.obj
 0001:0004b7bc       ?_Xfsopen@std@@YAPAU_iobuf@@PB_W0H@Z 0044c7bc f   libcpmt:fiopen.obj
 0001:0004b871       ?_Fiopen@std@@YAPAU_iobuf@@PB_WHH@Z 0044c871 f   libcpmt:fiopen.obj
 0001:0004b926       ?_Fiopen@std@@YAPAU_iobuf@@PBGHH@Z 0044c926 f   libcpmt:fiopen.obj
 0001:0004b92b       ?_Fiopen@std@@YAPAU_iobuf@@PBDHH@Z 0044c92b f   libcpmt:fiopen.obj
 0001:0004b986       __Once                     0044c986 f   libcpmt:xmtx.obj
 0001:0004b9bd       __Mtxinit                  0044c9bd f   libcpmt:xmtx.obj
 0001:0004b9c8       __Mtxdst                   0044c9c8 f   libcpmt:xmtx.obj
 0001:0004b9d3       __Mtxlock                  0044c9d3 f   libcpmt:xmtx.obj
 0001:0004b9de       __Mtxunlock                0044c9de f   libcpmt:xmtx.obj
 0001:0004b9e9       ?_Atexit@@YAXP6AXXZ@Z      0044c9e9 f   libcpmt:iosptrs.obj
 0001:0004ba09       ??1_Init_atexit@@QAE@XZ    0044ca09 f i libcpmt:iosptrs.obj
 0001:0004ba2e       _ExitThread@4              0044ca2e f   kernel32:KERNEL32.dll
 0001:0004ba34       _CreateThread@24           0044ca34 f   kernel32:KERNEL32.dll
 0001:0004ba3a       _EnterCriticalSection@4    0044ca3a f   kernel32:KERNEL32.dll
 0001:0004ba40       _LeaveCriticalSection@4    0044ca40 f   kernel32:KERNEL32.dll
 0001:0004ba46       _RtlUnwind@16              0044ca46 f   kernel32:KERNEL32.dll
 0001:0004ba4c       _GetProcAddress@8          0044ca4c f   kernel32:KERNEL32.dll
 0001:0004ba52       _GetModuleHandleA@4        0044ca52 f   kernel32:KERNEL32.dll
 0001:0004ba58       _ExitProcess@4             0044ca58 f   kernel32:KERNEL32.dll
 0001:0004ba5e       _GetCommandLineA@0         0044ca5e f   kernel32:KERNEL32.dll
 0001:0004ba64       _HeapFree@12               0044ca64 f   kernel32:KERNEL32.dll
 0001:0004ba6a       _GetVersionExA@4           0044ca6a f   kernel32:KERNEL32.dll
 0001:0004ba70       _HeapAlloc@12              0044ca70 f   kernel32:KERNEL32.dll
 0001:0004ba76       _GetProcessHeap@0          0044ca76 f   kernel32:KERNEL32.dll
 0001:0004ba7c       _GetSystemTimeAsFileTime@4 0044ca7c f   kernel32:KERNEL32.dll
 0001:0004ba82       _GetLastError@0            0044ca82 f   kernel32:KERNEL32.dll
 0001:0004ba88       _TerminateProcess@8        0044ca88 f   kernel32:KERNEL32.dll
 0001:0004ba8e       _GetCurrentProcess@0       0044ca8e f   kernel32:KERNEL32.dll
 0001:0004ba94       _UnhandledExceptionFilter@4 0044ca94 f   kernel32:KERNEL32.dll
 0001:0004ba9a       _SetUnhandledExceptionFilter@4 0044ca9a f   kernel32:KERNEL32.dll
 0001:0004baa0       _IsDebuggerPresent@0       0044caa0 f   kernel32:KERNEL32.dll
 0001:0004baa6       _RaiseException@16         0044caa6 f   kernel32:KERNEL32.dll
 0001:0004baac       _SetHandleCount@4          0044caac f   kernel32:KERNEL32.dll
 0001:0004bab2       _GetStdHandle@4            0044cab2 f   kernel32:KERNEL32.dll
 0001:0004bab8       _GetFileType@4             0044cab8 f   kernel32:KERNEL32.dll
 0001:0004babe       _GetStartupInfoA@4         0044cabe f   kernel32:KERNEL32.dll
 0001:0004bac4       _DeleteCriticalSection@4   0044cac4 f   kernel32:KERNEL32.dll
 0001:0004baca       _Sleep@4                   0044caca f   kernel32:KERNEL32.dll
 0001:0004bad0       _FatalAppExitA@8           0044cad0 f   kernel32:KERNEL32.dll
 0001:0004bad6       _TlsGetValue@4             0044cad6 f   kernel32:KERNEL32.dll
 0001:0004badc       _TlsAlloc@0                0044cadc f   kernel32:KERNEL32.dll
 0001:0004bae2       _TlsSetValue@8             0044cae2 f   kernel32:KERNEL32.dll
 0001:0004bae8       _TlsFree@4                 0044cae8 f   kernel32:KERNEL32.dll
 0001:0004baee       _InterlockedIncrement@4    0044caee f   kernel32:KERNEL32.dll
 0001:0004baf4       _SetLastError@4            0044caf4 f   kernel32:KERNEL32.dll
 0001:0004bafa       _GetCurrentThreadId@0      0044cafa f   kernel32:KERNEL32.dll
 0001:0004bb00       _InterlockedDecrement@4    0044cb00 f   kernel32:KERNEL32.dll
 0001:0004bb06       _GetCurrentThread@0        0044cb06 f   kernel32:KERNEL32.dll
 0001:0004bb0c       _WriteFile@20              0044cb0c f   kernel32:KERNEL32.dll
 0001:0004bb12       _GetModuleFileNameA@12     0044cb12 f   kernel32:KERNEL32.dll
 0001:0004bb18       _SetConsoleCtrlHandler@8   0044cb18 f   kernel32:KERNEL32.dll
 0001:0004bb1e       _FreeLibrary@4             0044cb1e f   kernel32:KERNEL32.dll
 0001:0004bb24       _InterlockedExchange@8     0044cb24 f   kernel32:KERNEL32.dll
 0001:0004bb2a       _LoadLibraryA@4            0044cb2a f   kernel32:KERNEL32.dll
 0001:0004bb30       _InitializeCriticalSection@4 0044cb30 f   kernel32:KERNEL32.dll
 0001:0004bb36       _HeapSize@12               0044cb36 f   kernel32:KERNEL32.dll
 0001:0004bb3c       _FreeEnvironmentStringsA@4 0044cb3c f   kernel32:KERNEL32.dll
 0001:0004bb42       _GetEnvironmentStrings@0   0044cb42 f   kernel32:KERNEL32.dll
 0001:0004bb48       _FreeEnvironmentStringsW@4 0044cb48 f   kernel32:KERNEL32.dll
 0001:0004bb4e       _WideCharToMultiByte@32    0044cb4e f   kernel32:KERNEL32.dll
 0001:0004bb54       _GetEnvironmentStringsW@0  0044cb54 f   kernel32:KERNEL32.dll
 0001:0004bb5a       _HeapDestroy@4             0044cb5a f   kernel32:KERNEL32.dll
 0001:0004bb60       _HeapCreate@12             0044cb60 f   kernel32:KERNEL32.dll
 0001:0004bb66       _VirtualFree@12            0044cb66 f   kernel32:KERNEL32.dll
 0001:0004bb6c       _QueryPerformanceCounter@4 0044cb6c f   kernel32:KERNEL32.dll
 0001:0004bb72       _GetTickCount@0            0044cb72 f   kernel32:KERNEL32.dll
 0001:0004bb78       _GetCurrentProcessId@0     0044cb78 f   kernel32:KERNEL32.dll
 0001:0004bb7e       _VirtualAlloc@16           0044cb7e f   kernel32:KERNEL32.dll
 0001:0004bb84       _HeapReAlloc@16            0044cb84 f   kernel32:KERNEL32.dll
 0001:0004bb8a       _CloseHandle@4             0044cb8a f   kernel32:KERNEL32.dll
 0001:0004bb90       _SetFilePointer@16         0044cb90 f   kernel32:KERNEL32.dll
 0001:0004bb96       _GetConsoleCP@0            0044cb96 f   kernel32:KERNEL32.dll
 0001:0004bb9c       _GetConsoleMode@8          0044cb9c f   kernel32:KERNEL32.dll
 0001:0004bba2       _MultiByteToWideChar@24    0044cba2 f   kernel32:KERNEL32.dll
 0001:0004bba8       _ReadFile@20               0044cba8 f   kernel32:KERNEL32.dll
 0001:0004bbae       _FlushFileBuffers@4        0044cbae f   kernel32:KERNEL32.dll
 0001:0004bbb4       _GetCPInfo@8               0044cbb4 f   kernel32:KERNEL32.dll
 0001:0004bbba       _GetACP@0                  0044cbba f   kernel32:KERNEL32.dll
 0001:0004bbc0       _GetOEMCP@0                0044cbc0 f   kernel32:KERNEL32.dll
 0001:0004bbc6       _IsValidCodePage@4         0044cbc6 f   kernel32:KERNEL32.dll
 0001:0004bbcc       _GetLocaleInfoA@16         0044cbcc f   kernel32:KERNEL32.dll
 0001:0004bbd2       _GetLocaleInfoW@16         0044cbd2 f   kernel32:KERNEL32.dll
 0001:0004bbd8       _GetTimeZoneInformation@4  0044cbd8 f   kernel32:KERNEL32.dll
 0001:0004bbde       _SetStdHandle@8            0044cbde f   kernel32:KERNEL32.dll
 0001:0004bbe4       _CreateFileA@28            0044cbe4 f   kernel32:KERNEL32.dll
 0001:0004bbea       _WriteConsoleA@20          0044cbea f   kernel32:KERNEL32.dll
 0001:0004bbf0       _GetConsoleOutputCP@0      0044cbf0 f   kernel32:KERNEL32.dll
 0001:0004bbf6       _WriteConsoleW@20          0044cbf6 f   kernel32:KERNEL32.dll
 0001:0004bbfc       _LCMapStringA@24           0044cbfc f   kernel32:KERNEL32.dll
 0001:0004bc02       _LCMapStringW@24           0044cc02 f   kernel32:KERNEL32.dll
 0001:0004bc08       _GetStringTypeA@20         0044cc08 f   kernel32:KERNEL32.dll
 0001:0004bc0e       _GetStringTypeW@16         0044cc0e f   kernel32:KERNEL32.dll
 0001:0004bc14       _GetTimeFormatA@24         0044cc14 f   kernel32:KERNEL32.dll
 0001:0004bc1a       _GetDateFormatA@24         0044cc1a f   kernel32:KERNEL32.dll
 0001:0004bc20       _GetUserDefaultLCID@0      0044cc20 f   kernel32:KERNEL32.dll
 0001:0004bc26       _EnumSystemLocalesA@8      0044cc26 f   kernel32:KERNEL32.dll
 0001:0004bc2c       _IsValidLocale@8           0044cc2c f   kernel32:KERNEL32.dll
 0001:0004bc32       _SetEndOfFile@4            0044cc32 f   kernel32:KERNEL32.dll
 0001:0004bc38       _CompareStringA@24         0044cc38 f   kernel32:KERNEL32.dll
 0001:0004bc3e       _CompareStringW@24         0044cc3e f   kernel32:KERNEL32.dll
 0001:0004bc44       _SetEnvironmentVariableA@8 0044cc44 f   kernel32:KERNEL32.dll
 0001:0004bc4a       __memicmp_l                0044cc4a f   LIBCMT:memicmp.obj
 0001:0004bd1d       _memicmp                   0044cd1d f   LIBCMT:memicmp.obj
 0001:0004bd1d       __memicmp                  0044cd1d f   LIBCMT:memicmp.obj
 0001:0004bda9       __wcstombs_l_helper        0044cda9 f   LIBCMT:wcstombs.obj
 0001:0004bfef       __wcstombs_l               0044cfef f   LIBCMT:wcstombs.obj
 0001:0004bff4       _wcstombs                  0044cff4 f   LIBCMT:wcstombs.obj
 0001:0004c00b       __wcstombs_s_l             0044d00b f   LIBCMT:wcstombs.obj
 0001:0004c0bc       _wcstombs_s                0044d0bc f   LIBCMT:wcstombs.obj
 0001:0004c0da       __wfsopen                  0044d0da f   LIBCMT:wfopen.obj
 0001:0004c1a0       __wfopen                   0044d1a0 f   LIBCMT:wfopen.obj
 0001:0004c1b3       __wfopen_s                 0044d1b3 f   LIBCMT:wfopen.obj
 0001:0004c203       __mbstowcs_l_helper        0044d203 f   LIBCMT:mbstowcs.obj
 0001:0004c38b       __mbstowcs_l               0044d38b f   LIBCMT:mbstowcs.obj
 0001:0004c390       _mbstowcs                  0044d390 f   LIBCMT:mbstowcs.obj
 0001:0004c3b8       __mbstowcs_s_l             0044d3b8 f   LIBCMT:mbstowcs.obj
 0001:0004c4ae       _mbstowcs_s                0044d4ae f   LIBCMT:mbstowcs.obj
 0001:0004c4d0       ___ascii_memicmp           0044d4d0 f   LIBCMT:_memicmp.obj
 0001:0004c529       __wopenfile                0044d529 f   LIBCMT:_wopen.obj
 0001:0004cf0f       __wopen                    0044df0f f   LIBCMT:wopen.obj
 0001:0004cfc5       __wsopen_helper            0044dfc5 f   LIBCMT:wopen.obj
 0001:0004d091       __wsopen                   0044e091 f   LIBCMT:wopen.obj
 0001:0004d0c1       __wsopen_s                 0044e0c1 f   LIBCMT:wopen.obj
 0001:0004d0df       __wcsicmp_l                0044e0df f   LIBCMT:wcsicmp.obj
 0001:0004d1ee       __wcsicmp                  0044e1ee f   LIBCMT:wcsicmp.obj
 0001:0004d27f       _wcsncmp                   0044e27f f   LIBCMT:wcsncmp.obj
 0001:0004d2b4       __towlower_l               0044e2b4 f   LIBCMT:towlower.obj
 0001:0004d361       _towlower                  0044e361 f   LIBCMT:towlower.obj
 0001:0004d5ec       ___crtLCMapStringW         0044e5ec f   LIBCMT:w_map.obj
 0001:0004d62c       _CreateFileW@28            0044e62c f   kernel32:KERNEL32.dll
 0002:00000000       ___xc_a                    00469000     LIBCMT:crt0init.obj
 0002:00000320       ___xc_z                    00469320     LIBCMT:crt0init.obj
 0002:00000424       ___xi_a                    00469424     LIBCMT:crt0init.obj
 0002:00000744       ___xi_z                    00469744     LIBCMT:crt0init.obj
 0002:00000848       ___xp_a                    00469848     LIBCMT:crt0init.obj
 0002:00000b54       ___xp_z                    00469b54     LIBCMT:crt0init.obj
 0002:00000c58       ___xt_a                    00469c58     LIBCMT:crt0init.obj
 0002:00000d5c       ___xt_z                    00469d5c     LIBCMT:crt0init.obj
 0002:00000e7c       ??_C@_04OEDFLLKD@?$CC?$CFs?$CC?$AA@ 00469e7c     test.obj
 0002:00000e84       ??_C@_0P@CKNFEOAK@Sequence?5Item?6?$AA@ 00469e84     test.obj
 0002:00000e98       ??_C@_03JDANDILB@?$CFd?5?$AA@ 00469e98     test.obj
 0002:00000e9c       ??_C@_04JLFGKHHD@?$CFld?5?$AA@ 00469e9c     test.obj
 0002:00000ea4       ??_C@_06KOCDJANI@?$CF4?44x?5?$AA@ 00469ea4     test.obj
 0002:00000eac       ??_C@_06FNBBCMBJ@?$CF2?42x?5?$AA@ 00469eac     test.obj
 0002:00000eb4       ??_C@_0BA@DLLIMFJK@?$CI?$CF4?44x?0?5?$CF4?44x?$CJ?5?$AA@ 00469eb4     test.obj
 0002:00000ec8       ??_C@_07LMEPGMD@?$CI?$CFd?$HM?$CFx?$CJ?$AA@ 00469ec8     test.obj
 0002:00000ed4       ??_C@_07GCEINMEC@?$FL?$CFd?$HM?$CFx?$FN?$AA@ 00469ed4     test.obj
 0002:00000ee0       ??_C@_09OJDNCNKB@?$CF2?42x?$CI?$CFc?$CJ?$AA@ 00469ee0     test.obj
 0002:00000eec       ??_C@_06OJHGLDPL@?$CInull?$CJ?$AA@ 00469eec     test.obj
 0002:00000ef4       ??_C@_01EEMJAFIK@?6?$AA@   00469ef4     test.obj
 0002:00000ef8       ??_C@_0CE@JDBNGHOL@?$CI?$CF4?44x?0?5?$CF4?44x?0?5?$CF02d?0?5Type?5Unknow@ 00469ef8     test.obj
 0002:00000f24       ??_C@_0CA@FBPPMIAL@?$CI?$CF4?44x?0?5?$CF4?44x?0?5?$CF02d?0?5?$CFc?$CFc?0?5?$CFs?$CJ?5?$AA@ 00469f24     test.obj
 0002:00000f50       ??_7DICOMCommandObject@@6B@ 00469f50     test.obj
 0002:00000f6c       ??_7DICOMDataObject@@6B@   00469f6c     test.obj
 0002:00000f84       ??_C@_0CB@DKIDFMMJ@Remote?5DICOM?5Error?5code?5?$CFx?5?$CI?$CFd?$CJ?6@ 00469f84     test.obj
 0002:00000fac       ??_C@_0BJ@LNJHEP@not?5a?5C?9Move?9RSP?3?5?$CF4?44x?6?$AA@ 00469fac     test.obj
 0002:00000fcc       ??_C@_0CF@MELOPHGK@Remote?5modality?5dropped?5Associat@ 00469fcc     test.obj
 0002:00000ff8       ??_C@_0BE@JLLNLLNP@C?9Move?5?$CFd?5Complete?6?$AA@ 00469ff8     test.obj
 0002:00001010       ??_C@_0DA@HHNCNCML@C?9Move?9Rsp?3?5?$CI?$CFd?$CJ?5Images?5sent?1?5?$CI?$CF@ 0046a010     test.obj
 0002:00001049       ??_C@_00CNPNBAHC@?$AA@     0046a049     test.obj
 0002:0000104c       ??_C@_05OJINHBJP@STUDY?$AA@ 0046a04c     test.obj
 0002:00001054       ??_C@_0BK@IIBEGDKM@AAssociateRJ?3?5?$CFd?0?5?$CFd?0?5?$CFd?6?$AA@ 0046a054     test.obj
 0002:00001074       ??_C@_0BM@DNFECAPL@1?42?4840?410008?45?41?44?41?42?42?41?$AA@ 0046a074     test.obj
 0002:00001098       ??_C@_0BM@BGHJHDDI@1?42?4840?410008?45?41?44?41?42?42?42?$AA@ 0046a098     test.obj
 0002:000010bc       ??_C@_0BG@LIIGJNNH@1?42?4840?410008?43?41?41?41?$AA@ 0046a0bc     test.obj
 0002:000010d8       ??_C@_0BJ@EFBGLKGA@Unable?5to?5create?5thread?6?$AA@ 0046a0d8     test.obj
 0002:000010f8       ??_C@_0BC@EJDJJJFA@1?42?4840?410008?41?41?$AA@ 0046a0f8     test.obj
 0002:00001114       ??_7CStoreRQ@@6B@          0046a114     test.obj
 0002:00001120       ??_7CStoreRSP@@6B@         0046a120     test.obj
 0002:00001128       ??_C@_0DA@HOIJJBPJ@stripped?5leading?5zeros?5of?5patien@ 0046a128     test.obj
 0002:00001164       ??_C@_0CE@PHDBIMLA@Added?5missing?5patient?5ID?3?5000000@ 0046a164     test.obj
 0002:00001190       ??_C@_0EC@EFLNNLDB@?9?9?9?9?9?9?9?9?9?9?9?9?9?9?9?9?9?9?9?9?9?9?9?9?9?9?9?9?9?9?9?9@ 0046a190     test.obj
 0002:000011e0       ??_C@_08LEDEEJEF@00000000?$AA@ 0046a1e0     test.obj
 0002:000011ec       ??_C@_07CCACIMEM@NO?5NAME?$AA@ 0046a1ec     test.obj
 0002:000011f8       ??_C@_0GN@MHCIAJBJ@usage?3?5dicom?5?$FL?9v?5filename?5?$FN?5?$HM?5?$FL?9@ 0046a1f8     test.obj
 0002:0000127c       ??_C@_0BJ@BOPGLIED@?7?7Transfer?5Syntax?3?5?$CC?$CFs?$CC?6?$AA@ 0046a27c     test.obj
 0002:0000129c       ??_C@_0BP@LCAPHNNN@?7Presentation?5Context?5?$CFd?5?$CC?$CFs?$CC?6?$AA@ 0046a29c     test.obj
 0002:000012c4       ??_C@_0CP@HLGLPGFM@?7Number?5of?5Proposed?5Presentation@ 0046a2c4     test.obj
 0002:000012fc       ??_C@_0BN@BHLGGJBO@?7Application?5Context?5?3?5?$CC?$CFs?$CC?6?$AA@ 0046a2fc     test.obj
 0002:00001320       ??_C@_0CC@MLBJMPEF@?7Called?5Application?5Title?5?3?5?$CC?$CFs?$CC@ 0046a320     test.obj
 0002:00001348       ??_C@_0CD@EFLMEFC@?7Calling?5Application?5Title?5?3?5?$CC?$CFs@ 0046a348     test.obj
 0002:00001374       ??_C@_0BN@HJDNJMHK@A?9ASSOCIATE?9RQ?5Packet?5Dump?6?6?$AA@ 0046a374     test.obj
 0002:00001398       ??_C@_0BD@HNFBEPDL@?$DO?5End?5of?5Sequence?6?$AA@ 0046a398     test.obj
 0002:000013b0       ??_C@_0BF@GIKPLOAB@?$DO?5Start?5of?5Sequence?6?$AA@ 0046a3b0     test.obj
 0002:000013cc       ??_C@_01GPOEFGEJ@?7?$AA@   0046a3cc     test.obj
 0002:000013d0       ??_C@_0CD@JJJHGMAO@?$FL?9?9?9?9?9?9?9DICOM?5Object?3?5?$CFs?9?9?9?9?9?9?9?9@ 0046a3d0     test.obj
 0002:000013fc       ??_C@_0BM@HANIPJNE@Error?5loading?5filename?3?5?$CFs?6?$AA@ 0046a3fc     test.obj
 0002:00001420       ??_C@_0CD@PHCIIHAG@Object?3?5?$CI?$CF4?44x?0?5?$CF4?44x?$CJ?0?5?$CFd?5Lengt@ 0046a420     test.obj
 0002:0000144c       ??_C@_0BB@LKOABMHN@Command?5Object?3?6?$AA@ 0046a44c     test.obj
 0002:00001460       ??_C@_0O@FBLJFJGC@Data?5Object?3?6?$AA@ 0046a460     test.obj
 0002:00001470       ??_C@_06PFNNCHAG@STUDY?5?$AA@ 0046a470     test.obj
 0002:0000147c       ??_7StandardStorage@@6BCStoreRSP@@@ 0046a47c     test.obj
 0002:00001488       ??_7StandardStorage@@6BCStoreRQ@@@ 0046a488     test.obj
 0002:00001498       ??_C@_0BM@BPBDHBH@A?9ASSOCIATE?9RQ?5Packet?5Dump?6?$AA@ 0046a498     test.obj
 0002:000014bc       ??_C@_0DK@HKEBNAJB@?7?$FL?$CFd?$FN?5Presentation?5Context?5ID?$DN?$CFd@ 0046a4bc     test.obj
 0002:00001504       ??_C@_0CP@LIMINKKN@?7Number?5of?5Accepted?5Presentation@ 0046a504     test.obj
 0002:0000153c       ??_C@_0BN@FMHBEFHO@A?9ASSOCIATE?9AC?5Packet?5Dump?6?6?$AA@ 0046a53c     test.obj
 0002:00001560       ??_C@_08DEEKMFAG@?$CF8?48x?5?5?5?$AA@ 0046a560     test.obj
 0002:0000156c       ??_C@_0BH@BPNBALKI@Waiting?5for?5CEcho?9RSP?6?$AA@ 0046a56c     test.obj
 0002:00001588       ??_C@_0BF@KAJLKGNC@Sending?5CEcho?9RQ?5?$CFd?6?$AA@ 0046a588     test.obj
 0002:000015a8       ??_7RunTimeClassStorage@@6BCStoreRSP@@@ 0046a5a8     test.obj
 0002:000015b4       ??_7RunTimeClassStorage@@6BCStoreRQ@@@ 0046a5b4     test.obj
 0002:000015c4       ??_C@_0BO@HOINKMNI@Forwarding?5?$CFs?9RSP?5data?5field?6?$AA@ 0046a5c4     test.obj
 0002:000015e8       ??_C@_0DI@EDNHLCNI@?9?9?9?9?9?9?9?9?9?9?9?9?9?9?9?5response?5?$CIdata?$CJ?5@ 0046a5e8     test.obj
 0002:0000162c       ??_C@_0BD@JEIBMNNM@Forwarding?5?$CFs?9RSP?6?$AA@ 0046a62c     test.obj
 0002:00001644       ??_C@_0DL@ILADFNMK@?9?9?9?9?9?9?9?9?9?9?9?9?9?9?9?5response?5?$CIcomman@ 0046a644     test.obj
 0002:0000168c       ??_C@_0BE@MPEBGMMF@Waiting?5for?5?$CFs?9RSP?6?$AA@ 0046a68c     test.obj
 0002:000016a4       ??_C@_0BF@DBCCNFEF@Forwarding?5?$CFs?9RQ?5?$CFd?6?$AA@ 0046a6a4     test.obj
 0002:000016c0       ??_C@_0DM@JLLEHPMM@?9?9?9?9?9?9?9?9?9?9?9?9?9?9?9?5data?5for?5?$CFs?5requ@ 0046a6c0     test.obj
 0002:00001708       ??_C@_07JOGJBKJH@NDELETE?$AA@ 0046a708     test.obj
 0002:00001714       ??_C@_07MINHANGM@CCANCEL?$AA@ 0046a714     test.obj
 0002:00001720       ??_C@_07MHGPODBM@NCREATE?$AA@ 0046a720     test.obj
 0002:0000172c       ??_C@_04KPCAJJPN@NSET?$AA@ 0046a72c     test.obj
 0002:00001734       ??_C@_07PDMJCAIM@NACTION?$AA@ 0046a734     test.obj
 0002:00001740       ??_C@_04HAFLFJDF@NGET?$AA@ 0046a740     test.obj
 0002:00001748       ??_C@_05NHCLIJMG@CECHO?$AA@ 0046a748     test.obj
 0002:00001750       ??_C@_07HJOHGCG@NREPORT?$AA@ 0046a750     test.obj
 0002:0000175c       ??_C@_0CA@IBMGNNN@Start?5return?5connection?5?5to?5?$CFs?6?$AA@ 0046a75c     test.obj
 0002:00001784       ??_C@_05EBNKBLEP@CMOVE?$AA@ 0046a784     test.obj
 0002:0000178c       ??_C@_06HBLIFFMC@CSTORE?$AA@ 0046a78c     test.obj
 0002:00001794       ??_C@_04IIMLJNIE@CGET?$AA@ 0046a794     test.obj
 0002:0000179c       ??_C@_05BIEPLGAL@CFIND?$AA@ 0046a79c     test.obj
 0002:000017a4       ??_C@_0BH@OCAJCJBF@1?42?4840?410008?45?41?41?416?$AA@ 0046a7a4     test.obj
 0002:000017c0       ??_C@_0BI@IOIJOIIK@1?42?4840?410008?45?41?41?44?41?$AA@ 0046a7c0     test.obj
 0002:000017dc       ??_C@_0BG@DJOGABF@1?42?4840?410008?45?41?41?44?$AA@ 0046a7dc     test.obj
 0002:000017f8       ??_C@_0BG@FFMEMHJD@1?42?4840?410008?45?41?41?42?$AA@ 0046a7f8     test.obj
 0002:00001814       ??_C@_0BG@HOOJJEFA@1?42?4840?410008?45?41?41?41?$AA@ 0046a814     test.obj
 0002:00001830       ??_C@_0BH@HMIKAEJL@1?42?4840?410008?45?41?41?418?$AA@ 0046a830     test.obj
 0002:0000184c       ??_C@_0BG@LGDABOFI@1?42?4840?410008?45?41?41?49?$AA@ 0046a84c     test.obj
 0002:00001868       ??_C@_0DM@KHFJNACO@?9?9?9?9?9?9?9?9?9?9?9?9?9?9?9?5command?5for?5requ@ 0046a868     test.obj
 0002:000018b0       ??_C@_0DM@NKENCBHB@?6?6?$CK?$CK?$CK?$CK?$CK?$CK?$CK?$CK?$CK?$CK?$CK?$CK?$CK?$CK?$CK?$CK?$CK?$CK?$CK?$CK?$CK?$CK?$CK?$CK?$CK?$CK?$CK?$CK?$CK?$CK@ 0046a8b0     test.obj
 0002:000018f8       ??_C@_0BM@GEPOCHO@failed?5to?5send?5DICOM?5image?6?$AA@ 0046a8f8     test.obj
 0002:0000191c       ??_C@_0DB@JOCFFJMH@DICOM?5server?5does?5not?5accept?5typ@ 0046a91c     test.obj
 0002:00001958       ??_C@_0BD@PPIBOBKK@failed?5to?5connect?6?$AA@ 0046a958     test.obj
 0002:00001970       ??_C@_06HJNKNPJJ@called?$AA@ 0046a970     test.obj
 0002:00001978       ??_C@_06GFECGKEO@caller?$AA@ 0046a978     test.obj
 0002:00001980       ??_C@_0BD@FMMILLKJ@failed?5to?5load?5?$CFs?6?$AA@ 0046a980     test.obj
 0002:00001998       ??_C@_0BC@PINCENBM@failed?5to?5listen?6?$AA@ 0046a998     test.obj
 0002:000019b0       ??_C@_0BG@MONBGEFK@garbled?5command?5line?6?$AA@ 0046a9b0     test.obj
 0002:000019d0       ??_C@_0EM@PNOMNENC@TEST?5?9m?5?9l?3LOCALAE?$CIdest?$CJ?5host?5po@ 0046a9d0     test.obj
 0002:00001a2c       ??_C@_0BM@PELHKDAE@Extended?5options?5?$CIC?9MOVE?$CJ?3?6?$AA@ 0046aa2c     test.obj
 0002:00001a50       ??_C@_0DL@FJMCGNNM@TEST?5?9f?5host?5port?5QUERYLEVEL?5PAT@ 0046aa50     test.obj
 0002:00001a98       ??_C@_0BM@BIOICDCO@Extended?5options?5?$CIC?9FIND?$CJ?3?6?$AA@ 0046aa98     test.obj
 0002:00001abc       ??_C@_03JGNKJEA@104?$AA@   0046aabc     test.obj
 0002:00001ac0       ??_C@_0BE@CHPGCGAG@unknown?5option?3?5?$CFc?6?$AA@ 0046aac0     test.obj
 0002:00001ad8       ??_C@_0BJ@IJEMLJLL@error?5server?5option?3?5?$CFc?6?$AA@ 0046aad8     test.obj
 0002:00001af8       ??_C@_06FBCCGIP@dd?4txt?$AA@ 0046aaf8     test.obj
 0002:00001b00       ??_C@_0P@GHFPNOJB@bad?5allocation?$AA@ 0046ab00     dicom:cong.obj
 0002:00001b10       ??_C@_0BH@HLPCKIL@1?42?4840?410008?41?42?44?491?$AA@ 0046ab10     dicom:cong.obj
 0002:00001b28       ??_C@_0BH@BOKEBLMK@1?42?4840?410008?41?42?44?490?$AA@ 0046ab28     dicom:cong.obj
 0002:00001b40       ??_C@_0BH@GHNEALM@1?42?4840?410008?41?42?44?481?$AA@ 0046ab40     dicom:cong.obj
 0002:00001b58       ??_C@_0BH@BPGGHBPN@1?42?4840?410008?41?42?44?480?$AA@ 0046ab58     dicom:cong.obj
 0002:00001b70       ??_C@_0BH@BEDKDGMA@1?42?4840?410008?41?42?44?470?$AA@ 0046ab70     dicom:cong.obj
 0002:00001b88       ??_C@_0BH@EDKCPLHB@1?42?4840?410008?41?42?44?466?$AA@ 0046ab88     dicom:cong.obj
 0002:00001ba0       ??_C@_0BH@GIIPKILC@1?42?4840?410008?41?42?44?465?$AA@ 0046aba0     dicom:cong.obj
 0002:00001bb8       ??_C@_0BH@HBJEJJPD@1?42?4840?410008?41?42?44?464?$AA@ 0046abb8     dicom:cong.obj
 0002:00001bd0       ??_C@_0BH@DONFAPDE@1?42?4840?410008?41?42?44?463?$AA@ 0046abd0     dicom:cong.obj
 0002:00001be8       ??_C@_0BH@CHMODOHF@1?42?4840?410008?41?42?44?462?$AA@ 0046abe8     dicom:cong.obj
 0002:00001c00       ??_C@_0BH@MODGNLG@1?42?4840?410008?41?42?44?461?$AA@ 0046ac00     dicom:cong.obj
 0002:00001c18       ??_C@_0BH@BFPIFMPH@1?42?4840?410008?41?42?44?460?$AA@ 0046ac18     dicom:cong.obj
 0002:00001c30       ??_C@_0BH@MGHMFJOH@1?42?4840?410008?41?42?44?459?$AA@ 0046ac30     dicom:cong.obj
 0002:00001c48       ??_C@_0BH@NPGHGIKG@1?42?4840?410008?41?42?44?458?$AA@ 0046ac48     dicom:cong.obj
 0002:00001c60       ??_C@_0BH@FIPPHEGJ@1?42?4840?410008?41?42?44?457?$AA@ 0046ac60     dicom:cong.obj
 0002:00001c78       ??_C@_0BH@EBOEEFCI@1?42?4840?410008?41?42?44?456?$AA@ 0046ac78     dicom:cong.obj
 0002:00001c90       ??_C@_0BH@GKMJBGOL@1?42?4840?410008?41?42?44?455?$AA@ 0046ac90     dicom:cong.obj
 0002:00001ca8       ??_C@_0BH@HDNCCHKK@1?42?4840?410008?41?42?44?454?$AA@ 0046aca8     dicom:cong.obj
 0002:00001cc0       ??_C@_0BH@DMJDLBGN@1?42?4840?410008?41?42?44?453?$AA@ 0046acc0     dicom:cong.obj
 0002:00001cd8       ??_C@_0BH@CFIIIACM@1?42?4840?410008?41?42?44?452?$AA@ 0046acd8     dicom:cong.obj
 0002:00001cf0       ??_C@_0BH@OKFNDOP@1?42?4840?410008?41?42?44?451?$AA@ 0046acf0     dicom:cong.obj
 0002:00001d08       ??_C@_0BH@BHLOOCKO@1?42?4840?410008?41?42?44?450?$AA@ 0046ad08     dicom:cong.obj
 0002:00001d20       ??_C@_0BE@LBDPDJDP@1?42?4840?410008?41?42?45?$AA@ 0046ad20     dicom:cong.obj
 0002:00001d34       ??_C@_0BE@POHOKPPI@1?42?4840?410008?41?42?42?$AA@ 0046ad34     dicom:cong.obj
 0002:00001d48       ??_C@_0BE@NFFDPMDL@1?42?4840?410008?41?42?41?$AA@ 0046ad48     dicom:cong.obj
 0002:00001d5c       ??_C@_0BC@GCBEMKJD@1?42?4840?410008?41?42?$AA@ 0046ad5c     dicom:cong.obj
 0002:00001d70       ?collate@?$_Locbase@H@std@@2HB 0046ad70     dicom:cong.obj
 0002:00001d74       ?ctype@?$_Locbase@H@std@@2HB 0046ad74     dicom:cong.obj
 0002:00001d78       ?monetary@?$_Locbase@H@std@@2HB 0046ad78     dicom:cong.obj
 0002:00001d7c       ?numeric@?$_Locbase@H@std@@2HB 0046ad7c     dicom:cong.obj
 0002:00001d80       ?time@?$_Locbase@H@std@@2HB 0046ad80     dicom:cong.obj
 0002:00001d84       ?messages@?$_Locbase@H@std@@2HB 0046ad84     dicom:cong.obj
 0002:00001d88       ?all@?$_Locbase@H@std@@2HB 0046ad88     dicom:cong.obj
 0002:00001d8c       ?none@?$_Locbase@H@std@@2HB 0046ad8c     dicom:cong.obj
 0002:00001d90       ?table_size@?$ctype@D@std@@2IB 0046ad90     dicom:cong.obj
 0002:00001d94       ?skipws@?$_Iosb@H@std@@2W4_Fmtflags@12@B 0046ad94     dicom:cong.obj
 0002:00001d98       ?unitbuf@?$_Iosb@H@std@@2W4_Fmtflags@12@B 0046ad98     dicom:cong.obj
 0002:00001d9c       ?uppercase@?$_Iosb@H@std@@2W4_Fmtflags@12@B 0046ad9c     dicom:cong.obj
 0002:00001da0       ?showbase@?$_Iosb@H@std@@2W4_Fmtflags@12@B 0046ada0     dicom:cong.obj
 0002:00001da4       ?showpoint@?$_Iosb@H@std@@2W4_Fmtflags@12@B 0046ada4     dicom:cong.obj
 0002:00001da8       ?showpos@?$_Iosb@H@std@@2W4_Fmtflags@12@B 0046ada8     dicom:cong.obj
 0002:00001dac       ?left@?$_Iosb@H@std@@2W4_Fmtflags@12@B 0046adac     dicom:cong.obj
 0002:00001db0       ?right@?$_Iosb@H@std@@2W4_Fmtflags@12@B 0046adb0     dicom:cong.obj
 0002:00001db4       ?internal@?$_Iosb@H@std@@2W4_Fmtflags@12@B 0046adb4     dicom:cong.obj
 0002:00001db8       ?dec@?$_Iosb@H@std@@2W4_Fmtflags@12@B 0046adb8     dicom:cong.obj
 0002:00001dbc       ?oct@?$_Iosb@H@std@@2W4_Fmtflags@12@B 0046adbc     dicom:cong.obj
 0002:00001dc0       ?hex@?$_Iosb@H@std@@2W4_Fmtflags@12@B 0046adc0     dicom:cong.obj
 0002:00001dc4       ?scientific@?$_Iosb@H@std@@2W4_Fmtflags@12@B 0046adc4     dicom:cong.obj
 0002:00001dc8       ?fixed@?$_Iosb@H@std@@2W4_Fmtflags@12@B 0046adc8     dicom:cong.obj
 0002:00001dcc       ?boolalpha@?$_Iosb@H@std@@2W4_Fmtflags@12@B 0046adcc     dicom:cong.obj
 0002:00001dd0       ?_Stdio@?$_Iosb@H@std@@2W4_Fmtflags@12@B 0046add0     dicom:cong.obj
 0002:00001dd4       ?adjustfield@?$_Iosb@H@std@@2W4_Fmtflags@12@B 0046add4     dicom:cong.obj
 0002:00001dd8       ?basefield@?$_Iosb@H@std@@2W4_Fmtflags@12@B 0046add8     dicom:cong.obj
 0002:00001ddc       ?floatfield@?$_Iosb@H@std@@2W4_Fmtflags@12@B 0046addc     dicom:cong.obj
 0002:00001de0       ?goodbit@?$_Iosb@H@std@@2W4_Iostate@12@B 0046ade0     dicom:cong.obj
 0002:00001de4       ?eofbit@?$_Iosb@H@std@@2W4_Iostate@12@B 0046ade4     dicom:cong.obj
 0002:00001de8       ?failbit@?$_Iosb@H@std@@2W4_Iostate@12@B 0046ade8     dicom:cong.obj
 0002:00001dec       ?badbit@?$_Iosb@H@std@@2W4_Iostate@12@B 0046adec     dicom:cong.obj
 0002:00001df0       ?_Hardfail@?$_Iosb@H@std@@2W4_Iostate@12@B 0046adf0     dicom:cong.obj
 0002:00001df4       ?in@?$_Iosb@H@std@@2W4_Openmode@12@B 0046adf4     dicom:cong.obj
 0002:00001df8       ?out@?$_Iosb@H@std@@2W4_Openmode@12@B 0046adf8     dicom:cong.obj
 0002:00001dfc       ?ate@?$_Iosb@H@std@@2W4_Openmode@12@B 0046adfc     dicom:cong.obj
 0002:00001e00       ?app@?$_Iosb@H@std@@2W4_Openmode@12@B 0046ae00     dicom:cong.obj
 0002:00001e04       ?trunc@?$_Iosb@H@std@@2W4_Openmode@12@B 0046ae04     dicom:cong.obj
 0002:00001e08       ?_Nocreate@?$_Iosb@H@std@@2W4_Openmode@12@B 0046ae08     dicom:cong.obj
 0002:00001e0c       ?_Noreplace@?$_Iosb@H@std@@2W4_Openmode@12@B 0046ae0c     dicom:cong.obj
 0002:00001e10       ?binary@?$_Iosb@H@std@@2W4_Openmode@12@B 0046ae10     dicom:cong.obj
 0002:00001e14       ?beg@?$_Iosb@H@std@@2W4_Seekdir@12@B 0046ae14     dicom:cong.obj
 0002:00001e18       ?cur@?$_Iosb@H@std@@2W4_Seekdir@12@B 0046ae18     dicom:cong.obj
 0002:00001e1c       ?end@?$_Iosb@H@std@@2W4_Seekdir@12@B 0046ae1c     dicom:cong.obj
 0002:00001e24       ??_7Socket@@6B@            0046ae24     dicom:cong.obj
 0002:00001e38       ??_C@_0BI@MHLAJIKA@Could?5not?5resolve?5port?6?$AA@ 0046ae38     dicom:cong.obj
 0002:00001e50       ??_C@_0BI@JAIJHPDD@Could?5not?5resolve?5host?6?$AA@ 0046ae50     dicom:cong.obj
 0002:00001e68       ??_C@_0N@PKKIJDHK@DICOM?5ERROR?5?$AA@ 0046ae68     dicom:cong.obj
 0002:00001e78       ??_C@_0CH@HECCNILG@VR?3?5out?5of?5memory?5allocating?5?$CFd?5@ 0046ae78     dicom:cong.obj
 0002:00001ea0       ??_C@_0BA@EJOLBKMG@?$FL?$FLRGB_TO_MONO?$FN?$FN?$AA@ 0046aea0     dicom:cong.obj
 0002:00001eb0       ??_C@_0BF@MEKPLDCK@?$FL?$FLRGB_TO_MONO_PLUS?$FN?$FN?$AA@ 0046aeb0     dicom:cong.obj
 0002:00001ec8       ??_C@_0M@KFCCMGML@?$FL?$FLFIX_TMS?$FN?$FN?$AA@ 0046aec8     dicom:cong.obj
 0002:00001ed8       ??_7AAssociateRJ@@6B@      0046aed8     dicom:cong.obj
 0002:00001ee0       ??_7AReleaseRQ@@6B@        0046aee0     dicom:cong.obj
 0002:00001ee8       ??_7AReleaseRP@@6B@        0046aee8     dicom:cong.obj
 0002:00001ef0       ??_7AAbortRQ@@6B@          0046aef0     dicom:cong.obj
 0002:00001ef4       ??_C@_0M@NJALGCHB@Application?$AA@ 0046aef4     dicom:cong.obj
 0002:00001f00       ??_C@_08LGNJOGGB@transfer?$AA@ 0046af00     dicom:cong.obj
 0002:00001f0c       ??_C@_08IMFJLGFD@abstract?$AA@ 0046af0c     dicom:cong.obj
 0002:00001f18       ??_C@_03MLIFNKHK@sop?$AA@  0046af18     dicom:cong.obj
 0002:00001f1c       ??_C@_07DOIFPMDN@LocalAE?$AA@ 0046af1c     dicom:cong.obj
 0002:00001f24       ??_C@_08DCGGKBFN@RemoteAE?$AA@ 0046af24     dicom:cong.obj
 0002:00001f30       ??_C@_01KDCPPGHE@r?$AA@    0046af30     dicom:cong.obj
 0002:00001f34       ??_C@_02JDPG@rb?$AA@       0046af34     dicom:cong.obj
 0002:00001f38       ??_C@_02GMLFBBN@wb?$AA@    0046af38     dicom:cong.obj
 0002:00001f40       ??_7bad_alloc@std@@6B@     0046af40     dicom:cong.obj
 0002:00001f4c       ??_7facet@locale@std@@6B@  0046af4c     dicom:cong.obj
 0002:00001f54       ??_7codecvt_base@std@@6B@  0046af54     dicom:cong.obj
 0002:00001f68       ??_7ctype_base@std@@6B@    0046af68     dicom:cong.obj
 0002:00001f70       ??_7ios_base@std@@6B@      0046af70     dicom:cong.obj
 0002:00001f78       ??_7?$Array@PAVBufferSpace@@@@6B@ 0046af78     dicom:cong.obj
 0002:00001f80       ??_7?$Array@PAVVR@@@@6B@   0046af80     dicom:cong.obj
 0002:00001f88       ??_7?$Array@PAVVRGroupPQueue@@@@6B@ 0046af88     dicom:cong.obj
 0002:00001f90       ??_7?$Array@VTransferSyntax@@@@6B@ 0046af90     dicom:cong.obj
 0002:00001f98       ??_7?$Array@VPresentationContext@@@@6B@ 0046af98     dicom:cong.obj
 0002:00001fa0       ??_7?$Array@VPresentationContextAccept@@@@6B@ 0046afa0     dicom:cong.obj
 0002:00001fa8       ??_7?$Array@VAbstractSyntax@@@@6B@ 0046afa8     dicom:cong.obj
 0002:00001fb0       ??_7?$Array@PAVDICOMObject@@@@6B@ 0046afb0     dicom:cong.obj
 0002:00001fb8       ??_7?$Array@PAVDICOMDataObject@@@@6B@ 0046afb8     dicom:cong.obj
 0002:00001fc0       ??_7?$Array@U_RTCElement@@@@6B@ 0046afc0     dicom:cong.obj
 0002:00001fc8       ??_7?$Array@PAU_ACRNemaAddress@@@@6B@ 0046afc8     dicom:cong.obj
 0002:00001fd0       ??_7?$basic_ios@DU?$char_traits@D@std@@@std@@6B@ 0046afd0     dicom:cong.obj
 0002:00001fd8       ??_7?$basic_istream@DU?$char_traits@D@std@@@std@@6B@ 0046afd8     dicom:cong.obj
 0002:00001fe0       ??_7?$Array@V?$FixedArrayElement@IU_RTCElement@@@@@@6B@ 0046afe0     dicom:cong.obj
 0002:00001fe8       ??_7?$PQueueOfPtr@PAVVR@@@@6B@ 0046afe8     dicom:cong.obj
 0002:00001fec       ??_C@_0DA@CNOKHGHP@Bufferspace?3?5out?5of?5memory?5alloc@ 0046afec     dicom:cong.obj
 0002:00002020       ??_7Buffer@@6B@            0046b020     dicom:cong.obj
 0002:0000202c       ??_C@_0BL@FOJILJIC@Connected?5by?5address?3?5?$CF08x?$AA@ 0046b02c     dicom:cong.obj
 0002:0000204c       ??_7?$PQueueOfPtr@PAVVRGroupPQueue@@@@6B@ 0046b04c     dicom:cong.obj
 0002:00002050       ??_C@_01CLKCMJKC@?5?$AA@   0046b050     dicom:cong.obj
 0002:00002054       ??_C@_0CM@JNLLLEIH@VR?3SetIf?5out?5of?5memory?5allocatin@ 0046b054     dicom:cong.obj
 0002:00002080       ??_C@_0CO@DMPHOMCB@VR?3ReAlloc?5out?5of?5memory?5allocat@ 0046b080     dicom:cong.obj
 0002:000020b0       ??_C@_0CD@DLKKAON@1?42?4826?40?41?43680043?42?4135?41066?41@ 0046b0b0     dicom:cong.obj
 0002:000020d4       ??_C@_0N@LACKHJCB@1?44?418?1WIN32?$AA@ 0046b0d4     dicom:cong.obj
 0002:000020e4       ??_C@_0DN@LAJGKFBO@Internal?5error?5during?5load?5of?5DC@ 0046b0e4     dicom:cong.obj
 0002:00002128       ??_C@_0EN@CPPKNJGE@no?5UID?5associated?5with?5PCID?5?$CFd?5d@ 0046b128     dicom:cong.obj
 0002:00002178       ??_C@_0BK@IDBOGHIN@1?42?4840?410008?45?41?44?41?41?41?$AA@ 0046b178     dicom:cong.obj
 0002:00002194       ??_C@_0BK@KIDDDEEO@1?42?4840?410008?45?41?44?41?41?42?$AA@ 0046b194     dicom:cong.obj
 0002:000021b0       ??_C@_0BK@LBCIAFAP@1?42?4840?410008?45?41?44?41?41?43?$AA@ 0046b1b0     dicom:cong.obj
 0002:000021cc       ??_C@_0BK@POGJJDMI@1?42?4840?410008?45?41?44?41?41?44?$AA@ 0046b1cc     dicom:cong.obj
 0002:000021e8       ??_C@_0BK@OHHCKCIJ@1?42?4840?410008?45?41?44?41?41?45?$AA@ 0046b1e8     dicom:cong.obj
 0002:00002204       ??_C@_0BK@MMFPPBEK@1?42?4840?410008?45?41?44?41?41?46?$AA@ 0046b204     dicom:cong.obj
 0002:00002220       ??_C@_0BK@NFEEMAAL@1?42?4840?410008?45?41?44?41?41?47?$AA@ 0046b220     dicom:cong.obj
 0002:0000223c       ??_C@_0BK@FCNMNMME@1?42?4840?410008?45?41?44?41?41?48?$AA@ 0046b23c     dicom:cong.obj
 0002:00002258       ??_C@_0BK@ELMHONIF@1?42?4840?410008?45?41?44?41?41?49?$AA@ 0046b258     dicom:cong.obj
 0002:00002274       ??_C@_0BL@EMMMNHAJ@1?42?4840?410008?45?41?44?41?41?410?$AA@ 0046b274     dicom:cong.obj
 0002:00002290       ??_C@_0BL@FFNHOGEI@1?42?4840?410008?45?41?44?41?41?411?$AA@ 0046b290     dicom:cong.obj
 0002:000022ac       ??_C@_0BD@NHFHEGHF@1?42?4840?4113619?44?42?$AA@ 0046b2ac     dicom:cong.obj
 0002:000022c0       ??_C@_0BD@MOEMHHDE@1?42?4840?4113619?44?43?$AA@ 0046b2c0     dicom:cong.obj
 0002:000022d4       ??_C@_0BM@CPOBIPBF@1?42?4840?410008?45?41?44?41?42?41?41?$AA@ 0046b2d4     dicom:cong.obj
 0002:000022f0       ??_C@_0BM@EMMNMNG@1?42?4840?410008?45?41?44?41?42?41?42?$AA@ 0046b2f0     dicom:cong.obj
 0002:0000230c       ??_C@_0BM@IFOIEHJO@1?42?4840?410008?45?41?44?41?42?43?41?$AA@ 0046b30c     dicom:cong.obj
 0002:00002328       ??_C@_0BM@KOMFBEFN@1?42?4840?410008?45?41?44?41?42?43?42?$AA@ 0046b328     dicom:cong.obj
 0002:00002344       ??_C@_0BH@GGCMOEMM@1?42?4840?410008?45?41?44?431?$AA@ 0046b344     dicom:cong.obj
 0002:0000235c       ??_C@_0BI@CJNBCHJI@?$CF?917s?5?$CF?930s?5?$CF?910s?5?$CF?916s?$AA@ 0046b35c     dicom:cong.obj
 0002:00002374       ??_C@_0BL@PJIIEOLN@?$CK?$CK?7AE?5?1?5IP?9PORT?5Map?5dump?6?6?$AA@ 0046b374     dicom:cong.obj
 0002:00002390       ??_C@_0EPO@IGCNPMFK@?1?$CK?5?$CK?$CK?$CK?$CK?$CK?$CK?$CK?$CK?$CK?$CK?$CK?$CK?$CK?$CK?$CK?$CK?$CK?$CK?$CK?$CK?$CK?$CK?$CK?$CK?$CK?$CK?$CK?$CK?$CK@ 0046b390     dicom:cong.obj
 0002:00002890       ??_C@_02BKFDOEMK@wt?$AA@   0046b890     dicom:cong.obj
 0002:00002898       ??_7?$basic_streambuf@DU?$char_traits@D@std@@@std@@6B@ 0046b898     dicom:cong.obj
 0002:000028d4       ??_7VRGroupPQueue@@6B@     0046b8d4     dicom:cong.obj
 0002:000028dc       ??_7LinkedBuffer@@6B@      0046b8dc     dicom:cong.obj
 0002:000028ec       ??_7DICOMObject@@6B@       0046b8ec     dicom:cong.obj
 0002:00002904       ??_7MemoryBuffer@@6B@      0046b904     dicom:cong.obj
 0002:00002914       ??_7PDataTF@@6B@           0046b914     dicom:cong.obj
 0002:00002918       ??_C@_0CP@IODPKGCI@Testing?5transfer?3?5?8?$CFs?8?5against?5l@ 0046b918     dicom:cong.obj
 0002:0000294c       ??_7FileBuffer@@6B@        0046b94c     dicom:cong.obj
 0002:00002958       ??_C@_0BD@GJGENGDE@1?42?4840?410008?41?42?$AA?$AA@ 0046b958     dicom:cong.obj
 0002:0000296c       ??_C@_04EFLJODAN@DICM?$AA@ 0046b96c     dicom:cong.obj
 0002:00002974       ??_C@_02KJPKMKHP@un?$AA@   0046b974     dicom:cong.obj
 0002:0000297c       ??_7?$PQueue@V?$FixedArrayElement@IU_RTCElement@@@@@@6B@ 0046b97c     dicom:cong.obj
 0002:00002984       ??_7AAssociateAC@@6B@      0046b984     dicom:cong.obj
 0002:00002988       ??_C@_01LOCGONAA@?$AA?$AA@ 0046b988     dicom:cong.obj
 0002:00002990       ??_7?$basic_filebuf@DU?$char_traits@D@std@@@std@@6B@ 0046b990     dicom:cong.obj
 0002:000029c8       ??_C@_0DL@PJMKBLMF@Sequence?5parse?5error?5during?5load@ 0046b9c8     dicom:cong.obj
 0002:00002a08       ??_C@_0FI@HBIENDDJ@Implicit_Parse?5encountered?5an?5in@ 0046ba08     dicom:cong.obj
 0002:00002a60       ??_C@_0BD@GGBLBCEH@Continuing?5parsing?$AA@ 0046ba60     dicom:cong.obj
 0002:00002a74       ??_C@_0BD@LEKCKBOG@Group?5Length?5?$DN?5?$CFu?6?$AA@ 0046ba74     dicom:cong.obj
 0002:00002a88       ??_C@_0N@GMNANHEE@Length?5?$DN?5?$CFd?6?$AA@ 0046ba88     dicom:cong.obj
 0002:00002a98       ??_C@_0FI@ILHFEOIN@Implicit?5Parse?5encountered?5an?5in@ 0046ba98     dicom:cong.obj
 0002:00002af0       ??_C@_0EO@DBAMAPBE@?$CIImp?$CJ?5Encountered?5an?5invalid?5ele@ 0046baf0     dicom:cong.obj
 0002:00002b40       ??_C@_0EP@DDIJLJLE@?$CIImp?$CJ?5Encountered?5an?5invalid?5gro@ 0046bb40     dicom:cong.obj
 0002:00002b90       ??_C@_0FL@CDPKFABG@Explicit_ParseRaw?5encountered?5an@ 0046bb90     dicom:cong.obj
 0002:00002bf0       ??_C@_0FI@HEEPAFAK@Explicit?5Parse?5encountered?5an?5in@ 0046bbf0     dicom:cong.obj
 0002:00002c48       ??_C@_0EO@GKFBNJMD@?$CIExp?$CJ?5Encountered?5an?5invalid?5ele@ 0046bc48     dicom:cong.obj
 0002:00002c98       ??_C@_0EP@CLGFKDBF@?$CIExp?$CJ?5Encountered?5an?5invalid?5gro@ 0046bc98     dicom:cong.obj
 0002:00002ce8       ??_C@_09LDPOJFLM@Keyword?$DN?$CC?$AA@ 0046bce8     dicom:cong.obj
 0002:00002cf4       ??_C@_04GEILMFED@VR?$DN?$CC?$AA@ 0046bcf4     dicom:cong.obj
 0002:00002cfc       ??_C@_08JMNOJJJC@?$CD?$CBBinRTC?$AA@ 0046bcfc     dicom:cong.obj
 0002:00002d0c       ??_7runtime_error@std@@6B@ 0046bd0c     dicom:cong.obj
 0002:00002d14       ??_C@_0DA@DIHIDFME@Mis?9encoded?5pixel?5data?5during?5lo@ 0046bd14     dicom:cong.obj
 0002:00002d44       ??_C@_0BF@NNBJBNHA@In?5image?5data?3?5?$CF08x?6?$AA@ 0046bd44     dicom:cong.obj
 0002:00002d5c       ??_C@_0CH@BOCCLCHN@Odd?5VR?5length?3?5?$CF08x?$DL?5attempted?5t@ 0046bd5c     dicom:cong.obj
 0002:00002d84       ??_C@_0CB@OAIKEIJE@Unknown?5transfer?5syntax?5in?5?$CF08x?6@ 0046bd84     dicom:cong.obj
 0002:00002da8       ??_C@_0FH@LDKPKPFA@Dynamic_Parse?5encountered?5an?5inv@ 0046bda8     dicom:cong.obj
 0002:00002e00       ??_C@_0FH@EJFODCOE@Dynamic?5Parse?5encountered?5an?5inv@ 0046be00     dicom:cong.obj
 0002:00002e58       ??_C@_0EO@LIOMEBP@?$CIDyn?$CJ?5Encountered?5an?5invalid?5ele@ 0046be58     dicom:cong.obj
 0002:00002ea8       ??_C@_0EP@KEGBOCPH@?$CIDyn?$CJ?5Encountered?5an?5invalid?5gro@ 0046bea8     dicom:cong.obj
 0002:00002efc       ??_7failure@ios_base@std@@6B@ 0046befc     dicom:cong.obj
 0002:00002f08       ??_7AAssociateRQ@@6B@      0046bf08     dicom:cong.obj
 0002:00002f10       ??_7PDU_Service@@6BPDataTF@@@ 0046bf10     dicom:cong.obj
 0002:00002f18       ??_7PDU_Service@@6BAAbortRQ@@@ 0046bf18     dicom:cong.obj
 0002:00002f20       ??_7PDU_Service@@6BAReleaseRP@@@ 0046bf20     dicom:cong.obj
 0002:00002f28       ??_7PDU_Service@@6BAReleaseRQ@@@ 0046bf28     dicom:cong.obj
 0002:00002f30       ??_7PDU_Service@@6BAAssociateRJ@@@ 0046bf30     dicom:cong.obj
 0002:00002f38       ??_7PDU_Service@@6BAAssociateAC@@@ 0046bf38     dicom:cong.obj
 0002:00002f40       ??_7PDU_Service@@6BAAssociateRQ@@@ 0046bf40     dicom:cong.obj
 0002:00002f4c       ??_7PDU_Service@@6BBuffer@@@ 0046bf4c     dicom:cong.obj
 0002:00002fe0       ??_C@_0CA@NKCPNEN@?$CDPossible?5transfer?5syntaxes?3?5?$CFd?$AA@ 0046bfe0     dicom:cong.obj
 0002:00003000       ??_C@_0BM@HHDELCIK@In?5?$CFd?5presentation?5contexts?$AA@ 0046c000     dicom:cong.obj
 0002:00003020       ??_C@_0EG@LADICAEJ@No?5valid?5presentation?5contexts?1t@ 0046c020     dicom:cong.obj
 0002:00003068       ??_C@_0BJ@GAFHDEEN@AppContext?5Not?9Supported?$AA@ 0046c068     dicom:cong.obj
 0002:00003084       ??_C@_0BK@LCAHODJB@Called?5party?5not?5accepted?$AA@ 0046c084     dicom:cong.obj
 0002:000030a0       ??_C@_0BL@JOAOHJLO@Calling?5party?5not?5accepted?$AA@ 0046c0a0     dicom:cong.obj
 0002:000030bc       ??_C@_0BD@HKNCDFKK@link?4accept?5failed?$AA@ 0046c0bc     dicom:cong.obj
 0002:000030d0       ??_C@_0BO@HHNAKECA@InterogateAAssociateRQ?5failed?$AA@ 0046c0d0     dicom:cong.obj
 0002:000030f0       ??_C@_0BG@KKJBNHFI@link?5is?5not?5connected?$AA@ 0046c0f0     dicom:cong.obj
 0002:0000310c       ??_7CheckedPDU_Service@@6BPDataTF@@@ 0046c10c     dicom:cong.obj
 0002:00003114       ??_7CheckedPDU_Service@@6BAAbortRQ@@@ 0046c114     dicom:cong.obj
 0002:0000311c       ??_7CheckedPDU_Service@@6BAReleaseRP@@@ 0046c11c     dicom:cong.obj
 0002:00003124       ??_7CheckedPDU_Service@@6BAReleaseRQ@@@ 0046c124     dicom:cong.obj
 0002:0000312c       ??_7CheckedPDU_Service@@6BAAssociateRJ@@@ 0046c12c     dicom:cong.obj
 0002:00003134       ??_7CheckedPDU_Service@@6BAAssociateAC@@@ 0046c134     dicom:cong.obj
 0002:0000313c       ??_7CheckedPDU_Service@@6BAAssociateRQ@@@ 0046c13c     dicom:cong.obj
 0002:00003144       ??_7CheckedPDU_Service@@6BBuffer@@@ 0046c144     dicom:cong.obj
 0002:000031d8       ??_C@_0BA@ELKIONDK@bad?5locale?5name?$AA@ 0046c1d8     dicom:cong.obj
 0002:000031ec       ??_7?$ctype@D@std@@6B@     0046c1ec     dicom:cong.obj
 0002:00003218       ??_C@_01GFHCPBMG@C?$AA@    0046c218     dicom:cong.obj
 0002:0000321c       ??_C@_0BF@OOHOMBOF@ios_base?3?3eofbit?5set?$AA@ 0046c21c     dicom:cong.obj
 0002:00003234       ??_C@_0BG@FMKFHCIL@ios_base?3?3failbit?5set?$AA@ 0046c234     dicom:cong.obj
 0002:0000324c       ??_C@_0BF@PHHKMMFD@ios_base?3?3badbit?5set?$AA@ 0046c24c     dicom:cong.obj
 0002:00003264       ??_C@_08EPJLHIJG@bad?5cast?$AA@ 0046c264     dicom:cong.obj
 0002:00003274       ??_7?$codecvt@DDH@std@@6B@ 0046c274     dicom:cong.obj
 0002:00003294       ??_C@_0BD@GMHOFHGD@link?4listen?5failed?$AA@ 0046c294     dicom:cong.obj
 0002:000032a8       ??_C@_0BB@FHAPCDKO@?5?5?5?5?5?5?5?5?5?5?5?5?5?5?5?5?$AA@ 0046c2a8     dicom:cong.obj
 0002:000032bc       ??_C@_0BO@JMHPGLEO@Query?5received?5cancel?5request?$AA@ 0046c2bc     dicom:cong.obj
 0002:000032e0       ??_7?$basic_ifstream@DU?$char_traits@D@std@@@std@@6B@ 0046c2e0     dicom:cong.obj
 0002:000032e4       ??_8?$basic_istream@DU?$char_traits@D@std@@@std@@7B@ 0046c2e4     dicom:cong.obj
 0002:000032ec       ??_8?$basic_ifstream@DU?$char_traits@D@std@@@std@@7B@ 0046c2ec     dicom:cong.obj
 0002:000032f4       ??_C@_0BL@MBECKDLH@Error?5while?5closing?5?$CFs?3?5?$CFs?$AA@ 0046c2f4     dicom:cong.obj
 0002:00003310       ??_C@_0BA@EOIHFEPB@Unknown?5error?4?6?$AA@ 0046c310     dicom:cong.obj
 0002:00003320       ??_C@_0BH@OAFKBLMM@The?5file?5?$CFs?5is?5to?5big?6?$AA@ 0046c320     dicom:cong.obj
 0002:00003338       ??_C@_0BG@GCFCHMHH@The?5file?5?$CFs?5is?5empty?6?$AA@ 0046c338     dicom:cong.obj
 0002:00003350       ??_C@_0BK@CHDFMDIF@Error?5reading?5file?5?$CFs?3?5?$CFs?$AA@ 0046c350     dicom:cong.obj
 0002:0000336c       ??_C@_0BM@PIGDGPMA@Memory?5allocation?5error?3?5?$CFs?$AA@ 0046c36c     dicom:cong.obj
 0002:00003388       ??_C@_0BB@PKPDJFHD@?$CFs?5is?5not?5a?5file?$AA@ 0046c388     dicom:cong.obj
 0002:0000339c       ??_C@_0CA@CACEHCOM@Can?5not?5get?5the?5size?5of?5?$CFs?3?5?$CFs?6?$AA@ 0046c39c     dicom:cong.obj
 0002:000033bc       ??_C@_0CF@JKODLJEC@Can?5not?5open?5the?5needed?5file?5?$CFs?3@ 0046c3bc     dicom:cong.obj
 0002:000033e4       ??_C@_0BA@GHHIKPKP@Invalid?5handle?6?$AA@ 0046c3e4     dicom:cong.obj
 0002:000033f4       ?ProcessDetach@NativeDll@<CrtImplementationDetails>@@0IB 0046c3f4     LIBCMT:trnsctrl.obj
 0002:000033f8       ?ProcessAttach@NativeDll@<CrtImplementationDetails>@@0IB 0046c3f8     LIBCMT:trnsctrl.obj
 0002:000033fc       ?ThreadAttach@NativeDll@<CrtImplementationDetails>@@0IB 0046c3fc     LIBCMT:trnsctrl.obj
 0002:00003400       ?ThreadDetach@NativeDll@<CrtImplementationDetails>@@0IB 0046c400     LIBCMT:trnsctrl.obj
 0002:00003404       ?ProcessVerifier@NativeDll@<CrtImplementationDetails>@@0IB 0046c404     LIBCMT:trnsctrl.obj
 0002:0000340c       ??_7type_info@@6B@         0046c40c     LIBCMT:typinfo.obj
 0002:00003410       ??_C@_0P@MIGLKIOC@CorExitProcess?$AA@ 0046c410     LIBCMT:crt0dat.obj
 0002:00003420       ??_C@_0M@MBOPBNBK@mscoree?4dll?$AA@ 0046c420     LIBCMT:crt0dat.obj
 0002:00003430       ??_7exception@std@@6B@     0046c430     LIBCMT:stdexcpt.obj
 0002:00003438       ??_C@_0BC@EOODALEL@Unknown?5exception?$AA@ 0046c438     LIBCMT:stdexcpt.obj
 0002:00003450       ??_7bad_cast@std@@6B@      0046c450     LIBCMT:stdexcpt.obj
 0002:0000345c       ??_7bad_typeid@std@@6B@    0046c45c     LIBCMT:stdexcpt.obj
 0002:00003468       ??_7__non_rtti_object@std@@6B@ 0046c468     LIBCMT:stdexcpt.obj
 0002:00003490       ??_C@_0EA@FCLIIPNN@Visual?5C?$CL?$CL?5CRT?3?5Not?5enough?5memor@ 0046c490     LIBCMT:strerror.obj
 0002:000034d0       ??_C@_1O@CEDCILHN@?$AA?$CI?$AAn?$AAu?$AAl?$AAl?$AA?$CJ?$AA?$AA@ 0046c4d0     LIBCMT:output.obj
 0002:000034e0       ___lookuptable             0046c4e0     LIBCMT:output.obj
 0002:00003544       __pDestructExceptionObject 0046c544     LIBCMT:frame.obj
 0002:0000354c       ??_7bad_exception@std@@6B@ 0046c54c     LIBCMT:frame.obj
 0002:00003554       ??_C@_0O@DPKOEFFH@bad?5exception?$AA@ 0046c554     LIBCMT:frame.obj
 0002:00003564       ??_C@_07EPKMNAGK@?4mixcrt?$AA@ 0046c564     LIBCMT:tidtable.obj
 0002:0000356c       ??_C@_0O@NLDKAIKN@EncodePointer?$AA@ 0046c56c     LIBCMT:tidtable.obj
 0002:0000357c       ??_C@_0N@NHGLKGEC@KERNEL32?4DLL?$AA@ 0046c57c     LIBCMT:tidtable.obj
 0002:0000358c       ??_C@_0O@KBPMFGHI@DecodePointer?$AA@ 0046c58c     LIBCMT:tidtable.obj
 0002:0000359c       ??_C@_07PEJMOBNF@FlsFree?$AA@ 0046c59c     LIBCMT:tidtable.obj
 0002:000035a4       ??_C@_0M@JCPCPOEF@FlsSetValue?$AA@ 0046c5a4     LIBCMT:tidtable.obj
 0002:000035b0       ??_C@_0M@GDNOONDI@FlsGetValue?$AA@ 0046c5b0     LIBCMT:tidtable.obj
 0002:000035bc       ??_C@_08KNHFBNJ@FlsAlloc?$AA@ 0046c5bc     LIBCMT:tidtable.obj
 0002:000035c8       ??_C@_0P@GGKDKEEG@runtime?5error?5?$AA@ 0046c5c8     LIBCMT:crt0msg.obj
 0002:000035d8       ??_C@_02PCIJFNDE@?$AN?6?$AA@ 0046c5d8     LIBCMT:crt0msg.obj
 0002:000035dc       ??_C@_0O@MJNIPGOH@TLOSS?5error?$AN?6?$AA@ 0046c5dc     LIBCMT:crt0msg.obj
 0002:000035ec       ??_C@_0N@BONNPDHF@SING?5error?$AN?6?$AA@ 0046c5ec     LIBCMT:crt0msg.obj
 0002:000035fc       ??_C@_0P@MBDAJNE@DOMAIN?5error?$AN?6?$AA@ 0046c5fc     LIBCMT:crt0msg.obj
 0002:00003610       ??_C@_0JL@DFDOOABL@R6034?$AN?6An?5application?5has?5made?5a@ 0046c610     LIBCMT:crt0msg.obj
 0002:000036b0       ??_C@_0PH@EPAFIJ@R6033?$AN?6?9?5Attempt?5to?5use?5MSIL?5cod@ 0046c6b0     LIBCMT:crt0msg.obj
 0002:000037a8       ??_C@_0DD@BKEEABMM@R6032?$AN?6?9?5not?5enough?5space?5for?5lo@ 0046c7a8     LIBCMT:crt0msg.obj
 0002:000037e0       ??_C@_0GD@OFKILIED@R6031?$AN?6?9?5Attempt?5to?5initialize?5t@ 0046c7e0     LIBCMT:crt0msg.obj
 0002:00003844       ??_C@_0BP@LPMHJOKI@R6030?$AN?6?9?5CRT?5not?5initialized?$AN?6?$AA@ 0046c844     LIBCMT:crt0msg.obj
 0002:00003864       ??_C@_0CF@KJDAIALP@R6028?$AN?6?9?5unable?5to?5initialize?5he@ 0046c864     LIBCMT:crt0msg.obj
 0002:0000388c       ??_C@_0DF@GAKBPDFP@R6027?$AN?6?9?5not?5enough?5space?5for?5lo@ 0046c88c     LIBCMT:crt0msg.obj
 0002:000038c4       ??_C@_0DF@IBLNNAIG@R6026?$AN?6?9?5not?5enough?5space?5for?5st@ 0046c8c4     LIBCMT:crt0msg.obj
 0002:000038fc       ??_C@_0CG@IOHKGFNJ@R6025?$AN?6?9?5pure?5virtual?5function?5c@ 0046c8fc     LIBCMT:crt0msg.obj
 0002:00003924       ??_C@_0DF@JIJJFJDC@R6024?$AN?6?9?5not?5enough?5space?5for?5_o@ 0046c924     LIBCMT:crt0msg.obj
 0002:0000395c       ??_C@_0CJ@EGEJHFME@R6019?$AN?6?9?5unable?5to?5open?5console?5@ 0046c95c     LIBCMT:crt0msg.obj
 0002:00003988       ??_C@_0CB@GNHNIELH@R6018?$AN?6?9?5unexpected?5heap?5error?$AN?6@ 0046c988     LIBCMT:crt0msg.obj
 0002:000039ac       ??_C@_0CN@FOLDKNG@R6017?$AN?6?9?5unexpected?5multithread?5@ 0046c9ac     LIBCMT:crt0msg.obj
 0002:000039dc       ??_C@_0CM@FAHFJNHO@R6016?$AN?6?9?5not?5enough?5space?5for?5th@ 0046c9dc     LIBCMT:crt0msg.obj
 0002:00003a08       ??_C@_0JG@LBKMGKLD@?$AN?6This?5application?5has?5requested@ 0046ca08     LIBCMT:crt0msg.obj
 0002:00003aa0       ??_C@_0CM@FLCNIPKK@R6009?$AN?6?9?5not?5enough?5space?5for?5en@ 0046caa0     LIBCMT:crt0msg.obj
 0002:00003acc       ??_C@_0CK@KMMJOAPP@R6008?$AN?6?9?5not?5enough?5space?5for?5ar@ 0046cacc     LIBCMT:crt0msg.obj
 0002:00003af8       ??_C@_0CN@LEKKICBM@R6002?$AN?6?9?5floating?5point?5support?5@ 0046caf8     LIBCMT:crt0msg.obj
 0002:00003b28       ??_C@_0CF@GOGNBNAK@Microsoft?5Visual?5C?$CL?$CL?5Runtime?5Lib@ 0046cb28     LIBCMT:crt0msg.obj
 0002:00003b50       ??_C@_02PHMGELLB@?6?6?$AA@ 0046cb50     LIBCMT:crt0msg.obj
 0002:00003b54       ??_C@_03KHICJKCI@?4?4?4?$AA@ 0046cb54     LIBCMT:crt0msg.obj
 0002:00003b58       ??_C@_0BH@DNAGHKFM@?$DMprogram?5name?5unknown?$DO?$AA@ 0046cb58     LIBCMT:crt0msg.obj
 0002:00003b70       ??_C@_0BK@OFGJDLJJ@Runtime?5Error?$CB?6?6Program?3?5?$AA@ 0046cb70     LIBCMT:crt0msg.obj
 0002:00003b8c       ??_C@_0BC@JEAENNKH@SystemFunction036?$AA@ 0046cb8c     LIBCMT:rand_s.obj
 0002:00003ba0       ??_C@_0N@JJPEKNFO@ADVAPI32?4DLL?$AA@ 0046cba0     LIBCMT:rand_s.obj
 0002:00003bb0       ??_C@_0CG@PKBDLMEO@InitializeCriticalSectionAndSpin@ 0046cbb0     LIBCMT:initcrit.obj
 0002:00003bd8       ??_C@_0N@MDJJJHMB@kernel32?4dll?$AA@ 0046cbd8     LIBCMT:initcrit.obj
 0002:00003c0c       ??_C@_0BG@KLEAJEFJ@Illegal?5byte?5sequence?$AA@ 0046cc0c     LIBCMT:syserr.obj
 0002:00003c24       ??_C@_0BE@ICMCHPHH@Directory?5not?5empty?$AA@ 0046cc24     LIBCMT:syserr.obj
 0002:00003c38       ??_C@_0BJ@IHEHINLI@Function?5not?5implemented?$AA@ 0046cc38     LIBCMT:syserr.obj
 0002:00003c54       ??_C@_0BD@CLHBCGPB@No?5locks?5available?$AA@ 0046cc54     LIBCMT:syserr.obj
 0002:00003c68       ??_C@_0BC@BEDIHIDK@Filename?5too?5long?$AA@ 0046cc68     LIBCMT:syserr.obj
 0002:00003c7c       ??_C@_0BK@JAEBMJJM@Resource?5deadlock?5avoided?$AA@ 0046cc7c     LIBCMT:syserr.obj
 0002:00003c98       ??_C@_0BB@FCBJFCAJ@Result?5too?5large?$AA@ 0046cc98     LIBCMT:syserr.obj
 0002:00003cac       ??_C@_0N@MMJPGLJK@Domain?5error?$AA@ 0046ccac     LIBCMT:syserr.obj
 0002:00003cbc       ??_C@_0M@LHEPIIOM@Broken?5pipe?$AA@ 0046ccbc     LIBCMT:syserr.obj
 0002:00003cc8       ??_C@_0P@PKCJJLLM@Too?5many?5links?$AA@ 0046ccc8     LIBCMT:syserr.obj
 0002:00003cd8       ??_C@_0BG@DDBFNKBH@Read?9only?5file?5system?$AA@ 0046ccd8     LIBCMT:syserr.obj
 0002:00003cf0       ??_C@_0N@FEHLOILP@Invalid?5seek?$AA@ 0046ccf0     LIBCMT:syserr.obj
 0002:00003d00       ??_C@_0BI@FEALHKLD@No?5space?5left?5on?5device?$AA@ 0046cd00     LIBCMT:syserr.obj
 0002:00003d18       ??_C@_0P@LFMMIPAE@File?5too?5large?$AA@ 0046cd18     LIBCMT:syserr.obj
 0002:00003d28       ??_C@_0CE@ONOKNLPF@Inappropriate?5I?1O?5control?5operat@ 0046cd28     LIBCMT:syserr.obj
 0002:00003d4c       ??_C@_0BE@INBJMKGG@Too?5many?5open?5files?$AA@ 0046cd4c     LIBCMT:syserr.obj
 0002:00003d60       ??_C@_0BO@IIFBODJE@Too?5many?5open?5files?5in?5system?$AA@ 0046cd60     LIBCMT:syserr.obj
 0002:00003d80       ??_C@_0BB@HMGGCEBG@Invalid?5argument?$AA@ 0046cd80     LIBCMT:syserr.obj
 0002:00003d94       ??_C@_0P@NDHGCGKE@Is?5a?5directory?$AA@ 0046cd94     LIBCMT:syserr.obj
 0002:00003da4       ??_C@_0BA@CJBACOOL@Not?5a?5directory?$AA@ 0046cda4     LIBCMT:syserr.obj
 0002:00003db4       ??_C@_0P@NLEIANHE@No?5such?5device?$AA@ 0046cdb4     LIBCMT:syserr.obj
 0002:00003dc4       ??_C@_0O@OAMDNOCP@Improper?5link?$AA@ 0046cdc4     LIBCMT:syserr.obj
 0002:00003dd4       ??_C@_0M@NAAJNNGH@File?5exists?$AA@ 0046cdd4     LIBCMT:syserr.obj
 0002:00003de0       ??_C@_0BA@BIBLIOEK@Resource?5device?$AA@ 0046cde0     LIBCMT:syserr.obj
 0002:00003df0       ??_C@_0O@NIPGCINC@Unknown?5error?$AA@ 0046cdf0     LIBCMT:syserr.obj
 0002:00003e00       ??_C@_0M@LOEHLCJD@Bad?5address?$AA@ 0046ce00     LIBCMT:syserr.obj
 0002:00003e0c       ??_C@_0BC@HFNFNKAI@Permission?5denied?$AA@ 0046ce0c     LIBCMT:syserr.obj
 0002:00003e20       ??_C@_0BB@IMDKMPFB@Not?5enough?5space?$AA@ 0046ce20     LIBCMT:syserr.obj
 0002:00003e34       ??_C@_0CB@EPFKGNAK@Resource?5temporarily?5unavailable@ 0046ce34     LIBCMT:syserr.obj
 0002:00003e58       ??_C@_0BD@LOHELEP@No?5child?5processes?$AA@ 0046ce58     LIBCMT:syserr.obj
 0002:00003e6c       ??_C@_0BE@NFGDDCEF@Bad?5file?5descriptor?$AA@ 0046ce6c     LIBCMT:syserr.obj
 0002:00003e80       ??_C@_0BC@HKPNECK@Exec?5format?5error?$AA@ 0046ce80     LIBCMT:syserr.obj
 0002:00003e94       ??_C@_0BC@MFFGCDFL@Arg?5list?5too?5long?$AA@ 0046ce94     LIBCMT:syserr.obj
 0002:00003ea8       ??_C@_0BK@DPKMCKJ@No?5such?5device?5or?5address?$AA@ 0046cea8     LIBCMT:syserr.obj
 0002:00003ec4       ??_C@_0BD@KKNFOBBD@Input?1output?5error?$AA@ 0046cec4     LIBCMT:syserr.obj
 0002:00003ed8       ??_C@_0BK@FJBOAFDK@Interrupted?5function?5call?$AA@ 0046ced8     LIBCMT:syserr.obj
 0002:00003ef4       ??_C@_0BA@FKIAIBGA@No?5such?5process?$AA@ 0046cef4     LIBCMT:syserr.obj
 0002:00003f04       ??_C@_0BK@FMDHKPNF@No?5such?5file?5or?5directory?$AA@ 0046cf04     LIBCMT:syserr.obj
 0002:00003f20       ??_C@_0BI@BJFCGOHL@Operation?5not?5permitted?$AA@ 0046cf20     LIBCMT:syserr.obj
 0002:00003f38       ??_C@_08INEPGKHH@No?5error?$AA@ 0046cf38     LIBCMT:syserr.obj
 0002:00003f44       ??_C@_07LCBHPJJN@LC_TIME?$AA@ 0046cf44     LIBCMT:setlocal.obj
 0002:00003f4c       ??_C@_0L@DLHIECNL@LC_NUMERIC?$AA@ 0046cf4c     LIBCMT:setlocal.obj
 0002:00003f58       ??_C@_0M@MIENIKLA@LC_MONETARY?$AA@ 0046cf58     LIBCMT:setlocal.obj
 0002:00003f64       ??_C@_08EADHIDAD@LC_CTYPE?$AA@ 0046cf64     LIBCMT:setlocal.obj
 0002:00003f70       ??_C@_0L@KFJHEKIK@LC_COLLATE?$AA@ 0046cf70     LIBCMT:setlocal.obj
 0002:00003f7c       ??_C@_06NEFDFEKB@LC_ALL?$AA@ 0046cf7c     LIBCMT:setlocal.obj
 0002:00003f88       ___lc_category             0046cf88     LIBCMT:setlocal.obj
 0002:00004050       ??_C@_03EGDHDPFD@_?4?0?$AA@ 0046d050     LIBCMT:setlocal.obj
 0002:00004054       ??_C@_01LFCBOECM@?4?$AA@   0046d054     LIBCMT:setlocal.obj
 0002:00004058       ??_C@_01IDAFKMJL@_?$AA@    0046d058     LIBCMT:setlocal.obj
 0002:0000405c       ??_C@_01ICJEACDI@?$DL?$AA@ 0046d05c     LIBCMT:setlocal.obj
 0002:00004060       ??_C@_01NEMOKFLO@?$DN?$AA@ 0046d060     LIBCMT:setlocal.obj
 0002:00004064       ??_C@_02BALPLPBG@?$DN?$DL?$AA@ 0046d064     LIBCMT:setlocal.obj
 0002:00004068       ___lookuptable_s           0046d068     LIBCMT:outputs.obj
 0002:000040c4       ??_C@_0BK@CFCOFLF@?5Complete?5Object?5Locator?8?$AA@ 0046d0c4     LIBCMT:undname.obj
 0002:000040e0       ??_C@_0BN@MECKDCOJ@?5Class?5Hierarchy?5Descriptor?8?$AA@ 0046d0e0     LIBCMT:undname.obj
 0002:00004100       ??_C@_0BD@LGICGFMM@?5Base?5Class?5Array?8?$AA@ 0046d100     LIBCMT:undname.obj
 0002:00004114       ??_C@_0BM@LDKODKLH@?5Base?5Class?5Descriptor?5at?5?$CI?$AA@ 0046d114     LIBCMT:undname.obj
 0002:00004130       ??_C@_0BC@DAFEJGAK@?5Type?5Descriptor?8?$AA@ 0046d130     LIBCMT:undname.obj
 0002:00004144       ??_C@_0BM@PMGGMLDN@?$GAlocal?5static?5thread?5guard?8?$AA@ 0046d144     LIBCMT:undname.obj
 0002:00004160       ??_C@_0CL@FGIJHLCE@?$GAmanaged?5vector?5copy?5constructor@ 0046d160     LIBCMT:undname.obj
 0002:0000418c       ??_C@_0CJ@GJELGAMM@?$GAvector?5vbase?5copy?5constructor?5i@ 0046d18c     LIBCMT:undname.obj
 0002:000041b8       ??_C@_0CD@CGAJBKEJ@?$GAvector?5copy?5constructor?5iterato@ 0046d1b8     LIBCMT:undname.obj
 0002:000041dc       ??_C@_0CB@PDBIFEP@?$GAdynamic?5atexit?5destructor?5for?5?8@ 0046d1dc     LIBCMT:undname.obj
 0002:00004200       ??_C@_0BL@CLIPGLGB@?$GAdynamic?5initializer?5for?5?8?$AA@ 0046d200     LIBCMT:undname.obj
 0002:0000421c       ??_C@_0CM@FCBBDIGB@?$GAeh?5vector?5vbase?5copy?5constructo@ 0046d21c     LIBCMT:undname.obj
 0002:00004248       ??_C@_0CG@HLDDJMAG@?$GAeh?5vector?5copy?5constructor?5iter@ 0046d248     LIBCMT:undname.obj
 0002:00004270       ??_C@_0CF@IMGKMJNO@?$GAmanaged?5vector?5destructor?5itera@ 0046d270     LIBCMT:undname.obj
 0002:00004298       ??_C@_0CG@CFDHKGGD@?$GAmanaged?5vector?5constructor?5iter@ 0046d298     LIBCMT:undname.obj
 0002:000042c0       ??_C@_0BN@CKNJLHMB@?$GAplacement?5delete?$FL?$FN?5closure?8?$AA@ 0046d2c0     LIBCMT:undname.obj
 0002:000042e0       ??_C@_0BL@CNOONJFP@?$GAplacement?5delete?5closure?8?$AA@ 0046d2e0     LIBCMT:undname.obj
 0002:000042fc       ??_C@_0P@HJKNJFNN@?$GAomni?5callsig?8?$AA@ 0046d2fc     LIBCMT:undname.obj
 0002:0000430c       ??_C@_09LBNFPBCA@?5delete?$FL?$FN?$AA@ 0046d30c     LIBCMT:undname.obj
 0002:00004318       ??_C@_06FHBGPFGH@?5new?$FL?$FN?$AA@ 0046d318     LIBCMT:undname.obj
 0002:00004320       ??_C@_0CE@IIHCMGGL@?$GAlocal?5vftable?5constructor?5closu@ 0046d320     LIBCMT:undname.obj
 0002:00004344       ??_C@_0BA@KKLDJDLB@?$GAlocal?5vftable?8?$AA@ 0046d344     LIBCMT:undname.obj
 0002:00004354       ??_C@_05KHLCHHI@?$GARTTI?$AA@ 0046d354     LIBCMT:undname.obj
 0002:0000435c       ??_C@_03KLGMFNMG@?$GAEH?$AA@ 0046d35c     LIBCMT:undname.obj
 0002:00004360       ??_C@_0BA@KBCDOMBN@?$GAudt?5returning?8?$AA@ 0046d360     LIBCMT:undname.obj
 0002:00004370       ??_C@_0BL@LLKPOHJI@?$GAcopy?5constructor?5closure?8?$AA@ 0046d370     LIBCMT:undname.obj
 0002:0000438c       ??_C@_0CH@OOJPLCPH@?$GAeh?5vector?5vbase?5constructor?5ite@ 0046d38c     LIBCMT:undname.obj
 0002:000043b4       ??_C@_0CA@GCEOPDGL@?$GAeh?5vector?5destructor?5iterator?8?$AA@ 0046d3b4     LIBCMT:undname.obj
 0002:000043d4       ??_C@_0CB@JONCMFFK@?$GAeh?5vector?5constructor?5iterator?8@ 0046d3d4     LIBCMT:undname.obj
 0002:000043f8       ??_C@_0BL@NILFHHPC@?$GAvirtual?5displacement?5map?8?$AA@ 0046d3f8     LIBCMT:undname.obj
 0002:00004414       ??_C@_0CE@IKBNEHA@?$GAvector?5vbase?5constructor?5iterat@ 0046d414     LIBCMT:undname.obj
 0002:00004438       ??_C@_0BN@LFPFMEDL@?$GAvector?5destructor?5iterator?8?$AA@ 0046d438     LIBCMT:undname.obj
 0002:00004458       ??_C@_0BO@PFGOCPJJ@?$GAvector?5constructor?5iterator?8?$AA@ 0046d458     LIBCMT:undname.obj
 0002:00004478       ??_C@_0BN@IMDCHIKM@?$GAscalar?5deleting?5destructor?8?$AA@ 0046d478     LIBCMT:undname.obj
 0002:00004498       ??_C@_0BO@OBMKPJIG@?$GAdefault?5constructor?5closure?8?$AA@ 0046d498     LIBCMT:undname.obj
 0002:000044b8       ??_C@_0BN@DEGPLNFK@?$GAvector?5deleting?5destructor?8?$AA@ 0046d4b8     LIBCMT:undname.obj
 0002:000044d8       ??_C@_0BD@JDLKDPAB@?$GAvbase?5destructor?8?$AA@ 0046d4d8     LIBCMT:undname.obj
 0002:000044ec       ??_C@_08OBABFOLI@?$GAstring?8?$AA@ 0046d4ec     LIBCMT:undname.obj
 0002:000044f8       ??_C@_0BF@KDPPACIK@?$GAlocal?5static?5guard?8?$AA@ 0046d4f8     LIBCMT:undname.obj
 0002:00004510       ??_C@_08LLFFHHDJ@?$GAtypeof?8?$AA@ 0046d510     LIBCMT:undname.obj
 0002:0000451c       ??_C@_07FEEIOKP@?$GAvcall?8?$AA@ 0046d51c     LIBCMT:undname.obj
 0002:00004524       ??_C@_09BLBHBJP@?$GAvbtable?8?$AA@ 0046d524     LIBCMT:undname.obj
 0002:00004530       ??_C@_09IFPLHPGF@?$GAvftable?8?$AA@ 0046d530     LIBCMT:undname.obj
 0002:0000453c       ??_C@_02MHEGNOJ@?$FO?$DN?$AA@ 0046d53c     LIBCMT:undname.obj
 0002:00004540       ??_C@_02DHLNPPGH@?$HM?$DN?$AA@ 0046d540     LIBCMT:undname.obj
 0002:00004544       ??_C@_02FGJGFEAB@?$CG?$DN?$AA@ 0046d544     LIBCMT:undname.obj
 0002:00004548       ??_C@_03CDNPDDLA@?$DM?$DM?$DN?$AA@ 0046d548     LIBCMT:undname.obj
 0002:0000454c       ??_C@_03IKFCCPFF@?$DO?$DO?$DN?$AA@ 0046d54c     LIBCMT:undname.obj
 0002:00004550       ??_C@_02FENAOKFI@?$CF?$DN?$AA@ 0046d550     LIBCMT:undname.obj
 0002:00004554       ??_C@_02FJEHGPIO@?1?$DN?$AA@ 0046d554     LIBCMT:undname.obj
 0002:00004558       ??_C@_02FKMDLLOA@?9?$DN?$AA@ 0046d558     LIBCMT:undname.obj
 0002:0000455c       ??_C@_02FOEOMHFC@?$CL?$DN?$AA@ 0046d55c     LIBCMT:undname.obj
 0002:00004560       ??_C@_02FPIMKNGF@?$CK?$DN?$AA@ 0046d560     LIBCMT:undname.obj
 0002:00004564       ??_C@_02NONPIBCD@?$HM?$HM?$AA@ 0046d564     LIBCMT:undname.obj
 0002:00004568       ??_C@_02PPKAJPJL@?$CG?$CG?$AA@ 0046d568     LIBCMT:undname.obj
 0002:0000456c       ??_C@_01DNKMNLPK@?$HM?$AA@ 0046d56c     LIBCMT:undname.obj
 0002:00004570       ??_C@_01JKBOJNNK@?$FO?$AA@ 0046d570     LIBCMT:undname.obj
 0002:00004574       ??_C@_01PJKLJHI@?$HO?$AA@  0046d574     LIBCMT:undname.obj
 0002:00004578       ??_C@_02HCKGKOFO@?$CI?$CJ?$AA@ 0046d578     LIBCMT:undname.obj
 0002:0000457c       ??_C@_01IHBHIGKO@?0?$AA@   0046d57c     LIBCMT:undname.obj
 0002:00004580       ??_C@_02EEKDKGMJ@?$DO?$DN?$AA@ 0046d580     LIBCMT:undname.obj
 0002:00004584       ??_C@_01PPODPGHN@?$DO?$AA@ 0046d584     LIBCMT:undname.obj
 0002:00004588       ??_C@_02EHCHHCKH@?$DM?$DN?$AA@ 0046d588     LIBCMT:undname.obj
 0002:0000458c       ??_C@_01MNNFJEPP@?$DM?$AA@ 0046d58c     LIBCMT:undname.obj
 0002:00004590       ??_C@_01FGNFDNOH@?$CF?$AA@ 0046d590     LIBCMT:undname.obj
 0002:00004594       ??_C@_01KMDKNFGN@?1?$AA@   0046d594     LIBCMT:undname.obj
 0002:00004598       ??_C@_03MNHNFDLC@?9?$DO?$CK?$AA@ 0046d598     LIBCMT:undname.obj
 0002:0000459c       ??_C@_01HNPIGOCE@?$CG?$AA@ 0046d59c     LIBCMT:undname.obj
 0002:000045a0       ??_C@_01MIFGBAGJ@?$CL?$AA@ 0046d5a0     LIBCMT:undname.obj
 0002:000045a4       ??_C@_01JOAMLHOP@?9?$AA@   0046d5a4     LIBCMT:undname.obj
 0002:000045a8       ??_C@_02BAABKJLB@?9?9?$AA@ 0046d5a8     LIBCMT:undname.obj
 0002:000045ac       ??_C@_02ECNGHCIF@?$CL?$CL?$AA@ 0046d5ac     LIBCMT:undname.obj
 0002:000045b0       ??_C@_01NBENCBCI@?$CK?$AA@ 0046d5b0     LIBCMT:undname.obj
 0002:000045b4       ??_C@_02HBOOOICD@?9?$DO?$AA@ 0046d5b4     LIBCMT:undname.obj
 0002:000045b8       ??_C@_08LHJFAFGD@operator?$AA@ 0046d5b8     LIBCMT:undname.obj
 0002:000045c4       ??_C@_02GPECMEKF@?$FL?$FN?$AA@ 0046d5c4     LIBCMT:undname.obj
 0002:000045c8       ??_C@_02FDNJECIE@?$CB?$DN?$AA@ 0046d5c8     LIBCMT:undname.obj
 0002:000045cc       ??_C@_02EGOFBIJA@?$DN?$DN?$AA@ 0046d5cc     LIBCMT:undname.obj
 0002:000045d0       ??_C@_01DCLJPIOD@?$CB?$AA@ 0046d5d0     LIBCMT:undname.obj
 0002:000045d4       ??_C@_02FODMEDOG@?$DM?$DM?$AA@ 0046d5d4     LIBCMT:undname.obj
 0002:000045d8       ??_C@_02GPIOPFAK@?$DO?$DO?$AA@ 0046d5d8     LIBCMT:undname.obj
 0002:000045dc       ??_C@_07FPCDHGMM@?5delete?$AA@ 0046d5dc     LIBCMT:undname.obj
 0002:000045e4       ??_C@_04NIHEBCM@?5new?$AA@ 0046d5e4     LIBCMT:undname.obj
 0002:000045ec       ??_C@_0M@GFIIJFMG@__unaligned?$AA@ 0046d5ec     LIBCMT:undname.obj
 0002:000045f8       ??_C@_0L@PILCLIHE@__restrict?$AA@ 0046d5f8     LIBCMT:undname.obj
 0002:00004604       ??_C@_07JOMMBBKO@__ptr64?$AA@ 0046d604     LIBCMT:undname.obj
 0002:0000460c       ??_C@_09HIJEGCPM@__clrcall?$AA@ 0046d60c     LIBCMT:undname.obj
 0002:00004618       ??_C@_0L@JMKHOMEK@__fastcall?$AA@ 0046d618     LIBCMT:undname.obj
 0002:00004624       ??_C@_0L@NPHFGOKO@__thiscall?$AA@ 0046d624     LIBCMT:undname.obj
 0002:00004630       ??_C@_09IFJBGAPI@__stdcall?$AA@ 0046d630     LIBCMT:undname.obj
 0002:0000463c       ??_C@_08GHMPAG@__pascal?$AA@ 0046d63c     LIBCMT:undname.obj
 0002:00004648       ??_C@_07KOLFKCDI@__cdecl?$AA@ 0046d648     LIBCMT:undname.obj
 0002:00004650       ??_C@_08EHJDFFNH@__based?$CI?$AA@ 0046d650     LIBCMT:undname.obj
 0002:000047e4       ??_7DNameNode@@6B@         0046d7e4     LIBCMT:undname.obj
 0002:000047f4       ??_7charNode@@6B@          0046d7f4     LIBCMT:undname.obj
 0002:00004804       ??_7pDNameNode@@6B@        0046d804     LIBCMT:undname.obj
 0002:00004814       ??_7DNameStatusNode@@6B@   0046d814     LIBCMT:undname.obj
 0002:00004824       ??_7pcharNode@@6B@         0046d824     LIBCMT:undname.obj
 0002:00004830       ??_C@_04OKOHEJBO@?5?$DP?$DP?5?$AA@ 0046d830     LIBCMT:undname.obj
 0002:00004838       ??_C@_06EEGAIFAK@?$HLflat?$HN?$AA@ 0046d838     LIBCMT:undname.obj
 0002:00004840       ??_C@_05JIBOFOHK@?$HLfor?5?$AA@ 0046d840     LIBCMT:undname.obj
 0002:00004848       ??_C@_0BN@IBLMMFAP@?$GAnon?9type?9template?9parameter?$AA@ 0046d848     LIBCMT:undname.obj
 0002:00004868       ??_C@_09EBBEKKIH@unsigned?5?$AA@ 0046d868     LIBCMT:undname.obj
 0002:00004874       ??_C@_05CJIMAING@long?5?$AA@ 0046d874     LIBCMT:undname.obj
 0002:0000487c       ??_C@_04LAHKHJMA@int?5?$AA@ 0046d87c     LIBCMT:undname.obj
 0002:00004884       ??_C@_06EHJMALKF@short?5?$AA@ 0046d884     LIBCMT:undname.obj
 0002:0000488c       ??_C@_05CIHEBHNO@char?5?$AA@ 0046d88c     LIBCMT:undname.obj
 0002:00004894       ??_C@_04GKJNKENE@void?$AA@ 0046d894     LIBCMT:undname.obj
 0002:0000489c       ??_C@_0L@EGPHHEKN@?$DMellipsis?$DO?$AA@ 0046d89c     LIBCMT:undname.obj
 0002:000048a8       ??_C@_0M@ELJOJFFH@?0?$DMellipsis?$DO?$AA@ 0046d8a8     LIBCMT:undname.obj
 0002:000048b4       ??_C@_04EENFHACM@?0?4?4?4?$AA@ 0046d8b4     LIBCMT:undname.obj
 0002:000048bc       ??_C@_07HDJPLPEK@?5throw?$CI?$AA@ 0046d8bc     LIBCMT:undname.obj
 0002:000048c4       ??_C@_02GOGNNPBN@?$CJ?$FL?$AA@ 0046d8c4     LIBCMT:undname.obj
 0002:000048c8       ??_C@_02MDINNEEG@s?5?$AA@  0046d8c8     LIBCMT:undname.obj
 0002:000048cc       ??_C@_0BE@EODMJLIF@?$GAtemplate?9parameter?$AA@ 0046d8cc     LIBCMT:undname.obj
 0002:000048e0       ??_C@_01GEODFPGF@?8?$AA@   0046d8e0     LIBCMT:undname.obj
 0002:000048e4       ??_C@_04HIBGFPH@NULL?$AA@  0046d8e4     LIBCMT:undname.obj
 0002:000048ec       ??_C@_0O@GKABPPIF@cli?3?3pin_ptr?$DM?$AA@ 0046d8ec     LIBCMT:undname.obj
 0002:000048fc       ??_C@_0M@EALIELKG@cli?3?3array?$DM?$AA@ 0046d8fc     LIBCMT:undname.obj
 0002:00004908       ??_C@_05BEFAKPML@void?5?$AA@ 0046d908     LIBCMT:undname.obj
 0002:00004910       ??_C@_02OHHJMEON@?8?8?$AA@ 0046d910     LIBCMT:undname.obj
 0002:00004914       ??_C@_0BG@JNJLAMPM@?$GAanonymous?5namespace?8?$AA@ 0046d914     LIBCMT:undname.obj
 0002:0000492c       ??_C@_01NLNLIGKH@?$GA?$AA@ 0046d92c     LIBCMT:undname.obj
 0002:00004930       ??_C@_0O@KHGCOMHP@generic?9type?9?$AA@ 0046d930     LIBCMT:undname.obj
 0002:00004940       ??_C@_0BE@JAEOCHPE@template?9parameter?9?$AA@ 0046d940     LIBCMT:undname.obj
 0002:00004954       ??_C@_02MOLJINC@?3?3?$AA@  0046d954     LIBCMT:undname.obj
 0002:00004958       ??_C@_0P@GCIFDJCJ@?$GAunknown?5ecsu?8?$AA@ 0046d958     LIBCMT:undname.obj
 0002:00004968       ??_C@_06MOJHIBMG@union?5?$AA@ 0046d968     LIBCMT:undname.obj
 0002:00004970       ??_C@_07DIBCDNGL@struct?5?$AA@ 0046d970     LIBCMT:undname.obj
 0002:00004978       ??_C@_06LJBABKPM@class?5?$AA@ 0046d978     LIBCMT:undname.obj
 0002:00004980       ??_C@_05LJGMCFOG@enum?5?$AA@ 0046d980     LIBCMT:undname.obj
 0002:00004988       ??_C@_08KOFANOFK@coclass?5?$AA@ 0046d988     LIBCMT:undname.obj
 0002:00004994       ??_C@_0N@DLIEFKNA@cointerface?5?$AA@ 0046d994     LIBCMT:undname.obj
 0002:000049a4       ??_C@_02KCKGHPCA@?$CJ?5?$AA@ 0046d9a4     LIBCMT:undname.obj
 0002:000049a8       ??_C@_0M@DHNBOJMP@extern?5?$CCC?$CC?5?$AA@ 0046d9a8     LIBCMT:undname.obj
 0002:000049b4       ??_C@_08KJLFOPNE@?$FLthunk?$FN?3?$AA@ 0046d9b4     LIBCMT:undname.obj
 0002:000049c0       ??_C@_08GPDDCMKI@public?3?5?$AA@ 0046d9c0     LIBCMT:undname.obj
 0002:000049cc       ??_C@_0M@GAIFPFIP@protected?3?5?$AA@ 0046d9cc     LIBCMT:undname.obj
 0002:000049d8       ??_C@_09LAPHOOG@private?3?5?$AA@ 0046d9d8     LIBCMT:undname.obj
 0002:000049e4       ??_C@_08NIEOINHE@virtual?5?$AA@ 0046d9e4     LIBCMT:undname.obj
 0002:000049f0       ??_C@_07PGOEDBHP@static?5?$AA@ 0046d9f0     LIBCMT:undname.obj
 0002:000049f8       ??_C@_0DA@HGFJFBBE@?$GAtemplate?5static?5data?5member?5des@ 0046d9f8     LIBCMT:undname.obj
 0002:00004a28       ??_C@_0DB@ILEFOCIJ@?$GAtemplate?5static?5data?5member?5con@ 0046da28     LIBCMT:undname.obj
 0002:00004a5c       ??_C@_0CB@KJDOOODE@?$GAlocal?5static?5destructor?5helper?8@ 0046da5c     LIBCMT:undname.obj
 0002:00004a80       ??_C@_0L@HNGCOGAE@?$GAadjustor?$HL?$AA@ 0046da80     LIBCMT:undname.obj
 0002:00004a8c       ??_C@_0L@GHPFDFH@?$GAvtordisp?$HL?$AA@ 0046da8c     LIBCMT:undname.obj
 0002:00004a98       ??_C@_0N@CBHHHENL@?$GAvtordispex?$HL?$AA@ 0046da98     LIBCMT:undname.obj
 0002:00004aa8       ??_C@_02IGFCGPIL@?$HN?8?$AA@ 0046daa8     LIBCMT:undname.obj
 0002:00004aac       ??_C@_03OPGICMGF@?$HN?8?5?$AA@ 0046daac     LIBCMT:undname.obj
 0002:00004ab0       ??_C@_06LIJLOJAG@const?5?$AA@ 0046dab0     LIBCMT:undname.obj
 0002:00004ab8       ??_C@_09GAIEOBLP@volatile?5?$AA@ 0046dab8     LIBCMT:undname.obj
 0002:00004ac4       ??_C@_04HEJADOOB@CV?3?5?$AA@ 0046dac4     LIBCMT:undname.obj
 0002:00004acc       ??_C@_08PABEKFH@volatile?$AA@ 0046dacc     LIBCMT:undname.obj
 0002:00004ad8       ??_C@_09EFNPDFFP@?5volatile?$AA@ 0046dad8     LIBCMT:undname.obj
 0002:00004ae4       ??_C@_05BNCCCJPP@const?$AA@ 0046dae4     LIBCMT:undname.obj
 0002:00004aec       ??_C@_07EDHNAJHC@signed?5?$AA@ 0046daec     LIBCMT:undname.obj
 0002:00004af4       ??_C@_06BNJCAIGJ@double?$AA@ 0046daf4     LIBCMT:undname.obj
 0002:00004afc       ??_C@_04DDKJGDCM@bool?$AA@ 0046dafc     LIBCMT:undname.obj
 0002:00004b04       ??_C@_07CLGGIAMF@wchar_t?$AA@ 0046db04     LIBCMT:undname.obj
 0002:00004b0c       ??_C@_07NFANNNEC@UNKNOWN?$AA@ 0046db0c     LIBCMT:undname.obj
 0002:00004b14       ??_C@_08GAHOLHEO@__int128?$AA@ 0046db14     LIBCMT:undname.obj
 0002:00004b20       ??_C@_07OFLPPHGP@__int32?$AA@ 0046db20     LIBCMT:undname.obj
 0002:00004b28       ??_C@_07LFCOJCAC@__int64?$AA@ 0046db28     LIBCMT:undname.obj
 0002:00004b30       ??_C@_07ICFHOGAF@__int16?$AA@ 0046db30     LIBCMT:undname.obj
 0002:00004b38       ??_C@_06GCICPBLB@__w64?5?$AA@ 0046db38     LIBCMT:undname.obj
 0002:00004b40       ??_C@_06EBGKOKIG@__int8?$AA@ 0046db40     LIBCMT:undname.obj
 0002:00004b48       ??_C@_05KNFBNCOH@float?$AA@ 0046db48     LIBCMT:undname.obj
 0002:00004b50       ??_C@_04GOKPGOLB@long?$AA@ 0046db50     LIBCMT:undname.obj
 0002:00004b58       ??_C@_03JBIPMCLC@int?$AA@  0046db58     LIBCMT:undname.obj
 0002:00004b5c       ??_C@_05BFKKPKCG@short?$AA@ 0046db5c     LIBCMT:undname.obj
 0002:00004b64       ??_C@_04ENMBGAPA@char?$AA@ 0046db64     LIBCMT:undname.obj
 0002:00004b6c       ??_C@_0BI@DFKBFLJE@GetProcessWindowStation?$AA@ 0046db6c     LIBCMT:crtmbox.obj
 0002:00004b84       ??_C@_0BK@CIDNPOGP@GetUserObjectInformationA?$AA@ 0046db84     LIBCMT:crtmbox.obj
 0002:00004ba0       ??_C@_0BD@HHGDFDBJ@GetLastActivePopup?$AA@ 0046dba0     LIBCMT:crtmbox.obj
 0002:00004bb4       ??_C@_0BA@HNOPNCHB@GetActiveWindow?$AA@ 0046dbb4     LIBCMT:crtmbox.obj
 0002:00004bc4       ??_C@_0M@CHKKJDAI@MessageBoxA?$AA@ 0046dbc4     LIBCMT:crtmbox.obj
 0002:00004bd0       ??_C@_0L@NDEGIDAG@USER32?4DLL?$AA@ 0046dbd0     LIBCMT:crtmbox.obj
 0002:00004bdc       ___dnames                  0046dbdc     LIBCMT:timeset.obj
 0002:00004bf4       ___mnames                  0046dbf4     LIBCMT:timeset.obj
 0002:00004c1c       ??_C@_02CLFPBFFP@TZ?$AA@   0046dc1c     LIBCMT:tzset.obj
 0002:00004c20       ??_C@_13NOLLCAOD@?$AA?$AA?$AA?$AA@ 0046dc20     LIBCMT:a_map.obj
 0002:00004c28       ___newctype                0046dc28     LIBCMT:ctype.obj
 0002:00004f28       __wctype                   0046df28     LIBCMT:ctype.obj
 0002:00005130       ___newclmap                0046e130     LIBCMT:ctype.obj
 0002:000052b0       ___newcumap                0046e2b0     LIBCMT:ctype.obj
 0002:00005430       ??_C@_08JCCMCCIL@HH?3mm?3ss?$AA@ 0046e430     LIBCMT:strftime.obj
 0002:0000543c       ??_C@_0BE@CKGJFCPC@dddd?0?5MMMM?5dd?0?5yyyy?$AA@ 0046e43c     LIBCMT:strftime.obj
 0002:00005450       ??_C@_08BPBNCDIB@MM?1dd?1yy?$AA@ 0046e450     LIBCMT:strftime.obj
 0002:0000545c       ??_C@_02CJNFDJBF@PM?$AA@   0046e45c     LIBCMT:strftime.obj
 0002:00005460       ??_C@_02DEDBPAFC@AM?$AA@   0046e460     LIBCMT:strftime.obj
 0002:00005464       ??_C@_08EDHMEBNP@December?$AA@ 0046e464     LIBCMT:strftime.obj
 0002:00005470       ??_C@_08HCHEGEOA@November?$AA@ 0046e470     LIBCMT:strftime.obj
 0002:0000547c       ??_C@_07JJNFCEND@October?$AA@ 0046e47c     LIBCMT:strftime.obj
 0002:00005484       ??_C@_09BHHEALKD@September?$AA@ 0046e484     LIBCMT:strftime.obj
 0002:00005490       ??_C@_06LBBHFDDG@August?$AA@ 0046e490     LIBCMT:strftime.obj
 0002:00005498       ??_C@_04MIEPOIFP@July?$AA@ 0046e498     LIBCMT:strftime.obj
 0002:000054a0       ??_C@_04CNLMGBGM@June?$AA@ 0046e4a0     LIBCMT:strftime.obj
 0002:000054a8       ??_C@_05DMJDNLEJ@April?$AA@ 0046e4a8     LIBCMT:strftime.obj
 0002:000054b0       ??_C@_05HPCKOFNC@March?$AA@ 0046e4b0     LIBCMT:strftime.obj
 0002:000054b8       ??_C@_08GNJGEPFN@February?$AA@ 0046e4b8     LIBCMT:strftime.obj
 0002:000054c4       ??_C@_07CGJPFGJA@January?$AA@ 0046e4c4     LIBCMT:strftime.obj
 0002:000054cc       ??_C@_03MKABNOCG@Dec?$AA@  0046e4cc     LIBCMT:strftime.obj
 0002:000054d0       ??_C@_03JPJOFNIA@Nov?$AA@  0046e4d0     LIBCMT:strftime.obj
 0002:000054d4       ??_C@_03BMAOKBAD@Oct?$AA@  0046e4d4     LIBCMT:strftime.obj
 0002:000054d8       ??_C@_03GGCAPAJC@Sep?$AA@  0046e4d8     LIBCMT:strftime.obj
 0002:000054dc       ??_C@_03IFJFEIGA@Aug?$AA@  0046e4dc     LIBCMT:strftime.obj
 0002:000054e0       ??_C@_03LBGABGKK@Jul?$AA@  0046e4e0     LIBCMT:strftime.obj
 0002:000054e4       ??_C@_03IDFGHECI@Jun?$AA@  0046e4e4     LIBCMT:strftime.obj
 0002:000054e8       ??_C@_03CNMDKL@May?$AA@    0046e4e8     LIBCMT:strftime.obj
 0002:000054ec       ??_C@_03LEOLGMJP@Apr?$AA@  0046e4ec     LIBCMT:strftime.obj
 0002:000054f0       ??_C@_03ODNJBKGA@Mar?$AA@  0046e4f0     LIBCMT:strftime.obj
 0002:000054f4       ??_C@_03HJBDCHOM@Feb?$AA@  0046e4f4     LIBCMT:strftime.obj
 0002:000054f8       ??_C@_03JIHJHPIE@Jan?$AA@  0046e4f8     LIBCMT:strftime.obj
 0002:000054fc       ??_C@_08INBOOONO@Saturday?$AA@ 0046e4fc     LIBCMT:strftime.obj
 0002:00005508       ??_C@_06JECMNKMI@Friday?$AA@ 0046e508     LIBCMT:strftime.obj
 0002:00005510       ??_C@_08HACCIKIA@Thursday?$AA@ 0046e510     LIBCMT:strftime.obj
 0002:0000551c       ??_C@_09DLIGFAKA@Wednesday?$AA@ 0046e51c     LIBCMT:strftime.obj
 0002:00005528       ??_C@_07BAAGCFCM@Tuesday?$AA@ 0046e528     LIBCMT:strftime.obj
 0002:00005530       ??_C@_06JLEDEDGH@Monday?$AA@ 0046e530     LIBCMT:strftime.obj
 0002:00005538       ??_C@_06OOPIFAJ@Sunday?$AA@ 0046e538     LIBCMT:strftime.obj
 0002:00005540       ??_C@_03FEFJNEK@Sat?$AA@   0046e540     LIBCMT:strftime.obj
 0002:00005544       ??_C@_03IDIOELNC@Fri?$AA@  0046e544     LIBCMT:strftime.obj
 0002:00005548       ??_C@_03IOFIKPDN@Thu?$AA@  0046e548     LIBCMT:strftime.obj
 0002:0000554c       ??_C@_03MHOMLAJA@Wed?$AA@  0046e54c     LIBCMT:strftime.obj
 0002:00005550       ??_C@_03NAGEINEP@Tue?$AA@  0046e550     LIBCMT:strftime.obj
 0002:00005554       ??_C@_03PDAGKDH@Mon?$AA@   0046e554     LIBCMT:strftime.obj
 0002:00005558       ??_C@_03KOEHGMDN@Sun?$AA@  0046e558     LIBCMT:strftime.obj
 0002:0000555c       ??_C@_03EBAPMIKO@a?1p?$AA@ 0046e55c     LIBCMT:strftime.obj
 0002:00005560       ??_C@_05JAMEPDIN@am?1pm?$AA@ 0046e560     LIBCMT:strftime.obj
 0002:00005568       ??_C@_0O@FMJNFNKE@united?9states?$AA@ 0046e568     LIBCMT:getqloc.obj
 0002:00005578       ??_C@_0P@NDHFFKCA@united?9kingdom?$AA@ 0046e578     LIBCMT:getqloc.obj
 0002:00005588       ??_C@_0BC@HHDADLGF@trinidad?5?$CG?5tobago?$AA@ 0046e588     LIBCMT:getqloc.obj
 0002:0000559c       ??_C@_0M@IOAEBDAC@south?9korea?$AA@ 0046e59c     LIBCMT:getqloc.obj
 0002:000055a8       ??_C@_0N@FIELFKIJ@south?9africa?$AA@ 0046e5a8     LIBCMT:getqloc.obj
 0002:000055b8       ??_C@_0M@OPNDHCMC@south?5korea?$AA@ 0046e5b8     LIBCMT:getqloc.obj
 0002:000055c4       ??_C@_0N@MDEOEPFI@south?5africa?$AA@ 0046e5c4     LIBCMT:getqloc.obj
 0002:000055d4       ??_C@_06FKAPCJLB@slovak?$AA@ 0046e5d4     LIBCMT:getqloc.obj
 0002:000055dc       ??_C@_0M@EFJANOAL@puerto?9rico?$AA@ 0046e5dc     LIBCMT:getqloc.obj
 0002:000055e8       ??_C@_08PGOJKDAI@pr?9china?$AA@ 0046e5e8     LIBCMT:getqloc.obj
 0002:000055f4       ??_C@_08JHDOMCMI@pr?5china?$AA@ 0046e5f4     LIBCMT:getqloc.obj
 0002:00005600       ??_C@_02JHCHFBLL@nz?$AA@   0046e600     LIBCMT:getqloc.obj
 0002:00005604       ??_C@_0M@LINHDHKP@new?9zealand?$AA@ 0046e604     LIBCMT:getqloc.obj
 0002:00005610       ??_C@_09IIIPPBDB@hong?9kong?$AA@ 0046e610     LIBCMT:getqloc.obj
 0002:0000561c       ??_C@_07HJLCKBG@holland?$AA@ 0046e61c     LIBCMT:getqloc.obj
 0002:00005624       ??_C@_0O@LEHGMHAG@great?5britain?$AA@ 0046e624     LIBCMT:getqloc.obj
 0002:00005634       ??_C@_07FACOMELA@england?$AA@ 0046e634     LIBCMT:getqloc.obj
 0002:0000563c       ??_C@_05JIHCEICB@czech?$AA@ 0046e63c     LIBCMT:getqloc.obj
 0002:00005644       ??_C@_05BBJOBLGB@china?$AA@ 0046e644     LIBCMT:getqloc.obj
 0002:0000564c       ??_C@_07GPKPHICP@britain?$AA@ 0046e64c     LIBCMT:getqloc.obj
 0002:00005654       ??_C@_07MHIPBHMG@america?$AA@ 0046e654     LIBCMT:getqloc.obj
 0002:0000565c       ??_C@_03KIALPMKC@usa?$AA@  0046e65c     LIBCMT:getqloc.obj
 0002:00005660       ??_C@_02FGJGKGGD@us?$AA@   0046e660     LIBCMT:getqloc.obj
 0002:00005664       ??_C@_02NEINDODK@uk?$AA@   0046e664     LIBCMT:getqloc.obj
 0002:00005668       ??_C@_05JMPCFJFJ@swiss?$AA@ 0046e668     LIBCMT:getqloc.obj
 0002:00005670       ??_C@_0BA@HLOCPIOD@swedish?9finland?$AA@ 0046e670     LIBCMT:getqloc.obj
 0002:00005680       ??_C@_0BC@PKCNIABK@spanish?9venezuela?$AA@ 0046e680     LIBCMT:getqloc.obj
 0002:00005694       ??_C@_0BA@GBHHMIJI@spanish?9uruguay?$AA@ 0046e694     LIBCMT:getqloc.obj
 0002:000056a4       ??_C@_0BE@BHDOHPMC@spanish?9puerto?5rico?$AA@ 0046e6a4     LIBCMT:getqloc.obj
 0002:000056b8       ??_C@_0N@KMOIDGGN@spanish?9peru?$AA@ 0046e6b8     LIBCMT:getqloc.obj
 0002:000056c8       ??_C@_0BB@HMHLPGPH@spanish?9paraguay?$AA@ 0046e6c8     LIBCMT:getqloc.obj
 0002:000056dc       ??_C@_0P@MCPKNGFD@spanish?9panama?$AA@ 0046e6dc     LIBCMT:getqloc.obj
 0002:000056ec       ??_C@_0BC@IHOHGAIL@spanish?9nicaragua?$AA@ 0046e6ec     LIBCMT:getqloc.obj
 0002:00005700       ??_C@_0P@KLMJDNFJ@spanish?9modern?$AA@ 0046e700     LIBCMT:getqloc.obj
 0002:00005710       ??_C@_0BA@BPAPGBCM@spanish?9mexican?$AA@ 0046e710     LIBCMT:getqloc.obj
 0002:00005720       ??_C@_0BB@PDECHHHE@spanish?9honduras?$AA@ 0046e720     LIBCMT:getqloc.obj
 0002:00005734       ??_C@_0BC@KLHKFGDB@spanish?9guatemala?$AA@ 0046e734     LIBCMT:getqloc.obj
 0002:00005748       ??_C@_0BE@MFOOKJAI@spanish?9el?5salvador?$AA@ 0046e748     LIBCMT:getqloc.obj
 0002:0000575c       ??_C@_0BA@FCOKFPFC@spanish?9ecuador?$AA@ 0046e75c     LIBCMT:getqloc.obj
 0002:0000576c       ??_C@_0BL@PLMGIMOO@spanish?9dominican?5republic?$AA@ 0046e76c     LIBCMT:getqloc.obj
 0002:00005788       ??_C@_0BD@HLGDNMHB@spanish?9costa?5rica?$AA@ 0046e788     LIBCMT:getqloc.obj
 0002:0000579c       ??_C@_0BB@PKCBKCPE@spanish?9colombia?$AA@ 0046e79c     LIBCMT:getqloc.obj
 0002:000057b0       ??_C@_0O@MCBIJGNE@spanish?9chile?$AA@ 0046e7b0     LIBCMT:getqloc.obj
 0002:000057c0       ??_C@_0BA@BEFEIGJJ@spanish?9bolivia?$AA@ 0046e7c0     LIBCMT:getqloc.obj
 0002:000057d0       ??_C@_0BC@EMECMPD@spanish?9argentina?$AA@ 0046e7d0     LIBCMT:getqloc.obj
 0002:000057e4       ??_C@_0BF@EALFLENP@portuguese?9brazilian?$AA@ 0046e7e4     LIBCMT:getqloc.obj
 0002:000057fc       ??_C@_0BC@HBLEBLNN@norwegian?9nynorsk?$AA@ 0046e7fc     LIBCMT:getqloc.obj
 0002:00005810       ??_C@_0BB@HMACDDCK@norwegian?9bokmal?$AA@ 0046e810     LIBCMT:getqloc.obj
 0002:00005824       ??_C@_09BAFFPPHE@norwegian?$AA@ 0046e824     LIBCMT:getqloc.obj
 0002:00005830       ??_C@_0O@EAJFJDFG@italian?9swiss?$AA@ 0046e830     LIBCMT:getqloc.obj
 0002:00005840       ??_C@_0O@CNOMPGD@irish?9english?$AA@ 0046e840     LIBCMT:getqloc.obj
 0002:00005850       ??_C@_0N@EDHBGCKG@german?9swiss?$AA@ 0046e850     LIBCMT:getqloc.obj
 0002:00005860       ??_C@_0BC@JACMHNBP@german?9luxembourg?$AA@ 0046e860     LIBCMT:getqloc.obj
 0002:00005874       ??_C@_0BE@HBGMGFEG@german?9lichtenstein?$AA@ 0046e874     LIBCMT:getqloc.obj
 0002:00005888       ??_C@_0BA@HKKBIBKL@german?9austrian?$AA@ 0046e888     LIBCMT:getqloc.obj
 0002:00005898       ??_C@_0N@GCAEPEBK@french?9swiss?$AA@ 0046e898     LIBCMT:getqloc.obj
 0002:000058a8       ??_C@_0BC@DJFJJCK@french?9luxembourg?$AA@ 0046e8a8     LIBCMT:getqloc.obj
 0002:000058bc       ??_C@_0BA@NNCEDFIC@french?9canadian?$AA@ 0046e8bc     LIBCMT:getqloc.obj
 0002:000058cc       ??_C@_0P@CMPOCLM@french?9belgian?$AA@ 0046e8cc     LIBCMT:getqloc.obj
 0002:000058dc       ??_C@_0M@GHHDJOK@english?9usa?$AA@ 0046e8dc     LIBCMT:getqloc.obj
 0002:000058e8       ??_C@_0L@PLDJKEIL@english?9us?$AA@ 0046e8e8     LIBCMT:getqloc.obj
 0002:000058f4       ??_C@_0L@HJCCDMNC@english?9uk?$AA@ 0046e8f4     LIBCMT:getqloc.obj
 0002:00005900       ??_C@_0BK@CKLIAGJB@english?9trinidad?5y?5tobago?$AA@ 0046e900     LIBCMT:getqloc.obj
 0002:0000591c       ??_C@_0BF@JMJMGNNF@english?9south?5africa?$AA@ 0046e91c     LIBCMT:getqloc.obj
 0002:00005934       ??_C@_0L@DKIIFDFD@english?9nz?$AA@ 0046e934     LIBCMT:getqloc.obj
 0002:00005940       ??_C@_0BA@ONHGJCLH@english?9jamaica?$AA@ 0046e940     LIBCMT:getqloc.obj
 0002:00005950       ??_C@_0M@HJBGHOPO@english?9ire?$AA@ 0046e950     LIBCMT:getqloc.obj
 0002:0000595c       ??_C@_0BC@LFEKMIFB@english?9caribbean?$AA@ 0046e95c     LIBCMT:getqloc.obj
 0002:00005970       ??_C@_0M@OLDPFKHI@english?9can?$AA@ 0046e970     LIBCMT:getqloc.obj
 0002:0000597c       ??_C@_0P@OMDEHBMP@english?9belize?$AA@ 0046e97c     LIBCMT:getqloc.obj
 0002:0000598c       ??_C@_0M@KFHFPFED@english?9aus?$AA@ 0046e98c     LIBCMT:getqloc.obj
 0002:00005998       ??_C@_0BB@MNMBKDFE@english?9american?$AA@ 0046e998     LIBCMT:getqloc.obj
 0002:000059ac       ??_C@_0O@KIDLNNBA@dutch?9belgian?$AA@ 0046e9ac     LIBCMT:getqloc.obj
 0002:000059bc       ??_C@_0BE@JBKABBMH@chinese?9traditional?$AA@ 0046e9bc     LIBCMT:getqloc.obj
 0002:000059d0       ??_C@_0BC@MJJMPKCG@chinese?9singapore?$AA@ 0046e9d0     LIBCMT:getqloc.obj
 0002:000059e4       ??_C@_0BD@FDKADDCP@chinese?9simplified?$AA@ 0046e9e4     LIBCMT:getqloc.obj
 0002:000059f8       ??_C@_0BB@DBEFDDME@chinese?9hongkong?$AA@ 0046e9f8     LIBCMT:getqloc.obj
 0002:00005a0c       ??_C@_07DHNMFMCI@chinese?$AA@ 0046ea0c     LIBCMT:getqloc.obj
 0002:00005a14       ??_C@_03FNDDCHI@chi?$AA@   0046ea14     LIBCMT:getqloc.obj
 0002:00005a18       ??_C@_03BMMIADDJ@chh?$AA@  0046ea18     LIBCMT:getqloc.obj
 0002:00005a1c       ??_C@_08OAIPJDGI@canadian?$AA@ 0046ea1c     LIBCMT:getqloc.obj
 0002:00005a28       ??_C@_07HBPMNPNJ@belgian?$AA@ 0046ea28     LIBCMT:getqloc.obj
 0002:00005a30       ??_C@_0L@OEKOPBEL@australian?$AA@ 0046ea30     LIBCMT:getqloc.obj
 0002:00005a3c       ??_C@_0BB@MEIMBEDG@american?9english?$AA@ 0046ea3c     LIBCMT:getqloc.obj
 0002:00005a50       ??_C@_0BB@DFMDPDGB@american?5english?$AA@ 0046ea50     LIBCMT:getqloc.obj
 0002:00005a64       ??_C@_08IJLOKOLL@american?$AA@ 0046ea64     LIBCMT:getqloc.obj
 0002:00005a70       ___rg_language             0046ea70     LIBCMT:getqloc.obj
 0002:00005c78       ___rg_country              0046ec78     LIBCMT:getqloc.obj
 0002:00005d30       ___rglangidNotDefault      0046ed30     LIBCMT:getqloc.obj
 0002:00005d44       ??_C@_03NFKLAGEF@OCP?$AA@  0046ed44     LIBCMT:getqloc.obj
 0002:00005d48       ??_C@_03DFHEHBHG@ACP?$AA@  0046ed48     LIBCMT:getqloc.obj
 0002:00005d4c       ??_C@_0BC@NFIEMBLL@Norwegian?9Nynorsk?$AA@ 0046ed4c     LIBCMT:getqloc.obj
 0002:00005d60       ??_C@_06GDENEHCP@CONIN$?$AA@ 0046ed60     LIBCMT:initcon.obj
 0002:00005d68       ??_C@_07GPDNMNG@CONOUT$?$AA@ 0046ed68     LIBCMT:initcon.obj
 0002:00005d74       ??_7_Locimp@locale@std@@6B@ 0046ed74     libcpmt:locale0.obj
 0002:00005d78       ?_BADOFF@std@@3JB          0046ed78     libcpmt:ios.obj
 0002:00005d80       ??_7logic_error@std@@6B@   0046ed80     libcpmt:string.obj
 0002:00005d8c       ??_7invalid_argument@std@@6B@ 0046ed8c     libcpmt:string.obj
 0002:00005d98       ??_7length_error@std@@6B@  0046ed98     libcpmt:string.obj
 0002:00005da4       ??_7out_of_range@std@@6B@  0046eda4     libcpmt:string.obj
 0002:00005dac       ??_C@_0BA@JFNIOLAK@string?5too?5long?$AA@ 0046edac     libcpmt:string.obj
 0002:00005dbc       ??_C@_0BI@CFPLBAOH@invalid?5string?5position?$AA@ 0046edbc     libcpmt:string.obj
 0002:00005dd4       ??_C@_0BI@ILCMCLF@invalid?5string?5argument?$AA@ 0046edd4     libcpmt:string.obj
 0002:00005dec       ??_C@_13BPINEIPE@?$AAr?$AA?$AA@ 0046edec     libcpmt:fiopen.obj
 0002:00005e2c       ??_C@_13CIFDLIMG@?$AAw?$AA?$AA@ 0046ee2c     libcpmt:fiopen.obj
 0002:00005e30       ??_C@_13FNCBLAIF@?$AAa?$AA?$AA@ 0046ee30     libcpmt:fiopen.obj
 0002:00005e34       ??_C@_15JJPIMNBO@?$AAr?$AAb?$AA?$AA@ 0046ee34     libcpmt:fiopen.obj
 0002:00005e3c       ??_C@_15MJDFFMKN@?$AAw?$AAb?$AA?$AA@ 0046ee3c     libcpmt:fiopen.obj
 0002:00005e44       ??_C@_15BMLKLNCL@?$AAa?$AAb?$AA?$AA@ 0046ee44     libcpmt:fiopen.obj
 0002:00005e4c       ??_C@_15HPOENKKJ@?$AAr?$AA?$CL?$AA?$AA@ 0046ee4c     libcpmt:fiopen.obj
 0002:00005e54       ??_C@_15CPCJELBK@?$AAw?$AA?$CL?$AA?$AA@ 0046ee54     libcpmt:fiopen.obj
 0002:00005e5c       ??_C@_15PKKGKKJM@?$AAa?$AA?$CL?$AA?$AA@ 0046ee5c     libcpmt:fiopen.obj
 0002:00005e64       ??_C@_17IIOMHMAG@?$AAr?$AA?$CL?$AAb?$AA?$AA@ 0046ee64     libcpmt:fiopen.obj
 0002:00005e6c       ??_C@_17MAAMHCGC@?$AAw?$AA?$CL?$AAb?$AA?$AA@ 0046ee6c     libcpmt:fiopen.obj
 0002:00005e74       ??_C@_17HKNIEKMO@?$AAa?$AA?$CL?$AAb?$AA?$AA@ 0046ee74     libcpmt:fiopen.obj
 0002:00005eb8       __load_config_used         0046eeb8     LIBCMT:loadcfg.obj
 0002:00006f38       ??_R4DICOMCommandObject@@6B@ 0046ff38     test.obj
 0002:00006f50       ??_R3DICOMCommandObject@@8 0046ff50     test.obj
 0002:00006f64       ??_R2DICOMCommandObject@@8 0046ff64     test.obj
 0002:00006f78       ??_R1A@?0A@EA@DICOMCommandObject@@8 0046ff78     test.obj
 0002:00006f9c       ??_R1A@?0A@EA@DICOMObject@@8 0046ff9c     test.obj
 0002:00006fc0       ??_R3DICOMObject@@8        0046ffc0     test.obj
 0002:00006fd4       ??_R2DICOMObject@@8        0046ffd4     test.obj
 0002:00006fe4       ??_R1A@?0A@EA@?$PQueueOfPtr@PAVVRGroupPQueue@@@@8 0046ffe4     test.obj
 0002:00007008       ??_R3?$PQueueOfPtr@PAVVRGroupPQueue@@@@8 00470008     test.obj
 0002:0000701c       ??_R2?$PQueueOfPtr@PAVVRGroupPQueue@@@@8 0047001c     test.obj
 0002:00007028       ??_R1A@?0A@EA@?$Array@PAVVRGroupPQueue@@@@8 00470028     test.obj
 0002:0000704c       ??_R3?$Array@PAVVRGroupPQueue@@@@8 0047004c     test.obj
 0002:00007060       ??_R2?$Array@PAVVRGroupPQueue@@@@8 00470060     test.obj
 0002:00007068       ??_R4DICOMDataObject@@6B@  00470068     test.obj
 0002:00007080       ??_R3DICOMDataObject@@8    00470080     test.obj
 0002:00007094       ??_R2DICOMDataObject@@8    00470094     test.obj
 0002:000070a8       ??_R1A@?0A@EA@DICOMDataObject@@8 004700a8     test.obj
 0002:000070cc       ??_R4CStoreRQ@@6B@         004700cc     test.obj
 0002:000070e4       ??_R3CStoreRQ@@8           004700e4     test.obj
 0002:000070f8       ??_R2CStoreRQ@@8           004700f8     test.obj
 0002:00007100       ??_R1A@?0A@EA@CStoreRQ@@8  00470100     test.obj
 0002:00007124       ??_R4CStoreRSP@@6B@        00470124     test.obj
 0002:0000713c       ??_R3CStoreRSP@@8          0047013c     test.obj
 0002:00007150       ??_R2CStoreRSP@@8          00470150     test.obj
 0002:00007158       ??_R1A@?0A@EA@CStoreRSP@@8 00470158     test.obj
 0002:0000717c       ??_R4StandardStorage@@6BCStoreRQ@@@ 0047017c     test.obj
 0002:00007194       ??_R3StandardStorage@@8    00470194     test.obj
 0002:000071a8       ??_R2StandardStorage@@8    004701a8     test.obj
 0002:000071b8       ??_R1A@?0A@EA@StandardStorage@@8 004701b8     test.obj
 0002:000071dc       ??_R13?0A@EA@CStoreRSP@@8  004701dc     test.obj
 0002:00007200       ??_R4StandardStorage@@6BCStoreRSP@@@ 00470200     test.obj
 0002:00007218       ??_R4RunTimeClassStorage@@6BCStoreRQ@@@ 00470218     test.obj
 0002:00007230       ??_R3RunTimeClassStorage@@8 00470230     test.obj
 0002:00007244       ??_R2RunTimeClassStorage@@8 00470244     test.obj
 0002:00007258       ??_R1A@?0A@EA@RunTimeClassStorage@@8 00470258     test.obj
 0002:0000727c       ??_R4RunTimeClassStorage@@6BCStoreRSP@@@ 0047027c     test.obj
 0002:00007294       ??_R4Socket@@6B@           00470294     dicom:cong.obj
 0002:000072a8       ??_R3Socket@@8             004702a8     dicom:cong.obj
 0002:000072b8       ??_R2Socket@@8             004702b8     dicom:cong.obj
 0002:000072c0       ??_R1A@?0A@EA@Socket@@8    004702c0     dicom:cong.obj
 0002:000072dc       ??_R4AAssociateRJ@@6B@     004702dc     dicom:cong.obj
 0002:000072f0       ??_R3AAssociateRJ@@8       004702f0     dicom:cong.obj
 0002:00007300       ??_R2AAssociateRJ@@8       00470300     dicom:cong.obj
 0002:00007308       ??_R1A@?0A@EA@AAssociateRJ@@8 00470308     dicom:cong.obj
 0002:00007324       ??_R4AReleaseRQ@@6B@       00470324     dicom:cong.obj
 0002:00007338       ??_R3AReleaseRQ@@8         00470338     dicom:cong.obj
 0002:00007348       ??_R2AReleaseRQ@@8         00470348     dicom:cong.obj
 0002:00007350       ??_R1A@?0A@EA@AReleaseRQ@@8 00470350     dicom:cong.obj
 0002:0000736c       ??_R4AReleaseRP@@6B@       0047036c     dicom:cong.obj
 0002:00007380       ??_R3AReleaseRP@@8         00470380     dicom:cong.obj
 0002:00007390       ??_R2AReleaseRP@@8         00470390     dicom:cong.obj
 0002:00007398       ??_R1A@?0A@EA@AReleaseRP@@8 00470398     dicom:cong.obj
 0002:000073b4       ??_R4AAbortRQ@@6B@         004703b4     dicom:cong.obj
 0002:000073c8       ??_R3AAbortRQ@@8           004703c8     dicom:cong.obj
 0002:000073d8       ??_R2AAbortRQ@@8           004703d8     dicom:cong.obj
 0002:000073e0       ??_R1A@?0A@EA@AAbortRQ@@8  004703e0     dicom:cong.obj
 0002:000073fc       ??_R4bad_alloc@std@@6B@    004703fc     dicom:cong.obj
 0002:00007410       ??_R3bad_alloc@std@@8      00470410     dicom:cong.obj
 0002:00007420       ??_R2bad_alloc@std@@8      00470420     dicom:cong.obj
 0002:0000742c       ??_R1A@?0A@EA@bad_alloc@std@@8 0047042c     dicom:cong.obj
 0002:00007448       ??_R1A@?0A@EA@exception@std@@8 00470448     dicom:cong.obj
 0002:00007464       ??_R3exception@std@@8      00470464     dicom:cong.obj
 0002:00007474       ??_R2exception@std@@8      00470474     dicom:cong.obj
 0002:0000747c       ??_R4facet@locale@std@@6B@ 0047047c     dicom:cong.obj
 0002:00007490       ??_R3facet@locale@std@@8   00470490     dicom:cong.obj
 0002:000074a0       ??_R2facet@locale@std@@8   004704a0     dicom:cong.obj
 0002:000074a8       ??_R1A@?0A@EA@facet@locale@std@@8 004704a8     dicom:cong.obj
 0002:000074c4       ??_R4codecvt_base@std@@6B@ 004704c4     dicom:cong.obj
 0002:000074d8       ??_R3codecvt_base@std@@8   004704d8     dicom:cong.obj
 0002:000074e8       ??_R2codecvt_base@std@@8   004704e8     dicom:cong.obj
 0002:000074f4       ??_R1A@?0A@EA@codecvt_base@std@@8 004704f4     dicom:cong.obj
 0002:00007510       ??_R4ctype_base@std@@6B@   00470510     dicom:cong.obj
 0002:00007524       ??_R3ctype_base@std@@8     00470524     dicom:cong.obj
 0002:00007534       ??_R2ctype_base@std@@8     00470534     dicom:cong.obj
 0002:00007540       ??_R1A@?0A@EA@ctype_base@std@@8 00470540     dicom:cong.obj
 0002:0000755c       ??_R4ios_base@std@@6B@     0047055c     dicom:cong.obj
 0002:00007570       ??_R3ios_base@std@@8       00470570     dicom:cong.obj
 0002:00007580       ??_R2ios_base@std@@8       00470580     dicom:cong.obj
 0002:0000758c       ??_R1A@?0A@EA@ios_base@std@@8 0047058c     dicom:cong.obj
 0002:000075a8       ??_R13?0A@EA@?$_Iosb@H@std@@8 004705a8     dicom:cong.obj
 0002:000075c4       ??_R3?$_Iosb@H@std@@8      004705c4     dicom:cong.obj
 0002:000075d4       ??_R2?$_Iosb@H@std@@8      004705d4     dicom:cong.obj
 0002:000075dc       ??_R1A@?0A@EA@?$_Iosb@H@std@@8 004705dc     dicom:cong.obj
 0002:000075f8       ??_R4?$Array@PAVBufferSpace@@@@6B@ 004705f8     dicom:cong.obj
 0002:0000760c       ??_R3?$Array@PAVBufferSpace@@@@8 0047060c     dicom:cong.obj
 0002:0000761c       ??_R2?$Array@PAVBufferSpace@@@@8 0047061c     dicom:cong.obj
 0002:00007624       ??_R1A@?0A@EA@?$Array@PAVBufferSpace@@@@8 00470624     dicom:cong.obj
 0002:00007640       ??_R4?$Array@PAVVR@@@@6B@  00470640     dicom:cong.obj
 0002:00007654       ??_R3?$Array@PAVVR@@@@8    00470654     dicom:cong.obj
 0002:00007664       ??_R2?$Array@PAVVR@@@@8    00470664     dicom:cong.obj
 0002:0000766c       ??_R1A@?0A@EA@?$Array@PAVVR@@@@8 0047066c     dicom:cong.obj
 0002:00007688       ??_R4?$Array@PAVVRGroupPQueue@@@@6B@ 00470688     dicom:cong.obj
 0002:0000769c       ??_R4?$Array@VTransferSyntax@@@@6B@ 0047069c     dicom:cong.obj
 0002:000076b0       ??_R3?$Array@VTransferSyntax@@@@8 004706b0     dicom:cong.obj
 0002:000076c0       ??_R2?$Array@VTransferSyntax@@@@8 004706c0     dicom:cong.obj
 0002:000076c8       ??_R1A@?0A@EA@?$Array@VTransferSyntax@@@@8 004706c8     dicom:cong.obj
 0002:000076e4       ??_R4?$Array@VPresentationContext@@@@6B@ 004706e4     dicom:cong.obj
 0002:000076f8       ??_R3?$Array@VPresentationContext@@@@8 004706f8     dicom:cong.obj
 0002:00007708       ??_R2?$Array@VPresentationContext@@@@8 00470708     dicom:cong.obj
 0002:00007710       ??_R1A@?0A@EA@?$Array@VPresentationContext@@@@8 00470710     dicom:cong.obj
 0002:0000772c       ??_R4?$Array@VPresentationContextAccept@@@@6B@ 0047072c     dicom:cong.obj
 0002:00007740       ??_R3?$Array@VPresentationContextAccept@@@@8 00470740     dicom:cong.obj
 0002:00007750       ??_R2?$Array@VPresentationContextAccept@@@@8 00470750     dicom:cong.obj
 0002:00007758       ??_R1A@?0A@EA@?$Array@VPresentationContextAccept@@@@8 00470758     dicom:cong.obj
 0002:00007774       ??_R4?$Array@VAbstractSyntax@@@@6B@ 00470774     dicom:cong.obj
 0002:00007788       ??_R3?$Array@VAbstractSyntax@@@@8 00470788     dicom:cong.obj
 0002:00007798       ??_R2?$Array@VAbstractSyntax@@@@8 00470798     dicom:cong.obj
 0002:000077a0       ??_R1A@?0A@EA@?$Array@VAbstractSyntax@@@@8 004707a0     dicom:cong.obj
 0002:000077bc       ??_R4?$Array@PAVDICOMObject@@@@6B@ 004707bc     dicom:cong.obj
 0002:000077d0       ??_R3?$Array@PAVDICOMObject@@@@8 004707d0     dicom:cong.obj
 0002:000077e0       ??_R2?$Array@PAVDICOMObject@@@@8 004707e0     dicom:cong.obj
 0002:000077e8       ??_R1A@?0A@EA@?$Array@PAVDICOMObject@@@@8 004707e8     dicom:cong.obj
 0002:00007804       ??_R4?$Array@PAVDICOMDataObject@@@@6B@ 00470804     dicom:cong.obj
 0002:00007818       ??_R3?$Array@PAVDICOMDataObject@@@@8 00470818     dicom:cong.obj
 0002:00007828       ??_R2?$Array@PAVDICOMDataObject@@@@8 00470828     dicom:cong.obj
 0002:00007830       ??_R1A@?0A@EA@?$Array@PAVDICOMDataObject@@@@8 00470830     dicom:cong.obj
 0002:0000784c       ??_R4?$Array@U_RTCElement@@@@6B@ 0047084c     dicom:cong.obj
 0002:00007860       ??_R3?$Array@U_RTCElement@@@@8 00470860     dicom:cong.obj
 0002:00007870       ??_R2?$Array@U_RTCElement@@@@8 00470870     dicom:cong.obj
 0002:00007878       ??_R1A@?0A@EA@?$Array@U_RTCElement@@@@8 00470878     dicom:cong.obj
 0002:00007894       ??_R4?$Array@PAU_ACRNemaAddress@@@@6B@ 00470894     dicom:cong.obj
 0002:000078a8       ??_R3?$Array@PAU_ACRNemaAddress@@@@8 004708a8     dicom:cong.obj
 0002:000078b8       ??_R2?$Array@PAU_ACRNemaAddress@@@@8 004708b8     dicom:cong.obj
 0002:000078c0       ??_R1A@?0A@EA@?$Array@PAU_ACRNemaAddress@@@@8 004708c0     dicom:cong.obj
 0002:000078dc       ??_R4?$basic_ios@DU?$char_traits@D@std@@@std@@6B@ 004708dc     dicom:cong.obj
 0002:000078f0       ??_R3?$basic_ios@DU?$char_traits@D@std@@@std@@8 004708f0     dicom:cong.obj
 0002:00007900       ??_R2?$basic_ios@DU?$char_traits@D@std@@@std@@8 00470900     dicom:cong.obj
 0002:00007910       ??_R1A@?0A@EA@?$basic_ios@DU?$char_traits@D@std@@@std@@8 00470910     dicom:cong.obj
 0002:0000792c       ??_R4?$basic_istream@DU?$char_traits@D@std@@@std@@6B@ 0047092c     dicom:cong.obj
 0002:00007940       ??_R3?$basic_istream@DU?$char_traits@D@std@@@std@@8 00470940     dicom:cong.obj
 0002:00007950       ??_R2?$basic_istream@DU?$char_traits@D@std@@@std@@8 00470950     dicom:cong.obj
 0002:00007964       ??_R1A@?0A@EA@?$basic_istream@DU?$char_traits@D@std@@@std@@8 00470964     dicom:cong.obj
 0002:00007980       ??_R1A@A@3FA@?$basic_ios@DU?$char_traits@D@std@@@std@@8 00470980     dicom:cong.obj
 0002:0000799c       ??_R1A@A@3EA@ios_base@std@@8 0047099c     dicom:cong.obj
 0002:000079b8       ??_R13A@3EA@?$_Iosb@H@std@@8 004709b8     dicom:cong.obj
 0002:000079d4       ??_R4?$Array@V?$FixedArrayElement@IU_RTCElement@@@@@@6B@ 004709d4     dicom:cong.obj
 0002:000079e8       ??_R3?$Array@V?$FixedArrayElement@IU_RTCElement@@@@@@8 004709e8     dicom:cong.obj
 0002:000079f8       ??_R2?$Array@V?$FixedArrayElement@IU_RTCElement@@@@@@8 004709f8     dicom:cong.obj
 0002:00007a00       ??_R1A@?0A@EA@?$Array@V?$FixedArrayElement@IU_RTCElement@@@@@@8 00470a00     dicom:cong.obj
 0002:00007a1c       ??_R4?$PQueueOfPtr@PAVVR@@@@6B@ 00470a1c     dicom:cong.obj
 0002:00007a30       ??_R3?$PQueueOfPtr@PAVVR@@@@8 00470a30     dicom:cong.obj
 0002:00007a40       ??_R2?$PQueueOfPtr@PAVVR@@@@8 00470a40     dicom:cong.obj
 0002:00007a4c       ??_R1A@?0A@EA@?$PQueueOfPtr@PAVVR@@@@8 00470a4c     dicom:cong.obj
 0002:00007a68       ??_R4Buffer@@6B@           00470a68     dicom:cong.obj
 0002:00007a7c       ??_R3Buffer@@8             00470a7c     dicom:cong.obj
 0002:00007a8c       ??_R2Buffer@@8             00470a8c     dicom:cong.obj
 0002:00007a94       ??_R1A@?0A@EA@Buffer@@8    00470a94     dicom:cong.obj
 0002:00007ab0       ??_R4?$PQueueOfPtr@PAVVRGroupPQueue@@@@6B@ 00470ab0     dicom:cong.obj
 0002:00007ac4       ??_R4?$basic_streambuf@DU?$char_traits@D@std@@@std@@6B@ 00470ac4     dicom:cong.obj
 0002:00007ad8       ??_R3?$basic_streambuf@DU?$char_traits@D@std@@@std@@8 00470ad8     dicom:cong.obj
 0002:00007ae8       ??_R2?$basic_streambuf@DU?$char_traits@D@std@@@std@@8 00470ae8     dicom:cong.obj
 0002:00007af0       ??_R1A@?0A@EA@?$basic_streambuf@DU?$char_traits@D@std@@@std@@8 00470af0     dicom:cong.obj
 0002:00007b0c       ??_R4VRGroupPQueue@@6B@    00470b0c     dicom:cong.obj
 0002:00007b20       ??_R3VRGroupPQueue@@8      00470b20     dicom:cong.obj
 0002:00007b30       ??_R2VRGroupPQueue@@8      00470b30     dicom:cong.obj
 0002:00007b40       ??_R1A@?0A@EA@VRGroupPQueue@@8 00470b40     dicom:cong.obj
 0002:00007b5c       ??_R4LinkedBuffer@@6B@     00470b5c     dicom:cong.obj
 0002:00007b70       ??_R3LinkedBuffer@@8       00470b70     dicom:cong.obj
 0002:00007b80       ??_R2LinkedBuffer@@8       00470b80     dicom:cong.obj
 0002:00007b8c       ??_R1A@?0A@EA@LinkedBuffer@@8 00470b8c     dicom:cong.obj
 0002:00007ba8       ??_R4DICOMObject@@6B@      00470ba8     dicom:cong.obj
 0002:00007bbc       ??_R4MemoryBuffer@@6B@     00470bbc     dicom:cong.obj
 0002:00007bd0       ??_R3MemoryBuffer@@8       00470bd0     dicom:cong.obj
 0002:00007be0       ??_R2MemoryBuffer@@8       00470be0     dicom:cong.obj
 0002:00007bf0       ??_R1A@?0A@EA@MemoryBuffer@@8 00470bf0     dicom:cong.obj
 0002:00007c0c       ??_R4PDataTF@@6B@          00470c0c     dicom:cong.obj
 0002:00007c20       ??_R3PDataTF@@8            00470c20     dicom:cong.obj
 0002:00007c30       ??_R2PDataTF@@8            00470c30     dicom:cong.obj
 0002:00007c38       ??_R1A@?0A@EA@PDataTF@@8   00470c38     dicom:cong.obj
 0002:00007c54       ??_R4FileBuffer@@6B@       00470c54     dicom:cong.obj
 0002:00007c68       ??_R3FileBuffer@@8         00470c68     dicom:cong.obj
 0002:00007c78       ??_R2FileBuffer@@8         00470c78     dicom:cong.obj
 0002:00007c88       ??_R1A@?0A@EA@FileBuffer@@8 00470c88     dicom:cong.obj
 0002:00007ca4       ??_R4?$PQueue@V?$FixedArrayElement@IU_RTCElement@@@@@@6B@ 00470ca4     dicom:cong.obj
 0002:00007cb8       ??_R3?$PQueue@V?$FixedArrayElement@IU_RTCElement@@@@@@8 00470cb8     dicom:cong.obj
 0002:00007cc8       ??_R2?$PQueue@V?$FixedArrayElement@IU_RTCElement@@@@@@8 00470cc8     dicom:cong.obj
 0002:00007cd4       ??_R1A@?0A@EA@?$PQueue@V?$FixedArrayElement@IU_RTCElement@@@@@@8 00470cd4     dicom:cong.obj
 0002:00007cf0       ??_R4AAssociateAC@@6B@     00470cf0     dicom:cong.obj
 0002:00007d04       ??_R3AAssociateAC@@8       00470d04     dicom:cong.obj
 0002:00007d14       ??_R2AAssociateAC@@8       00470d14     dicom:cong.obj
 0002:00007d1c       ??_R1A@?0A@EA@AAssociateAC@@8 00470d1c     dicom:cong.obj
 0002:00007d38       ??_R4?$basic_filebuf@DU?$char_traits@D@std@@@std@@6B@ 00470d38     dicom:cong.obj
 0002:00007d4c       ??_R3?$basic_filebuf@DU?$char_traits@D@std@@@std@@8 00470d4c     dicom:cong.obj
 0002:00007d5c       ??_R2?$basic_filebuf@DU?$char_traits@D@std@@@std@@8 00470d5c     dicom:cong.obj
 0002:00007d68       ??_R1A@?0A@EA@?$basic_filebuf@DU?$char_traits@D@std@@@std@@8 00470d68     dicom:cong.obj
 0002:00007d84       ??_R4runtime_error@std@@6B@ 00470d84     dicom:cong.obj
 0002:00007d98       ??_R3runtime_error@std@@8  00470d98     dicom:cong.obj
 0002:00007da8       ??_R2runtime_error@std@@8  00470da8     dicom:cong.obj
 0002:00007db4       ??_R1A@?0A@EA@runtime_error@std@@8 00470db4     dicom:cong.obj
 0002:00007dd0       ??_R4failure@ios_base@std@@6B@ 00470dd0     dicom:cong.obj
 0002:00007de4       ??_R3failure@ios_base@std@@8 00470de4     dicom:cong.obj
 0002:00007df4       ??_R2failure@ios_base@std@@8 00470df4     dicom:cong.obj
 0002:00007e04       ??_R1A@?0A@EA@failure@ios_base@std@@8 00470e04     dicom:cong.obj
 0002:00007e20       ??_R4AAssociateRQ@@6B@     00470e20     dicom:cong.obj
 0002:00007e34       ??_R3AAssociateRQ@@8       00470e34     dicom:cong.obj
 0002:00007e44       ??_R2AAssociateRQ@@8       00470e44     dicom:cong.obj
 0002:00007e4c       ??_R1A@?0A@EA@AAssociateRQ@@8 00470e4c     dicom:cong.obj
 0002:00007e68       ??_R4PDU_Service@@6BBuffer@@@ 00470e68     dicom:cong.obj
 0002:00007e7c       ??_R3PDU_Service@@8        00470e7c     dicom:cong.obj
 0002:00007e8c       ??_R2PDU_Service@@8        00470e8c     dicom:cong.obj
 0002:00007eb4       ??_R1A@?0A@EA@PDU_Service@@8 00470eb4     dicom:cong.obj
 0002:00007ed0       ??_R1FA@?0A@EA@AAssociateRQ@@8 00470ed0     dicom:cong.obj
 0002:00007eec       ??_R1CAM@?0A@EA@AAssociateAC@@8 00470eec     dicom:cong.obj
 0002:00007f08       ??_R1DMI@?0A@EA@AAssociateRJ@@8 00470f08     dicom:cong.obj
 0002:00007f24       ??_R1DNI@?0A@EA@AReleaseRQ@@8 00470f24     dicom:cong.obj
 0002:00007f40       ??_R1DOI@?0A@EA@AReleaseRP@@8 00470f40     dicom:cong.obj
 0002:00007f5c       ??_R1DPI@?0A@EA@AAbortRQ@@8 00470f5c     dicom:cong.obj
 0002:00007f78       ??_R1EAI@?0A@EA@PDataTF@@8 00470f78     dicom:cong.obj
 0002:00007f94       ??_R4PDU_Service@@6BAAssociateRQ@@@ 00470f94     dicom:cong.obj
 0002:00007fa8       ??_R4PDU_Service@@6BAAssociateAC@@@ 00470fa8     dicom:cong.obj
 0002:00007fbc       ??_R4PDU_Service@@6BAAssociateRJ@@@ 00470fbc     dicom:cong.obj
 0002:00007fd0       ??_R4PDU_Service@@6BAReleaseRQ@@@ 00470fd0     dicom:cong.obj
 0002:00007fe4       ??_R4PDU_Service@@6BAReleaseRP@@@ 00470fe4     dicom:cong.obj
 0002:00007ff8       ??_R4PDU_Service@@6BAAbortRQ@@@ 00470ff8     dicom:cong.obj
 0002:0000800c       ??_R4PDU_Service@@6BPDataTF@@@ 0047100c     dicom:cong.obj
 0002:00008020       ??_R4CheckedPDU_Service@@6BBuffer@@@ 00471020     dicom:cong.obj
 0002:00008034       ??_R3CheckedPDU_Service@@8 00471034     dicom:cong.obj
 0002:00008044       ??_R2CheckedPDU_Service@@8 00471044     dicom:cong.obj
 0002:00008070       ??_R1A@?0A@EA@CheckedPDU_Service@@8 00471070     dicom:cong.obj
 0002:0000808c       ??_R4CheckedPDU_Service@@6BAAssociateRQ@@@ 0047108c     dicom:cong.obj
 0002:000080a0       ??_R4CheckedPDU_Service@@6BAAssociateAC@@@ 004710a0     dicom:cong.obj
 0002:000080b4       ??_R4CheckedPDU_Service@@6BAAssociateRJ@@@ 004710b4     dicom:cong.obj
 0002:000080c8       ??_R4CheckedPDU_Service@@6BAReleaseRQ@@@ 004710c8     dicom:cong.obj
 0002:000080dc       ??_R4CheckedPDU_Service@@6BAReleaseRP@@@ 004710dc     dicom:cong.obj
 0002:000080f0       ??_R4CheckedPDU_Service@@6BAAbortRQ@@@ 004710f0     dicom:cong.obj
 0002:00008104       ??_R4CheckedPDU_Service@@6BPDataTF@@@ 00471104     dicom:cong.obj
 0002:00008118       ??_R4?$ctype@D@std@@6B@    00471118     dicom:cong.obj
 0002:0000812c       ??_R3?$ctype@D@std@@8      0047112c     dicom:cong.obj
 0002:0000813c       ??_R2?$ctype@D@std@@8      0047113c     dicom:cong.obj
 0002:0000814c       ??_R1A@?0A@EA@?$ctype@D@std@@8 0047114c     dicom:cong.obj
 0002:00008168       ??_R4?$codecvt@DDH@std@@6B@ 00471168     dicom:cong.obj
 0002:0000817c       ??_R3?$codecvt@DDH@std@@8  0047117c     dicom:cong.obj
 0002:0000818c       ??_R2?$codecvt@DDH@std@@8  0047118c     dicom:cong.obj
 0002:0000819c       ??_R1A@?0A@EA@?$codecvt@DDH@std@@8 0047119c     dicom:cong.obj
 0002:000081b8       ??_R4?$basic_ifstream@DU?$char_traits@D@std@@@std@@6B@ 004711b8     dicom:cong.obj
 0002:000081cc       ??_R3?$basic_ifstream@DU?$char_traits@D@std@@@std@@8 004711cc     dicom:cong.obj
 0002:000081dc       ??_R2?$basic_ifstream@DU?$char_traits@D@std@@@std@@8 004711dc     dicom:cong.obj
 0002:000081f4       ??_R1A@?0A@EA@?$basic_ifstream@DU?$char_traits@D@std@@@std@@8 004711f4     dicom:cong.obj
 0002:00008210       ??_R4type_info@@6B@        00471210     LIBCMT:typinfo.obj
 0002:00008224       ??_R3type_info@@8          00471224     LIBCMT:typinfo.obj
 0002:00008234       ??_R2type_info@@8          00471234     LIBCMT:typinfo.obj
 0002:0000823c       ??_R1A@?0A@EA@type_info@@8 0047123c     LIBCMT:typinfo.obj
 0002:00008258       ??_R4exception@std@@6B@    00471258     LIBCMT:stdexcpt.obj
 0002:0000826c       ??_R4bad_cast@std@@6B@     0047126c     LIBCMT:stdexcpt.obj
 0002:00008280       ??_R3bad_cast@std@@8       00471280     LIBCMT:stdexcpt.obj
 0002:00008290       ??_R2bad_cast@std@@8       00471290     LIBCMT:stdexcpt.obj
 0002:0000829c       ??_R1A@?0A@EA@bad_cast@std@@8 0047129c     LIBCMT:stdexcpt.obj
 0002:000082b8       ??_R4bad_typeid@std@@6B@   004712b8     LIBCMT:stdexcpt.obj
 0002:000082cc       ??_R3bad_typeid@std@@8     004712cc     LIBCMT:stdexcpt.obj
 0002:000082dc       ??_R2bad_typeid@std@@8     004712dc     LIBCMT:stdexcpt.obj
 0002:000082e8       ??_R1A@?0A@EA@bad_typeid@std@@8 004712e8     LIBCMT:stdexcpt.obj
 0002:00008304       ??_R4__non_rtti_object@std@@6B@ 00471304     LIBCMT:stdexcpt.obj
 0002:00008318       ??_R3__non_rtti_object@std@@8 00471318     LIBCMT:stdexcpt.obj
 0002:00008328       ??_R2__non_rtti_object@std@@8 00471328     LIBCMT:stdexcpt.obj
 0002:00008338       ??_R1A@?0A@EA@__non_rtti_object@std@@8 00471338     LIBCMT:stdexcpt.obj
 0002:00008354       ??_R4bad_exception@std@@6B@ 00471354     LIBCMT:frame.obj
 0002:00008368       ??_R3bad_exception@std@@8  00471368     LIBCMT:frame.obj
 0002:00008378       ??_R2bad_exception@std@@8  00471378     LIBCMT:frame.obj
 0002:00008384       ??_R1A@?0A@EA@bad_exception@std@@8 00471384     LIBCMT:frame.obj
 0002:000083a0       ??_R4DNameNode@@6B@        004713a0     LIBCMT:undname.obj
 0002:000083b4       ??_R3DNameNode@@8          004713b4     LIBCMT:undname.obj
 0002:000083c4       ??_R2DNameNode@@8          004713c4     LIBCMT:undname.obj
 0002:000083cc       ??_R1A@?0A@EA@DNameNode@@8 004713cc     LIBCMT:undname.obj
 0002:000083e8       ??_R4charNode@@6B@         004713e8     LIBCMT:undname.obj
 0002:000083fc       ??_R3charNode@@8           004713fc     LIBCMT:undname.obj
 0002:0000840c       ??_R2charNode@@8           0047140c     LIBCMT:undname.obj
 0002:00008418       ??_R1A@?0A@EA@charNode@@8  00471418     LIBCMT:undname.obj
 0002:00008434       ??_R4pDNameNode@@6B@       00471434     LIBCMT:undname.obj
 0002:00008448       ??_R3pDNameNode@@8         00471448     LIBCMT:undname.obj
 0002:00008458       ??_R2pDNameNode@@8         00471458     LIBCMT:undname.obj
 0002:00008464       ??_R1A@?0A@EA@pDNameNode@@8 00471464     LIBCMT:undname.obj
 0002:00008480       ??_R4DNameStatusNode@@6B@  00471480     LIBCMT:undname.obj
 0002:00008494       ??_R3DNameStatusNode@@8    00471494     LIBCMT:undname.obj
 0002:000084a4       ??_R2DNameStatusNode@@8    004714a4     LIBCMT:undname.obj
 0002:000084b0       ??_R1A@?0A@EA@DNameStatusNode@@8 004714b0     LIBCMT:undname.obj
 0002:000084cc       ??_R4pcharNode@@6B@        004714cc     LIBCMT:undname.obj
 0002:000084e0       ??_R3pcharNode@@8          004714e0     LIBCMT:undname.obj
 0002:000084f0       ??_R2pcharNode@@8          004714f0     LIBCMT:undname.obj
 0002:000084fc       ??_R1A@?0A@EA@pcharNode@@8 004714fc     LIBCMT:undname.obj
 0002:00008518       ??_R4_Locimp@locale@std@@6B@ 00471518     libcpmt:locale0.obj
 0002:0000852c       ??_R3_Locimp@locale@std@@8 0047152c     libcpmt:locale0.obj
 0002:0000853c       ??_R2_Locimp@locale@std@@8 0047153c     libcpmt:locale0.obj
 0002:00008548       ??_R1A@?0A@EA@_Locimp@locale@std@@8 00471548     libcpmt:locale0.obj
 0002:00008564       ??_R4logic_error@std@@6B@  00471564     libcpmt:string.obj
 0002:00008578       ??_R3logic_error@std@@8    00471578     libcpmt:string.obj
 0002:00008588       ??_R2logic_error@std@@8    00471588     libcpmt:string.obj
 0002:00008594       ??_R1A@?0A@EA@logic_error@std@@8 00471594     libcpmt:string.obj
 0002:000085b0       ??_R4invalid_argument@std@@6B@ 004715b0     libcpmt:string.obj
 0002:000085c4       ??_R3invalid_argument@std@@8 004715c4     libcpmt:string.obj
 0002:000085d4       ??_R2invalid_argument@std@@8 004715d4     libcpmt:string.obj
 0002:000085e4       ??_R1A@?0A@EA@invalid_argument@std@@8 004715e4     libcpmt:string.obj
 0002:00008600       ??_R4length_error@std@@6B@ 00471600     libcpmt:string.obj
 0002:00008614       ??_R3length_error@std@@8   00471614     libcpmt:string.obj
 0002:00008624       ??_R2length_error@std@@8   00471624     libcpmt:string.obj
 0002:00008634       ??_R1A@?0A@EA@length_error@std@@8 00471634     libcpmt:string.obj
 0002:00008650       ??_R4out_of_range@std@@6B@ 00471650     libcpmt:string.obj
 0002:00008664       ??_R3out_of_range@std@@8   00471664     libcpmt:string.obj
 0002:00008674       ??_R2out_of_range@std@@8   00471674     libcpmt:string.obj
 0002:00008684       ??_R1A@?0A@EA@out_of_range@std@@8 00471684     libcpmt:string.obj
 0002:00008bc0       ___safe_se_handler_table   00471bc0     <linker-defined>
 0002:000090bc       ___rtc_iaa                 004720bc     LIBCMT:initsect.obj
 0002:000091c0       ___rtc_izz                 004721c0     LIBCMT:initsect.obj
 0002:000092c4       ___rtc_taa                 004722c4     LIBCMT:initsect.obj
 0002:000093c8       ___rtc_tzz                 004723c8     LIBCMT:initsect.obj
 0002:0000a17c       __TI2?AVbad_alloc@std@@    0047317c     dicom:cong.obj
 0002:0000a18c       __CTA2?AVbad_alloc@std@@   0047318c     dicom:cong.obj
 0002:0000a198       __CT??_R0?AVbad_alloc@std@@@8??0bad_alloc@std@@QAE@ABV01@@Z12 00473198     dicom:cong.obj
 0002:0000a1b4       __CT??_R0?AVexception@std@@@8??0exception@std@@QAE@ABV01@@Z12 004731b4     dicom:cong.obj
 0002:0000b6a8       __TI2?AVruntime_error@std@@ 004746a8     dicom:cong.obj
 0002:0000b70c       __CTA2?AVruntime_error@std@@ 0047470c     dicom:cong.obj
 0002:0000b718       __CT??_R0?AVruntime_error@std@@@8??0runtime_error@std@@QAE@ABV01@@Z40 00474718     dicom:cong.obj
 0002:0000b7fc       __TI3?AVfailure@ios_base@std@@ 004747fc     dicom:cong.obj
 0002:0000b848       __CTA3?AVfailure@ios_base@std@@ 00474848     dicom:cong.obj
 0002:0000b858       __CT??_R0?AVfailure@ios_base@std@@@8??0failure@ios_base@std@@QAE@ABV012@@Z40 00474858     dicom:cong.obj
 0002:0000b8cc       __TI2?AVbad_cast@std@@     004748cc     dicom:cong.obj
 0002:0000b908       __CTA2?AVbad_cast@std@@    00474908     dicom:cong.obj
 0002:0000b914       __CT??_R0?AVbad_cast@std@@@8??0bad_cast@std@@QAE@ABV01@@Z12 00474914     dicom:cong.obj
 0002:0000c97c       __TI2?AVbad_exception@std@@ 0047597c     LIBCMT:frame.obj
 0002:0000c98c       __CTA2?AVbad_exception@std@@ 0047598c     LIBCMT:frame.obj
 0002:0000c998       __CT??_R0?AVbad_exception@std@@@8??0bad_exception@std@@QAE@ABV01@@Z12 00475998     LIBCMT:frame.obj
 0002:0000d194       __TI3?AVlength_error@std@@ 00476194     libcpmt:string.obj
 0002:0000d1d0       __CTA3?AVlength_error@std@@ 004761d0     libcpmt:string.obj
 0002:0000d1e0       __CT??_R0?AVlength_error@std@@@8??0length_error@std@@QAE@ABV01@@Z40 004761e0     libcpmt:string.obj
 0002:0000d1fc       __CT??_R0?AVlogic_error@std@@@8??0logic_error@std@@QAE@ABV01@@Z40 004761fc     libcpmt:string.obj
 0002:0000d244       __TI3?AVout_of_range@std@@ 00476244     libcpmt:string.obj
 0002:0000d280       __CTA3?AVout_of_range@std@@ 00476280     libcpmt:string.obj
 0002:0000d290       __CT??_R0?AVout_of_range@std@@@8??0out_of_range@std@@QAE@ABV01@@Z40 00476290     libcpmt:string.obj
 0002:0000d2ac       __TI3?AVinvalid_argument@std@@ 004762ac     libcpmt:string.obj
 0002:0000d2e8       __CTA3?AVinvalid_argument@std@@ 004762e8     libcpmt:string.obj
 0002:0000d2f8       __CT??_R0?AVinvalid_argument@std@@@8??0invalid_argument@std@@QAE@ABV01@@Z40 004762f8     libcpmt:string.obj
 0003:00000000       ?LOCAL_ACR@@3PAEA          00478000     test.obj
 0003:00000014       ?REMOTE_ACR@@3PAEA         00478014     test.obj
 0003:00000028       ?PORT@@3PAEA               00478028     test.obj
 0003:0000003c       ?gatewayname@@3PADA        0047803c     test.obj
 0003:00000048       ?Directory@@3PAEA          00478048     test.obj
 0003:000000c8       ?gatewayport@@3PADA        004780c8     test.obj
 0003:000000d0       ?viewerport@@3PADA         004780d0     test.obj
 0003:00000100       ??_R0?AVDICOMCommandObject@@@8 00478100     test.obj
 0003:00000128       ??_R0?AVDICOMObject@@@8    00478128     test.obj
 0003:00000148       ??_R0?AV?$PQueueOfPtr@PAVVRGroupPQueue@@@@@8 00478148     test.obj
 0003:00000180       ??_R0?AV?$Array@PAVVRGroupPQueue@@@@@8 00478180     test.obj
 0003:000001b4       ??_R0?AVDICOMDataObject@@@8 004781b4     test.obj
 0003:000001d8       ??_R0?AVCStoreRQ@@@8       004781d8     test.obj
 0003:000001f4       ??_R0?AVCStoreRSP@@@8      004781f4     test.obj
 0003:00000210       ??_R0?AVStandardStorage@@@8 00478210     test.obj
 0003:00000234       ??_R0?AVRunTimeClassStorage@@@8 00478234     test.obj
 0003:00000260       ?TransferSyntaxAliases@@3PAU_TransferSyntaxAlias@@A 00478260     dicom:cong.obj
 0003:00000340       ??_R0?AVSocket@@@8         00478340     dicom:cong.obj
 0003:00000358       ??_R0?AVAAssociateRJ@@@8   00478358     dicom:cong.obj
 0003:00000374       ??_R0?AVAReleaseRQ@@@8     00478374     dicom:cong.obj
 0003:00000390       ??_R0?AVAReleaseRP@@@8     00478390     dicom:cong.obj
 0003:000003ac       ??_R0?AVAAbortRQ@@@8       004783ac     dicom:cong.obj
 0003:000003c4       ??_R0?AVbad_alloc@std@@@8  004783c4     dicom:cong.obj
 0003:000003e0       ??_R0?AVexception@std@@@8  004783e0     dicom:cong.obj
 0003:000003fc       ??_R0?AVfacet@locale@std@@@8 004783fc     dicom:cong.obj
 0003:0000041c       ??_R0?AVcodecvt_base@std@@@8 0047841c     dicom:cong.obj
 0003:0000043c       ??_R0?AUctype_base@std@@@8 0047843c     dicom:cong.obj
 0003:0000045c       ??_R0?AVios_base@std@@@8   0047845c     dicom:cong.obj
 0003:00000478       ??_R0?AV?$_Iosb@H@std@@@8  00478478     dicom:cong.obj
 0003:00000494       ??_R0?AV?$Array@PAVBufferSpace@@@@@8 00478494     dicom:cong.obj
 0003:000004bc       ??_R0?AV?$Array@PAVVR@@@@@8 004784bc     dicom:cong.obj
 0003:000004dc       ??_R0?AV?$Array@VTransferSyntax@@@@@8 004784dc     dicom:cong.obj
 0003:00000504       ??_R0?AV?$Array@VPresentationContext@@@@@8 00478504     dicom:cong.obj
 0003:00000534       ??_R0?AV?$Array@VPresentationContextAccept@@@@@8 00478534     dicom:cong.obj
 0003:00000568       ??_R0?AV?$Array@VAbstractSyntax@@@@@8 00478568     dicom:cong.obj
 0003:00000590       ??_R0?AV?$Array@PAVDICOMObject@@@@@8 00478590     dicom:cong.obj
 0003:000005b8       ??_R0?AV?$Array@PAVDICOMDataObject@@@@@8 004785b8     dicom:cong.obj
 0003:000005e4       ??_R0?AV?$Array@U_RTCElement@@@@@8 004785e4     dicom:cong.obj
 0003:0000060c       ??_R0?AV?$Array@PAU_ACRNemaAddress@@@@@8 0047860c     dicom:cong.obj
 0003:00000638       ??_R0?AV?$basic_ios@DU?$char_traits@D@std@@@std@@@8 00478638     dicom:cong.obj
 0003:00000670       ??_R0?AV?$basic_istream@DU?$char_traits@D@std@@@std@@@8 00478670     dicom:cong.obj
 0003:000006ac       ??_R0?AV?$Array@V?$FixedArrayElement@IU_RTCElement@@@@@@@8 004786ac     dicom:cong.obj
 0003:000006ec       ??_R0?AV?$PQueueOfPtr@PAVVR@@@@@8 004786ec     dicom:cong.obj
 0003:00000710       ??_R0?AVBuffer@@@8         00478710     dicom:cong.obj
 0003:00000728       ??_R0?AV?$basic_streambuf@DU?$char_traits@D@std@@@std@@@8 00478728     dicom:cong.obj
 0003:00000764       ??_R0?AVVRGroupPQueue@@@8  00478764     dicom:cong.obj
 0003:00000780       ??_R0?AVLinkedBuffer@@@8   00478780     dicom:cong.obj
 0003:0000079c       ??_R0?AVMemoryBuffer@@@8   0047879c     dicom:cong.obj
 0003:000007b8       ??_R0?AVPDataTF@@@8        004787b8     dicom:cong.obj
 0003:000007d0       ??_R0?AVFileBuffer@@@8     004787d0     dicom:cong.obj
 0003:000007ec       ??_R0?AV?$PQueue@V?$FixedArrayElement@IU_RTCElement@@@@@@@8 004787ec     dicom:cong.obj
 0003:0000082c       ??_R0?AVAAssociateAC@@@8   0047882c     dicom:cong.obj
 0003:00000848       ??_R0?AV?$basic_filebuf@DU?$char_traits@D@std@@@std@@@8 00478848     dicom:cong.obj
 0003:00000884       ??_R0?AVruntime_error@std@@@8 00478884     dicom:cong.obj
 0003:000008a4       ??_R0?AVfailure@ios_base@std@@@8 004788a4     dicom:cong.obj
 0003:000008c8       ??_R0?AVAAssociateRQ@@@8   004788c8     dicom:cong.obj
 0003:000008e4       ??_R0?AVPDU_Service@@@8    004788e4     dicom:cong.obj
 0003:00000900       ??_R0?AVCheckedPDU_Service@@@8 00478900     dicom:cong.obj
 0003:00000924       ??_R0?AV?$ctype@D@std@@@8  00478924     dicom:cong.obj
 0003:00000940       ??_R0?AVbad_cast@std@@@8   00478940     dicom:cong.obj
 0003:0000095c       ??_R0?AV?$codecvt@DDH@std@@@8 0047895c     dicom:cong.obj
 0003:0000097c       ??_R0?AV?$basic_ifstream@DU?$char_traits@D@std@@@std@@@8 0047897c     dicom:cong.obj
 0003:000009c0       __iob                      004789c0     LIBCMT:_file.obj
 0003:00000c40       ___security_cookie         00478c40     LIBCMT:gs_cookie.obj
 0003:00000c44       ___security_cookie_complement 00478c44     LIBCMT:gs_cookie.obj
 0003:00000c4c       ??_R0?AVtype_info@@@8      00478c4c     LIBCMT:typinfo.obj
 0003:00000c70       __aexit_rtn                00478c70     LIBCMT:crt0dat.obj
 0003:00000c74       ___app_type                00478c74     LIBCMT:crt0.obj
 0003:00000c84       ??_R0?AVbad_typeid@std@@@8 00478c84     LIBCMT:stdexcpt.obj
 0003:00000ca4       ??_R0?AV__non_rtti_object@std@@@8 00478ca4     LIBCMT:stdexcpt.obj
 0003:00000e38       ___nullstring              00478e38     LIBCMT:output.obj
 0003:00000e3c       ___wnullstring             00478e3c     LIBCMT:output.obj
 0003:00000e40       ___badioinfo               00478e40     LIBCMT:ioinit.obj
 0003:00000f9c       ??_R0?AVbad_exception@std@@@8 00478f9c     LIBCMT:frame.obj
 0003:00000fbc       ___flsindex                00478fbc     LIBCMT:tidtable.obj
 0003:00000fc0       ___getvalueindex           00478fc0     LIBCMT:tidtable.obj
 0003:00000fe0       ___abort_behavior          00478fe0     LIBCMT:abort.obj
 0003:000010a0       __cfltcvt_tab              004790a0     LIBCMT:cmiscdat.obj
 0003:000010c8       __XcptActTab               004790c8     LIBCMT:winxfltr.obj
 0003:00001140       __First_FPE_Indx           00479140     LIBCMT:winxfltr.obj
 0003:00001144       __Num_FPE                  00479144     LIBCMT:winxfltr.obj
 0003:00001148       __XcptActTabSize           00479148     LIBCMT:winxfltr.obj
 0003:0000114c       __XcptActTabCount          0047914c     LIBCMT:winxfltr.obj
 0003:00001150       __amblksiz                 00479150     LIBCMT:heapinit.obj
 0003:00001160       __lookuptrailbytes         00479160     LIBCMT:read.obj
 0003:00001260       __sys_errlist              00479260     LIBCMT:syserr.obj
 0003:00001310       __sys_nerr                 00479310     LIBCMT:syserr.obj
 0003:00001318       ___initialmbcinfo          00479318     LIBCMT:mbctype.obj
 0003:00001538       __mbctype                  00479538     LIBCMT:mbctype.obj
 0003:00001640       __mbcasemap                00479640     LIBCMT:mbctype.obj
 0003:00001740       ___ptmbcinfo               00479740     LIBCMT:mbctype.obj
 0003:0000183c       ___globallocalestatus      0047983c     LIBCMT:glstatus.obj
 0003:00001840       ___clocalestr              00479840     LIBCMT:nlsdata2.obj
 0003:00001848       ___initiallocinfo          00479848     LIBCMT:nlsdata2.obj
 0003:00001920       ___ptlocinfo               00479920     LIBCMT:nlsdata2.obj
 0003:00001924       ___lc_clike                00479924     LIBCMT:nlsdata2.obj
 0003:00001928       ___initiallocalestructinfo 00479928     LIBCMT:nlsdata2.obj
 0003:00001930       __NLG_Destination          00479930     LIBCMT:exsup.obj
 0003:00001940       ??_R0?AVDNameNode@@@8      00479940     LIBCMT:undname.obj
 0003:00001958       ??_R0?AVcharNode@@@8       00479958     LIBCMT:undname.obj
 0003:00001970       ??_R0?AVpDNameNode@@@8     00479970     LIBCMT:undname.obj
 0003:0000198c       ??_R0?AVDNameStatusNode@@@8 0047998c     LIBCMT:undname.obj
 0003:000019ac       ??_R0?AVpcharNode@@@8      004799ac     LIBCMT:undname.obj
 0003:000019c8       __timezone                 004799c8     LIBCMT:timeset.obj
 0003:000019cc       __daylight                 004799cc     LIBCMT:timeset.obj
 0003:000019d0       __dstbias                  004799d0     LIBCMT:timeset.obj
 0003:00001a58       __tzname                   00479a58     LIBCMT:timeset.obj
 0003:00001a60       __lpdays                   00479a60     LIBCMT:days.obj
 0003:00001a94       __days                     00479a94     LIBCMT:days.obj
 0003:00001ae4       __pctype                   00479ae4     LIBCMT:ctype.obj
 0003:00001ae8       __pwctype                  00479ae8     LIBCMT:ctype.obj
 0003:00001af0       ___lc_time_c               00479af0     LIBCMT:strftime.obj
 0003:00001ba8       ___lc_time_curr            00479ba8     LIBCMT:strftime.obj
 0003:00001bac       ___lconv_static_decimal    00479bac     LIBCMT:lconv.obj
 0003:00001bb0       ___lconv_c                 00479bb0     LIBCMT:lconv.obj
 0003:00001be0       ___lconv                   00479be0     LIBCMT:lconv.obj
 0003:00001be4       ___mb_cur_max              00479be4     LIBCMT:nlsdata1.obj
 0003:00001be8       ___decimal_point           00479be8     LIBCMT:nlsdata1.obj
 0003:00001bec       ___decimal_point_length    00479bec     LIBCMT:nlsdata1.obj
 0003:00001bf0       __coninpfh                 00479bf0     LIBCMT:initcon.obj
 0003:00001bf4       __confh                    00479bf4     LIBCMT:initcon.obj
 0003:00001c08       ??_R0?AV_Locimp@locale@std@@@8 00479c08     libcpmt:locale0.obj
 0003:00001c30       ?_Sync@ios_base@std@@0_NA  00479c30     libcpmt:ios.obj
 0003:00001c38       ??_R0?AVlogic_error@std@@@8 00479c38     libcpmt:string.obj
 0003:00001c58       ??_R0?AVinvalid_argument@std@@@8 00479c58     libcpmt:string.obj
 0003:00001c7c       ??_R0?AVlength_error@std@@@8 00479c7c     libcpmt:string.obj
 0003:00001c9c       ??_R0?AVout_of_range@std@@@8 00479c9c     libcpmt:string.obj
 0003:00001d08       ?_PJP_CPP_Copyright@@3PADA 00479d08     libcpmt:iosptrs.obj
 0003:000023e0       ?ForkAProc@@3HA            0047a3e0     test.obj
 0003:000023e4       ?ForkProc@@3P6AHPAVDICOMDataObject@@@ZA 0047a3e4     test.obj
 0003:000023e8       ?PNAME@@3PAEA              0047a3e8     test.obj
 0003:00002428       ?returndump@@3HA           0047a428     test.obj
 0003:00002430       ?VRType@@3VRTC@@A          0047a430     test.obj
 0003:000025e4       ?DicomErrorHandler@@3P6AXHPBDH@ZA 0047a5e4     dicom:cong.obj
 0003:000025e8       ?_Stinit@?1??_Init@?$basic_filebuf@DU?$char_traits@D@std@@@std@@IAEXPAU_iobuf@@W4_Initfl@23@@Z@4HA 0047a5e8     dicom:cong.obj
 0003:000025ec       ?_Psave@?$_Facetptr@V?$ctype@D@std@@@std@@2PBVfacet@locale@2@B 0047a5ec     dicom:cong.obj
 0003:000025f0       ?_Psave@?$_Facetptr@V?$codecvt@DDH@std@@@std@@2PBVfacet@locale@2@B 0047a5f0     dicom:cong.obj
 0003:000025f4       ?id@?$codecvt@DDH@std@@2V0locale@2@A 0047a5f4     dicom:cong.obj
 0003:000025f8       __cflush                   0047a5f8     LIBCMT:_file.obj
 0003:00002610       __umaskval                 0047a610     LIBCMT:crt0dat.obj
 0003:00002614       __osplatform               0047a614     LIBCMT:crt0dat.obj
 0003:00002618       __osver                    0047a618     LIBCMT:crt0dat.obj
 0003:0000261c       __winver                   0047a61c     LIBCMT:crt0dat.obj
 0003:00002620       __winmajor                 0047a620     LIBCMT:crt0dat.obj
 0003:00002624       __winminor                 0047a624     LIBCMT:crt0dat.obj
 0003:00002628       ___argc                    0047a628     LIBCMT:crt0dat.obj
 0003:0000262c       ___argv                    0047a62c     LIBCMT:crt0dat.obj
 0003:00002630       ___wargv                   0047a630     LIBCMT:crt0dat.obj
 0003:00002634       __environ                  0047a634     LIBCMT:crt0dat.obj
 0003:00002638       ___initenv                 0047a638     LIBCMT:crt0dat.obj
 0003:0000263c       __wenviron                 0047a63c     LIBCMT:crt0dat.obj
 0003:00002640       ___winitenv                0047a640     LIBCMT:crt0dat.obj
 0003:00002644       __pgmptr                   0047a644     LIBCMT:crt0dat.obj
 0003:00002648       __wpgmptr                  0047a648     LIBCMT:crt0dat.obj
 0003:0000264c       __exitflag                 0047a64c     LIBCMT:crt0dat.obj
 0003:00002650       __C_Termination_Done       0047a650     LIBCMT:crt0dat.obj
 0003:00002654       __C_Exit_Done              0047a654     LIBCMT:crt0dat.obj
 0003:00002658       __aenvptr                  0047a658     LIBCMT:crt0.obj
 0003:0000265c       __wenvptr                  0047a65c     LIBCMT:crt0.obj
 0003:00002660       ___error_mode              0047a660     LIBCMT:crt0.obj
 0003:00002664       ___pInvalidArgHandler      0047a664     LIBCMT:invarg.obj
 0003:00002668       __stdbuf                   0047a668     LIBCMT:_sftbuf.obj
 0003:00002670       __maxwait                  0047a670     LIBCMT:crtheap.obj
 0003:00002aec       _gpFlsAlloc                0047aaec     LIBCMT:tidtable.obj
 0003:00002af0       _gpFlsGetValue             0047aaf0     LIBCMT:tidtable.obj
 0003:00002af4       _gpFlsSetValue             0047aaf4     LIBCMT:tidtable.obj
 0003:00002af8       _gpFlsFree                 0047aaf8     LIBCMT:tidtable.obj
 0003:00002afc       ?__pInconsistency@@3P6AXXZA 0047aafc     LIBCMT:hooks.obj
 0003:00002b08       ?_pnhHeap@@3P6AHI@ZA       0047ab08     LIBCMT:handler.obj
 0003:00002e2c       ___pPurecall               0047ae2c     LIBCMT:inithelp.obj
 0003:00002f5c       __crtheap                  0047af5c     LIBCMT:heapinit.obj
 0003:00002f7c       ___sbh_pHeaderDefer        0047af7c     LIBCMT:sbheap.obj
 0003:00002f80       __newmode                  0047af80     LIBCMT:_newmode.obj
 0003:00002f88       ___mbulinfo                0047af88     LIBCMT:mbctype.obj
 0003:00002f94       ___mbcodepage              0047af94     LIBCMT:mbctype.obj
 0003:00002f98       ___ismbcodepage            0047af98     LIBCMT:mbctype.obj
 0003:00002f9c       ___mblcid                  0047af9c     LIBCMT:mbctype.obj
 0003:00002fa0       ___locale_changed          0047afa0     LIBCMT:setlocal.obj
 0003:00002fa4       ___lc_handle               0047afa4     LIBCMT:nlsdata2.obj
 0003:00002fbc       ___lc_codepage             0047afbc     LIBCMT:nlsdata2.obj
 0003:00002fc0       ___lc_collate_cp           0047afc0     LIBCMT:nlsdata2.obj
 0003:00002fd8       ?pArgList@UnDecorator@@0PAVReplicator@@A 0047afd8     LIBCMT:undname.obj
 0003:00002fdc       ?pZNameList@UnDecorator@@0PAVReplicator@@A 0047afdc     LIBCMT:undname.obj
 0003:00002fe0       ?pTemplateArgList@UnDecorator@@0PAVReplicator@@A 0047afe0     LIBCMT:undname.obj
 0003:00002fe4       ?gName@UnDecorator@@0PBDB  0047afe4     LIBCMT:undname.obj
 0003:00002fe8       ?name@UnDecorator@@0PBDB   0047afe8     LIBCMT:undname.obj
 0003:00002fec       ?outputString@UnDecorator@@0PADA 0047afec     LIBCMT:undname.obj
 0003:00002ff0       ?maxStringLength@UnDecorator@@0HA 0047aff0     LIBCMT:undname.obj
 0003:00002ff4       ?disableFlags@UnDecorator@@0KA 0047aff4     LIBCMT:undname.obj
 0003:00002ff8       ?m_pGetParameter@UnDecorator@@0P6APADJ@ZA 0047aff8     LIBCMT:undname.obj
 0003:00002ffc       ?fExplicitTemplateParams@UnDecorator@@0_NA 0047affc     LIBCMT:undname.obj
 0003:00002ffd       ?fGetTemplateArgumentList@UnDecorator@@0_NA 0047affd     LIBCMT:undname.obj
 0003:000030d8       __commode                  0047b0d8     LIBCMT:ncommode.obj
 0003:000030e4       ___lconv_static_null       0047b0e4     LIBCMT:lconv.obj
 0003:000030ec       __fmode                    0047b0ec     LIBCMT:txtmode.obj
 0003:00003164       ?_Clocptr@_Locimp@locale@std@@0PAV123@A 0047b164     libcpmt:locale0.obj
 0003:00003168       ?_Id_cnt@id@locale@std@@0HA 0047b168     libcpmt:locale0.obj
 0003:0000316c       ?id@?$ctype@D@std@@2V0locale@2@A 0047b16c     libcpmt:locale0.obj
 0003:00003170       ?id@?$codecvt@GDH@std@@2V0locale@2@A 0047b170     libcpmt:locale0.obj
 0003:00003174       ?id@?$ctype@_W@std@@2V0locale@2@A 0047b174     libcpmt:locale0.obj
 0003:00003178       ?id@?$codecvt@_WDH@std@@2V0locale@2@A 0047b178     libcpmt:locale0.obj
 0003:00003180       ?id@?$ctype@G@std@@2V0locale@2@A 0047b180     libcpmt:locale0.obj
 0003:00003188       ?_Fpz@std@@3_JA            0047b188     libcpmt:ios.obj
 0003:00003190       ?_Index@ios_base@std@@0HA  0047b190     libcpmt:ios.obj
 0003:000031c8       ?_Ptr_cin@std@@3PAV?$basic_istream@DU?$char_traits@D@std@@@1@A 0047b1c8     libcpmt:iosptrs.obj
 0003:000031cc       ?_Ptr_cout@std@@3PAV?$basic_ostream@DU?$char_traits@D@std@@@1@A 0047b1cc     libcpmt:iosptrs.obj
 0003:000031d0       ?_Ptr_cerr@std@@3PAV?$basic_ostream@DU?$char_traits@D@std@@@1@A 0047b1d0     libcpmt:iosptrs.obj
 0003:000031d4       ?_Ptr_clog@std@@3PAV?$basic_ostream@DU?$char_traits@D@std@@@1@A 0047b1d4     libcpmt:iosptrs.obj
 0003:000031d8       ?_Ptr_wcin@std@@3PAV?$basic_istream@_WU?$char_traits@_W@std@@@1@A 0047b1d8     libcpmt:iosptrs.obj
 0003:000031dc       ?_Ptr_wcout@std@@3PAV?$basic_ostream@_WU?$char_traits@_W@std@@@1@A 0047b1dc     libcpmt:iosptrs.obj
 0003:000031e0       ?_Ptr_wcerr@std@@3PAV?$basic_ostream@_WU?$char_traits@_W@std@@@1@A 0047b1e0     libcpmt:iosptrs.obj
 0003:000031e4       ?_Ptr_wclog@std@@3PAV?$basic_ostream@_WU?$char_traits@_W@std@@@1@A 0047b1e4     libcpmt:iosptrs.obj
 0003:00003218       ___setlc_active            0047b218     <common>
 0003:00003228       ___unguarded_readlc_active 0047b228     <common>
 0003:0000322c       __debugger_hook_dummy      0047b22c     <common>
 0003:00003238       ___sbh_initialized         0047b238     <common>
 0003:0000324c       ___sbh_cntHeaderList       0047b24c     <common>
 0003:00003250       ___sbh_pHeaderList         0047b250     <common>
 0003:00003254       ___sbh_threshold           0047b254     <common>
 0003:00003258       ___sbh_pHeaderScan         0047b258     <common>
 0003:0000325c       ___sbh_sizeHeaderList      0047b25c     <common>
 0003:00003260       ___sbh_indGroupDefer       0047b260     <common>
 0003:00003264       ___active_heap             0047b264     <common>
 0003:00003270       __nhandle                  0047b270     <common>
 0003:000032c0       ___pioinfo                 0047b2c0     <common>
 0003:000033c0       ___use_sse2_mathfcns       0047b3c0     <common>
 0003:000033d0       ___sse2_available          0047b3d0     <common>
 0003:000033d4       __acmdln                   0047b3d4     <common>
 0003:000033e0       ___env_initialized         0047b3e0     <common>
 0003:000033f0       ___onexitend               0047b3f0     <common>
 0003:000033f4       ___onexitbegin             0047b3f4     <common>
 0003:000033f8       ___mbctype_initialized     0047b3f8     <common>
 0003:000033fc       __FPinit                   0047b3fc     <common>
 0003:00003400       ___dyn_tls_init_callback   0047b400     <common>
 0003:00003404       ___piob                    0047b404     <common>
 0003:00003760       __bufin                    0047b760     <common>
 0003:00004760       __nstream                  0047c760     <common>
 0004:00000000       __IMPORT_DESCRIPTOR_WSOCK32 0047d000     wsock32:WSOCK32.dll
 0004:00000014       __IMPORT_DESCRIPTOR_KERNEL32 0047d014     kernel32:KERNEL32.dll
 0004:00000028       __NULL_IMPORT_DESCRIPTOR   0047d028     wsock32:WSOCK32.dll
 0004:0000029c       __imp__GetCurrentThread@0  0047d29c     kernel32:KERNEL32.dll
 0004:000002a0       __imp__SetEnvironmentVariableA@8 0047d2a0     kernel32:KERNEL32.dll
 0004:000002a4       __imp__CompareStringW@24   0047d2a4     kernel32:KERNEL32.dll
 0004:000002a8       __imp__CompareStringA@24   0047d2a8     kernel32:KERNEL32.dll
 0004:000002ac       __imp__SetEndOfFile@4      0047d2ac     kernel32:KERNEL32.dll
 0004:000002b0       __imp__IsValidLocale@8     0047d2b0     kernel32:KERNEL32.dll
 0004:000002b4       __imp__EnumSystemLocalesA@8 0047d2b4     kernel32:KERNEL32.dll
 0004:000002b8       __imp__GetUserDefaultLCID@0 0047d2b8     kernel32:KERNEL32.dll
 0004:000002bc       __imp__GetDateFormatA@24   0047d2bc     kernel32:KERNEL32.dll
 0004:000002c0       __imp__GetTimeFormatA@24   0047d2c0     kernel32:KERNEL32.dll
 0004:000002c4       __imp__GetStringTypeW@16   0047d2c4     kernel32:KERNEL32.dll
 0004:000002c8       __imp__GetStringTypeA@20   0047d2c8     kernel32:KERNEL32.dll
 0004:000002cc       __imp__LCMapStringW@24     0047d2cc     kernel32:KERNEL32.dll
 0004:000002d0       __imp__LCMapStringA@24     0047d2d0     kernel32:KERNEL32.dll
 0004:000002d4       __imp__WriteConsoleW@20    0047d2d4     kernel32:KERNEL32.dll
 0004:000002d8       __imp__GetConsoleOutputCP@0 0047d2d8     kernel32:KERNEL32.dll
 0004:000002dc       __imp__WriteConsoleA@20    0047d2dc     kernel32:KERNEL32.dll
 0004:000002e0       __imp__CreateFileA@28      0047d2e0     kernel32:KERNEL32.dll
 0004:000002e4       __imp__ExitThread@4        0047d2e4     kernel32:KERNEL32.dll
 0004:000002e8       __imp__CreateThread@24     0047d2e8     kernel32:KERNEL32.dll
 0004:000002ec       __imp__EnterCriticalSection@4 0047d2ec     kernel32:KERNEL32.dll
 0004:000002f0       __imp__LeaveCriticalSection@4 0047d2f0     kernel32:KERNEL32.dll
 0004:000002f4       __imp__RtlUnwind@16        0047d2f4     kernel32:KERNEL32.dll
 0004:000002f8       __imp__GetProcAddress@8    0047d2f8     kernel32:KERNEL32.dll
 0004:000002fc       __imp__GetModuleHandleA@4  0047d2fc     kernel32:KERNEL32.dll
 0004:00000300       __imp__ExitProcess@4       0047d300     kernel32:KERNEL32.dll
 0004:00000304       __imp__GetCommandLineA@0   0047d304     kernel32:KERNEL32.dll
 0004:00000308       __imp__HeapFree@12         0047d308     kernel32:KERNEL32.dll
 0004:0000030c       __imp__GetVersionExA@4     0047d30c     kernel32:KERNEL32.dll
 0004:00000310       __imp__HeapAlloc@12        0047d310     kernel32:KERNEL32.dll
 0004:00000314       __imp__GetProcessHeap@0    0047d314     kernel32:KERNEL32.dll
 0004:00000318       __imp__GetSystemTimeAsFileTime@4 0047d318     kernel32:KERNEL32.dll
 0004:0000031c       __imp__GetLastError@0      0047d31c     kernel32:KERNEL32.dll
 0004:00000320       __imp__TerminateProcess@8  0047d320     kernel32:KERNEL32.dll
 0004:00000324       __imp__GetCurrentProcess@0 0047d324     kernel32:KERNEL32.dll
 0004:00000328       __imp__UnhandledExceptionFilter@4 0047d328     kernel32:KERNEL32.dll
 0004:0000032c       __imp__SetUnhandledExceptionFilter@4 0047d32c     kernel32:KERNEL32.dll
 0004:00000330       __imp__IsDebuggerPresent@0 0047d330     kernel32:KERNEL32.dll
 0004:00000334       __imp__RaiseException@16   0047d334     kernel32:KERNEL32.dll
 0004:00000338       __imp__SetHandleCount@4    0047d338     kernel32:KERNEL32.dll
 0004:0000033c       __imp__GetStdHandle@4      0047d33c     kernel32:KERNEL32.dll
 0004:00000340       __imp__GetFileType@4       0047d340     kernel32:KERNEL32.dll
 0004:00000344       __imp__GetStartupInfoA@4   0047d344     kernel32:KERNEL32.dll
 0004:00000348       __imp__DeleteCriticalSection@4 0047d348     kernel32:KERNEL32.dll
 0004:0000034c       __imp__Sleep@4             0047d34c     kernel32:KERNEL32.dll
 0004:00000350       __imp__FatalAppExitA@8     0047d350     kernel32:KERNEL32.dll
 0004:00000354       __imp__TlsGetValue@4       0047d354     kernel32:KERNEL32.dll
 0004:00000358       __imp__TlsAlloc@0          0047d358     kernel32:KERNEL32.dll
 0004:0000035c       __imp__TlsSetValue@8       0047d35c     kernel32:KERNEL32.dll
 0004:00000360       __imp__TlsFree@4           0047d360     kernel32:KERNEL32.dll
 0004:00000364       __imp__InterlockedIncrement@4 0047d364     kernel32:KERNEL32.dll
 0004:00000368       __imp__SetLastError@4      0047d368     kernel32:KERNEL32.dll
 0004:0000036c       __imp__GetCurrentThreadId@0 0047d36c     kernel32:KERNEL32.dll
 0004:00000370       __imp__InterlockedDecrement@4 0047d370     kernel32:KERNEL32.dll
 0004:00000374       __imp__CreateFileW@28      0047d374     kernel32:KERNEL32.dll
 0004:00000378       __imp__WriteFile@20        0047d378     kernel32:KERNEL32.dll
 0004:0000037c       __imp__GetModuleFileNameA@12 0047d37c     kernel32:KERNEL32.dll
 0004:00000380       __imp__SetConsoleCtrlHandler@8 0047d380     kernel32:KERNEL32.dll
 0004:00000384       __imp__FreeLibrary@4       0047d384     kernel32:KERNEL32.dll
 0004:00000388       __imp__InterlockedExchange@8 0047d388     kernel32:KERNEL32.dll
 0004:0000038c       __imp__LoadLibraryA@4      0047d38c     kernel32:KERNEL32.dll
 0004:00000390       __imp__InitializeCriticalSection@4 0047d390     kernel32:KERNEL32.dll
 0004:00000394       __imp__HeapSize@12         0047d394     kernel32:KERNEL32.dll
 0004:00000398       __imp__FreeEnvironmentStringsA@4 0047d398     kernel32:KERNEL32.dll
 0004:0000039c       __imp__GetEnvironmentStrings@0 0047d39c     kernel32:KERNEL32.dll
 0004:000003a0       __imp__FreeEnvironmentStringsW@4 0047d3a0     kernel32:KERNEL32.dll
 0004:000003a4       __imp__WideCharToMultiByte@32 0047d3a4     kernel32:KERNEL32.dll
 0004:000003a8       __imp__GetEnvironmentStringsW@0 0047d3a8     kernel32:KERNEL32.dll
 0004:000003ac       __imp__HeapDestroy@4       0047d3ac     kernel32:KERNEL32.dll
 0004:000003b0       __imp__HeapCreate@12       0047d3b0     kernel32:KERNEL32.dll
 0004:000003b4       __imp__VirtualFree@12      0047d3b4     kernel32:KERNEL32.dll
 0004:000003b8       __imp__QueryPerformanceCounter@4 0047d3b8     kernel32:KERNEL32.dll
 0004:000003bc       __imp__GetTickCount@0      0047d3bc     kernel32:KERNEL32.dll
 0004:000003c0       __imp__GetCurrentProcessId@0 0047d3c0     kernel32:KERNEL32.dll
 0004:000003c4       __imp__VirtualAlloc@16     0047d3c4     kernel32:KERNEL32.dll
 0004:000003c8       __imp__HeapReAlloc@16      0047d3c8     kernel32:KERNEL32.dll
 0004:000003cc       __imp__CloseHandle@4       0047d3cc     kernel32:KERNEL32.dll
 0004:000003d0       __imp__SetFilePointer@16   0047d3d0     kernel32:KERNEL32.dll
 0004:000003d4       __imp__GetConsoleCP@0      0047d3d4     kernel32:KERNEL32.dll
 0004:000003d8       __imp__GetConsoleMode@8    0047d3d8     kernel32:KERNEL32.dll
 0004:000003dc       __imp__MultiByteToWideChar@24 0047d3dc     kernel32:KERNEL32.dll
 0004:000003e0       __imp__ReadFile@20         0047d3e0     kernel32:KERNEL32.dll
 0004:000003e4       __imp__FlushFileBuffers@4  0047d3e4     kernel32:KERNEL32.dll
 0004:000003e8       __imp__GetCPInfo@8         0047d3e8     kernel32:KERNEL32.dll
 0004:000003ec       __imp__GetACP@0            0047d3ec     kernel32:KERNEL32.dll
 0004:000003f0       __imp__GetOEMCP@0          0047d3f0     kernel32:KERNEL32.dll
 0004:000003f4       __imp__IsValidCodePage@4   0047d3f4     kernel32:KERNEL32.dll
 0004:000003f8       __imp__GetLocaleInfoA@16   0047d3f8     kernel32:KERNEL32.dll
 0004:000003fc       __imp__GetLocaleInfoW@16   0047d3fc     kernel32:KERNEL32.dll
 0004:00000400       __imp__GetTimeZoneInformation@4 0047d400     kernel32:KERNEL32.dll
 0004:00000404       __imp__SetStdHandle@8      0047d404     kernel32:KERNEL32.dll
 0004:00000408       \177KERNEL32_NULL_THUNK_DATA 0047d408     kernel32:KERNEL32.dll
 0004:0000047c       __imp__accept@12           0047d47c     wsock32:WSOCK32.dll
 0004:00000480       __imp__listen@8            0047d480     wsock32:WSOCK32.dll
 0004:00000484       __imp__bind@12             0047d484     wsock32:WSOCK32.dll
 0004:00000488       __imp__WSAGetLastError@0   0047d488     wsock32:WSOCK32.dll
 0004:0000048c       __imp__recv@16             0047d48c     wsock32:WSOCK32.dll
 0004:00000490       __imp__send@16             0047d490     wsock32:WSOCK32.dll
 0004:00000494       __imp__select@20           0047d494     wsock32:WSOCK32.dll
 0004:00000498       __imp__socket@12           0047d498     wsock32:WSOCK32.dll
 0004:0000049c       __imp__setsockopt@20       0047d49c     wsock32:WSOCK32.dll
 0004:000004a0       __imp__connect@12          0047d4a0     wsock32:WSOCK32.dll
 0004:000004a4       __imp__getservbyname@8     0047d4a4     wsock32:WSOCK32.dll
 0004:000004a8       __imp__htons@4             0047d4a8     wsock32:WSOCK32.dll
 0004:000004ac       __imp__gethostbyname@4     0047d4ac     wsock32:WSOCK32.dll
 0004:000004b0       __imp__inet_addr@4         0047d4b0     wsock32:WSOCK32.dll
 0004:000004b4       __imp__shutdown@8          0047d4b4     wsock32:WSOCK32.dll
 0004:000004b8       __imp__closesocket@4       0047d4b8     wsock32:WSOCK32.dll
 0004:000004bc       __imp__WSACleanup@0        0047d4bc     wsock32:WSOCK32.dll
 0004:000004c0       __imp__WSAStartup@8        0047d4c0     wsock32:WSOCK32.dll
 0004:000004c4       \177WSOCK32_NULL_THUNK_DATA 0047d4c4     wsock32:WSOCK32.dll

 entry point at        0001:0002b48c

