 dgate

 Timestamp is 519decff (Thu May 23 11:18:39 2013)

 Preferred load address is 0000000140000000

 Start         Length     Name                   Class
 0001:00000000 00298096H .text                   CODE
 0001:002980a0 00002608H .text$x                 CODE
 0001:0029a6b0 00001bfaH .text$yc                CODE
 0001:0029c2b0 000014bdH .text$yd                CODE
 0002:00000000 00000109H .CRT$XCA                DATA
 0002:00000110 0000011cH .CRT$XCC                DATA
 0002:00000230 00000113H .CRT$XCL                DATA
 0002:00000348 00000196H .CRT$XCU                DATA
 0002:000004e0 00000109H .CRT$XCZ                DATA
 0002:000005f0 00000109H .CRT$XIA                DATA
 0002:00000700 00000126H .CRT$XIC                DATA
 0002:00000828 00000109H .CRT$XIY                DATA
 0002:00000938 00000109H .CRT$XIZ                DATA
 0002:00000a48 00000109H .CRT$XPA                DATA
 0002:00000b58 0000011cH .CRT$XPX                DATA
 0002:00000c78 00000109H .CRT$XPXA               DATA
 0002:00000d88 00000109H .CRT$XPZ                DATA
 0002:00000e98 00000109H .CRT$XTA                DATA
 0002:00000fa8 00000109H .CRT$XTZ                DATA
 0002:000010c0 0004194eH .rdata                  DATA
 0002:00042a10 00000163H .rdata$debug            DATA
 0002:00042b80 00006ebcH .rdata$r                DATA
 0002:00049a40 00000109H .rtc$IAA                DATA
 0002:00049b50 00000109H .rtc$IZZ                DATA
 0002:00049c60 00000109H .rtc$TAA                DATA
 0002:00049d70 00000109H .rtc$TZZ                DATA
 0002:00049e80 0002c908H .xdata                  DATA
 0002:00076788 000005a7H .xdata$x                DATA
 0002:00076d2f 00000000H .edata                  DATA
 0003:00000000 0000ae19H .data                   DATA
 0003:0000ae20 00448be4H .bss                    DATA
 0004:00000000 00018d44H .pdata                  DATA
 0005:00000000 00000050H .idata$2                DATA
 0005:00000050 00000014H .idata$3                DATA
 0005:00000068 00000868H .idata$4                DATA
 0005:000008d0 00000868H .idata$5                DATA
 0005:00001138 00000d97H .idata$6                DATA
 0006:00000000 00002436H text                    DATA
 0007:00000000 00007879H data                    DATA

  Address         Publics by Value              Rva+Base               Lib:Object

 0000:00000000       ___safe_se_handler_table   0000000000000000     <absolute>
 0000:00000000       ___safe_se_handler_count   0000000000000000     <absolute>
 0000:00000000       __ImageBase                0000000140000000     <linker-defined>
 0001:00005f90       ?strchr@@YAPEADPEADH@Z     0000000140006f90 f i total.obj
 0001:00005fa0       ?strrchr@@YAPEADPEADH@Z    0000000140006fa0 f i total.obj
 0001:00005fb0       ?strstr@@YAPEADPEADPEBD@Z  0000000140006fb0 f i total.obj
 0001:00005fc0       ?memchr@@YAPEAXPEAXH_K@Z   0000000140006fc0 f i total.obj
 0001:00006010       ?GetIncomingEndian@Buffer@@QEAAIXZ 0000000140007010 f i total.obj
 0001:00006020       ??0VR@@QEAA@XZ             0000000140007020 f i total.obj
 0001:00006050       ?GetBuffer@UID@@QEAAPEAEI@Z 0000000140007050 f i total.obj
 0001:00006060       ?SetLength@UID@@QEAAXI@Z   0000000140007060 f i total.obj
 0001:000060a0       ?GetSize@UID@@QEAAIXZ      00000001400070a0 f i total.obj
 0001:000060b0       ??8UID@@QEAAHAEAV0@@Z      00000001400070b0 f i total.obj
 0001:000060f0       ??9UID@@QEAAHAEAV0@@Z      00000001400070f0 f i total.obj
 0001:00006130       ??4UID@@QEAA?AV0@AEAV0@@Z  0000000140007130 f i total.obj
 0001:000061f0       ?SetType@TransferSyntax@@QEAAXI@Z 00000001400071f0 f i total.obj
 0001:00006200       ?OpenForRead@FileBuffer@@QEAAHPEAD@Z 0000000140007200 f   total.obj
 0001:00006250       ?OpenForWrite@FileBuffer@@QEAAHPEAD@Z 0000000140007250 f   total.obj
 0001:00006290       ?Close@FileBuffer@@QEAAHXZ 0000000140007290 f   total.obj
 0001:000062b0       ?SendBinary@FileBuffer@@UEAAHPEAEI@Z 00000001400072b0 f   total.obj
 0001:000062f0       ?ReadBinary@FileBuffer@@UEAAHPEAEI@Z 00000001400072f0 f   total.obj
 0001:00006370       ??0bad_alloc@std@@QEAA@PEBD@Z 0000000140007370 f i total.obj
 0001:000063b0       ??1bad_alloc@std@@UEAA@XZ  00000001400073b0 f i total.obj
 0001:000063d0       ??_Gbad_alloc@std@@UEAAPEAXI@Z 00000001400073d0 f i total.obj
 0001:000063d0       ??_Ebad_alloc@std@@UEAAPEAXI@Z 00000001400073d0 f i total.obj
 0001:00006420       ?copy@?$char_traits@D@std@@SAPEADPEADPEBD_K@Z 0000000140007420 f i total.obj
 0001:00006440       ?assign@?$char_traits@D@std@@SAPEADPEAD_KD@Z 0000000140007440 f i total.obj
 0001:00006470       ?assign@?$char_traits@D@std@@SAXAEADAEBD@Z 0000000140007470 f i total.obj
 0001:00006480       ?to_char_type@?$char_traits@D@std@@SADAEBH@Z 0000000140007480 f i total.obj
 0001:00006490       ?to_int_type@?$char_traits@D@std@@SAHAEBD@Z 0000000140007490 f i total.obj
 0001:000064a0       ?eq_int_type@?$char_traits@D@std@@SA_NAEBH0@Z 00000001400074a0 f i total.obj
 0001:000064b0       ?eof@?$char_traits@D@std@@SAHXZ 00000001400074b0 f i total.obj
 0001:000064c0       ?_Adopt@_Iterator_base0@std@@QEAAXPEBX@Z 00000001400074c0 f i total.obj
 0001:000064d0       ??0runtime_error@std@@QEAA@PEBD@Z 00000001400074d0 f i total.obj
 0001:00006510       ??1runtime_error@std@@UEAA@XZ 0000000140007510 f i total.obj
 0001:00006520       ?_Getctype@_Locinfo@std@@QEBA?AU_Ctypevec@@XZ 0000000140007520 f i total.obj
 0001:00006560       ??0id@locale@std@@QEAA@_K@Z 0000000140007560 f i total.obj
 0001:00006570       ??Bid@locale@std@@QEAA_KXZ 0000000140007570 f i total.obj
 0001:000065e0       ?_Incref@facet@locale@std@@QEAAXXZ 00000001400075e0 f i total.obj
 0001:00006630       ?_Decref@facet@locale@std@@QEAAPEAV123@XZ 0000000140007630 f i total.obj
 0001:000066a0       ?_Register@facet@locale@std@@QEAAXXZ 00000001400076a0 f i total.obj
 0001:000066b0       ??1facet@locale@std@@UEAA@XZ 00000001400076b0 f i total.obj
 0001:000066c0       ??0facet@locale@std@@IEAA@_K@Z 00000001400076c0 f i total.obj
 0001:000066e0       ??0locale@std@@QEAA@AEBV01@@Z 00000001400076e0 f i total.obj
 0001:00006740       ??0locale@std@@QEAA@XZ     0000000140007740 f i total.obj
 0001:000067b0       ??1locale@std@@QEAA@XZ     00000001400077b0 f i total.obj
 0001:00006830       ?_Getfacet@locale@std@@QEBAPEBVfacet@12@_K@Z 0000000140007830 f i total.obj
 0001:000068a0       ??_Efacet@locale@std@@UEAAPEAXI@Z 00000001400078a0 f i total.obj
 0001:000068a0       ??_Gfacet@locale@std@@UEAAPEAXI@Z 00000001400078a0 f i total.obj
 0001:000068d0       ??0codecvt_base@std@@QEAA@_K@Z 00000001400078d0 f i total.obj
 0001:000068f0       ?always_noconv@codecvt_base@std@@QEBA_NXZ 00000001400078f0 f i total.obj
 0001:00006900       ??1codecvt_base@std@@UEAA@XZ 0000000140007900 f i total.obj
 0001:00006910       ?do_always_noconv@codecvt_base@std@@MEBA_NXZ 0000000140007910 f i total.obj
 0001:00006920       ?do_max_length@codecvt_base@std@@MEBAHXZ 0000000140007920 f i total.obj
 0001:00006930       ?do_encoding@codecvt_base@std@@MEBAHXZ 0000000140007930 f i total.obj
 0001:00006940       ??_Ecodecvt_base@std@@UEAAPEAXI@Z 0000000140007940 f i total.obj
 0001:00006940       ??_Gcodecvt_base@std@@UEAAPEAXI@Z 0000000140007940 f i total.obj
 0001:00006970       ??0ctype_base@std@@QEAA@_K@Z 0000000140007970 f i total.obj
 0001:00006990       ??1ctype_base@std@@UEAA@XZ 0000000140007990 f i total.obj
 0001:000069a0       ??_Ectype_base@std@@UEAAPEAXI@Z 00000001400079a0 f i total.obj
 0001:000069a0       ??_Gctype_base@std@@UEAAPEAXI@Z 00000001400079a0 f i total.obj
 0001:000069d0       ?is@?$ctype@D@std@@QEBA_NFD@Z 00000001400079d0 f i total.obj
 0001:000069f0       ?widen@?$ctype@D@std@@QEBADD@Z 00000001400079f0 f i total.obj
 0001:00006a00       ?_Init@?$ctype@D@std@@IEAAXAEBV_Locinfo@2@@Z 0000000140007a00 f i total.obj
 0001:00006a40       ??0error_code@std@@QEAA@HAEBVerror_category@1@@Z 0000000140007a40 f i total.obj
 0001:00006a50       ?make_error_code@std@@YA?AVerror_code@1@W4io_errc@31@@Z 0000000140007a50 f i total.obj
 0001:00006a90       ?_Makestr@system_error@std@@AEAAXXZ 0000000140007a90 f i total.obj
 0001:00006aa0       ??1system_error@std@@UEAA@XZ 0000000140007aa0 f i total.obj
 0001:00006ab0       ?rdstate@ios_base@std@@QEBAHXZ 0000000140007ab0 f i total.obj
 0001:00006ac0       ?good@ios_base@std@@QEBA_NXZ 0000000140007ac0 f i total.obj
 0001:00006ad0       ?fail@ios_base@std@@QEBA_NXZ 0000000140007ad0 f i total.obj
 0001:00006ae0       ?flags@ios_base@std@@QEBAHXZ 0000000140007ae0 f i total.obj
 0001:00006af0       ?getloc@ios_base@std@@QEBA?AVlocale@2@XZ 0000000140007af0 f i total.obj
 0001:00006b50       ??1ios_base@std@@UEAA@XZ   0000000140007b50 f i total.obj
 0001:00006b70       ??0ios_base@std@@IEAA@XZ   0000000140007b70 f i total.obj
 0001:00006b90       ??_Eios_base@std@@UEAAPEAXI@Z 0000000140007b90 f i total.obj
 0001:00006b90       ??_Gios_base@std@@UEAAPEAXI@Z 0000000140007b90 f i total.obj
 0001:00006bf0       ?commentSize@@YAHPEBDH@Z   0000000140007bf0 f   total.obj
 0001:00006c50       ?AddTimeStamps@Debug@@QEAAXD@Z 0000000140007c50 f i total.obj
 0001:00006c60       ?GetBasePath@IniValue@@QEAAPEADXZ 0000000140007c60 f i total.obj
 0001:00006c70       ?GetIniFile@IniValue@@QEAAPEADXZ 0000000140007c70 f i total.obj
 0001:00006c80       ?IniDumped@IniValue@@QEAAHXZ 0000000140007c80 f i total.obj
 0001:00006c90       ?IniReadDone@IniValue@@QEAAHXZ 0000000140007c90 f i total.obj
 0001:00006cc0       ??0DriverApp@@QEAA@XZ      0000000140007cc0 f i total.obj
 0001:00006ce0       ?SQLRealSize@@YAIPEADJ@Z   0000000140007ce0 f   total.obj
 0001:00006cf0       ??0CBufferedIO@@QEAA@H@Z   0000000140007cf0 f   total.obj
 0001:00006d20       ??1CBufferedIO@@QEAA@XZ    0000000140007d20 f   total.obj
 0001:00006d40       ?read@CBufferedIO@@QEAAHHPEAX_K@Z 0000000140007d40 f   total.obj
 0001:00006e80       ?lseek@CBufferedIO@@QEAAJHJH@Z 0000000140007e80 f   total.obj
 0001:00006f00       ??_GCBufferedIO@@QEAAPEAXI@Z 0000000140007f00 f i total.obj
 0001:00006f50       ??0TK@@QEAA@XZ             0000000140007f50 f   total.obj
 0001:00006f60       ??0TK@@QEAA@H@Z            0000000140007f60 f   total.obj
 0001:00006f70       ??0TK@@QEAA@HHPEAD@Z       0000000140007f70 f   total.obj
 0001:00006f80       ??1TK@@QEAA@XZ             0000000140007f80 f   total.obj
 0001:00006f90       ??0Lex@@QEAA@XZ            0000000140007f90 f   total.obj
 0001:00006fb0       ??1Lex@@QEAA@XZ            0000000140007fb0 f   total.obj
 0001:00007010       ?Start@Lex@@QEAAHPEADPEAU_TOKENSTRUCT@@@Z 0000000140008010 f   total.obj
 0001:00007750       ?Stop@Lex@@QEAAHXZ         0000000140008750 f   total.obj
 0001:00007760       ?Peek@Lex@@QEAAHPEAVTK@@@Z 0000000140008760 f   total.obj
 0001:00007790       ?Get@Lex@@QEAAHPEAVTK@@@Z  0000000140008790 f   total.obj
 0001:000077e0       ?GetString@Lex@@QEAAHPEAVTK@@D@Z 00000001400087e0 f   total.obj
 0001:000077f0       ?Off@Debug@@QEAAXXZ        00000001400087f0 f   total.obj
 0001:00007a10       ?DirectoryExists@@YAHPEAD@Z 0000000140008a10 f   total.obj
 0001:00008010       ?GetFileName@ACRNemaMap@@QEAAPEBDXZ 0000000140009010 f   total.obj
 0001:00008020       ?getItemNotEnd@ACRNemaMap@@AEAAHPEADPEAPEAD_K@Z 0000000140009020 f   total.obj
 0001:000080f0       ?iswhitespacea@ACRNemaMap@@AEAAHD@Z 00000001400090f0 f   total.obj
 0001:00008120       ?chechThreadError@IniValue@@AEAAHPEAX@Z 0000000140009120 f   total.obj
 0001:00008150       ?dumpTime@IniValue@@AEAAXPEAU_iobuf@@PEAUtm@@PEBD@Z 0000000140009150 f   total.obj
 0001:000081b0       ?errorCleanNewConfigFile@IniValue@@AEAAXXZ 00000001400091b0 f   total.obj
 0001:00008200       ?goToNextDataLine@IniValue@@AEAAHXZ 0000000140009200 f   total.obj
 0001:00008270       ?goToStartIsBlank@IniValue@@AEAAHXZ 0000000140009270 f   total.obj
 0001:000082f0       ?initIEGroup@IniValue@@AEAAXPEAU_iEGroup@@@Z 00000001400092f0 f   total.obj
 0001:00008310       ?lstrcpysplim@IniValue@@AEAAPEADPEAD_K@Z 0000000140009310 f   total.obj
 0001:00008370       ?lstrieq@IniValue@@AEAAHPEBD@Z 0000000140009370 f   total.obj
 0001:00008400       ?lstrileq@IniValue@@AEAAHPEBD@Z 0000000140009400 f   total.obj
 0001:000084a0       ?lstrileqNum@IniValue@@AEAAHPEBD@Z 00000001400094a0 f   total.obj
 0001:000085a0       ?readsscscpFixes@IniValue@@AEAAXXZ 00000001400095a0 f   total.obj
 0001:00008620       ?printAllocateError@IniValue@@AEAAHHPEBD@Z 0000000140009620 f   total.obj
 0001:00008660       ?setIniString@IniValue@@AEAAXPEADI@Z 0000000140009660 f   total.obj
 0001:00008940       ?setIniTime@IniValue@@AEAAXXZ 0000000140009940 f   total.obj
 0001:00008a20       ?setIniUINT@IniValue@@AEAAXPEAI@Z 0000000140009a20 f   total.obj
 0001:00008c20       ?skipComments@IniValue@@AEAAHXZ 0000000140009c20 f   total.obj
 0001:00008cd0       ?swapConfigFiles@IniValue@@AEAAHXZ 0000000140009cd0 f   total.obj
 0001:00008e60       ?swapPointers@IniValue@@AEAAXPEAPEAX0@Z 0000000140009e60 f   total.obj
 0001:00008e70       ?threadError@IniValue@@AEAAPEADXZ 0000000140009e70 f   total.obj
 0001:00008eb0       ?writeTonewConfigFile@IniValue@@AEAAHPEBD_K@Z 0000000140009eb0 f   total.obj
 0001:00008f80       ?CurrentTime@@YAKXZ        0000000140009f80 f   total.obj
 0001:00008fa0       ?UniqueKey@@YAPEBDPEAUDBENTRY@@@Z 0000000140009fa0 f   total.obj
 0001:00008fc0       ?into_UpdateCache@@YAHPEAD@Z 0000000140009fc0 f   total.obj
 0001:00009130       ?isin_UpdateCache@@YAHPEAD@Z 000000014000a130 f   total.obj
 0001:00009290       ?clear_UpdateCache@@YAXXZ  000000014000a290 f   total.obj
 0001:00009370       ?VerifyIsInDBE@@YAHPEAVVR@@PEAUDBENTRY@@AEAPEAU2@@Z 000000014000a370 f   total.obj
 0001:00009430       ?LastDBE@@YAIPEAUDBENTRY@@@Z 000000014000a430 f   total.obj
 0001:00009460       ?DBEIndex@@YAIPEAUDBENTRY@@PEAVVR@@@Z 000000014000a460 f   total.obj
 0001:000094c0       ?FindDBE@@YAPEAUDBENTRY@@PEAVVR@@@Z 000000014000a4c0 f   total.obj
 0001:00009740       ?Pack@@YAHEEAEAG@Z         000000014000a740 f   total.obj
 0001:00009770       ?Pack@@YAHGAEAE0@Z         000000014000a770 f   total.obj
 0001:00009900       ?ReleaseMemory@CheckedPDU_Service@@QEAAHXZ 000000014000a900 f   total.obj
 0001:00009c00       ?InitializeFrom@CheckedPDU_Service@@QEAAHPEAD@Z 000000014000ac00 f   total.obj
 0001:0000aa70       ?ShouldIAcceptRemoteApTitle@CheckedPDU_Service@@EEAAHPEAE@Z 000000014000ba70 f   total.obj
 0001:0000aba0       ?ShouldIAcceptLocalApTitle@CheckedPDU_Service@@EEAAHPEAE@Z 000000014000bba0 f   total.obj
 0001:0000acd0       ?GetUID@UnknownStorage@@UEAAHAEAVUID@@@Z 000000014000bcd0 f   total.obj
 0001:0000ace0       ?SetUID@@YAHAEAVUID@@PEAVVR@@@Z 000000014000bce0 f   total.obj
 0001:0000add0       ?Hex2Dec@@YAGD@Z           000000014000bdd0 f   total.obj
 0001:0000ae10       ?secofday@@YAIPEAUtm@@@Z   000000014000be10 f   total.obj
 0001:0000ae30       ?SpaceMem@@YAHPEAEI@Z      000000014000be30 f   total.obj
 0001:0000ae60       ?strcpylim@@YAPEADPEADPEBD_K@Z 000000014000be60 f   total.obj
 0001:0000aeb0       ?strcpysplim@@YAPEADPEADPEBD_K@Z 000000014000beb0 f   total.obj
 0001:0000aef0       ?streq@@YAHPEBD0@Z         000000014000bef0 f   total.obj
 0001:0000af50       ?strneq@@YAHPEBD0_K@Z      000000014000bf50 f   total.obj
 0001:0000afa0       ?strieq@@YAHPEBD0@Z        000000014000bfa0 f   total.obj
 0001:0000b010       ?strnieq@@YAHPEBD0_K@Z     000000014000c010 f   total.obj
 0001:0000b090       ?strileq@@YAHPEBD0@Z       000000014000c090 f   total.obj
 0001:0000b0f0       ?strnileq@@YAHPEBD0_K@Z    000000014000c0f0 f   total.obj
 0001:0000b160       ?strnlen32@@YAHPEBD_K@Z    000000014000c160 f   total.obj
 0001:0000b1b0       ?strnlen32u@@YAIPEBD_K@Z   000000014000c1b0 f   total.obj
 0001:0000b1f0       ?strnlenint@@YAHPEBD_K@Z   000000014000c1f0 f   total.obj
 0001:0000b240       strnlen                    000000014000c240 f   total.obj
 0001:0000b280       ?timeofdayeq@@YAHPEAUtm@@0@Z 000000014000c280 f   total.obj
 0001:0000b2e0       ?ZeroMem@@YAHPEAEI@Z       000000014000c2e0 f   total.obj
 0001:0000b310       ?uniq@@YAIXZ               000000014000c310 f   total.obj
 0001:0000b330       ?uniq32@@YAIXZ             000000014000c330 f   total.obj
 0001:0000b350       ?uniq16@@YAGXZ             000000014000c350 f   total.obj
 0001:0000b370       ?uniq8@@YAEXZ              000000014000c370 f   total.obj
 0001:0000b390       ?uniq8odd@@YAEXZ           000000014000c390 f   total.obj
 0001:0000b3b0       ?uniq16odd@@YAGXZ          000000014000c3b0 f   total.obj
 0001:0000b3d0       ?SwitchEndian@@YAGG@Z      000000014000c3d0 f   total.obj
 0001:0000b3f0       ?SwitchEndian@@YAII@Z      000000014000c3f0 f   total.obj
 0001:0000b410       ?SwitchEndian@@YAFF@Z      000000014000c410 f   total.obj
 0001:0000b430       ?SwitchEndian@@YAHH@Z      000000014000c430 f   total.obj
 0001:0000b450       ??4BE_UINT16@@QEAAAEAV0@AEAG@Z 000000014000c450 f   total.obj
 0001:0000b470       ??4BE_UINT16@@QEAAAEAV0@AEBV0@@Z 000000014000c470 f   total.obj
 0001:0000b480       ??4BE_UINT16@@QEAAAEAV0@AEBH@Z 000000014000c480 f   total.obj
 0001:0000b4a0       ??IBE_UINT16@@QEAAPEAV0@XZ 000000014000c4a0 f   total.obj
 0001:0000b4b0       ??BBE_UINT16@@QEAAGXZ      000000014000c4b0 f   total.obj
 0001:0000b4d0       ??0BE_UINT16@@QEAA@XZ      000000014000c4d0 f   total.obj
 0001:0000b4e0       ??0BE_UINT16@@QEAA@AEAV0@@Z 000000014000c4e0 f   total.obj
 0001:0000b4f0       ??0BE_UINT16@@QEAA@G@Z     000000014000c4f0 f   total.obj
 0001:0000b500       ??0BE_UINT16@@QEAA@I@Z     000000014000c500 f   total.obj
 0001:0000b510       ??0BE_UINT16@@QEAA@F@Z     000000014000c510 f   total.obj
 0001:0000b520       ??0BE_UINT16@@QEAA@H@Z     000000014000c520 f   total.obj
 0001:0000b530       ??4BE_UINT32@@QEAAAEAV0@AEAI@Z 000000014000c530 f   total.obj
 0001:0000b560       ??4BE_UINT32@@QEAAAEAV0@AEBV0@@Z 000000014000c560 f   total.obj
 0001:0000b570       ??4BE_UINT32@@QEAAAEAV0@AEBH@Z 000000014000c570 f   total.obj
 0001:0000b5a0       ??IBE_UINT32@@QEAAPEAV0@XZ 000000014000c5a0 f   total.obj
 0001:0000b5b0       ??BBE_UINT32@@QEAAIXZ      000000014000c5b0 f   total.obj
 0001:0000b5e0       ??0BE_UINT32@@QEAA@XZ      000000014000c5e0 f   total.obj
 0001:0000b5f0       ??0BE_UINT32@@QEAA@AEAV0@@Z 000000014000c5f0 f   total.obj
 0001:0000b600       ??0BE_UINT32@@QEAA@G@Z     000000014000c600 f   total.obj
 0001:0000b630       ??0BE_UINT32@@QEAA@I@Z     000000014000c630 f   total.obj
 0001:0000b660       ??0BE_UINT32@@QEAA@F@Z     000000014000c660 f   total.obj
 0001:0000b690       ??0BE_UINT32@@QEAA@H@Z     000000014000c690 f   total.obj
 0001:0000b6c0       ??4BE_INT16@@QEAAAEAV0@AEAF@Z 000000014000c6c0 f   total.obj
 0001:0000b6e0       ??4BE_INT16@@QEAAAEAV0@AEBV0@@Z 000000014000c6e0 f   total.obj
 0001:0000b6f0       ??4BE_INT16@@QEAAAEAV0@AEBH@Z 000000014000c6f0 f   total.obj
 0001:0000b710       ??IBE_INT16@@QEAAPEAV0@XZ  000000014000c710 f   total.obj
 0001:0000b720       ??BBE_INT16@@QEAAFXZ       000000014000c720 f   total.obj
 0001:0000b740       ??0BE_INT16@@QEAA@XZ       000000014000c740 f   total.obj
 0001:0000b750       ??0BE_INT16@@QEAA@AEAV0@@Z 000000014000c750 f   total.obj
 0001:0000b760       ??0BE_INT16@@QEAA@G@Z      000000014000c760 f   total.obj
 0001:0000b780       ??0BE_INT16@@QEAA@I@Z      000000014000c780 f   total.obj
 0001:0000b7a0       ??0BE_INT16@@QEAA@F@Z      000000014000c7a0 f   total.obj
 0001:0000b7c0       ??0BE_INT16@@QEAA@H@Z      000000014000c7c0 f   total.obj
 0001:0000b7e0       ??4BE_INT32@@QEAAAEAV0@AEAH@Z 000000014000c7e0 f   total.obj
 0001:0000b810       ??4BE_INT32@@QEAAAEAV0@AEBV0@@Z 000000014000c810 f   total.obj
 0001:0000b820       ??4BE_INT32@@QEAAAEAV0@AEBH@Z 000000014000c820 f   total.obj
 0001:0000b850       ??IBE_INT32@@QEAAPEAV0@XZ  000000014000c850 f   total.obj
 0001:0000b860       ??BBE_INT32@@QEAAHXZ       000000014000c860 f   total.obj
 0001:0000b890       ??0BE_INT32@@QEAA@XZ       000000014000c890 f   total.obj
 0001:0000b8a0       ??0BE_INT32@@QEAA@AEAV0@@Z 000000014000c8a0 f   total.obj
 0001:0000b8b0       ??0BE_INT32@@QEAA@G@Z      000000014000c8b0 f   total.obj
 0001:0000b8e0       ??0BE_INT32@@QEAA@I@Z      000000014000c8e0 f   total.obj
 0001:0000b910       ??0BE_INT32@@QEAA@F@Z      000000014000c910 f   total.obj
 0001:0000b940       ??0BE_INT32@@QEAA@H@Z      000000014000c940 f   total.obj
 0001:0000b990       ?GetTransferSyntaxUID@PDU_Service@@QEAAPEADI@Z 000000014000c990 f   total.obj
 0001:0000ba80       ??4ApplicationContext@@QEAAAEAV0@AEAV0@@Z 000000014000ca80 f i total.obj
 0001:0000bb30       ??4TransferSyntax@@QEAAAEAV0@AEAV0@@Z 000000014000cb30 f i total.obj
 0001:0000bbf0       ??4ImplementationClass@@QEAAAEAV0@AEAV0@@Z 000000014000cbf0 f i total.obj
 0001:0000bcb0       ??4ImplementationVersion@@QEAAAEAV0@AEAV0@@Z 000000014000ccb0 f i total.obj
 0001:0000bd70       ??4SCPSCURoleSelect@@QEAAAEAV0@AEAV0@@Z 000000014000cd70 f i total.obj
 0001:0000be40       ??4AbstractSyntax@@QEAAAEAV0@AEAV0@@Z 000000014000ce40 f i total.obj
 0001:0000bef0       ??4PresentationContextAccept@@QEAAAEAV0@AEAV0@@Z 000000014000cef0 f i total.obj
 0001:0000bf60       ?CanYouHandleTransferSyntax@PDU_Service@@UEAAHAEAVTransferSyntax@@@Z 000000014000cf60 f   total.obj
 0001:0000bfc0       ?GetLocalAddress@PDU_Service@@UEAAHPEAE@Z 000000014000cfc0 f   total.obj
 0001:0000bff0       ?GetRemoteAddress@PDU_Service@@UEAAHPEAE@Z 000000014000cff0 f   total.obj
 0001:0000c020       ?ReadBinary@MemoryBuffer@@UEAAHPEAEI@Z 000000014000d020 f   total.obj
 0001:0000c0d0       ?SendBinary@MemoryBuffer@@UEAAHPEAEI@Z 000000014000d0d0 f   total.obj
 0001:0000c0e0       ?GetOutgoingSize@LinkedBuffer@@QEAAIXZ 000000014000d0e0 f   total.obj
 0001:0000c0f0       ?GetIncomingSize@LinkedBuffer@@QEAAIXZ 000000014000d0f0 f   total.obj
 0001:0000c100       ??0AAssociateRJ@@QEAA@XZ   000000014000d100 f   total.obj
 0001:0000c130       ??0AAssociateRJ@@QEAA@EEE@Z 000000014000d130 f   total.obj
 0001:0000c160       ??1AAssociateRJ@@UEAA@XZ   000000014000d160 f   total.obj
 0001:0000c170       ?Size@AAssociateRJ@@QEAAIXZ 000000014000d170 f   total.obj
 0001:0000c180       ??0AReleaseRQ@@QEAA@XZ     000000014000d180 f   total.obj
 0001:0000c1b0       ??1AReleaseRQ@@UEAA@XZ     000000014000d1b0 f   total.obj
 0001:0000c1c0       ?Size@AReleaseRQ@@QEAAIXZ  000000014000d1c0 f   total.obj
 0001:0000c1d0       ??0AReleaseRP@@QEAA@XZ     000000014000d1d0 f   total.obj
 0001:0000c200       ??1AReleaseRP@@UEAA@XZ     000000014000d200 f   total.obj
 0001:0000c210       ?Size@AReleaseRP@@QEAAIXZ  000000014000d210 f   total.obj
 0001:0000c220       ??0AAbortRQ@@QEAA@XZ       000000014000d220 f   total.obj
 0001:0000c250       ??0AAbortRQ@@QEAA@EE@Z     000000014000d250 f   total.obj
 0001:0000c280       ??1AAbortRQ@@UEAA@XZ       000000014000d280 f   total.obj
 0001:0000c290       ?Size@AAbortRQ@@QEAAIXZ    000000014000d290 f   total.obj
 0001:0000c2a0       ?SetTransferSyntax@PresentationContextAccept@@QEAAXAEAVTransferSyntax@@@Z 000000014000d2a0 f   total.obj
 0001:0000c2b0       ?SetCalledApTitle@AAssociateAC@@QEAAXPEAE@Z 000000014000d2b0 f   total.obj
 0001:0000c310       ?SetCallingApTitle@AAssociateAC@@QEAAXPEAE@Z 000000014000d310 f   total.obj
 0001:0000c370       ?SetApplicationContext@AAssociateAC@@QEAAXAEAVApplicationContext@@@Z 000000014000d370 f   total.obj
 0001:0000c380       ??1ApplicationContext@@QEAA@XZ 000000014000d380 f   total.obj
 0001:0000c390       ?Set@ApplicationContext@@QEAAXAEAVUID@@@Z 000000014000d390 f   total.obj
 0001:0000c420       ?Size@ApplicationContext@@QEAAIXZ 000000014000d420 f   total.obj
 0001:0000c440       ??1AbstractSyntax@@QEAA@XZ 000000014000d440 f   total.obj
 0001:0000c450       ?Set@AbstractSyntax@@QEAAXAEAVUID@@@Z 000000014000d450 f   total.obj
 0001:0000c4e0       ?Size@AbstractSyntax@@QEAAIXZ 000000014000d4e0 f   total.obj
 0001:0000c500       ??1TransferSyntax@@QEAA@XZ 000000014000d500 f   total.obj
 0001:0000c510       ?Set@TransferSyntax@@QEAAXAEAVUID@@@Z 000000014000d510 f   total.obj
 0001:0000c5a0       ?Size@TransferSyntax@@QEAAIXZ 000000014000d5a0 f   total.obj
 0001:0000c5c0       ??1ImplementationClass@@QEAA@XZ 000000014000d5c0 f   total.obj
 0001:0000c5d0       ?Set@ImplementationClass@@QEAAXAEAVUID@@@Z 000000014000d5d0 f   total.obj
 0001:0000c660       ?Size@ImplementationClass@@QEAAIXZ 000000014000d660 f   total.obj
 0001:0000c680       ??1ImplementationVersion@@QEAA@XZ 000000014000d680 f   total.obj
 0001:0000c690       ?Set@ImplementationVersion@@QEAAXAEAVUID@@@Z 000000014000d690 f   total.obj
 0001:0000c720       ?Size@ImplementationVersion@@QEAAIXZ 000000014000d720 f   total.obj
 0001:0000c740       ?SetAbstractSyntax@PresentationContext@@QEAAXAEAVAbstractSyntax@@@Z 000000014000d740 f   total.obj
 0001:0000c750       ??0MaximumSubLength@@QEAA@XZ 000000014000d750 f   total.obj
 0001:0000c760       ??0MaximumSubLength@@QEAA@I@Z 000000014000d760 f   total.obj
 0001:0000c770       ??1MaximumSubLength@@QEAA@XZ 000000014000d770 f   total.obj
 0001:0000c780       ?Set@MaximumSubLength@@QEAAXI@Z 000000014000d780 f   total.obj
 0001:0000c790       ?Get@MaximumSubLength@@QEAAIXZ 000000014000d790 f   total.obj
 0001:0000c7a0       ?Size@MaximumSubLength@@QEAAIXZ 000000014000d7a0 f   total.obj
 0001:0000c7c0       ??1SCPSCURoleSelect@@QEAA@XZ 000000014000d7c0 f   total.obj
 0001:0000c7d0       ?Size@SCPSCURoleSelect@@QEAAIXZ 000000014000d7d0 f   total.obj
 0001:0000c7f0       ??1UserInformation@@QEAA@XZ 000000014000d7f0 f   total.obj
 0001:0000c800       ?SetMax@UserInformation@@QEAAXAEAVMaximumSubLength@@@Z 000000014000d800 f   total.obj
 0001:0000c810       ?GetMax@UserInformation@@QEAAIXZ 000000014000d810 f   total.obj
 0001:0000c820       ?Size@UserInformation@@QEAAIXZ 000000014000d820 f   total.obj
 0001:0000c880       ?SetCalledApTitle@AAssociateRQ@@QEAAXPEAE@Z 000000014000d880 f   total.obj
 0001:0000c8e0       ?SetCallingApTitle@AAssociateRQ@@QEAAXPEAE@Z 000000014000d8e0 f   total.obj
 0001:0000c940       ?SetApplicationContext@AAssociateRQ@@QEAAXAEAVApplicationContext@@@Z 000000014000d940 f   total.obj
 0001:0000c950       ?SetApplicationContext@AAssociateRQ@@QEAAXAEAVUID@@@Z 000000014000d950 f   total.obj
 0001:0000c960       ?SetDicomErrorHandler@@YAXP6AXHPEBDH@Z@Z 000000014000d960 f   total.obj
 0001:0000c970       ?DicomError@@YAHHPEBDH@Z   000000014000d970 f   total.obj
 0001:0000c9e0       ??0VR@@QEAA@GGIH@Z         000000014000d9e0 f   total.obj
 0001:0000cae0       ??0VR@@QEAA@GGIPEAG@Z      000000014000dae0 f   total.obj
 0001:0000cb20       ??0VR@@QEAA@GGIPEAGH@Z     000000014000db20 f   total.obj
 0001:0000cb60       ??0VR@@QEAA@GGIPEAX@Z      000000014000db60 f   total.obj
 0001:0000cba0       ??0VR@@QEAA@GGIPEAXH@Z     000000014000dba0 f   total.obj
 0001:0000cbe0       ??OVR@@QEAAIAEAV0@@Z       000000014000dbe0 f   total.obj
 0001:0000cc10       ??MVR@@QEAAIAEAV0@@Z       000000014000dc10 f   total.obj
 0001:0000cc40       ??8VR@@QEAAIAEAV0@@Z       000000014000dc40 f   total.obj
 0001:0000cc70       ?GroupLength@VRGroupPQueue@@QEAAPEAVVR@@XZ 000000014000dc70 f   total.obj
 0001:0000cd80       ??OVRGroupPQueue@@QEAAIAEAV0@@Z 000000014000dd80 f   total.obj
 0001:0000cda0       ??MVRGroupPQueue@@QEAAIAEAV0@@Z 000000014000dda0 f   total.obj
 0001:0000cdc0       ??8VRGroupPQueue@@QEAAIAEAV0@@Z 000000014000ddc0 f   total.obj
 0001:0000cde0       ?GetSpecialValueCodeOfVR@VR@@AEAAHPEAV1@@Z 000000014000dde0 f   total.obj
 0001:0000cf00       ?GetUINT16@VR@@QEAAGXZ     000000014000df00 f   total.obj
 0001:0000cf30       ?GetUINT@VR@@QEAAIXZ       000000014000df30 f   total.obj
 0001:0000cf90       ?GetULongLong@VR@@QEAA_KXZ 000000014000df90 f   total.obj
 0001:0000cff0       ?Getatoi@VR@@QEAAHXZ       000000014000dff0 f   total.obj
 0001:0000d090       ?SwapBigEndianData@VR@@QEAAXXZ 000000014000e090 f   total.obj
 0001:0000d1e0       ??0Socket@@QEAA@XZ         000000014000e1e0 f   total.obj
 0001:0000d270       ??1Socket@@UEAA@XZ         000000014000e270 f   total.obj
 0001:0000d300       ?Gethostbyname@Socket@@QEAAPEAUhostent@@PEAD@Z 000000014000e300 f   total.obj
 0001:0000d410       ?Getservbyname@Socket@@QEAAPEAUservent@@PEBDPEAD@Z 000000014000e410 f   total.obj
 0001:0000d4d0       ?Accept@Socket@@QEAAHXZ    000000014000e4d0 f   total.obj
 0001:0000d5b0       ?Open@Socket@@UEAAHPEAD0@Z 000000014000e5b0 f   total.obj
 0001:0000d750       ?Close@Socket@@QEAAHXZ     000000014000e750 f   total.obj
 0001:0000d7b0       ?Poll@Socket@@UEAAHXZ      000000014000e7b0 f   total.obj
 0001:0000d850       ?SendBinary@Socket@@UEAAHPEAEI@Z 000000014000e850 f   total.obj
 0001:0000d880       ?ReadBinary@Socket@@UEAAHPEAEI@Z 000000014000e880 f   total.obj
 0001:0000d960       ?GetLinkError@Socket@@QEAAHXZ 000000014000e960 f   total.obj
 0001:0000d970       ?SetTimeOut@Socket@@QEAAHH@Z 000000014000e970 f   total.obj
 0001:0000d980       ?BindUDPServer@Socket@@QEAAHPEAD@Z 000000014000e980 f   total.obj
 0001:0000dad0       ?BindUDPClient@Socket@@QEAAHPEADPEBD@Z 000000014000ead0 f   total.obj
 0001:0000dcb0       ??0BufferSpace@@QEAA@I@Z   000000014000ecb0 f   total.obj
 0001:0000dd50       ??0BufferSpace@@QEAA@XZ    000000014000ed50 f   total.obj
 0001:0000dd70       ??1BufferSpace@@QEAA@XZ    000000014000ed70 f   total.obj
 0001:0000dda0       ??_GBufferSpace@@QEAAPEAXI@Z 000000014000eda0 f i total.obj
 0001:0000ddf0       ?SetIncomingEndian@Buffer@@QEAAHI@Z 000000014000edf0 f   total.obj
 0001:0000de00       ?SetOutgoingEndian@Buffer@@QEAAHI@Z 000000014000ee00 f   total.obj
 0001:0000de10       ?SetBreakSize@Buffer@@QEAAHI@Z 000000014000ee10 f   total.obj
 0001:0000de20       ?Poll@Buffer@@QEAAHXZ      000000014000ee20 f   total.obj
 0001:0000de30       ?qlock@@YAHPEADHH@Z        000000014000ee30 f   total.obj
 0001:0000dfd0       ?qunlock@@YAHPEADHH@Z      000000014000efd0 f   total.obj
 0001:0000e180       ?write_dbheader@@YAXPEAUdbase_header@@@Z 000000014000f180 f   total.obj
 0001:0000e1d0       ?read_dbheader@@YAXPEAUdbase_header@@@Z 000000014000f1d0 f   total.obj
 0001:0000e240       ?set_dbdate@@YAXPEAUdbase_header@@@Z 000000014000f240 f   total.obj
 0001:0000e320       ?lock_dbheader@@YAHPEAUdbase_header@@@Z 000000014000f320 f   total.obj
 0001:0000e570       ?unlock_dbheader@@YAXPEAUdbase_header@@@Z 000000014000f570 f   total.obj
 0001:0000e5b0       ?dbase_open@@YAHPEADPEAPEAUdbase_header@@@Z 000000014000f5b0 f   total.obj
 0001:0000ebc0       ?dbase_lock@@YAHPEAUdbase_header@@HHH@Z 000000014000fbc0 f   total.obj
 0001:0000ed30       ?mmatch@@YAHPEAD0HH@Z      000000014000fd30 f   total.obj
 0001:0000ee90       ?dbase_query@@YAHPEAUdbase_header@@PEAHPEAPEAD1H@Z 000000014000fe90 f   total.obj
 0001:000112e0       ?dbase_dup@@YAPEAUdbase_header@@PEADPEAU1@@Z 00000001400122e0 f   total.obj
 0001:000114a0       ?dbase_read@@YAHPEAUdbase_header@@HPEAPEAD@Z 00000001400124a0 f   total.obj
 0001:00011760       ?dbase_write@@YAHPEAUdbase_header@@HPEAPEADH@Z 0000000140012760 f   total.obj
 0001:00011cc0       ?dbase_trunc@@YAHPEAUdbase_header@@H@Z 0000000140012cc0 f   total.obj
 0001:00011ee0       ?dbase_pack@@YAHPEAUdbase_header@@@Z 0000000140012ee0 f   total.obj
 0001:00012260       ?hash_id@@YAHPEADH@Z       0000000140013260 f   total.obj
 0001:000122e0       ?search_hash@@YAHPEADH@Z   00000001400132e0 f   total.obj
 0001:00012550       ?enter_hash@@YAXPEADHH@Z   0000000140013550 f   total.obj
 0001:000128b0       ?LoadMySQL@@YAXXZ          00000001400138b0 f   total.obj
 0001:00012ad0       ?LoadPostgres@@YAXXZ       0000000140013ad0 f   total.obj
 0001:00012dc0       ?LoadSQLITE@@YAXXZ         0000000140013dc0 f   total.obj
 0001:00012dd0       ??0Database@@QEAA@W4DBTYPE@@@Z 0000000140013dd0 f   total.obj
 0001:00012f50       ?MYSQLExec@Database@@UEAAHPEADH@Z 0000000140013f50 f   total.obj
 0001:00013040       ?GetNativeError@Database@@AEAAJXZ 0000000140014040 f   total.obj
 0001:00013090       ?ComputeCRC@@YAIPEAD_K@Z   0000000140014090 f   total.obj
 0001:000130f0       ??0CMoveRQ@@QEAA@XZ        00000001400140f0 f i total.obj
 0001:00013110       ??0CMoveRSP@@QEAA@XZ       0000000140014110 f i total.obj
 0001:000131d0       ?nki_private_compress@@YAHPEACPEAFHH@Z 00000001400141d0 f   total.obj
 0001:00013c40       ?get_nki_private_decompressed_length@@YAHPEAC@Z 0000000140014c40 f   total.obj
 0001:00013c50       ?get_nki_private_compress_mode@@YAHPEAC@Z 0000000140014c50 f   total.obj
 0001:00013c60       ?nki_private_decompress@@YAHPEAFPEACH@Z 0000000140014c60 f   total.obj
 0001:00014800       ?DePlane@@YAPEADPEADH@Z    0000000140015800 f   total.obj
 0001:000148b0       ?DeYBRFULL@@YAXPEADH@Z     00000001400158b0 f   total.obj
 0001:00014d30       ?jpeg_type@@YADPEAVVR@@@Z  0000000140015d30 f   total.obj
 0001:00014e00       ?SetRequestedCompressionType@ExtendedPDU_Service@@QEAAHPEBD@Z 0000000140015e00 f   total.obj
 0001:00014e30       getsd                      0000000140015e30 f   total.obj
 0001:000167f0       ?luaopen_pack@@YAHPEAUlua_State@@@Z 00000001400177f0 f   total.obj
 0001:00016820       ?heapinfo@@YAPEADXZ        0000000140017820 f   total.obj
 0001:00016b00       ?isxdig@@YAHD@Z            0000000140017b00 f   total.obj
 0001:00016b50       ?htoin@@YAHPEBDH@Z         0000000140017b50 f   total.obj
 0001:00016bf0       ?HTML@@YAXPEBDZZ           0000000140017bf0 f   total.obj
 0001:00016e80       ?IsAlpha@@YAHE@Z           0000000140017e80 f   total.obj
 0001:00016ea0       ?IsDataAlpha@@YAHIPEAE@Z   0000000140017ea0 f   total.obj
 0001:00016f70       ?PrintUDATA@@YAHIPEAXGPEAD@Z 0000000140017f70 f   total.obj
 0001:00017580       ?SQLTypeSymName@@YAPEBDH@Z 0000000140018580 f   total.obj
 0001:000175b0       ?DICOMTypeSymName@@YAPEBDH@Z 00000001400185b0 f   total.obj
 0001:00017730       ?dgate_IsDirectory@@YAHPEAD@Z 0000000140018730 f   total.obj
 0001:00017c50       ??0CStoreRQ@@QEAA@XZ       0000000140018c50 f i total.obj
 0001:00017c70       ??0CStoreRSP@@QEAA@XZ      0000000140018c70 f i total.obj
 0001:00017c90       ??_H@YAXPEAX_KHP6APEAX0@Z@Z 0000000140018c90 f i total.obj
 0001:00017cf0       ??_I@YAXPEAX_KHP6AX0@Z@Z   0000000140018cf0 f i total.obj
 0001:00017d60       ?into_queue@@YAXPEAUconquest_queue@@PEAD@Z 0000000140018d60 f   total.obj
 0001:00017e20       ?into_queue_unique@@YAHPEAUconquest_queue@@PEADH@Z 0000000140018e20 f   total.obj
 0001:00017f60       ?reset_queue_fails@@YAXH@Z 0000000140018f60 f   total.obj
 0001:000180a0       ?mayprefetchprocess@@YAHPEADPEAVExtendedPDU_Service@@0@Z 00000001400190a0 f   total.obj
 0001:000180e0       ?StopZipThread@@YAXXZ      00000001400190e0 f   total.obj
 0001:00018100       ?PrintOptions@@YAHXZ       0000000140019100 f   total.obj
 0001:00019430       ??0CFindRQ@@QEAA@XZ        000000014001a430 f i total.obj
 0001:00019450       ??0CFindRSP@@QEAA@XZ       000000014001a450 f i total.obj
 0001:00019470       ?CallBack@MyPatientRootQuery@@UEAAHPEAVDICOMCommandObject@@PEAVDICOMDataObject@@@Z 000000014001a470 f   total.obj
 0001:00019480       ?CallBack@MyStudyRootQuery@@UEAAHPEAVDICOMCommandObject@@PEAVDICOMDataObject@@@Z 000000014001a480 f   total.obj
 0001:00019490       ?CallBack@MyPatientStudyOnlyQuery@@UEAAHPEAVDICOMCommandObject@@PEAVDICOMDataObject@@@Z 000000014001a490 f   total.obj
 0001:000194a0       ?CallBack@MyModalityWorkListQuery@@UEAAHPEAVDICOMCommandObject@@PEAVDICOMDataObject@@@Z 000000014001a4a0 f   total.obj
 0001:000194b0       ?CallBack@MyPatientRootRetrieve@@UEAAHPEAVDICOMCommandObject@@PEAVDICOMDataObject@@@Z 000000014001a4b0 f   total.obj
 0001:000194c0       ?CallBack@MyPatientRootRetrieveNKI@@UEAAHPEAVDICOMCommandObject@@PEAVDICOMDataObject@@@Z 000000014001a4c0 f   total.obj
 0001:000194d0       ?CallBack@MyPatientRootRetrieveGeneric@@UEAAHPEAVDICOMCommandObject@@PEAVDICOMDataObject@@@Z 000000014001a4d0 f   total.obj
 0001:000194e0       ?CallBack@MyStudyRootRetrieve@@UEAAHPEAVDICOMCommandObject@@PEAVDICOMDataObject@@@Z 000000014001a4e0 f   total.obj
 0001:000194f0       ?CallBack@MyStudyRootRetrieveNKI@@UEAAHPEAVDICOMCommandObject@@PEAVDICOMDataObject@@@Z 000000014001a4f0 f   total.obj
 0001:00019500       ?CallBack@MyStudyRootRetrieveGeneric@@UEAAHPEAVDICOMCommandObject@@PEAVDICOMDataObject@@@Z 000000014001a500 f   total.obj
 0001:00019510       ?CallBack@MyPatientStudyOnlyRetrieve@@UEAAHPEAVDICOMCommandObject@@PEAVDICOMDataObject@@@Z 000000014001a510 f   total.obj
 0001:00019520       ?CallBack@MyPatientStudyOnlyRetrieveNKI@@UEAAHPEAVDICOMCommandObject@@PEAVDICOMDataObject@@@Z 000000014001a520 f   total.obj
 0001:00019530       ?CallBack@MyPatientStudyOnlyRetrieveGeneric@@UEAAHPEAVDICOMCommandObject@@PEAVDICOMDataObject@@@Z 000000014001a530 f   total.obj
 0001:00019540       ?GetUID@RunTimeClassStorage@@UEAAHAEAVUID@@@Z 000000014001a540 f   total.obj
 0001:000195d0       ?SetUID@RunTimeClassStorage@@QEAAHAEAVUID@@@Z 000000014001a5d0 f   total.obj
 0001:00019660       ?ServerChildThread@DriverApp@@QEAAHHI@Z 000000014001a660 f   total.obj
 0001:00019680       ?DriverHelper@@YAHPEAVDriverApp@@@Z 000000014001a680 f   total.obj
 0001:000196b0       ?WipeStack@@YAXXZ          000000014001a6b0 f   total.obj
 0001:000196c0       ??0UnknownStorage@@QEAA@XZ 000000014001a6c0 f i total.obj
 0001:000196e0       ?CheckObject@UnknownStorage@@UEAAGPEAVDICOMDataObject@@PEAVPDU_Service@@@Z 000000014001a6e0 f i total.obj
 0001:000196f0       ??0NCreateRQ@@QEAA@XZ      000000014001a6f0 f i total.obj
 0001:00019710       ??0NCreateRSP@@QEAA@XZ     000000014001a710 f i total.obj
 0001:00019730       ??0NDeleteRQ@@QEAA@XZ      000000014001a730 f i total.obj
 0001:00019750       ??0NDeleteRSP@@QEAA@XZ     000000014001a750 f i total.obj
 0001:00019770       ??0NSetRQ@@QEAA@XZ         000000014001a770 f i total.obj
 0001:00019790       ??0NSetRSP@@QEAA@XZ        000000014001a790 f i total.obj
 0001:000197b0       ??0NActionRQ@@QEAA@XZ      000000014001a7b0 f i total.obj
 0001:000197d0       ??0NActionRSP@@QEAA@XZ     000000014001a7d0 f i total.obj
 0001:000197f0       ??0NGetRQ@@QEAA@XZ         000000014001a7f0 f i total.obj
 0001:00019810       ??0NGetRSP@@QEAA@XZ        000000014001a810 f i total.obj
 0001:00019830       ??0NEventReportRQ@@QEAA@XZ 000000014001a830 f i total.obj
 0001:00019850       ??0NEventReportRSP@@QEAA@XZ 000000014001a850 f i total.obj
 0001:00019870       ??0ASCPRQ@@QEAA@XZ         000000014001a870 f i total.obj
 0001:00019890       ??0ASCPRSP@@QEAA@XZ        000000014001a890 f i total.obj
 0001:000198b0       ??0ESCPRQ@@QEAA@XZ         000000014001a8b0 f i total.obj
 0001:000198d0       ??0ESCPRSP@@QEAA@XZ        000000014001a8d0 f i total.obj
 0001:000198f0       ?MakeQueryString@@YAHPEAUDBENTRY@@PEAD@Z 000000014001a8f0 f   total.obj
 0001:00019ae0       ??0MyBridgeStorage@@QEAA@XZ 000000014001aae0 f i total.obj
 0001:00019b00       ??0CEchoRQ@@QEAA@XZ        000000014001ab00 f i total.obj
 0001:00019b20       ??0CEchoRSP@@QEAA@XZ       000000014001ab20 f i total.obj
 0001:00019b40       ??0StandardRetrieve@@QEAA@XZ 000000014001ab40 f i total.obj
 0001:00019b60       ?GetUID@StandardRetrieve@@UEAAHAEAVUID@@@Z 000000014001ab60 f i total.obj
 0001:00019b70       ??0StorageApp@@QEAA@XZ     000000014001ab70 f i total.obj
 0001:00019ba0       ?SetStringVR@@YAXPEAPEAVVR@@HHPEBD@Z 000000014001aba0 f   total.obj
 0001:00019ca0       ?processhtml@@YAHPEAD0H@Z  000000014001aca0 f   total.obj
 0001:00019d40       ??0GifManager@@QEAA@XZ     000000014001ad40 f   total.obj
 0001:00019d70       ?WritePalette@@YAHPEAU_iobuf@@PEAUGifStore@@H@Z 000000014001ad70 f   total.obj
 0001:00019df0       ?WriteComment@@YAHPEAU_iobuf@@PEAD@Z 000000014001adf0 f   total.obj
 0001:0001a080       ?GetSize@?$Array@PEAVBufferSpace@@@@QEAAIXZ 000000014001b080 f i total.obj
 0001:0001a090       ??0?$Array@PEAVBufferSpace@@@@QEAA@XZ 000000014001b090 f i total.obj
 0001:0001a0c0       ?GetSize@?$Array@PEAVVR@@@@QEAAIXZ 000000014001b0c0 f i total.obj
 0001:0001a0d0       ??0?$Array@PEAVVR@@@@QEAA@XZ 000000014001b0d0 f i total.obj
 0001:0001a100       ?GetSize@?$Array@PEAVVRGroupPQueue@@@@QEAAIXZ 000000014001b100 f i total.obj
 0001:0001a110       ??0?$Array@PEAVVRGroupPQueue@@@@QEAA@XZ 000000014001b110 f i total.obj
 0001:0001a140       ?Clear@?$Array@VTransferSyntax@@@@QEAAHXZ 000000014001b140 f i total.obj
 0001:0001a160       ?GetSize@?$Array@VTransferSyntax@@@@QEAAIXZ 000000014001b160 f i total.obj
 0001:0001a170       ??0?$Array@VTransferSyntax@@@@QEAA@XZ 000000014001b170 f i total.obj
 0001:0001a1a0       ??4?$Array@VTransferSyntax@@@@QEAAAEBV0@AEAV0@@Z 000000014001b1a0 f i total.obj
 0001:0001a1d0       ??0?$Array@VTransferSyntax@@@@QEAA@AEBV0@@Z 000000014001b1d0 f i total.obj
 0001:0001a220       ?GetSize@?$Array@VPresentationContext@@@@QEAAIXZ 000000014001b220 f i total.obj
 0001:0001a230       ??0?$Array@VPresentationContext@@@@QEAA@XZ 000000014001b230 f i total.obj
 0001:0001a260       ??4?$Array@VPresentationContext@@@@QEAAAEBV0@AEAV0@@Z 000000014001b260 f i total.obj
 0001:0001a290       ?GetSize@?$Array@VPresentationContextAccept@@@@QEAAIXZ 000000014001b290 f i total.obj
 0001:0001a2a0       ??0?$Array@VPresentationContextAccept@@@@QEAA@XZ 000000014001b2a0 f i total.obj
 0001:0001a2d0       ??4?$Array@VPresentationContextAccept@@@@QEAAAEBV0@AEAV0@@Z 000000014001b2d0 f i total.obj
 0001:0001a300       ?GetSize@?$Array@VAbstractSyntax@@@@QEAAIXZ 000000014001b300 f i total.obj
 0001:0001a310       ??0?$Array@VAbstractSyntax@@@@QEAA@XZ 000000014001b310 f i total.obj
 0001:0001a340       ??0?$_Yarn@D@std@@QEAA@XZ  000000014001b340 f i total.obj
 0001:0001a360       ?c_str@?$_Yarn@D@std@@QEBAPEBDXZ 000000014001b360 f i total.obj
 0001:0001a380       ??1?$basic_ios@DU?$char_traits@D@std@@@std@@UEAA@XZ 000000014001b380 f i total.obj
 0001:0001a3a0       ?rdbuf@?$basic_ios@DU?$char_traits@D@std@@@std@@QEBAPEAV?$basic_streambuf@DU?$char_traits@D@std@@@2@XZ 000000014001b3a0 f i total.obj
 0001:0001a3b0       ??1?$basic_istream@DU?$char_traits@D@std@@@std@@UEAA@XZ 000000014001b3b0 f i total.obj
 0001:0001a3d0       ?gcount@?$basic_istream@DU?$char_traits@D@std@@@std@@QEBA_JXZ 000000014001b3d0 f i total.obj
 0001:0001a3e0       ??Bsentry@?$basic_istream@DU?$char_traits@D@std@@@std@@QEBAPEQ_Bool_struct@2@HXZ 000000014001b3e0 f i total.obj
 0001:0001a3f0       ??1_Sentry_base@?$basic_istream@DU?$char_traits@D@std@@@std@@QEAA@XZ 000000014001b3f0 f i total.obj
 0001:0001a420       ??0?$fpos@H@std@@QEAA@_J@Z 000000014001b420 f i total.obj
 0001:0001a440       ??B?$fpos@H@std@@QEBA_JXZ  000000014001b440 f i total.obj
 0001:0001a450       ?GetSize@?$Array@PEAVDICOMDataObject@@@@QEAAIXZ 000000014001b450 f i total.obj
 0001:0001a460       ??0?$Array@PEAVDICOMDataObject@@@@QEAA@XZ 000000014001b460 f i total.obj
 0001:0001a490       ?GetSize@?$Array@PEAD@@QEAAIXZ 000000014001b490 f i total.obj
 0001:0001a4a0       ??0?$Array@PEAD@@QEAA@XZ   000000014001b4a0 f i total.obj
 0001:0001a4d0       ?GetSize@?$Array@PEA_J@@QEAAIXZ 000000014001b4d0 f i total.obj
 0001:0001a4e0       ??0?$Array@PEA_J@@QEAA@XZ  000000014001b4e0 f i total.obj
 0001:0001a510       ??0?$Array@PEAUDBENTRY@@@@QEAA@XZ 000000014001b510 f i total.obj
 0001:0001a540       ?GetSize@?$Array@H@@QEAAIXZ 000000014001b540 f i total.obj
 0001:0001a550       ??0?$Array@H@@QEAA@XZ      000000014001b550 f i total.obj
 0001:0001a580       ?GetSize@?$Array@UDBENTRY@@@@QEAAIXZ 000000014001b580 f i total.obj
 0001:0001a590       ??0?$Array@UDBENTRY@@@@QEAA@XZ 000000014001b590 f i total.obj
 0001:0001a5c0       ?GetSize@?$Array@PEAU_ACRNemaAddress@@@@QEAAIXZ 000000014001b5c0 f i total.obj
 0001:0001a5d0       ??0?$Array@PEAU_ACRNemaAddress@@@@QEAA@XZ 000000014001b5d0 f i total.obj
 0001:0001a600       ?GetSize@?$Array@PEAH@@QEAAIXZ 000000014001b600 f i total.obj
 0001:0001a610       ??0?$Array@PEAH@@QEAA@XZ   000000014001b610 f i total.obj
 0001:0001a640       ?GetSize@?$Array@PEAU_sectionTable@@@@QEAAIXZ 000000014001b640 f i total.obj
 0001:0001a650       ??0?$Array@PEAU_sectionTable@@@@QEAA@XZ 000000014001b650 f i total.obj
 0001:0001a680       ?GetSize@?$Array@PEAU_iniTable@@@@QEAAIXZ 000000014001b680 f i total.obj
 0001:0001a690       ??0?$Array@PEAU_iniTable@@@@QEAA@XZ 000000014001b690 f i total.obj
 0001:0001a6c0       ?Get@?$FixedArray@IU_RTCElement@@@@QEAAAEAU_RTCElement@@H@Z 000000014001b6c0 f i total.obj
 0001:0001a6d0       ?GetSize@?$FixedArray@IU_RTCElement@@@@QEAAIXZ 000000014001b6d0 f i total.obj
 0001:0001a6e0       ?GetSize@?$Array@U_RTCElement@@@@QEAAIXZ 000000014001b6e0 f i total.obj
 0001:0001a6f0       ??0?$Array@U_RTCElement@@@@QEAA@XZ 000000014001b6f0 f i total.obj
 0001:0001a720       ?GetSize@?$Array@PEAVDICOMObject@@@@QEAAIXZ 000000014001b720 f i total.obj
 0001:0001a730       ??0?$Array@PEAVDICOMObject@@@@QEAA@XZ 000000014001b730 f i total.obj
 0001:0001a760       ??_Glocale@std@@QEAAPEAXI@Z 000000014001b760 f i total.obj
 0001:0001a7a0       ??_D?$basic_istream@DU?$char_traits@D@std@@@std@@QEAAXXZ 000000014001b7a0 f i total.obj
 0001:0001a7d0       ?size@?$basic_string@DU?$char_traits@D@std@@V?$allocator@D@2@@std@@QEBA_KXZ 000000014001b7d0 f i total.obj
 0001:0001a7e0       ??1?$_String_val@DV?$allocator@D@std@@@std@@QEAA@XZ 000000014001b7e0 f i total.obj
 0001:0001a7f0       ??0?$allocator@D@std@@QEAA@XZ 000000014001b7f0 f i total.obj
 0001:0001a800       ?_Tidy@?$_Yarn@D@std@@AEAAXXZ 000000014001b800 f i total.obj
 0001:0001a830       ??0?$basic_ios@DU?$char_traits@D@std@@@std@@IEAA@XZ 000000014001b830 f i total.obj
 0001:0001a850       ??_G?$basic_ios@DU?$char_traits@D@std@@@std@@UEAAPEAXI@Z 000000014001b850 f i total.obj
 0001:0001a850       ??_E?$basic_ios@DU?$char_traits@D@std@@@std@@UEAAPEAXI@Z 000000014001b850 f i total.obj
 0001:0001a8a0       ??0_Sentry_base@?$basic_istream@DU?$char_traits@D@std@@@std@@QEAA@AEAV12@@Z 000000014001b8a0 f i total.obj
 0001:0001a8e0       ?pubseekoff@?$basic_streambuf@DU?$char_traits@D@std@@@std@@QEAA?AV?$fpos@H@2@_JHH@Z 000000014001b8e0 f i total.obj
 0001:0001a910       ?pubsync@?$basic_streambuf@DU?$char_traits@D@std@@@std@@QEAAHXZ 000000014001b910 f i total.obj
 0001:0001a920       ?sgetn@?$basic_streambuf@DU?$char_traits@D@std@@@std@@QEAA_JPEAD_J@Z 000000014001b920 f i total.obj
 0001:0001a930       ?eback@?$basic_streambuf@DU?$char_traits@D@std@@@std@@IEBAPEADXZ 000000014001b930 f i total.obj
 0001:0001a940       ?gptr@?$basic_streambuf@DU?$char_traits@D@std@@@std@@IEBAPEADXZ 000000014001b940 f i total.obj
 0001:0001a950       ?_Gninc@?$basic_streambuf@DU?$char_traits@D@std@@@std@@IEAAPEADXZ 000000014001b950 f i total.obj
 0001:0001a970       ?_Gnpreinc@?$basic_streambuf@DU?$char_traits@D@std@@@std@@IEAAPEADXZ 000000014001b970 f i total.obj
 0001:0001a990       ?_Gnavail@?$basic_streambuf@DU?$char_traits@D@std@@@std@@IEBA_JXZ 000000014001b990 f i total.obj
 0001:0001a9b0       ?is_open@?$basic_filebuf@DU?$char_traits@D@std@@@std@@QEBA_NXZ 000000014001b9b0 f i total.obj
 0001:0001a9c0       ?_Myptr@?$basic_string@DU?$char_traits@D@std@@V?$allocator@D@2@@std@@QEAAPEADXZ 000000014001b9c0 f i total.obj
 0001:0001a9e0       ?_Xlen@?$basic_string@DU?$char_traits@D@std@@V?$allocator@D@2@@std@@QEBAXXZ 000000014001b9e0 f i total.obj
 0001:0001aa00       ??0?$allocator@D@std@@QEAA@AEBV01@@Z 000000014001ba00 f i total.obj
 0001:0001aa10       ?deallocate@?$allocator@D@std@@QEAAXPEAD_K@Z 000000014001ba10 f i total.obj
 0001:0001aa20       ?tie@?$basic_ios@DU?$char_traits@D@std@@@std@@QEBAPEAV?$basic_ostream@DU?$char_traits@D@std@@@2@XZ 000000014001ba20 f i total.obj
 0001:0001aa30       ?getloc@?$basic_streambuf@DU?$char_traits@D@std@@@std@@QEBA?AVlocale@2@XZ 000000014001ba30 f i total.obj
 0001:0001aa90       ?setg@?$basic_streambuf@DU?$char_traits@D@std@@@std@@IEAAXPEAD00@Z 000000014001ba90 f i total.obj
 0001:0001aab0       ?_Init@?$basic_streambuf@DU?$char_traits@D@std@@@std@@IEAAXPEAPEAD0PEAH001@Z 000000014001bab0 f i total.obj
 0001:0001aaf0       ??D?$_String_const_iterator@DU?$char_traits@D@std@@V?$allocator@D@2@@std@@QEBAAEBDXZ 000000014001baf0 f i total.obj
 0001:0001ab00       ?unshift@?$codecvt@DDH@std@@QEBAHAEAHPEAD1AEAPEAD@Z 000000014001bb00 f i total.obj
 0001:0001ab20       ?setp@?$basic_streambuf@DU?$char_traits@D@std@@@std@@IEAAXPEAD0@Z 000000014001bb20 f i total.obj
 0001:0001ab40       ??0?$_String_const_iterator@DU?$char_traits@D@std@@V?$allocator@D@2@@std@@QEAA@PEBDPEBU_Container_base0@1@@Z 000000014001bb40 f i total.obj
 0001:0001ab50       ?max_size@?$allocator@D@std@@QEBA_KXZ 000000014001bb50 f i total.obj
 0001:0001ab60       ?Get@?$Array@PEAVBufferSpace@@@@QEAAAEAPEAVBufferSpace@@I@Z 000000014001bb60 f i total.obj
 0001:0001abf0       ?RemoveAt@?$Array@PEAVBufferSpace@@@@QEAAHI@Z 000000014001bbf0 f i total.obj
 0001:0001acc0       ??1?$Array@PEAVBufferSpace@@@@UEAA@XZ 000000014001bcc0 f i total.obj
 0001:0001ad90       ?Get@?$Array@PEAVVR@@@@QEAAAEAPEAVVR@@I@Z 000000014001bd90 f i total.obj
 0001:0001ae20       ?RemoveAt@?$Array@PEAVVR@@@@QEAAHI@Z 000000014001be20 f i total.obj
 0001:0001aef0       ??1?$Array@PEAVVR@@@@UEAA@XZ 000000014001bef0 f i total.obj
 0001:0001afc0       ?Pop@?$PQueueOfPtr@PEAVVR@@@@QEAAAEAPEAVVR@@XZ 000000014001bfc0 f i total.obj
 0001:0001b4a0       ?Get@?$Array@PEAVVRGroupPQueue@@@@QEAAAEAPEAVVRGroupPQueue@@I@Z 000000014001c4a0 f i total.obj
 0001:0001b530       ?RemoveAt@?$Array@PEAVVRGroupPQueue@@@@QEAAHI@Z 000000014001c530 f i total.obj
 0001:0001b600       ??1?$Array@PEAVVRGroupPQueue@@@@UEAA@XZ 000000014001c600 f i total.obj
 0001:0001b6d0       ?Pop@?$PQueueOfPtr@PEAVVRGroupPQueue@@@@QEAAAEAPEAVVRGroupPQueue@@XZ 000000014001c6d0 f i total.obj
 0001:0001bb50       ?Get@?$Array@VTransferSyntax@@@@QEAAAEAVTransferSyntax@@I@Z 000000014001cb50 f i total.obj
 0001:0001bbe0       ?Get@?$Array@VPresentationContext@@@@QEAAAEAVPresentationContext@@I@Z 000000014001cbe0 f i total.obj
 0001:0001bc90       ??0?$Array@VPresentationContext@@@@QEAA@I@Z 000000014001cc90 f i total.obj
 0001:0001bcc0       ?Get@?$Array@VPresentationContextAccept@@@@QEAAAEAVPresentationContextAccept@@I@Z 000000014001ccc0 f i total.obj
 0001:0001bd50       ??0?$Array@VPresentationContextAccept@@@@QEAA@I@Z 000000014001cd50 f i total.obj
 0001:0001bd80       ?Get@?$Array@VAbstractSyntax@@@@QEAAAEAVAbstractSyntax@@I@Z 000000014001cd80 f i total.obj
 0001:0001be10       ?Get@?$Array@PEAVDICOMDataObject@@@@QEAAAEAPEAVDICOMDataObject@@I@Z 000000014001ce10 f i total.obj
 0001:0001bea0       ?RemoveAt@?$Array@PEAVDICOMDataObject@@@@QEAAHI@Z 000000014001cea0 f i total.obj
 0001:0001bf70       ??1?$Array@PEAVDICOMDataObject@@@@UEAA@XZ 000000014001cf70 f i total.obj
 0001:0001c040       ?Get@?$Array@PEAD@@QEAAAEAPEADI@Z 000000014001d040 f i total.obj
 0001:0001c0d0       ?ReplaceAt@?$Array@PEAD@@QEAAAEAPEADAEAPEADI@Z 000000014001d0d0 f i total.obj
 0001:0001c180       ?RemoveAt@?$Array@PEAD@@QEAAHI@Z 000000014001d180 f i total.obj
 0001:0001c250       ??1?$Array@PEAD@@UEAA@XZ   000000014001d250 f i total.obj
 0001:0001c320       ?Get@?$Array@PEA_J@@QEAAAEAPEA_JI@Z 000000014001d320 f i total.obj
 0001:0001c3b0       ?RemoveAt@?$Array@PEA_J@@QEAAHI@Z 000000014001d3b0 f i total.obj
 0001:0001c480       ??1?$Array@PEA_J@@UEAA@XZ  000000014001d480 f i total.obj
 0001:0001c550       ?Get@?$Array@PEAUDBENTRY@@@@QEAAAEAPEAUDBENTRY@@I@Z 000000014001d550 f i total.obj
 0001:0001c5e0       ?Get@?$Array@H@@QEAAAEAHI@Z 000000014001d5e0 f i total.obj
 0001:0001c670       ?RemoveAt@?$Array@H@@QEAAHI@Z 000000014001d670 f i total.obj
 0001:0001c740       ??1?$Array@H@@UEAA@XZ      000000014001d740 f i total.obj
 0001:0001c810       ?Get@?$Array@UDBENTRY@@@@QEAAAEAUDBENTRY@@I@Z 000000014001d810 f i total.obj
 0001:0001c8a0       ?Get@?$Array@PEAU_ACRNemaAddress@@@@QEAAAEAPEAU_ACRNemaAddress@@I@Z 000000014001d8a0 f i total.obj
 0001:0001c930       ?ReplaceAt@?$Array@PEAU_ACRNemaAddress@@@@QEAAAEAPEAU_ACRNemaAddress@@AEAPEAU2@I@Z 000000014001d930 f i total.obj
 0001:0001c9e0       ?RemoveAt@?$Array@PEAU_ACRNemaAddress@@@@QEAAHI@Z 000000014001d9e0 f i total.obj
 0001:0001cab0       ??1?$Array@PEAU_ACRNemaAddress@@@@UEAA@XZ 000000014001dab0 f i total.obj
 0001:0001cb80       ?Get@?$Array@PEAH@@QEAAAEAPEAHI@Z 000000014001db80 f i total.obj
 0001:0001cc10       ?ReplaceAt@?$Array@PEAH@@QEAAAEAPEAHAEAPEAHI@Z 000000014001dc10 f i total.obj
 0001:0001ccc0       ?RemoveAt@?$Array@PEAH@@QEAAHI@Z 000000014001dcc0 f i total.obj
 0001:0001cd90       ??1?$Array@PEAH@@UEAA@XZ   000000014001dd90 f i total.obj
 0001:0001ce60       ?Get@?$Array@PEAU_sectionTable@@@@QEAAAEAPEAU_sectionTable@@I@Z 000000014001de60 f i total.obj
 0001:0001cef0       ?RemoveAt@?$Array@PEAU_sectionTable@@@@QEAAHI@Z 000000014001def0 f i total.obj
 0001:0001cfc0       ??1?$Array@PEAU_sectionTable@@@@UEAA@XZ 000000014001dfc0 f i total.obj
 0001:0001d090       ?Get@?$Array@PEAU_iniTable@@@@QEAAAEAPEAU_iniTable@@I@Z 000000014001e090 f i total.obj
 0001:0001d120       ?ReplaceAt@?$Array@PEAU_iniTable@@@@QEAAAEAPEAU_iniTable@@AEAPEAU2@I@Z 000000014001e120 f i total.obj
 0001:0001d1d0       ??0?$FixedArray@IU_RTCElement@@@@QEAA@IH@Z 000000014001e1d0 f i total.obj
 0001:0001d260       ??1?$FixedArray@IU_RTCElement@@@@QEAA@XZ 000000014001e260 f i total.obj
 0001:0001d2a0       ?Add@?$FixedArray@IU_RTCElement@@@@QEAAAEAU_RTCElement@@AEAIAEAU2@@Z 000000014001e2a0 f i total.obj
 0001:0001d310       ?IndexOf@?$FixedArray@IU_RTCElement@@@@QEAAHAEAI@Z 000000014001e310 f i total.obj
 0001:0001d430       ?Get@?$Array@U_RTCElement@@@@QEAAAEAU_RTCElement@@I@Z 000000014001e430 f i total.obj
 0001:0001d4c0       ?RemoveAt@?$Array@U_RTCElement@@@@QEAAHI@Z 000000014001e4c0 f i total.obj
 0001:0001d590       ??1?$Array@U_RTCElement@@@@UEAA@XZ 000000014001e590 f i total.obj
 0001:0001d660       ?Get@?$Array@PEAVDICOMObject@@@@QEAAAEAPEAVDICOMObject@@I@Z 000000014001e660 f i total.obj
 0001:0001d6f0       ?RemoveAt@?$Array@PEAVDICOMObject@@@@QEAAHI@Z 000000014001e6f0 f i total.obj
 0001:0001d7c0       ??1?$Array@PEAVDICOMObject@@@@UEAA@XZ 000000014001e7c0 f i total.obj
 0001:0001d890       ??$_Allocate@D@std@@YAPEAD_KPEAD@Z 000000014001e890 f i total.obj
 0001:0001d900       ??0bad_alloc@std@@QEAA@AEBV01@@Z 000000014001e900 f i total.obj
 0001:0001d930       ??1?$DataLink@VAbstractSyntax@@@@QEAA@XZ 000000014001e930 f i total.obj
 0001:0001d940       ??0?$DataLink@PEAVBufferSpace@@@@QEAA@XZ 000000014001e940 f i total.obj
 0001:0001d960       ??0?$DataLink@PEAVVR@@@@QEAA@XZ 000000014001e960 f i total.obj
 0001:0001d980       ??0?$DataLink@PEAVVRGroupPQueue@@@@QEAA@XZ 000000014001e980 f i total.obj
 0001:0001d9a0       ??0?$DataLink@PEAVDICOMDataObject@@@@QEAA@XZ 000000014001e9a0 f i total.obj
 0001:0001d9c0       ??0?$DataLink@PEAD@@QEAA@XZ 000000014001e9c0 f i total.obj
 0001:0001d9e0       ??0?$DataLink@PEA_J@@QEAA@XZ 000000014001e9e0 f i total.obj
 0001:0001da00       ??0?$DataLink@PEAUDBENTRY@@@@QEAA@XZ 000000014001ea00 f i total.obj
 0001:0001da20       ??0?$DataLink@H@@QEAA@XZ   000000014001ea20 f i total.obj
 0001:0001da40       ??0?$DataLink@UDBENTRY@@@@QEAA@XZ 000000014001ea40 f i total.obj
 0001:0001da60       ??0?$DataLink@PEAU_ACRNemaAddress@@@@QEAA@XZ 000000014001ea60 f i total.obj
 0001:0001da80       ??0?$DataLink@PEAH@@QEAA@XZ 000000014001ea80 f i total.obj
 0001:0001daa0       ??0?$DataLink@PEAU_sectionTable@@@@QEAA@XZ 000000014001eaa0 f i total.obj
 0001:0001dac0       ??0?$DataLink@PEAU_iniTable@@@@QEAA@XZ 000000014001eac0 f i total.obj
 0001:0001dae0       ??0?$Array@V?$FixedArrayElement@IU_RTCElement@@@@@@QEAA@XZ 000000014001eae0 f i total.obj
 0001:0001db10       ??0?$DataLink@U_RTCElement@@@@QEAA@XZ 000000014001eb10 f i total.obj
 0001:0001db30       ??0?$DataLink@PEAVDICOMObject@@@@QEAA@XZ 000000014001eb30 f i total.obj
 0001:0001db50       ?_Init@?$codecvt@DDH@std@@IEAAXAEBV_Locinfo@2@@Z 000000014001eb50 f i total.obj
 0001:0001db60       ?RemoveAt@?$Array@PEAUDBENTRY@@@@QEAAHI@Z 000000014001eb60 f i total.obj
 0001:0001dc30       ?RemoveAt@?$Array@UDBENTRY@@@@QEAAHI@Z 000000014001ec30 f i total.obj
 0001:0001dd00       ?RemoveAt@?$Array@PEAU_iniTable@@@@QEAAHI@Z 000000014001ed00 f i total.obj
 0001:0001ddd0       ??1?$DataLink@VTransferSyntax@@@@QEAA@XZ 000000014001edd0 f i total.obj
 0001:0001dde0       ??O?$FixedArrayElement@IU_RTCElement@@@@QEAAIAEAV0@@Z 000000014001ede0 f i total.obj
 0001:0001ddf0       ??M?$FixedArrayElement@IU_RTCElement@@@@QEAAIAEAV0@@Z 000000014001edf0 f i total.obj
 0001:0001de00       ?GetSize@?$Array@V?$FixedArrayElement@IU_RTCElement@@@@@@QEAAIXZ 000000014001ee00 f i total.obj
 0001:0001de10       ?Get@?$Array@V?$FixedArrayElement@IU_RTCElement@@@@@@QEAAAEAV?$FixedArrayElement@IU_RTCElement@@@@I@Z 000000014001ee10 f i total.obj
 0001:0001dea0       ?RemoveAt@?$Array@V?$FixedArrayElement@IU_RTCElement@@@@@@QEAAHI@Z 000000014001eea0 f i total.obj
 0001:0001df70       ??0?$DataLink@V?$FixedArrayElement@IU_RTCElement@@@@@@QEAA@XZ 000000014001ef70 f i total.obj
 0001:0001df90       ?GetUID@StandardRetrieve@@W7EAAHAEAVUID@@@Z 000000014001ef90 f i total.obj
 0001:0001dfa0       ?GetUID@UnknownStorage@@W7EAAHAEAVUID@@@Z 000000014001efa0 f i total.obj
 0001:0001dfb0       ??0?$PQueueOfPtr@PEAVVR@@@@QEAA@XZ 000000014001efb0 f i total.obj
 0001:0001dfe0       ??1?$PQueueOfPtr@PEAVVR@@@@UEAA@XZ 000000014001efe0 f i total.obj
 0001:0001dff0       ??_G?$PQueueOfPtr@PEAVVR@@@@UEAAPEAXI@Z 000000014001eff0 f i total.obj
 0001:0001dff0       ??_E?$PQueueOfPtr@PEAVVR@@@@UEAAPEAXI@Z 000000014001eff0 f i total.obj
 0001:0001e030       ??0UID@@QEAA@XZ            000000014001f030 f i total.obj
 0001:0001e080       ?Set@UID@@QEAAXPEAE@Z      000000014001f080 f i total.obj
 0001:0001e140       ?Set@UID@@QEAAXPEBD@Z      000000014001f140 f i total.obj
 0001:0001e150       ?SetTimeOut@PDU_Service@@QEAAHH@Z 000000014001f150 f i total.obj
 0001:0001e160       ??_Gruntime_error@std@@UEAAPEAXI@Z 000000014001f160 f i total.obj
 0001:0001e160       ??_Eruntime_error@std@@UEAAPEAXI@Z 000000014001f160 f i total.obj
 0001:0001e1a0       ?c_str@locale@std@@QEBAPEBDXZ 000000014001f1a0 f i total.obj
 0001:0001e1c0       ??0?$ctype@D@std@@QEAA@AEBV_Locinfo@1@_K@Z 000000014001f1c0 f i total.obj
 0001:0001e220       ?_Tidy@?$ctype@D@std@@IEAAXXZ 000000014001f220 f i total.obj
 0001:0001e260       ?do_tolower@?$ctype@D@std@@MEBADD@Z 000000014001f260 f i total.obj
 0001:0001e280       ?do_tolower@?$ctype@D@std@@MEBAPEBDPEADPEBD@Z 000000014001f280 f i total.obj
 0001:0001e2e0       ?do_toupper@?$ctype@D@std@@MEBADD@Z 000000014001f2e0 f i total.obj
 0001:0001e300       ?do_toupper@?$ctype@D@std@@MEBAPEBDPEADPEBD@Z 000000014001f300 f i total.obj
 0001:0001e360       ?do_widen@?$ctype@D@std@@MEBADD@Z 000000014001f360 f i total.obj
 0001:0001e370       ?do_widen@?$ctype@D@std@@MEBAPEBDPEBD0PEAD@Z 000000014001f370 f i total.obj
 0001:0001e3a0       ?do_narrow@?$ctype@D@std@@MEBADDD@Z 000000014001f3a0 f i total.obj
 0001:0001e3b0       ?do_narrow@?$ctype@D@std@@MEBAPEBDPEBD0DPEAD@Z 000000014001f3b0 f i total.obj
 0001:0001e3e0       ??1?$ctype@D@std@@MEAA@XZ  000000014001f3e0 f i total.obj
 0001:0001e460       ??_G?$ctype@D@std@@MEAAPEAXI@Z 000000014001f460 f i total.obj
 0001:0001e460       ??_E?$ctype@D@std@@MEAAPEAXI@Z 000000014001f460 f i total.obj
 0001:0001e4e0       ??0system_error@std@@QEAA@Verror_code@1@PEBD@Z 000000014001f4e0 f i total.obj
 0001:0001e540       ??_Esystem_error@std@@UEAAPEAXI@Z 000000014001f540 f i total.obj
 0001:0001e540       ??_Gsystem_error@std@@UEAAPEAXI@Z 000000014001f540 f i total.obj
 0001:0001e580       ??0failure@ios_base@std@@QEAA@PEBDAEBVerror_code@2@@Z 000000014001f580 f i total.obj
 0001:0001e5d0       ??1failure@ios_base@std@@UEAA@XZ 000000014001f5d0 f i total.obj
 0001:0001e5e0       ?clear@ios_base@std@@QEAAXH_N@Z 000000014001f5e0 f i total.obj
 0001:0001e750       ??0runtime_error@std@@QEAA@AEBV01@@Z 000000014001f750 f i total.obj
 0001:0001e780       ??0system_error@std@@QEAA@AEBV01@@Z 000000014001f780 f i total.obj
 0001:0001e7d0       ?clear@ios_base@std@@QEAAXH@Z 000000014001f7d0 f i total.obj
 0001:0001e7e0       ?_Init@ios_base@std@@IEAAXXZ 000000014001f7e0 f i total.obj
 0001:0001e8c0       ??_Efailure@ios_base@std@@UEAAPEAXI@Z 000000014001f8c0 f i total.obj
 0001:0001e8c0       ??_Gfailure@ios_base@std@@UEAAPEAXI@Z 000000014001f8c0 f i total.obj
 0001:0001e900       ??0failure@ios_base@std@@QEAA@AEBV012@@Z 000000014001f900 f i total.obj
 0001:0001e960       ??1sentry@?$basic_istream@DU?$char_traits@D@std@@@std@@QEAA@XZ 000000014001f960 f i total.obj
 0001:0001e990       ?decommentBuffer@@YAHPEADH@Z 000000014001f990 f   total.obj
 0001:0001ec80       ?safestrcat@@YAXPEADPEBDH@Z 000000014001fc80 f   total.obj
 0001:0001ed30       ?BuildColumnString@@YAHPEAUDBENTRY@@PEADPEAVVR@@1@Z 000000014001fd30 f   total.obj
 0001:0001efb0       ?ParseComment@@YAHAEAVLex@@@Z 000000014001ffb0 f   total.obj
 0001:0001f000       ??0Debug@@QEAA@XZ          0000000140020000 f   total.obj
 0001:0001f070       ??1Debug@@QEAA@XZ          0000000140020070 f   total.obj
 0001:0001f0d0       ?On@Debug@@QEAAXXZ         00000001400200d0 f   total.obj
 0001:0001f160       ?On@Debug@@QEAAXPEAU_iobuf@@@Z 0000000140020160 f   total.obj
 0001:0001f200       ?On@Debug@@QEAAXPEAD@Z     0000000140020200 f   total.obj
 0001:0001f2c0       ?OnMsgPipe@Debug@@QEAAXPEAD@Z 00000001400202c0 f   total.obj
 0001:0001f390       ?OnMsgPipe@Debug@@QEAAXPEADH@Z 0000000140020390 f   total.obj
 0001:0001f460       ??0ACRNemaMap@@IEAA@XZ     0000000140020460 f   total.obj
 0001:0001f510       ?ClearMap@ACRNemaMap@@QEAAXXZ 0000000140020510 f   total.obj
 0001:0001f650       ?DeleteEntry@ACRNemaMap@@QEAAHI@Z 0000000140020650 f   total.obj
 0001:0001f6b0       ?GetOneEntry@ACRNemaMap@@QEAAXIPEADI0@Z 00000001400206b0 f   total.obj
 0001:0001f750       ?GetOneACRNemaAddress@ACRNemaMap@@QEAAPEAU_ACRNemaAddress@@I@Z 0000000140020750 f   total.obj
 0001:0001f780       ?GetSize@ACRNemaMap@@QEAAIXZ 0000000140020780 f   total.obj
 0001:0001f790       ?GetWholeAMapToString@ACRNemaMap@@QEAAPEADPEAD@Z 0000000140020790 f   total.obj
 0001:0001f9b0       ?PrintAMapToString@ACRNemaMap@@QEAAPEADPEAD@Z 00000001400209b0 f   total.obj
 0001:0001fac0       ?WriteAMapToTheFile@ACRNemaMap@@QEAAHPEAD@Z 0000000140020ac0 f   total.obj
 0001:0001fd30       ?wildIPCheck@ACRNemaMap@@AEAAXPEADPEBD0@Z 0000000140020d30 f   total.obj
 0001:0001fed0       ??0IniValue@@IEAA@XZ       0000000140020ed0 f   total.obj
 0001:000200b0       ?dumpCharArray@IniValue@@AEAAXPEAU_iobuf@@PEAV?$Array@PEAD@@PEBD@Z 00000001400210b0 f   total.obj
 0001:000201d0       ?dumpIEGroup@IniValue@@AEAAXPEAU_iobuf@@PEAU_iEGroup@@PEBD@Z 00000001400211d0 f   total.obj
 0001:000202b0       ?dumpIntArray@IniValue@@AEAAXPEAU_iobuf@@PEAV?$Array@PEAH@@PEBD@Z 00000001400212b0 f   total.obj
 0001:000203d0       ?errorToBuffer@IniValue@@AEAAHPEBD@Z 00000001400213d0 f   total.obj
 0001:00020420       ?freeCharArray@IniValue@@AEAAXPEAPEAV?$Array@PEAD@@@Z 0000000140021420 f   total.obj
 0001:00020580       ?freeIEGroup@IniValue@@AEAAXPEAPEAU_iEGroup@@@Z 0000000140021580 f   total.obj
 0001:00020630       ?freeIntArray@IniValue@@AEAAXPEAPEAV?$Array@PEAH@@@Z 0000000140021630 f   total.obj
 0001:00020790       ?freeLua@IniValue@@AEAAXXZ 0000000140021790 f   total.obj
 0001:00020930       ?freesscscp@IniValue@@AEAAXXZ 0000000140021930 f   total.obj
 0001:00020bb0       ?freeSourceLines@IniValue@@AEAAXPEAPEAU_sourceLines@@@Z 0000000140021bb0 f   total.obj
 0001:00020bf0       ?freesection@IniValue@@AEAAXXZ 0000000140021bf0 f   total.obj
 0001:00020d60       ?freewadoservers@IniValue@@AEAAXXZ 0000000140021d60 f   total.obj
 0001:00020db0       ?freewebdefaults@IniValue@@AEAAXXZ 0000000140021db0 f   total.obj
 0001:00020e00       ?GetIniTableValue@IniValue@@QEAAPEADPEBDPEAV?$Array@PEAU_iniTable@@@@@Z 0000000140021e00 f   total.obj
 0001:00020fc0       ?getStringPtrFromArray@IniValue@@AEAAPEADXZ 0000000140021fc0 f   total.obj
 0001:00021010       ?getTypeForsourceLines@IniValue@@AEAA?AW4DATAPTRTYPE@@XZ 0000000140022010 f   total.obj
 0001:00021240       ?getTypeForWebDefaults@IniValue@@AEAA?AW4DATAPTRTYPE@@XZ 0000000140022240 f   total.obj
 0001:00021630       ?getReplyLength@IniValue@@AEAAHXZ 0000000140022630 f   total.obj
 0001:000216f0       ?GetUnknownSectionTableValue@IniValue@@QEAAPEADPEBD0@Z 00000001400226f0 f   total.obj
 0001:00021880       ?goToNextSection@IniValue@@AEAAHXZ 0000000140022880 f   total.obj
 0001:00021a20       ?goToStartOfName@IniValue@@AEAAHPEBD@Z 0000000140022a20 f   total.obj
 0001:00021c50       ?isIEGroup@IniValue@@AEAAHI@Z 0000000140022c50 f   total.obj
 0001:00021f60       ?keepLine@IniValue@@AEAAHPEBD@Z 0000000140022f60 f   total.obj
 0001:00021ff0       ?makeFullPath@IniValue@@AEAAXPEAD@Z 0000000140022ff0 f   total.obj
 0001:00022150       ?mallocReturnBuf@IniValue@@AEAAPEADPEBD@Z 0000000140023150 f   total.obj
 0001:00022210       ?openNewConfigFile@IniValue@@AEAAHXZ 0000000140023210 f   total.obj
 0001:00022330       ?SetBasePath@IniValue@@QEAAHPEBD@Z 0000000140023330 f   total.obj
 0001:00022530       ?setIniBool@IniValue@@AEAAXXZ 0000000140023530 f   total.obj
 0001:00022810       ?SetIniFile@IniValue@@QEAAHPEBD@Z 0000000140023810 f   total.obj
 0001:00022b40       ?setIniFullPath@IniValue@@AEAAXXZ 0000000140023b40 f   total.obj
 0001:00022c00       ?setIniINT@IniValue@@AEAAXPEAH@Z 0000000140023c00 f   total.obj
 0001:00022cd0       ?unknownPrint@IniValue@@AEAAXPEAV?$Array@PEAU_iniTable@@@@PEAU_iobuf@@@Z 0000000140023cd0 f   total.obj
 0001:00022df0       ?writeByPutParms@IniValue@@AEAAHPEBD@Z 0000000140023df0 f   total.obj
 0001:00022ff0       ?writeNameValue@IniValue@@AEAAHPEBD0@Z 0000000140023ff0 f   total.obj
 0001:00023200       ?UniqueLink@@YAPEBDPEAUDBENTRY@@@Z 0000000140024200 f   total.obj
 0001:00023250       ?SetString@@YAPEADPEAVVR@@PEADI@Z 0000000140024250 f   total.obj
 0001:00023450       ?MakeSafeDate@@YAHPEAVVR@@PEAD@Z 0000000140024450 f   total.obj
 0001:00023570       ?ConstructVRFromSQL@@YAPEAVVR@@PEAUDBENTRY@@GGIPEAD@Z 0000000140024570 f   total.obj
 0001:00023870       ??_G?$FixedArray@IU_RTCElement@@@@QEAAPEAXI@Z 0000000140024870 f i total.obj
 0001:000238d0       ?RunTimeClass@RTC@@QEAAGGGPEAD@Z 00000001400248d0 f   total.obj
 0001:000239b0       ?RunTimeClass@RTC@@QEAAHPEAVVR@@@Z 00000001400249b0 f   total.obj
 0001:00023a70       ?GetGroupElement@RTC@@QEAAHPEAU_RTCElement@@@Z 0000000140024a70 f   total.obj
 0001:00023b80       ?AttachBinaryRTC@RTC@@QEAAHPEAD@Z 0000000140024b80 f   total.obj
 0001:00023f40       ?AttachResourceRTC@RTC@@QEAAHPEAD@Z 0000000140024f40 f   total.obj
 0001:000241d0       ?GetUID@PatientRootQuery@@UEAAHAEAVUID@@@Z 00000001400251d0 f   total.obj
 0001:00024200       ?GetUID@PatientRootRetrieve@@UEAAHAEAVUID@@@Z 0000000140025200 f   total.obj
 0001:00024230       ?GetUID@StudyRootQuery@@UEAAHAEAVUID@@@Z 0000000140025230 f   total.obj
 0001:00024260       ?GetUID@StudyRootRetrieve@@UEAAHAEAVUID@@@Z 0000000140025260 f   total.obj
 0001:00024290       ?GetUID@PatientStudyOnlyQuery@@UEAAHAEAVUID@@@Z 0000000140025290 f   total.obj
 0001:000242c0       ?GetUID@PatientStudyOnlyRetrieve@@UEAAHAEAVUID@@@Z 00000001400252c0 f   total.obj
 0001:000242f0       ?GetUID@ModalityWorkListQuery@@UEAAHAEAVUID@@@Z 00000001400252f0 f   total.obj
 0001:00024320       ?GetUID@CRStorage@@UEAAHAEAVUID@@@Z 0000000140025320 f   total.obj
 0001:00024350       ?GetUID@CTStorage@@UEAAHAEAVUID@@@Z 0000000140025350 f   total.obj
 0001:00024380       ?GetUID@USMultiframeStorage@@UEAAHAEAVUID@@@Z 0000000140025380 f   total.obj
 0001:000243b0       ?GetUID@MRStorage@@UEAAHAEAVUID@@@Z 00000001400253b0 f   total.obj
 0001:000243e0       ?GetUID@NMStorage@@UEAAHAEAVUID@@@Z 00000001400253e0 f   total.obj
 0001:00024410       ?GetUID@USStorage@@UEAAHAEAVUID@@@Z 0000000140025410 f   total.obj
 0001:00024440       ?GetUID@SCStorage@@UEAAHAEAVUID@@@Z 0000000140025440 f   total.obj
 0001:00024470       ?GetUID@StandaloneOverlayStorage@@UEAAHAEAVUID@@@Z 0000000140025470 f   total.obj
 0001:000244a0       ?GetUID@StandaloneCurveStorage@@UEAAHAEAVUID@@@Z 00000001400254a0 f   total.obj
 0001:000244d0       ?GetUID@StandaloneModalityLUTStorage@@UEAAHAEAVUID@@@Z 00000001400254d0 f   total.obj
 0001:00024500       ?GetUID@StandaloneVOILUTStorage@@UEAAHAEAVUID@@@Z 0000000140025500 f   total.obj
 0001:00024530       ?GetUID@GEMRStorage@@UEAAHAEAVUID@@@Z 0000000140025530 f   total.obj
 0001:00024560       ?GetUID@GECTStorage@@UEAAHAEAVUID@@@Z 0000000140025560 f   total.obj
 0001:00024590       ?GetUID@Verification@@UEAAHAEAVUID@@@Z 0000000140025590 f   total.obj
 0001:000245c0       ?TranslateUIDToVR@@YAPEAVVR@@PEAVUID@@GG@Z 00000001400255c0 f   total.obj
 0001:00024810       ?ConvertNumber@@YAGPEAD@Z  0000000140025810 f   total.obj
 0001:000248f0       ?strcatlim@@YAPEADPEADPEBD_K@Z 00000001400258f0 f   total.obj
 0001:00024960       ?ImplicitLittleEndian_ParseRawVRIntoDCM@PDU_Service@@MEAAHAEAVLinkedBuffer@@PEAVDICOMObject@@@Z 0000000140025960 f   total.obj
 0001:00024980       ?ImplicitLittleEndian_ParseDCMIntoRawVR@PDU_Service@@MEAAHPEAVDICOMObject@@AEAVLinkedBuffer@@@Z 0000000140025980 f   total.obj
 0001:000249a0       ?ExplicitLittleEndian_ParseRawVRIntoDCM@PDU_Service@@MEAAHAEAVLinkedBuffer@@PEAVDICOMObject@@@Z 00000001400259a0 f   total.obj
 0001:000249c0       ?ExplicitLittleEndian_ParseDCMIntoRawVR@PDU_Service@@MEAAHPEAVDICOMObject@@AEAVLinkedBuffer@@@Z 00000001400259c0 f   total.obj
 0001:000249e0       ?ExplicitBigEndian_ParseRawVRIntoDCM@PDU_Service@@MEAAHAEAVLinkedBuffer@@PEAVDICOMObject@@@Z 00000001400259e0 f   total.obj
 0001:00024a00       ?ExplicitBigEndian_ParseDCMIntoRawVR@PDU_Service@@MEAAHPEAVDICOMObject@@AEAVLinkedBuffer@@@Z 0000000140025a00 f   total.obj
 0001:00024a20       ??4UserInformation@@QEAAAEAV0@AEAV0@@Z 0000000140025a20 f i total.obj
 0001:00024ab0       ??4PresentationContext@@QEAAAEAV0@AEAV0@@Z 0000000140025ab0 f i total.obj
 0001:00024b50       ?SetApplicationContext@PDU_Service@@UEAAHAEAVUID@@@Z 0000000140025b50 f   total.obj
 0001:00024b70       ?SetLocalAddress@PDU_Service@@UEAAHPEAE@Z 0000000140025b70 f   total.obj
 0001:00024bf0       ?SetRemoteAddress@PDU_Service@@UEAAHPEAE@Z 0000000140025bf0 f   total.obj
 0001:00024c70       ??_GAAssociateRJ@@UEAAPEAXI@Z 0000000140025c70 f i total.obj
 0001:00024c70       ??_EAAssociateRJ@@UEAAPEAXI@Z 0000000140025c70 f i total.obj
 0001:00024ca0       ??_EAReleaseRQ@@UEAAPEAXI@Z 0000000140025ca0 f i total.obj
 0001:00024ca0       ??_GAReleaseRQ@@UEAAPEAXI@Z 0000000140025ca0 f i total.obj
 0001:00024cd0       ??_GAReleaseRP@@UEAAPEAXI@Z 0000000140025cd0 f i total.obj
 0001:00024cd0       ??_EAReleaseRP@@UEAAPEAXI@Z 0000000140025cd0 f i total.obj
 0001:00024d00       ??_GAAbortRQ@@UEAAPEAXI@Z  0000000140025d00 f i total.obj
 0001:00024d00       ??_EAAbortRQ@@UEAAPEAXI@Z  0000000140025d00 f i total.obj
 0001:00024d30       ??1PresentationContextAccept@@QEAA@XZ 0000000140025d30 f   total.obj
 0001:00024d40       ?Size@PresentationContextAccept@@QEAAIXZ 0000000140025d40 f   total.obj
 0001:00024d70       ?SetUserInformation@AAssociateAC@@QEAAXAEAVUserInformation@@@Z 0000000140025d70 f   total.obj
 0001:00024d80       ??0ApplicationContext@@QEAA@XZ 0000000140025d80 f   total.obj
 0001:00024dd0       ??0ApplicationContext@@QEAA@AEAVUID@@@Z 0000000140025dd0 f   total.obj
 0001:00024eb0       ??0ApplicationContext@@QEAA@PEAE@Z 0000000140025eb0 f   total.obj
 0001:00024f20       ?Set@ApplicationContext@@QEAAXPEAE@Z 0000000140025f20 f   total.obj
 0001:00024f30       ??0AbstractSyntax@@QEAA@XZ 0000000140025f30 f   total.obj
 0001:00024f80       ??0AbstractSyntax@@QEAA@AEAVUID@@@Z 0000000140025f80 f   total.obj
 0001:00025060       ??0AbstractSyntax@@QEAA@PEAE@Z 0000000140026060 f   total.obj
 0001:000250d0       ?Set@AbstractSyntax@@QEAAXPEAE@Z 00000001400260d0 f   total.obj
 0001:000250e0       ??0TransferSyntax@@QEAA@XZ 00000001400260e0 f   total.obj
 0001:00025130       ??0TransferSyntax@@QEAA@AEAVUID@@@Z 0000000140026130 f   total.obj
 0001:00025210       ??0TransferSyntax@@QEAA@PEAE@Z 0000000140026210 f   total.obj
 0001:00025280       ?Set@TransferSyntax@@QEAAXPEAE@Z 0000000140026280 f   total.obj
 0001:00025290       ??0ImplementationClass@@QEAA@XZ 0000000140026290 f   total.obj
 0001:000252e0       ??0ImplementationClass@@QEAA@AEAVUID@@@Z 00000001400262e0 f   total.obj
 0001:000253c0       ??0ImplementationClass@@QEAA@PEAE@Z 00000001400263c0 f   total.obj
 0001:00025430       ?Set@ImplementationClass@@QEAAXPEAE@Z 0000000140026430 f   total.obj
 0001:00025440       ??0ImplementationVersion@@QEAA@XZ 0000000140026440 f   total.obj
 0001:00025490       ??0ImplementationVersion@@QEAA@AEAVUID@@@Z 0000000140026490 f   total.obj
 0001:00025570       ??0ImplementationVersion@@QEAA@PEAE@Z 0000000140026570 f   total.obj
 0001:000255e0       ?Set@ImplementationVersion@@QEAAXPEAE@Z 00000001400265e0 f   total.obj
 0001:000255f0       ?Size@PresentationContext@@QEAAIXZ 00000001400265f0 f   total.obj
 0001:000256e0       ??0SCPSCURoleSelect@@QEAA@XZ 00000001400266e0 f   total.obj
 0001:00025730       ??0UserInformation@@QEAA@XZ 0000000140026730 f   total.obj
 0001:00025820       ?SetUserInformation@AAssociateRQ@@QEAAXAEAVUserInformation@@@Z 0000000140026820 f   total.obj
 0001:00025830       ??1VR@@QEAA@XZ             0000000140026830 f   total.obj
 0001:000259b0       ?Pop@VRGroupPQueue@@QEAAPEAVVR@@XZ 00000001400269b0 f   total.obj
 0001:00025a10       ??0?$PQueueOfPtr@PEAVVRGroupPQueue@@@@QEAA@XZ 0000000140026a10 f i total.obj
 0001:00025a40       ??1?$PQueueOfPtr@PEAVVRGroupPQueue@@@@UEAA@XZ 0000000140026a40 f i total.obj
 0001:00025a50       ??_E?$PQueueOfPtr@PEAVVRGroupPQueue@@@@UEAAPEAXI@Z 0000000140026a50 f i total.obj
 0001:00025a50       ??_G?$PQueueOfPtr@PEAVVRGroupPQueue@@@@UEAAPEAXI@Z 0000000140026a50 f i total.obj
 0001:00025a90       ?GetVR@DICOMObject@@QEAAPEAVVR@@GG@Z 0000000140026a90 f   total.obj
 0001:00025c60       ?GetBYTE@DICOMObject@@QEAAEGG@Z 0000000140026c60 f   total.obj
 0001:00025cb0       ?GetUINT16@DICOMObject@@QEAAGGG@Z 0000000140026cb0 f   total.obj
 0001:00025d00       ?GetUINT@DICOMObject@@QEAAIGG@Z 0000000140026d00 f   total.obj
 0001:00025d80       ?GetULongLong@DICOMObject@@QEAA_KGG@Z 0000000140026d80 f   total.obj
 0001:00025e00       ?Getatoi@DICOMObject@@QEAAHGG@Z 0000000140026e00 f   total.obj
 0001:00025eb0       ?GetCString@DICOMObject@@QEAAPEADGG_K@Z 0000000140026eb0 f   total.obj
 0001:00025f70       ?SetIf@VR@@QEAAHPEAV1@@Z   0000000140026f70 f   total.obj
 0001:00026520       ?Reset@VR@@QEAAHXZ         0000000140027520 f   total.obj
 0001:000266b0       ?ReAlloc@VR@@QEAAHI@Z      00000001400276b0 f   total.obj
 0001:00026760       ??_ESocket@@UEAAPEAXI@Z    0000000140027760 f i total.obj
 0001:00026760       ??_GSocket@@UEAAPEAXI@Z    0000000140027760 f i total.obj
 0001:000267a0       ?Listen@Socket@@QEAAHPEAD@Z 00000001400277a0 f   total.obj
 0001:00026940       ??0Buffer@@QEAA@XZ         0000000140027940 f   total.obj
 0001:000269c0       ??1Buffer@@UEAA@XZ         00000001400279c0 f   total.obj
 0001:00026c50       ?Flush@Buffer@@QEAAHXZ     0000000140027c50 f   total.obj
 0001:00026e40       ?Flush@Buffer@@QEAAHI@Z    0000000140027e40 f   total.obj
 0001:00027170       ?dbase_close@@YAXPEAUdbase_header@@@Z 0000000140028170 f   total.obj
 0001:00027390       ?dbase_create@@YAHPEADPEAPEADPEAPEAUdbase_header@@@Z 0000000140028390 f   total.obj
 0001:00027900       ?Close@Database@@UEAAHXZ   0000000140028900 f   total.obj
 0001:00027bd0       ?SQLExecDirectWithRetry@Database@@UEAAHPEAXPEAEJ@Z 0000000140028bd0 f   total.obj
 0001:00027dc0       ??0StandardRetrieveNKI@@QEAA@XZ 0000000140028dc0 f   total.obj
 0001:00027de0       ?GetUID@StandardRetrieveNKI@@UEAAHAEAVUID@@@Z 0000000140028de0 f i total.obj
 0001:00027df0       ?GetUID@StandardRetrieveNKI@@W7EAAHAEAVUID@@@Z 0000000140028df0 f i total.obj
 0001:00027e00       ?GetUID@PatientRootRetrieveNKI@@UEAAHAEAVUID@@@Z 0000000140028e00 f   total.obj
 0001:00027e30       ?GetUID@StudyRootRetrieveNKI@@UEAAHAEAVUID@@@Z 0000000140028e30 f   total.obj
 0001:00027e60       ?GetUID@PatientStudyOnlyRetrieveNKI@@UEAAHAEAVUID@@@Z 0000000140028e60 f   total.obj
 0001:00027e90       ?GetUID@PatientRootRetrieveGeneric@@UEAAHAEAVUID@@@Z 0000000140028e90 f   total.obj
 0001:00027ec0       ?GetUID@StudyRootRetrieveGeneric@@UEAAHAEAVUID@@@Z 0000000140028ec0 f   total.obj
 0001:00027ef0       ?GetUID@PatientStudyOnlyRetrieveGeneric@@UEAAHAEAVUID@@@Z 0000000140028ef0 f   total.obj
 0001:00027f20       ?GetNumberOfFrames@@YAHPEAVDICOMDataObject@@@Z 0000000140028f20 f   total.obj
 0001:000280e0       ?getpSliceInfo@@YAPEAUSLICE_INFO@@PEAVDICOMDataObject@@@Z 00000001400290e0 f   total.obj
 0001:000299b0       ??0StandardStorage@@QEAA@XZ 000000014002a9b0 f i total.obj
 0001:000299d0       ?GetUID@StandardStorage@@UEAAHAEAVUID@@@Z 000000014002a9d0 f i total.obj
 0001:000299e0       ?CheckObject@StandardStorage@@UEAAGPEAVDICOMDataObject@@PEAVPDU_Service@@@Z 000000014002a9e0 f i total.obj
 0001:000299f0       ?GetUID@StandardStorage@@W7EAAHAEAVUID@@@Z 000000014002a9f0 f i total.obj
 0001:00029a00       ??0StandardQuery@@QEAA@XZ  000000014002aa00 f i total.obj
 0001:00029a20       ?GetUID@StandardQuery@@UEAAHAEAVUID@@@Z 000000014002aa20 f i total.obj
 0001:00029a30       ?GetUID@StandardQuery@@W7EAAHAEAVUID@@@Z 000000014002aa30 f i total.obj
 0001:00029f40       ?SetUID@RunTimeClassStorage@@QEAAHPEAVVR@@@Z 000000014002af40 f   total.obj
 0001:0002a090       ?SetUID@RunTimeClassStorage@@QEAAHPEAVDICOMDataObject@@@Z 000000014002b090 f   total.obj
 0001:0002a0d0       ??0MyUnknownStorage@@QEAA@XZ 000000014002b0d0 f i total.obj
 0001:0002a0f0       ??0CFSRQ@@QEAA@XZ          000000014002b0f0 f i total.obj
 0001:0002a110       ?GetUID@CFSRQ@@UEAAHAEAVUID@@@Z 000000014002b110 f i total.obj
 0001:0002a140       ??0CFSRSP@@QEAA@XZ         000000014002b140 f i total.obj
 0001:0002a160       ?GetUID@CFSRSP@@UEAAHAEAVUID@@@Z 000000014002b160 f i total.obj
 0001:0002a190       ??0DFSRQ@@QEAA@XZ          000000014002b190 f i total.obj
 0001:0002a1b0       ?GetUID@DFSRQ@@UEAAHAEAVUID@@@Z 000000014002b1b0 f i total.obj
 0001:0002a1e0       ??0DFSRSP@@QEAA@XZ         000000014002b1e0 f i total.obj
 0001:0002a200       ?GetUID@DFSRSP@@UEAAHAEAVUID@@@Z 000000014002b200 f i total.obj
 0001:0002a230       ??0SFSRQ@@QEAA@XZ          000000014002b230 f i total.obj
 0001:0002a250       ?GetUID@SFSRQ@@UEAAHAEAVUID@@@Z 000000014002b250 f i total.obj
 0001:0002a280       ??0SFSRSP@@QEAA@XZ         000000014002b280 f i total.obj
 0001:0002a2a0       ?GetUID@SFSRSP@@UEAAHAEAVUID@@@Z 000000014002b2a0 f i total.obj
 0001:0002a2d0       ??0AFSRQ@@QEAA@XZ          000000014002b2d0 f i total.obj
 0001:0002a2f0       ?GetUID@AFSRQ@@UEAAHAEAVUID@@@Z 000000014002b2f0 f i total.obj
 0001:0002a320       ??0AFSRSP@@QEAA@XZ         000000014002b320 f i total.obj
 0001:0002a340       ?GetUID@AFSRSP@@UEAAHAEAVUID@@@Z 000000014002b340 f i total.obj
 0001:0002a370       ??0CFBRQ@@QEAA@XZ          000000014002b370 f i total.obj
 0001:0002a390       ?GetUID@CFBRQ@@UEAAHAEAVUID@@@Z 000000014002b390 f i total.obj
 0001:0002a3c0       ??0CFBRSP@@QEAA@XZ         000000014002b3c0 f i total.obj
 0001:0002a3e0       ?GetUID@CFBRSP@@UEAAHAEAVUID@@@Z 000000014002b3e0 f i total.obj
 0001:0002a410       ??0DFBRQ@@QEAA@XZ          000000014002b410 f i total.obj
 0001:0002a430       ?GetUID@DFBRQ@@UEAAHAEAVUID@@@Z 000000014002b430 f i total.obj
 0001:0002a460       ??0DFBRSP@@QEAA@XZ         000000014002b460 f i total.obj
 0001:0002a480       ?GetUID@DFBRSP@@UEAAHAEAVUID@@@Z 000000014002b480 f i total.obj
 0001:0002a4b0       ??0AFBRQ@@QEAA@XZ          000000014002b4b0 f i total.obj
 0001:0002a4d0       ?GetUID@AFBRQ@@UEAAHAEAVUID@@@Z 000000014002b4d0 f i total.obj
 0001:0002a500       ??0AFBRSP@@QEAA@XZ         000000014002b500 f i total.obj
 0001:0002a520       ?GetUID@AFBRSP@@UEAAHAEAVUID@@@Z 000000014002b520 f i total.obj
 0001:0002a550       ??0SFBRQ@@QEAA@XZ          000000014002b550 f i total.obj
 0001:0002a570       ?GetUID@SFBRQ@@UEAAHAEAVUID@@@Z 000000014002b570 f i total.obj
 0001:0002a5a0       ??0SFBRSP@@QEAA@XZ         000000014002b5a0 f i total.obj
 0001:0002a5c0       ?GetUID@SFBRSP@@UEAAHAEAVUID@@@Z 000000014002b5c0 f i total.obj
 0001:0002a5f0       ??0SBGIBRQ@@QEAA@XZ        000000014002b5f0 f i total.obj
 0001:0002a610       ?GetUID@SBGIBRQ@@UEAAHAEAVUID@@@Z 000000014002b610 f i total.obj
 0001:0002a640       ??0SBGIBRRSP@@QEAA@XZ      000000014002b640 f i total.obj
 0001:0002a660       ?GetUID@SBGIBRRSP@@UEAAHAEAVUID@@@Z 000000014002b660 f i total.obj
 0001:0002a690       ??0SBCIBRQ@@QEAA@XZ        000000014002b690 f i total.obj
 0001:0002a6b0       ?GetUID@SBCIBRQ@@UEAAHAEAVUID@@@Z 000000014002b6b0 f i total.obj
 0001:0002a6e0       ??0SBCIBRRSP@@QEAA@XZ      000000014002b6e0 f i total.obj
 0001:0002a700       ?GetUID@SBCIBRRSP@@UEAAHAEAVUID@@@Z 000000014002b700 f i total.obj
 0001:0002a730       ??0GPRQ@@QEAA@XZ           000000014002b730 f i total.obj
 0001:0002a750       ?GetUID@GPRQ@@UEAAHAEAVUID@@@Z 000000014002b750 f i total.obj
 0001:0002a780       ??0GPRSP@@QEAA@XZ          000000014002b780 f i total.obj
 0001:0002a7a0       ?GetUID@GPRSP@@UEAAHAEAVUID@@@Z 000000014002b7a0 f i total.obj
 0001:0002a7d0       ??0EPRQ@@QEAA@XZ           000000014002b7d0 f i total.obj
 0001:0002a7f0       ?GetUID@EPRQ@@UEAAHAEAVUID@@@Z 000000014002b7f0 f i total.obj
 0001:0002a820       ??0EPRSP@@QEAA@XZ          000000014002b820 f i total.obj
 0001:0002a840       ?GetUID@EPRSP@@UEAAHAEAVUID@@@Z 000000014002b840 f i total.obj
 0001:0002a870       ?GetUID@ASCPRQ@@UEAAHAEAVUID@@@Z 000000014002b870 f i total.obj
 0001:0002a8a0       ?GetUID@ASCPRSP@@UEAAHAEAVUID@@@Z 000000014002b8a0 f i total.obj
 0001:0002a8d0       ?GetUID@ESCPRQ@@UEAAHAEAVUID@@@Z 000000014002b8d0 f i total.obj
 0001:0002a900       ?GetUID@ESCPRSP@@UEAAHAEAVUID@@@Z 000000014002b900 f i total.obj
 0001:0002a930       ??0Verification@@QEAA@XZ   000000014002b930 f i total.obj
 0001:0002a950       ??0PatientRootRetrieve@@QEAA@XZ 000000014002b950 f i total.obj
 0001:0002a970       ?uGetUID@PatientRootRetrieve@@UEAAHAEAVUID@@@Z 000000014002b970 f i total.obj
 0001:0002a980       ??0PatientRootRetrieveNKI@@QEAA@XZ 000000014002b980 f i total.obj
 0001:0002a9a0       ?uGetUID@PatientRootRetrieveNKI@@UEAAHAEAVUID@@@Z 000000014002b9a0 f i total.obj
 0001:0002a9b0       ??0PatientRootRetrieveGeneric@@QEAA@XZ 000000014002b9b0 f i total.obj
 0001:0002a9d0       ?uGetUID@PatientRootRetrieveGeneric@@UEAAHAEAVUID@@@Z 000000014002b9d0 f i total.obj
 0001:0002a9e0       ??0StudyRootRetrieve@@QEAA@XZ 000000014002b9e0 f i total.obj
 0001:0002aa00       ?uGetUID@StudyRootRetrieve@@UEAAHAEAVUID@@@Z 000000014002ba00 f i total.obj
 0001:0002aa10       ??0StudyRootRetrieveNKI@@QEAA@XZ 000000014002ba10 f i total.obj
 0001:0002aa30       ?uGetUID@StudyRootRetrieveNKI@@UEAAHAEAVUID@@@Z 000000014002ba30 f i total.obj
 0001:0002aa40       ??0StudyRootRetrieveGeneric@@QEAA@XZ 000000014002ba40 f i total.obj
 0001:0002aa60       ?uGetUID@StudyRootRetrieveGeneric@@UEAAHAEAVUID@@@Z 000000014002ba60 f i total.obj
 0001:0002aa70       ??0PatientStudyOnlyQuery@@QEAA@XZ 000000014002ba70 f i total.obj
 0001:0002aa90       ?uGetUID@PatientStudyOnlyQuery@@UEAAHAEAVUID@@@Z 000000014002ba90 f i total.obj
 0001:0002aaa0       ??0PatientStudyOnlyRetrieve@@QEAA@XZ 000000014002baa0 f i total.obj
 0001:0002aac0       ?uGetUID@PatientStudyOnlyRetrieve@@UEAAHAEAVUID@@@Z 000000014002bac0 f i total.obj
 0001:0002aad0       ??0PatientStudyOnlyRetrieveNKI@@QEAA@XZ 000000014002bad0 f i total.obj
 0001:0002aaf0       ?uGetUID@PatientStudyOnlyRetrieveNKI@@UEAAHAEAVUID@@@Z 000000014002baf0 f i total.obj
 0001:0002ab00       ??0PatientStudyOnlyRetrieveGeneric@@QEAA@XZ 000000014002bb00 f i total.obj
 0001:0002ab20       ?uGetUID@PatientStudyOnlyRetrieveGeneric@@UEAAHAEAVUID@@@Z 000000014002bb20 f i total.obj
 0001:0002ab30       ?WriteGIFHeader@@YAHPEAU_iobuf@@HHPEAE11HW4ColorStyleType@@PEAD@Z 000000014002bb30 f   total.obj
 0001:0002afb0       ??A?$Array@VTransferSyntax@@@@QEAAAEAVTransferSyntax@@I@Z 000000014002bfb0 f i total.obj
 0001:0002afc0       ??A?$Array@VPresentationContext@@@@QEAAAEAVPresentationContext@@I@Z 000000014002bfc0 f i total.obj
 0001:0002afd0       ??A?$Array@VPresentationContextAccept@@@@QEAAAEAVPresentationContextAccept@@I@Z 000000014002bfd0 f i total.obj
 0001:0002afe0       ??1?$_Yarn@D@std@@QEAA@XZ  000000014002bfe0 f i total.obj
 0001:0002b010       ?tellg@?$basic_istream@DU?$char_traits@D@std@@@std@@QEAA?AV?$fpos@H@2@XZ 000000014002c010 f i total.obj
 0001:0002b090       ??1?$basic_streambuf@DU?$char_traits@D@std@@@std@@UEAA@XZ 000000014002c090 f i total.obj
 0001:0002b0f0       ?_Lock@?$basic_streambuf@DU?$char_traits@D@std@@@std@@UEAAXXZ 000000014002c0f0 f i total.obj
 0001:0002b100       ?_Unlock@?$basic_streambuf@DU?$char_traits@D@std@@@std@@UEAAXXZ 000000014002c100 f i total.obj
 0001:0002b110       ?overflow@?$basic_streambuf@DU?$char_traits@D@std@@@std@@MEAAHH@Z 000000014002c110 f i total.obj
 0001:0002b120       ?pbackfail@?$basic_streambuf@DU?$char_traits@D@std@@@std@@MEAAHH@Z 000000014002c120 f i total.obj
 0001:0002b130       ?showmanyc@?$basic_streambuf@DU?$char_traits@D@std@@@std@@MEAA_JXZ 000000014002c130 f i total.obj
 0001:0002b140       ?underflow@?$basic_streambuf@DU?$char_traits@D@std@@@std@@MEAAHXZ 000000014002c140 f i total.obj
 0001:0002b150       ?setbuf@?$basic_streambuf@DU?$char_traits@D@std@@@std@@MEAAPEAV12@PEAD_J@Z 000000014002c150 f i total.obj
 0001:0002b160       ?sync@?$basic_streambuf@DU?$char_traits@D@std@@@std@@MEAAHXZ 000000014002c160 f i total.obj
 0001:0002b170       ?imbue@?$basic_streambuf@DU?$char_traits@D@std@@@std@@MEAAXAEBVlocale@2@@Z 000000014002c170 f i total.obj
 0001:0002b180       ?pptr@?$basic_streambuf@DU?$char_traits@D@std@@@std@@IEBAPEADXZ 000000014002c180 f i total.obj
 0001:0002b190       ?gbump@?$basic_streambuf@DU?$char_traits@D@std@@@std@@IEAAXH@Z 000000014002c190 f i total.obj
 0001:0002b1b0       ?pbump@?$basic_streambuf@DU?$char_traits@D@std@@@std@@IEAAXH@Z 000000014002c1b0 f i total.obj
 0001:0002b1d0       ?_Pnavail@?$basic_streambuf@DU?$char_traits@D@std@@@std@@IEBA_JXZ 000000014002c1d0 f i total.obj
 0001:0002b1f0       ?sgetc@?$basic_streambuf@DU?$char_traits@D@std@@@std@@QEAAHXZ 000000014002c1f0 f i total.obj
 0001:0002b220       ?uflow@?$basic_streambuf@DU?$char_traits@D@std@@@std@@MEAAHXZ 000000014002c220 f i total.obj
 0001:0002b270       ?xsgetn@?$basic_streambuf@DU?$char_traits@D@std@@@std@@MEAA_JPEAD_J@Z 000000014002c270 f i total.obj
 0001:0002b360       ?xsputn@?$basic_streambuf@DU?$char_traits@D@std@@@std@@MEAA_JPEBD_J@Z 000000014002c360 f i total.obj
 0001:0002b450       ?seekoff@?$basic_streambuf@DU?$char_traits@D@std@@@std@@MEAA?AV?$fpos@H@2@_JHH@Z 000000014002c450 f i total.obj
 0001:0002b470       ?seekpos@?$basic_streambuf@DU?$char_traits@D@std@@@std@@MEAA?AV?$fpos@H@2@V32@H@Z 000000014002c470 f i total.obj
 0001:0002b490       ?is_open@?$basic_ifstream@DU?$char_traits@D@std@@@std@@QEBA_NXZ 000000014002c490 f i total.obj
 0001:0002b4a0       ??A?$Array@PEAVDICOMDataObject@@@@QEAAAEAPEAVDICOMDataObject@@I@Z 000000014002c4a0 f i total.obj
 0001:0002b4b0       ??_G?$Array@PEAVBufferSpace@@@@UEAAPEAXI@Z 000000014002c4b0 f i total.obj
 0001:0002b4b0       ??_E?$Array@PEAVBufferSpace@@@@UEAAPEAXI@Z 000000014002c4b0 f i total.obj
 0001:0002b4f0       ??_E?$Array@PEAVVR@@@@UEAAPEAXI@Z 000000014002c4f0 f i total.obj
 0001:0002b4f0       ??_G?$Array@PEAVVR@@@@UEAAPEAXI@Z 000000014002c4f0 f i total.obj
 0001:0002b530       ??_G?$Array@PEAVVRGroupPQueue@@@@UEAAPEAXI@Z 000000014002c530 f i total.obj
 0001:0002b530       ??_E?$Array@PEAVVRGroupPQueue@@@@UEAAPEAXI@Z 000000014002c530 f i total.obj
 0001:0002b570       ??_G?$basic_istream@DU?$char_traits@D@std@@@std@@UEAAPEAXI@Z 000000014002c570 f i total.obj
 0001:0002b570       ??_E?$basic_istream@DU?$char_traits@D@std@@@std@@UEAAPEAXI@Z 000000014002c570 f i total.obj
 0001:0002b5e0       ??_E?$basic_streambuf@DU?$char_traits@D@std@@@std@@UEAAPEAXI@Z 000000014002c5e0 f i total.obj
 0001:0002b5e0       ??_G?$basic_streambuf@DU?$char_traits@D@std@@@std@@UEAAPEAXI@Z 000000014002c5e0 f i total.obj
 0001:0002b660       ??_G?$Array@PEAVDICOMDataObject@@@@UEAAPEAXI@Z 000000014002c660 f i total.obj
 0001:0002b660       ??_E?$Array@PEAVDICOMDataObject@@@@UEAAPEAXI@Z 000000014002c660 f i total.obj
 0001:0002b6a0       ??_E?$Array@PEAD@@UEAAPEAXI@Z 000000014002c6a0 f i total.obj
 0001:0002b6a0       ??_G?$Array@PEAD@@UEAAPEAXI@Z 000000014002c6a0 f i total.obj
 0001:0002b6e0       ??_E?$Array@PEA_J@@UEAAPEAXI@Z 000000014002c6e0 f i total.obj
 0001:0002b6e0       ??_G?$Array@PEA_J@@UEAAPEAXI@Z 000000014002c6e0 f i total.obj
 0001:0002b720       ??_E?$Array@H@@UEAAPEAXI@Z 000000014002c720 f i total.obj
 0001:0002b720       ??_G?$Array@H@@UEAAPEAXI@Z 000000014002c720 f i total.obj
 0001:0002b760       ??_E?$Array@PEAU_ACRNemaAddress@@@@UEAAPEAXI@Z 000000014002c760 f i total.obj
 0001:0002b760       ??_G?$Array@PEAU_ACRNemaAddress@@@@UEAAPEAXI@Z 000000014002c760 f i total.obj
 0001:0002b7a0       ??_G?$Array@PEAH@@UEAAPEAXI@Z 000000014002c7a0 f i total.obj
 0001:0002b7a0       ??_E?$Array@PEAH@@UEAAPEAXI@Z 000000014002c7a0 f i total.obj
 0001:0002b7e0       ??_G?$Array@PEAU_sectionTable@@@@UEAAPEAXI@Z 000000014002c7e0 f i total.obj
 0001:0002b7e0       ??_E?$Array@PEAU_sectionTable@@@@UEAAPEAXI@Z 000000014002c7e0 f i total.obj
 0001:0002b820       ??_G?$Array@U_RTCElement@@@@UEAAPEAXI@Z 000000014002c820 f i total.obj
 0001:0002b820       ??_E?$Array@U_RTCElement@@@@UEAAPEAXI@Z 000000014002c820 f i total.obj
 0001:0002b860       ??_G?$Array@PEAVDICOMObject@@@@UEAAPEAXI@Z 000000014002c860 f i total.obj
 0001:0002b860       ??_E?$Array@PEAVDICOMObject@@@@UEAAPEAXI@Z 000000014002c860 f i total.obj
 0001:0002b8a0       ??0?$_String_val@DV?$allocator@D@std@@@std@@QEAA@V?$allocator@D@1@@Z 000000014002c8a0 f i total.obj
 0001:0002b8b0       ?clear@?$basic_ios@DU?$char_traits@D@std@@@std@@QEAAXH_N@Z 000000014002c8b0 f i total.obj
 0001:0002b8d0       ?sbumpc@?$basic_streambuf@DU?$char_traits@D@std@@@std@@QEAAHXZ 000000014002c8d0 f i total.obj
 0001:0002b910       ?_Reset_back@?$basic_filebuf@DU?$char_traits@D@std@@@std@@AEAAXXZ 000000014002c910 f i total.obj
 0001:0002b950       ??D?$_String_iterator@DU?$char_traits@D@std@@V?$allocator@D@2@@std@@QEBAAEADXZ 000000014002c950 f i total.obj
 0001:0002b960       ?_Chassign@?$basic_string@DU?$char_traits@D@std@@V?$allocator@D@2@@std@@QEAAX_K0D@Z 000000014002c960 f i total.obj
 0001:0002b9a0       ?_Eos@?$basic_string@DU?$char_traits@D@std@@V?$allocator@D@2@@std@@QEAAX_K@Z 000000014002c9a0 f i total.obj
 0001:0002b9c0       ?_Init@?$basic_streambuf@DU?$char_traits@D@std@@@std@@IEAAXXZ 000000014002c9c0 f i total.obj
 0001:0002ba30       ??0?$_String_iterator@DU?$char_traits@D@std@@V?$allocator@D@2@@std@@QEAA@PEADPEBU_Container_base0@1@@Z 000000014002ca30 f i total.obj
 0001:0002ba40       ?max_size@?$basic_string@DU?$char_traits@D@std@@V?$allocator@D@2@@std@@QEBA_KXZ 000000014002ca40 f i total.obj
 0001:0002ba50       ?allocate@?$allocator@D@std@@QEAAPEAD_K@Z 000000014002ca50 f i total.obj
 0001:0002bac0       ?Add@?$Array@PEAVBufferSpace@@@@QEAAAEAPEAVBufferSpace@@AEAPEAV2@@Z 000000014002cac0 f i total.obj
 0001:0002bb60       ?Add@?$Array@PEAVVR@@@@QEAAAEAPEAVVR@@AEAPEAV2@@Z 000000014002cb60 f i total.obj
 0001:0002bc00       ?Push@?$PQueueOfPtr@PEAVVR@@@@QEAAAEAPEAVVR@@AEAPEAV2@@Z 000000014002cc00 f i total.obj
 0001:0002bfc0       ?Add@?$Array@PEAVVRGroupPQueue@@@@QEAAAEAPEAVVRGroupPQueue@@AEAPEAV2@@Z 000000014002cfc0 f i total.obj
 0001:0002c060       ?Push@?$PQueueOfPtr@PEAVVRGroupPQueue@@@@QEAAAEAPEAVVRGroupPQueue@@AEAPEAV2@@Z 000000014002d060 f i total.obj
 0001:0002c400       ?Add@?$Array@PEAVDICOMDataObject@@@@QEAAAEAPEAVDICOMDataObject@@AEAPEAV2@@Z 000000014002d400 f i total.obj
 0001:0002c4a0       ?Add@?$Array@PEAD@@QEAAAEAPEADAEAPEAD@Z 000000014002d4a0 f i total.obj
 0001:0002c540       ?Add@?$Array@PEA_J@@QEAAAEAPEA_JAEAPEA_J@Z 000000014002d540 f i total.obj
 0001:0002c5e0       ?Add@?$Array@PEAUDBENTRY@@@@QEAAAEAPEAUDBENTRY@@AEAPEAU2@@Z 000000014002d5e0 f i total.obj
 0001:0002c680       ??1?$Array@PEAUDBENTRY@@@@UEAA@XZ 000000014002d680 f i total.obj
 0001:0002c750       ?Add@?$Array@H@@QEAAAEAHAEAH@Z 000000014002d750 f i total.obj
 0001:0002c7f0       ?Add@?$Array@UDBENTRY@@@@QEAAAEAUDBENTRY@@AEAU2@@Z 000000014002d7f0 f i total.obj
 0001:0002c890       ??1?$Array@UDBENTRY@@@@UEAA@XZ 000000014002d890 f i total.obj
 0001:0002c960       ?Add@?$Array@PEAU_ACRNemaAddress@@@@QEAAAEAPEAU_ACRNemaAddress@@AEAPEAU2@@Z 000000014002d960 f i total.obj
 0001:0002ca00       ?Add@?$Array@PEAH@@QEAAAEAPEAHAEAPEAH@Z 000000014002da00 f i total.obj
 0001:0002caa0       ?Add@?$Array@PEAU_sectionTable@@@@QEAAAEAPEAU_sectionTable@@AEAPEAU2@@Z 000000014002daa0 f i total.obj
 0001:0002cb40       ?Add@?$Array@PEAU_iniTable@@@@QEAAAEAPEAU_iniTable@@AEAPEAU2@@Z 000000014002db40 f i total.obj
 0001:0002cbe0       ??1?$Array@PEAU_iniTable@@@@UEAA@XZ 000000014002dbe0 f i total.obj
 0001:0002ccb0       ?Add@?$Array@U_RTCElement@@@@QEAAAEAU_RTCElement@@AEAU2@@Z 000000014002dcb0 f i total.obj
 0001:0002cd60       ?Add@?$Array@PEAVDICOMObject@@@@QEAAAEAPEAVDICOMObject@@AEAPEAV2@@Z 000000014002dd60 f i total.obj
 0001:0002ce00       ??_G?$DataLink@VAbstractSyntax@@@@QEAAPEAXI@Z 000000014002de00 f i total.obj
 0001:0002ce30       ??1?$DataLink@VPresentationContextAccept@@@@QEAA@XZ 000000014002de30 f i total.obj
 0001:0002ce40       ??0?$DataLink@VTransferSyntax@@@@QEAA@XZ 000000014002de40 f i total.obj
 0001:0002ce90       ??0?$DataLink@VAbstractSyntax@@@@QEAA@XZ 000000014002de90 f i total.obj
 0001:0002cee0       ??0?$codecvt@DDH@std@@QEAA@AEBV_Locinfo@1@_K@Z 000000014002dee0 f i total.obj
 0001:0002cf00       ??1?$codecvt@DDH@std@@MEAA@XZ 000000014002df00 f i total.obj
 0001:0002cf10       ?do_in@?$codecvt@DDH@std@@MEBAHAEAHPEBD1AEAPEBDPEAD3AEAPEAD@Z 000000014002df10 f i total.obj
 0001:0002cf40       ?do_out@?$codecvt@DDH@std@@MEBAHAEAHPEBD1AEAPEBDPEAD3AEAPEAD@Z 000000014002df40 f i total.obj
 0001:0002cf70       ?do_unshift@?$codecvt@DDH@std@@MEBAHAEAHPEAD1AEAPEAD@Z 000000014002df70 f i total.obj
 0001:0002cf90       ?do_length@?$codecvt@DDH@std@@MEBAHAEBHPEBD1_K@Z 000000014002df90 f i total.obj
 0001:0002cfb0       ??_G?$codecvt@DDH@std@@MEAAPEAXI@Z 000000014002dfb0 f i total.obj
 0001:0002cfb0       ??_E?$codecvt@DDH@std@@MEAAPEAXI@Z 000000014002dfb0 f i total.obj
 0001:0002cfe0       ??1?$Array@V?$FixedArrayElement@IU_RTCElement@@@@@@UEAA@XZ 000000014002dfe0 f i total.obj
 0001:0002d0b0       ?Pop@?$PQueue@V?$FixedArrayElement@IU_RTCElement@@@@@@QEAAAEAV?$FixedArrayElement@IU_RTCElement@@@@XZ 000000014002e0b0 f i total.obj
 0001:0002d590       ??_G?$DataLink@VTransferSyntax@@@@QEAAPEAXI@Z 000000014002e590 f i total.obj
 0001:0002d5c0       ?Add@?$Array@V?$FixedArrayElement@IU_RTCElement@@@@@@QEAAAEAV?$FixedArrayElement@IU_RTCElement@@@@AEAV2@@Z 000000014002e5c0 f i total.obj
 0001:0002d680       ?GetUID@PatientRootRetrieveGeneric@@W7EAAHAEAVUID@@@Z 000000014002e680 f i total.obj
 0001:0002d690       ?GetUID@PatientStudyOnlyQuery@@W7EAAHAEAVUID@@@Z 000000014002e690 f i total.obj
 0001:0002d6a0       ?GetUID@PatientRootRetrieve@@W7EAAHAEAVUID@@@Z 000000014002e6a0 f i total.obj
 0001:0002d6b0       ?GetUID@StudyRootRetrieveNKI@@W7EAAHAEAVUID@@@Z 000000014002e6b0 f i total.obj
 0001:0002d6c0       ?GetUID@PatientStudyOnlyRetrieveGeneric@@W7EAAHAEAVUID@@@Z 000000014002e6c0 f i total.obj
 0001:0002d6d0       ?GetUID@StudyRootRetrieveGeneric@@W7EAAHAEAVUID@@@Z 000000014002e6d0 f i total.obj
 0001:0002d6e0       ?GetUID@PatientRootRetrieveNKI@@W7EAAHAEAVUID@@@Z 000000014002e6e0 f i total.obj
 0001:0002d6f0       ?GetUID@PatientStudyOnlyRetrieve@@W7EAAHAEAVUID@@@Z 000000014002e6f0 f i total.obj
 0001:0002d700       ?GetUID@PatientStudyOnlyRetrieveNKI@@W7EAAHAEAVUID@@@Z 000000014002e700 f i total.obj
 0001:0002d710       ?GetUID@StudyRootRetrieve@@W7EAAHAEAVUID@@@Z 000000014002e710 f i total.obj
 0001:0002d720       ?GetUID@Verification@@W7EAAHAEAVUID@@@Z 000000014002e720 f i total.obj
 0001:0002d730       ??0VRGroupPQueue@@QEAA@G@Z 000000014002e730 f i total.obj
 0001:0002d770       ??1VRGroupPQueue@@UEAA@XZ  000000014002e770 f i total.obj
 0001:0002d780       ??_EVRGroupPQueue@@UEAAPEAXI@Z 000000014002e780 f i total.obj
 0001:0002d780       ??_GVRGroupPQueue@@UEAAPEAXI@Z 000000014002e780 f i total.obj
 0001:0002d7c0       ??0UID@@QEAA@PEBD@Z        000000014002e7c0 f i total.obj
 0001:0002d7e0       ??0LinkedBuffer@@QEAA@XZ   000000014002e7e0 f i total.obj
 0001:0002d870       ??1LinkedBuffer@@UEAA@XZ   000000014002e870 f i total.obj
 0001:0002d890       ??_ELinkedBuffer@@UEAAPEAXI@Z 000000014002e890 f i total.obj
 0001:0002d890       ??_GLinkedBuffer@@UEAAPEAXI@Z 000000014002e890 f i total.obj
 0001:0002d8f0       ??0FileBuffer@@QEAA@XZ     000000014002e8f0 f i total.obj
 0001:0002d980       ??1FileBuffer@@UEAA@XZ     000000014002e980 f i total.obj
 0001:0002d9a0       ??_GFileBuffer@@UEAAPEAXI@Z 000000014002e9a0 f i total.obj
 0001:0002d9a0       ??_EFileBuffer@@UEAAPEAXI@Z 000000014002e9a0 f i total.obj
 0001:0002da00       ??_GVR@@QEAAPEAXI@Z        000000014002ea00 f i total.obj
 0001:0002da40       ?SaveDICOMDataObject@PDU_Service@@QEAAHPEADIPEAVDICOMDataObject@@@Z 000000014002ea40 f   total.obj
 0001:0002de80       ??0_Locinfo@std@@QEAA@PEBD@Z 000000014002ee80 f i total.obj
 0001:0002df30       ??1_Locinfo@std@@QEAA@XZ   000000014002ef30 f i total.obj
 0001:0002dfc0       ?_Getcat@?$ctype@D@std@@SA_KPEAPEBVfacet@locale@2@PEBV42@@Z 000000014002efc0 f i total.obj
 0001:0002e140       ??1ACRNemaMap@@IEAA@XZ     000000014002f140 f   total.obj
 0001:0002e180       ?AppendMapToOpenFile@ACRNemaMap@@AEAAHPEAU_iobuf@@PEAD@Z 000000014002f180 f   total.obj
 0001:0002e220       ?GetACRNema@ACRNemaMap@@QEAAHPEAD000@Z 000000014002f220 f   total.obj
 0001:0002ea00       ?ReplaceEntry@ACRNemaMap@@QEAAHIPEBD000@Z 000000014002fa00 f   total.obj
 0001:0002ebb0       ?WriteAMapToAFile@ACRNemaMap@@QEAAHPEBDPEAD@Z 000000014002fbb0 f   total.obj
 0001:0002ec70       ??1IniValue@@IEAA@XZ       000000014002fc70 f   total.obj
 0001:0002eff0       ?addToCharArray@IniValue@@AEAAHPEBDPEAPEAV?$Array@PEAD@@@Z 000000014002fff0 f   total.obj
 0001:0002f1d0       ?addToIntArray@IniValue@@AEAAHHPEAPEAV?$Array@PEAH@@@Z 00000001400301d0 f   total.obj
 0001:0002f3c0       ?defaultIni@IniValue@@AEAAXXZ 00000001400303c0 f   total.obj
 0001:0002ff60       ?dumpsourceLines@IniValue@@AEAAXPEAU_iobuf@@PEAU_sourceLines@@PEBD@Z 0000000140030f60 f   total.obj
 0001:00030050       ?getBoolWithTemp@IniValue@@AEAAHXZ 0000000140031050 f   total.obj
 0001:00030090       ?getIniBoolString@IniValue@@AEAAPEADXZ 0000000140031090 f   total.obj
 0001:000301f0       ?getIniInitFromArray@IniValue@@AEAAPEADPEAPEAV?$Array@PEAH@@@Z 00000001400311f0 f   total.obj
 0001:00030330       ?getIniInitFromArray@IniValue@@AEAAPEADPEAPEAPEAV?$Array@PEAH@@@Z 0000000140031330 f   total.obj
 0001:00030370       ?getIniString@IniValue@@AEAAPEADXZ 0000000140031370 f   total.obj
 0001:000303b0       ?getIniStringFromArrayH@IniValue@@AEAAPEADPEAPEAV?$Array@PEAD@@@Z 00000001400313b0 f   total.obj
 0001:000304f0       ?getIniStringFromArrayDH@IniValue@@AEAAPEADPEAPEAPEAV?$Array@PEAD@@@Z 00000001400314f0 f   total.obj
 0001:00030530       ?getIniTime@IniValue@@AEAAPEADXZ 0000000140031530 f   total.obj
 0001:000306b0       ?getTypeForLua@IniValue@@AEAA?AW4DATAPTRTYPE@@XZ 00000001400316b0 f   total.obj
 0001:00031230       ?getTypeForsscscp@IniValue@@AEAA?AW4DATAPTRTYPE@@XZ 0000000140032230 f   total.obj
 0001:00033570       ?intTableValue@IniValue@@AEAAPEADPEAV?$Array@PEAU_iniTable@@@@PEBD@Z 0000000140034570 f   total.obj
 0001:000335a0       ?setIntForArray@IniValue@@AEAAXPEAPEAPEAV?$Array@PEAH@@@Z 00000001400345a0 f   total.obj
 0001:00033680       ?setStringForArray@IniValue@@AEAAHPEAPEAPEAV?$Array@PEAD@@@Z 0000000140034680 f   total.obj
 0001:00033730       ?setUIntForArray@IniValue@@AEAAXPEAPEAPEAV?$Array@PEAI@@@Z 0000000140034730 f   total.obj
 0001:00033810       ?unknownEntry@IniValue@@AEAAHPEAPEAV?$Array@PEAU_iniTable@@@@@Z 0000000140034810 f   total.obj
 0001:00033bf0       ?AddStudyInstanceUID@@YAHPEAVDICOMDataObject@@@Z 0000000140034bf0 f   total.obj
 0001:00033d90       ?AddSeriesInstanceUID@@YAHPEAVDICOMDataObject@@@Z 0000000140034d90 f   total.obj
 0001:00033f30       ?DetachRTC@RTC@@QEAAHXZ    0000000140034f30 f   total.obj
 0001:00034010       ?CanYouHandleTransferSyntax@CheckedPDU_Service@@UEAAHAEAVTransferSyntax@@@Z 0000000140035010 f   total.obj
 0001:000342e0       ?ShouldIAcceptApplicationContext@CheckedPDU_Service@@EEAAHAEAVApplicationContext@@@Z 00000001400352e0 f   total.obj
 0001:00034480       ?ShouldIAcceptAbstractSyntax@CheckedPDU_Service@@EEAAHAEAVAbstractSyntax@@@Z 0000000140035480 f   total.obj
 0001:00034620       ?Read@NDeleteRQ@@QEAAHPEAVDICOMCommandObject@@PEAVPDU_Service@@@Z 0000000140035620 f   total.obj
 0001:00034720       ?Read@NDeleteRSP@@QEAAHPEAVDICOMCommandObject@@PEAVPDU_Service@@@Z 0000000140035720 f   total.obj
 0001:00034820       ?Read@CEchoRQ@@QEAAHPEAVDICOMCommandObject@@@Z 0000000140035820 f   total.obj
 0001:000348b0       ?Read@CEchoRSP@@QEAAHPEAVDICOMCommandObject@@@Z 00000001400358b0 f   total.obj
 0001:00034950       ?Read@CStoreRSP@@QEAAHPEAVDICOMCommandObject@@@Z 0000000140035950 f   total.obj
 0001:000349f0       ?GetImplementationClass@PDU_Service@@MEAAHAEAVImplementationClass@@@Z 00000001400359f0 f   total.obj
 0001:00034a20       ?GetImplementationVersion@PDU_Service@@MEAAHAEAVImplementationVersion@@@Z 0000000140035a20 f   total.obj
 0001:00034a50       ??0MemoryBuffer@@QEAA@PEAEIHI@Z 0000000140035a50 f   total.obj
 0001:00034bf0       ??1MemoryBuffer@@UEAA@XZ   0000000140035bf0 f   total.obj
 0001:00034c60       ?Flush@LinkedBuffer@@QEAAHAEAVBuffer@@I@Z 0000000140035c60 f   total.obj
 0001:00034c80       ??0PDataTF@@QEAA@XZ        0000000140035c80 f   total.obj
 0001:00034d30       ??1PDataTF@@UEAA@XZ        0000000140035d30 f   total.obj
 0001:00034d70       ??0PresentationContextAccept@@QEAA@XZ 0000000140035d70 f   total.obj
 0001:00034df0       ??0PresentationContextAccept@@QEAA@AEAVTransferSyntax@@@Z 0000000140035df0 f   total.obj
 0001:00034e90       ?Size@AAssociateAC@@QEAAIXZ 0000000140035e90 f   total.obj
 0001:00035040       ?Size@AAssociateRQ@@QEAAIXZ 0000000140036040 f   total.obj
 0001:000351e0       ?Push@VRGroupPQueue@@QEAAHPEAVVR@@@Z 00000001400361e0 f   total.obj
 0001:00035240       ??0DICOMObject@@QEAA@XZ    0000000140036240 f   total.obj
 0001:000352e0       ?Push@DICOMObject@@UEAAHPEAV1@@Z 00000001400362e0 f   total.obj
 0001:000353f0       ?Push@DICOMObject@@UEAAHPEAVVR@@@Z 00000001400363f0 f   total.obj
 0001:000356b0       ?DeleteVR@DICOMObject@@QEAAHPEAVVR@@@Z 00000001400366b0 f   total.obj
 0001:00035960       ?ReplaceVR@DICOMObject@@QEAAHPEAVVR@@@Z 0000000140036960 f   total.obj
 0001:00035c40       ?ChangeVR@DICOMObject@@QEAAHGGPEBDGH@Z 0000000140036c40 f   total.obj
 0001:00035da0       ?ChangeVR@DICOMObject@@QEAAHGGEG@Z 0000000140036da0 f   total.obj
 0001:00035f70       ?ChangeVR@DICOMObject@@QEAAHGGGG@Z 0000000140036f70 f   total.obj
 0001:00036140       ?ChangeVR@DICOMObject@@QEAAHGGIG@Z 0000000140037140 f   total.obj
 0001:00036310       ?Reset@DICOMObject@@UEAAHXZ 0000000140037310 f   total.obj
 0001:00036390       ?Package@DICOMObject@@AEAAHXZ 0000000140037390 f   total.obj
 0001:00036560       ??_GBuffer@@UEAAPEAXI@Z    0000000140037560 f i total.obj
 0001:00036560       ??_EBuffer@@UEAAPEAXI@Z    0000000140037560 f i total.obj
 0001:000365a0       ?Write@Buffer@@QEAAHPEAEI@Z 00000001400375a0 f   total.obj
 0001:00036930       ?ReadBlock@Buffer@@QEAAHXZ 0000000140037930 f   total.obj
 0001:00036a80       ??1Database@@UEAA@XZ       0000000140037a80 f   total.obj
 0001:00036b50       ?DecompressNKI@@YAHPEAVDICOMDataObject@@@Z 0000000140037b50 f   total.obj
 0001:00036cf0       ?CompressNKI@@YAHPEAVDICOMDataObject@@H@Z 0000000140037cf0 f   total.obj
 0001:00036e70       ?DcmConvertPixelData@@YAHPEAVDICOMDataObject@@HHHHHHMMM@Z 0000000140037e70 f   total.obj
 0001:00038d10       ??0RunTimeClassStorage@@QEAA@XZ 0000000140039d10 f i total.obj
 0001:00038d80       ?uGetUID@RunTimeClassStorage@@UEAAHAEAVUID@@@Z 0000000140039d80 f i total.obj
 0001:00038d90       ?GetUID@RunTimeClassStorage@@W7EAAHAEAVUID@@@Z 0000000140039d90 f i total.obj
 0001:00038da0       ??0PatientRootQuery@@QEAA@XZ 0000000140039da0 f i total.obj
 0001:00038dc0       ?uGetUID@PatientRootQuery@@UEAAHAEAVUID@@@Z 0000000140039dc0 f i total.obj
 0001:00038dd0       ?GetUID@PatientRootQuery@@W7EAAHAEAVUID@@@Z 0000000140039dd0 f i total.obj
 0001:00038de0       ??0StudyRootQuery@@QEAA@XZ 0000000140039de0 f i total.obj
 0001:00038e00       ?uGetUID@StudyRootQuery@@UEAAHAEAVUID@@@Z 0000000140039e00 f i total.obj
 0001:00038e10       ?GetUID@StudyRootQuery@@W7EAAHAEAVUID@@@Z 0000000140039e10 f i total.obj
 0001:00038e20       ??0ModalityWorkListQuery@@QEAA@XZ 0000000140039e20 f i total.obj
 0001:00038e40       ?uGetUID@ModalityWorkListQuery@@UEAAHAEAVUID@@@Z 0000000140039e40 f i total.obj
 0001:00038e50       ?GetUID@ModalityWorkListQuery@@W7EAAHAEAVUID@@@Z 0000000140039e50 f i total.obj
 0001:00038e60       ??0MyPatientRootRetrieve@@QEAA@XZ 0000000140039e60 f i total.obj
 0001:00038ee0       ??0MyPatientRootRetrieveNKI@@QEAA@XZ 0000000140039ee0 f i total.obj
 0001:00038f60       ??0MyPatientRootRetrieveGeneric@@QEAA@XZ 0000000140039f60 f i total.obj
 0001:00038fe0       ??0MyStudyRootRetrieve@@QEAA@XZ 0000000140039fe0 f i total.obj
 0001:00039060       ??0MyStudyRootRetrieveNKI@@QEAA@XZ 000000014003a060 f i total.obj
 0001:000390e0       ??0MyStudyRootRetrieveGeneric@@QEAA@XZ 000000014003a0e0 f i total.obj
 0001:00039160       ??0MyPatientStudyOnlyQuery@@QEAA@XZ 000000014003a160 f i total.obj
 0001:00039180       ??0MyPatientStudyOnlyRetrieve@@QEAA@XZ 000000014003a180 f i total.obj
 0001:00039200       ??0MyPatientStudyOnlyRetrieveNKI@@QEAA@XZ 000000014003a200 f i total.obj
 0001:00039280       ??0MyPatientStudyOnlyRetrieveGeneric@@QEAA@XZ 000000014003a280 f i total.obj
 0001:00039520       ?setstate@?$basic_ios@DU?$char_traits@D@std@@@std@@QEAAXH_N@Z 000000014003a520 f i total.obj
 0001:00039550       ?seekg@?$basic_istream@DU?$char_traits@D@std@@@std@@QEAAAEAV12@_JH@Z 000000014003a550 f i total.obj
 0001:000395f0       ?snextc@?$basic_streambuf@DU?$char_traits@D@std@@@std@@QEAAHXZ 000000014003a5f0 f i total.obj
 0001:000396c0       ??_G?$Array@PEAUDBENTRY@@@@UEAAPEAXI@Z 000000014003a6c0 f i total.obj
 0001:000396c0       ??_E?$Array@PEAUDBENTRY@@@@UEAAPEAXI@Z 000000014003a6c0 f i total.obj
 0001:00039700       ??_G?$Array@UDBENTRY@@@@UEAAPEAXI@Z 000000014003a700 f i total.obj
 0001:00039700       ??_E?$Array@UDBENTRY@@@@UEAAPEAXI@Z 000000014003a700 f i total.obj
 0001:00039740       ??_G?$Array@PEAU_iniTable@@@@UEAAPEAXI@Z 000000014003a740 f i total.obj
 0001:00039740       ??_E?$Array@PEAU_iniTable@@@@UEAAPEAXI@Z 000000014003a740 f i total.obj
 0001:00039780       ?begin@?$basic_string@DU?$char_traits@D@std@@V?$allocator@D@2@@std@@QEAA?AV?$_String_iterator@DU?$char_traits@D@std@@V?$allocator@D@2@@2@XZ 000000014003a780 f i total.obj
 0001:000397a0       ?_Tidy@?$basic_string@DU?$char_traits@D@std@@V?$allocator@D@2@@std@@QEAAX_N_K@Z 000000014003a7a0 f i total.obj
 0001:00039810       ?_Init@?$basic_filebuf@DU?$char_traits@D@std@@@std@@IEAAXPEAU_iobuf@@W4_Initfl@12@@Z 000000014003a810 f i total.obj
 0001:000398f0       ?_Initcvt@?$basic_filebuf@DU?$char_traits@D@std@@@std@@IEAAXPEBV?$codecvt@DDH@2@@Z 000000014003a8f0 f i total.obj
 0001:000399b0       ??0?$basic_streambuf@DU?$char_traits@D@std@@@std@@IEAA@XZ 000000014003a9b0 f i total.obj
 0001:00039ae0       ?_Copy@?$basic_string@DU?$char_traits@D@std@@V?$allocator@D@2@@std@@QEAAX_K0@Z 000000014003aae0 f i total.obj
 0001:00039c70       ?Add@?$Array@VTransferSyntax@@@@QEAAAEAVTransferSyntax@@AEAV2@@Z 000000014003ac70 f i total.obj
 0001:00039d50       ?Add@?$Array@VAbstractSyntax@@@@QEAAAEAVAbstractSyntax@@AEAV2@@Z 000000014003ad50 f i total.obj
 0001:00039e30       ?RemoveAt@?$Array@VAbstractSyntax@@@@QEAAHI@Z 000000014003ae30 f i total.obj
 0001:00039f00       ??1?$Array@VAbstractSyntax@@@@UEAA@XZ 000000014003af00 f i total.obj
 0001:00039fd0       ??$use_facet@V?$ctype@D@std@@@std@@YAAEBV?$ctype@D@0@AEBVlocale@0@@Z 000000014003afd0 f i total.obj
 0001:0003a170       ??_G?$DataLink@VPresentationContextAccept@@@@QEAAPEAXI@Z 000000014003b170 f i total.obj
 0001:0003a1a0       ??0?$PQueue@V?$FixedArrayElement@IU_RTCElement@@@@@@QEAA@XZ 000000014003b1a0 f i total.obj
 0001:0003a1d0       ??1?$PQueue@V?$FixedArrayElement@IU_RTCElement@@@@@@UEAA@XZ 000000014003b1d0 f i total.obj
 0001:0003a1e0       ??_E?$PQueue@V?$FixedArrayElement@IU_RTCElement@@@@@@UEAAPEAXI@Z 000000014003b1e0 f i total.obj
 0001:0003a1e0       ??_G?$PQueue@V?$FixedArrayElement@IU_RTCElement@@@@@@UEAAPEAXI@Z 000000014003b1e0 f i total.obj
 0001:0003a220       ?_Getcat@?$codecvt@DDH@std@@SA_KPEAPEBVfacet@locale@2@PEBV42@@Z 000000014003b220 f i total.obj
 0001:0003a370       ??0?$DataLink@VPresentationContextAccept@@@@QEAA@XZ 000000014003b370 f i total.obj
 0001:0003a400       ??_E?$Array@V?$FixedArrayElement@IU_RTCElement@@@@@@UEAAPEAXI@Z 000000014003b400 f i total.obj
 0001:0003a400       ??_G?$Array@V?$FixedArrayElement@IU_RTCElement@@@@@@UEAAPEAXI@Z 000000014003b400 f i total.obj
 0001:0003a440       ?RemoveAt@?$Array@VTransferSyntax@@@@QEAAHI@Z 000000014003b440 f i total.obj
 0001:0003a510       ?Push@?$PQueue@V?$FixedArrayElement@IU_RTCElement@@@@@@QEAAAEAV?$FixedArrayElement@IU_RTCElement@@@@AEAV2@@Z 000000014003b510 f i total.obj
 0001:0003a910       ?GetACRNemaNoWild@ACRNemaMap@@QEAAHPEAD000@Z 000000014003b910 f   total.obj
 0001:0003a940       ?DumpIni@IniValue@@QEAAXPEAU_iobuf@@@Z 000000014003b940 f   total.obj
 0001:0003c360       ?GetIniInitPtr@IniValue@@QEAAPEAHPEBD0@Z 000000014003d360 f   total.obj
 0001:0003c9f0       ?GetIniString@IniValue@@QEAAPEADPEBD0@Z 000000014003d9f0 f   total.obj
 0001:0003da80       ?GetIniStringLen@IniValue@@QEAAHPEBDPEAPEAD0@Z 000000014003ea80 f   total.obj
 0001:0003e420       ?readlua@IniValue@@AEAAHXZ 000000014003f420 f   total.obj
 0001:0003e790       ?readScripts@IniValue@@AEAAHXZ 000000014003f790 f   total.obj
 0001:0003ec10       ?readsourceLines@IniValue@@AEAAHPEAPEAU_sourceLines@@@Z 000000014003fc10 f   total.obj
 0001:0003ee60       ?readsscscp@IniValue@@AEAAHXZ 000000014003fe60 f   total.obj
 0001:0003f740       ?readUknownSection@IniValue@@AEAAHXZ 0000000140040740 f   total.obj
 0001:0003fae0       ?readwadoservers@IniValue@@AEAAHXZ 0000000140040ae0 f   total.obj
 0001:0003fd40       ?readwebdefaults@IniValue@@AEAAHXZ 0000000140040d40 f   total.obj
 0001:0003ffd0       ??1RTC@@QEAA@XZ            0000000140040fd0 f   total.obj
 0001:0003ffe0       ?ReadRequest@Verification@@QEAAHPEAVPDU_Service@@PEAVDICOMCommandObject@@@Z 0000000140040fe0 f   total.obj
 0001:00040130       ??_GRTC@@QEAAPEAXI@Z       0000000140041130 f i total.obj
 0001:00040170       ?DetachRTC@PDU_Service@@QEAAPEAVRTC@@XZ 0000000140041170 f   total.obj
 0001:000401f0       ?GetAcceptedPCIDForTransferSyntax@PDU_Service@@QEAAEAEAVUID@@@Z 00000001400411f0 f   total.obj
 0001:00040410       ?GetTransferSyntaxUID@PDU_Service@@QEAAHEAEAVUID@@@Z 0000000140041410 f   total.obj
 0001:00040650       ?ClearAbstractSyntaxs@PDU_Service@@QEAAHXZ 0000000140041650 f   total.obj
 0001:00040740       ?AddAbstractSyntax@PDU_Service@@UEAAHAEAVUID@@@Z 0000000140041740 f   total.obj
 0001:00040980       ??_GMemoryBuffer@@UEAAPEAXI@Z 0000000140041980 f i total.obj
 0001:00040980       ??_EMemoryBuffer@@UEAAPEAXI@Z 0000000140041980 f i total.obj
 0001:00040a10       ?SendBinary@LinkedBuffer@@UEAAHPEAEI@Z 0000000140041a10 f   total.obj
 0001:00040a50       ??_GPDataTF@@UEAAPEAXI@Z   0000000140041a50 f i total.obj
 0001:00040a50       ??_EPDataTF@@UEAAPEAXI@Z   0000000140041a50 f i total.obj
 0001:00040ac0       ?AddTransferSyntax@PresentationContext@@QEAAXAEAVTransferSyntax@@@Z 0000000140041ac0 f   total.obj
 0001:00040ad0       ?Pop@DICOMObject@@UEAAPEAVVR@@XZ 0000000140041ad0 f   total.obj
 0001:00040c20       ??6Buffer@@QEAAAEAV0@AEAE@Z 0000000140041c20 f   total.obj
 0001:00040c60       ??6Buffer@@QEAAAEAV0@AEAG@Z 0000000140041c60 f   total.obj
 0001:00040cf0       ??6Buffer@@QEAAAEAV0@AEAI@Z 0000000140041cf0 f   total.obj
 0001:00040e50       ?Fill@Buffer@@QEAAHI@Z     0000000140041e50 f   total.obj
 0001:00040ed0       ?Read@Buffer@@QEAAHPEAEI@Z 0000000140041ed0 f   total.obj
 0001:00041160       ??_GDatabase@@UEAAPEAXI@Z  0000000140042160 f i total.obj
 0001:00041160       ??_EDatabase@@UEAAPEAXI@Z  0000000140042160 f i total.obj
 0001:000411a0       ??0MyPatientRootQuery@@QEAA@XZ 00000001400421a0 f i total.obj
 0001:000411c0       ??0MyStudyRootQuery@@QEAA@XZ 00000001400421c0 f i total.obj
 0001:000411e0       ??0MyModalityWorkListQuery@@QEAA@XZ 00000001400421e0 f i total.obj
 0001:000415f0       ??1?$basic_string@DU?$char_traits@D@std@@V?$allocator@D@2@@std@@QEAA@XZ 00000001400425f0 f i total.obj
 0001:00041630       ?flush@?$basic_ostream@DU?$char_traits@D@std@@@std@@QEAAAEAV12@XZ 0000000140042630 f i total.obj
 0001:000416b0       ??_G?$Array@VAbstractSyntax@@@@UEAAPEAXI@Z 00000001400426b0 f i total.obj
 0001:000416b0       ??_E?$Array@VAbstractSyntax@@@@UEAAPEAXI@Z 00000001400426b0 f i total.obj
 0001:000416f0       ?_Ipfx@?$basic_istream@DU?$char_traits@D@std@@@std@@QEAA_N_N@Z 00000001400426f0 f i total.obj
 0001:00041900       ??0?$basic_filebuf@DU?$char_traits@D@std@@@std@@QEAA@PEAU_iobuf@@@Z 0000000140042900 f i total.obj
 0001:00041950       ?move@?$char_traits@D@std@@SAPEADPEADPEBD_K@Z 0000000140042950 f i total.obj
 0001:00041960       ??$_Fgetc@D@std@@YA_NAEADPEAU_iobuf@@@Z 0000000140042960 f i total.obj
 0001:000419a0       ??$_Fputc@D@std@@YA_NDPEAU_iobuf@@@Z 00000001400429a0 f i total.obj
 0001:000419c0       ??$_Ungetc@D@std@@YA_NAEBDPEAU_iobuf@@@Z 00000001400429c0 f i total.obj
 0001:000419e0       ?_Lock@?$basic_filebuf@DU?$char_traits@D@std@@@std@@UEAAXXZ 00000001400429e0 f i total.obj
 0001:00041a00       ?_Unlock@?$basic_filebuf@DU?$char_traits@D@std@@@std@@UEAAXXZ 0000000140042a00 f i total.obj
 0001:00041a20       ?sync@?$basic_filebuf@DU?$char_traits@D@std@@@std@@MEAAHXZ 0000000140042a20 f i total.obj
 0001:00041a80       ?egptr@?$basic_streambuf@DU?$char_traits@D@std@@@std@@IEBAPEADXZ 0000000140042a80 f i total.obj
 0001:00041aa0       ?epptr@?$basic_streambuf@DU?$char_traits@D@std@@@std@@IEBAPEADXZ 0000000140042aa0 f i total.obj
 0001:00041ac0       ?_Gndec@?$basic_streambuf@DU?$char_traits@D@std@@@std@@IEAAPEADXZ 0000000140042ac0 f i total.obj
 0001:00041ae0       ?_Pninc@?$basic_streambuf@DU?$char_traits@D@std@@@std@@IEAAPEADXZ 0000000140042ae0 f i total.obj
 0001:00041b00       ??0?$fpos@H@std@@QEAA@H_J@Z 0000000140042b00 f i total.obj
 0001:00041b20       ?state@?$fpos@H@std@@QEBAHXZ 0000000140042b20 f i total.obj
 0001:00041b30       ?seekpos@?$fpos@H@std@@QEBA_JXZ 0000000140042b30 f i total.obj
 0001:00041b40       ?in@?$codecvt@DDH@std@@QEBAHAEAHPEBD1AEAPEBDPEAD3AEAPEAD@Z 0000000140042b40 f i total.obj
 0001:00041b90       ?out@?$codecvt@DDH@std@@QEBAHAEAHPEBD1AEAPEBDPEAD3AEAPEAD@Z 0000000140042b90 f i total.obj
 0001:00041be0       ?_Xran@?$basic_string@DU?$char_traits@D@std@@V?$allocator@D@2@@std@@QEBAXXZ 0000000140042be0 f i total.obj
 0001:00041c00       ?not_eof@?$char_traits@D@std@@SAHAEBH@Z 0000000140042c00 f i total.obj
 0001:00041c10       ?underflow@?$basic_filebuf@DU?$char_traits@D@std@@@std@@MEAAHXZ 0000000140042c10 f i total.obj
 0001:00041c90       ?_Set_back@?$basic_filebuf@DU?$char_traits@D@std@@@std@@AEAAXXZ 0000000140042c90 f i total.obj
 0001:00041cf0       ?pbackfail@?$basic_filebuf@DU?$char_traits@D@std@@@std@@MEAAHH@Z 0000000140042cf0 f i total.obj
 0001:00041dd0       ?erase@?$basic_string@DU?$char_traits@D@std@@V?$allocator@D@2@@std@@QEAAAEAV12@_K0@Z 0000000140042dd0 f i total.obj
 0001:00041ea0       ?setbuf@?$basic_filebuf@DU?$char_traits@D@std@@@std@@MEAAPEAV?$basic_streambuf@DU?$char_traits@D@std@@@2@PEAD_J@Z 0000000140042ea0 f i total.obj
 0001:00041f10       ??0?$basic_string@DU?$char_traits@D@std@@V?$allocator@D@2@@std@@QEAA@XZ 0000000140042f10 f i total.obj
 0001:00041f30       ?_Grow@?$basic_string@DU?$char_traits@D@std@@V?$allocator@D@2@@std@@QEAA_N_K_N@Z 0000000140042f30 f i total.obj
 0001:00042030       ?widen@?$basic_ios@DU?$char_traits@D@std@@@std@@QEBADD@Z 0000000140043030 f i total.obj
 0001:00042110       ??1?$Array@VTransferSyntax@@@@UEAA@XZ 0000000140043110 f i total.obj
 0001:000421e0       ?Add@?$Array@VPresentationContextAccept@@@@QEAAAEAVPresentationContextAccept@@AEAV2@@Z 00000001400431e0 f i total.obj
 0001:000422c0       ?RemoveAt@?$Array@VPresentationContextAccept@@@@QEAAHI@Z 00000001400432c0 f i total.obj
 0001:00042390       ??1?$Array@VPresentationContextAccept@@@@UEAA@XZ 0000000140043390 f i total.obj
 0001:00042460       ?Sort@?$FixedArray@IU_RTCElement@@@@QEAAHXZ 0000000140043460 f i total.obj
 0001:00042620       ??$use_facet@V?$codecvt@DDH@std@@@std@@YAAEBV?$codecvt@DDH@0@AEBVlocale@0@@Z 0000000140043620 f i total.obj
 0001:000427c0       ?GetInstance@ACRNemaMap@@SAPEAV1@XZ 00000001400437c0 f i total.obj
 0001:00042820       ?GetInstance@IniValue@@SAPEAV1@XZ 0000000140043820 f i total.obj
 0001:00042880       ?GetIniInitPtr@IniValue@@QEAAPEAHPEBD@Z 0000000140043880 f i total.obj
 0001:000428a0       ?GetIniStringLen@IniValue@@QEAAHPEBDPEAPEAD@Z 00000001400438a0 f i total.obj
 0001:000428c0       ?MakeSafeString@@YAHPEAVVR@@PEADPEAVDatabase@@@Z 00000001400438c0 f   total.obj
 0001:00042e00       ?DICOM2SQLQuery@@YAHPEADPEAVDatabase@@@Z 0000000140043e00 f   total.obj
 0001:000437b0       ?printf@Debug@@QEAAHPEBDZZ 00000001400447b0 f   total.obj
 0001:00043ca0       ?CalcMegsOnDevice@@YAIPEAD@Z 0000000140044ca0 f   total.obj
 0001:00043da0       ?CheckFreeStoreOnMAGDevice@@YAII@Z 0000000140044da0 f   total.obj
 0001:00043f30       ?CheckFreeStoreOnMIRRORDevice@@YAII@Z 0000000140044f30 f   total.obj
 0001:000440a0       ?CheckFreeStoreOnCACHEDevice@@YAII@Z 00000001400450a0 f   total.obj
 0001:00044230       ?GetPhysicalDevice@@YAHPEBDPEAD@Z 0000000140045230 f   total.obj
 0001:00044740       ?FindPhysicalDevice@@YAHPEAD00@Z 0000000140045740 f   total.obj
 0001:000450c0       ?GetKBUsedOnDevice@@YAHPEAD@Z 00000001400460c0 f   total.obj
 0001:000455b0       ?MakeSafeString@@YAHPEBDPEADPEAVDatabase@@@Z 00000001400465b0 f   total.obj
 0001:000456c0       ?FindCacheDirectory@@YAHPEAD0@Z 00000001400466c0 f   total.obj
 0001:00045900       ?GetIniString@IniValue@@QEAAPEADPEBD@Z 0000000140046900 f   total.obj
 0001:000459c0       ?FixImage@@YAHPEAVDICOMDataObject@@@Z 00000001400469c0 f   total.obj
 0001:000461a0       ?MakeSafeStringValues@@YAHPEAVVR@@PEAD@Z 00000001400471a0 f   total.obj
 0001:00046340       ?NewDeleteFromDB@@YAHPEAVDICOMDataObject@@AEAVDatabase@@@Z 0000000140047340 f   total.obj
 0001:00046b20       ?RemoveDuplicates@@YAHAEAVDatabase@@PEAUDBENTRY@@PEADPEAVDICOMDataObject@@H@Z 0000000140047b20 f   total.obj
 0001:00046d10       ?PrintTable@@YAHPEAUDBENTRY@@PEAD@Z 0000000140047d10 f   total.obj
 0001:00046e00       ?MakeTableString@@YAHPEAUDBENTRY@@PEADH@Z 0000000140047e00 f   total.obj
 0001:000470a0       ?ConstructAE@@YAPEAVVR@@XZ 00000001400480a0 f   total.obj
 0001:00047210       ?AttachRTC@RTC@@QEAAHPEAD@Z 0000000140048210 f   total.obj
 0001:00047ef0       ?ParseImagePixelDataDCMToRaw@PDU_Service@@MEAAHPEAV?$Array@PEAVDICOMDataObject@@@@AEAVLinkedBuffer@@@Z 0000000140048ef0 f   total.obj
 0001:00048290       ?ParseRawVRIntoDCM@PDU_Service@@MEAAHEAEAVLinkedBuffer@@PEAVDICOMObject@@@Z 0000000140049290 f   total.obj
 0001:000485f0       ?ParseDCMIntoRawVR@PDU_Service@@MEAAEPEAVDICOMObject@@AEAVLinkedBuffer@@@Z 00000001400495f0 f   total.obj
 0001:00048810       ?Implicit_ParseDCMIntoRawVR@PDU_Service@@MEAAHPEAVDICOMObject@@AEAVLinkedBuffer@@@Z 0000000140049810 f   total.obj
 0001:00048e70       ?Explicit_ParseDCMIntoRawVR@PDU_Service@@MEAAHPEAVDICOMObject@@AEAVLinkedBuffer@@@Z 0000000140049e70 f   total.obj
 0001:000496a0       ?Dynamic_ParseDCMIntoRawVR@PDU_Service@@MEAAHPEAVDICOMObject@@AEAVLinkedBuffer@@I@Z 000000014004a6a0 f   total.obj
 0001:0004a1d0       ?AttachRTC@PDU_Service@@QEAAHPEAVRTC@@H@Z 000000014004b1d0 f   total.obj
 0001:0004a260       ?InterogateAAssociateAC@PDU_Service@@IEAAHXZ 000000014004b260 f   total.obj
 0001:0004a6f0       ?AddTransferSyntaxs@PDU_Service@@MEAAHAEAVPresentationContext@@@Z 000000014004b6f0 f   total.obj
 0001:0004a9a0       ?Fill@LinkedBuffer@@QEAAHAEAVBuffer@@I@Z 000000014004b9a0 f   total.obj
 0001:0004aa30       ?ReadBinary@LinkedBuffer@@UEAAHPEAEI@Z 000000014004ba30 f   total.obj
 0001:0004aa60       ?Write@PDataTF@@QEAAHAEAVBuffer@@@Z 000000014004ba60 f   total.obj
 0001:0004ac20       ?Write@AAssociateRJ@@QEAAHAEAVBuffer@@@Z 000000014004bc20 f   total.obj
 0001:0004ad40       ?Write@AReleaseRQ@@QEAAHAEAVBuffer@@@Z 000000014004bd40 f   total.obj
 0001:0004ade0       ?Write@AReleaseRP@@QEAAHAEAVBuffer@@@Z 000000014004bde0 f   total.obj
 0001:0004ae80       ?Write@AAbortRQ@@QEAAHAEAVBuffer@@@Z 000000014004be80 f   total.obj
 0001:0004afa0       ??0AAssociateAC@@QEAA@XZ   000000014004bfa0 f   total.obj
 0001:0004b0d0       ??0AAssociateAC@@QEAA@PEAE0@Z 000000014004c0d0 f   total.obj
 0001:0004b2a0       ??1AAssociateAC@@UEAA@XZ   000000014004c2a0 f   total.obj
 0001:0004b2c0       ?AddPresentationContextAccept@AAssociateAC@@QEAAXAEAVPresentationContextAccept@@@Z 000000014004c2c0 f   total.obj
 0001:0004b2d0       ?Write@ApplicationContext@@QEAAHAEAVBuffer@@@Z 000000014004c2d0 f   total.obj
 0001:0004b380       ?Write@AbstractSyntax@@QEAAHAEAVBuffer@@@Z 000000014004c380 f   total.obj
 0001:0004b430       ?Write@TransferSyntax@@QEAAHAEAVBuffer@@@Z 000000014004c430 f   total.obj
 0001:0004b4e0       ?Write@ImplementationClass@@QEAAHAEAVBuffer@@@Z 000000014004c4e0 f   total.obj
 0001:0004b590       ?Write@ImplementationVersion@@QEAAHAEAVBuffer@@@Z 000000014004c590 f   total.obj
 0001:0004b640       ??0PresentationContext@@QEAA@XZ 000000014004c640 f   total.obj
 0001:0004b6f0       ??0PresentationContext@@QEAA@AEAVAbstractSyntax@@AEAVTransferSyntax@@@Z 000000014004c6f0 f   total.obj
 0001:0004b7f0       ??1PresentationContext@@QEAA@XZ 000000014004c7f0 f   total.obj
 0001:0004b800       ?Write@PresentationContext@@QEAAHAEAVBuffer@@@Z 000000014004c800 f   total.obj
 0001:0004ba70       ?Write@MaximumSubLength@@QEAAHAEAVBuffer@@@Z 000000014004ca70 f   total.obj
 0001:0004baf0       ?Write@SCPSCURoleSelect@@QEAAHAEAVBuffer@@@Z 000000014004caf0 f   total.obj
 0001:0004bc40       ?Write@UserInformation@@QEAAHAEAVBuffer@@@Z 000000014004cc40 f   total.obj
 0001:0004bd50       ?Write@AAssociateRQ@@QEAAHAEAVBuffer@@@Z 000000014004cd50 f   total.obj
 0001:0004bf50       ??_GPresentationContext@@QEAAPEAXI@Z 000000014004cf50 f i total.obj
 0001:0004bf90       ??1DICOMObject@@UEAA@XZ    000000014004cf90 f   total.obj
 0001:0004c0f0       ??5Buffer@@QEAAAEAV0@AEAE@Z 000000014004d0f0 f   total.obj
 0001:0004c140       ??5Buffer@@QEAAAEAV0@AEAG@Z 000000014004d140 f   total.obj
 0001:0004c1d0       ??5Buffer@@QEAAAEAV0@AEAI@Z 000000014004d1d0 f   total.obj
 0001:0004c2e0       ?Kill@Buffer@@QEAAHI@Z     000000014004d2e0 f   total.obj
 0001:0004c3a0       ?process_escape@@YAXPEAD@Z 000000014004d3a0 f   total.obj
 0001:0004c460       ?process_escapeValue@@YAXPEAD@Z 000000014004d460 f   total.obj
 0001:0004c9c0       ?UpdateIndex@@YAXPEAUdbase_header@@HH@Z 000000014004d9c0 f   total.obj
 0001:0004cac0       ??0Database@@QEAA@XZ       000000014004dac0 f   total.obj
 0001:0004cca0       ?Open@Database@@UEAAHPEBD000@Z 000000014004dca0 f   total.obj
 0001:0004d910       ?NewStatement@Database@@AEAAHXZ 000000014004e910 f   total.obj
 0001:0004d9e0       ?QueryTables@Database@@UEAAHPEAD000@Z 000000014004e9e0 f   total.obj
 0001:0004db50       ?PGSQLExec@Database@@UEAAHPEAD@Z 000000014004eb50 f   total.obj
 0001:0004dce0       ?SQLITEExec@Database@@UEAAHPEADH@Z 000000014004ece0 f   total.obj
 0001:0004df00       ?Query@Database@@UEAAHPEBD000@Z 000000014004ef00 f   total.obj
 0001:0004e070       ?InternalQuery@Database@@UEAAHPEBD000H@Z 000000014004f070 f   total.obj
 0001:0004f560       ?QueryDistinct@Database@@UEAAHPEADPEBD11@Z 0000000140050560 f   total.obj
 0001:0004fe60       ?AddRecord@Database@@UEAAHPEBD00@Z 0000000140050e60 f   total.obj
 0001:00050670       ?DeleteRecord@Database@@UEAAHPEBD0@Z 0000000140051670 f   total.obj
 0001:000509f0       ?BindField@Database@@UEAAHGFPEAXJPEA_J@Z 00000001400519f0 f   total.obj
 0001:00050e00       ?NextRecord@Database@@UEAAHXZ 0000000140051e00 f   total.obj
 0001:00051990       ?CreateTable@Database@@UEAAHPEBD0@Z 0000000140052990 f   total.obj
 0001:00051fb0       ?CreateIndex@Database@@UEAAHPEBD00@Z 0000000140052fb0 f   total.obj
 0001:00052230       ?CreateUniqueIndex@Database@@UEAAHPEAD0PEBD@Z 0000000140053230 f   total.obj
 0001:000524a0       ?DeleteTable@Database@@UEAAHPEBD@Z 00000001400534a0 f   total.obj
 0001:00052680       ?Exec@Database@@UEAAHPEBD@Z 0000000140053680 f   total.obj
 0001:000527b0       ?UpdateRecords@Database@@UEAAHPEAD0PEBD@Z 00000001400537b0 f   total.obj
 0001:00052f10       ?ExtractRecords@Database@@UEAAHPEBD0PEAD@Z 0000000140053f10 f   total.obj
 0001:00053150       ?PrintLastError@Database@@UEAAHXZ 0000000140054150 f   total.obj
 0001:00053230       ?CreateDatabase@Database@@UEAAHPEAD00@Z 0000000140054230 f   total.obj
 0001:000536c0       ?DecompressJPEGL@@YAHPEAVDICOMDataObject@@@Z 00000001400546c0 f   total.obj
 0001:00053f50       ?DecompressJPEG2K@@YAHPEAVDICOMDataObject@@@Z 0000000140054f50 f   total.obj
 0001:00054f30       ?UseBuiltInDecompressor@@YAHPEAH@Z 0000000140055f30 f   total.obj
 0001:00055160       ?MakeSegTable@@YAPEAEPEAVVR@@IPEAI@Z 0000000140056160 f   total.obj
 0001:00055540       ?DecodePalette@@YAHPEAVDICOMDataObject@@@Z 0000000140056540 f   total.obj
 0001:00056830       ?AddTransferSyntaxs@ExtendedPDU_Service@@EEAAHAEAVPresentationContext@@@Z 0000000140057830 f   total.obj
 0001:00058850       getExtInt                  0000000140059850 f   total.obj
 0001:0005ad00       getExtSLen                 000000014005bd00 f   total.obj
 0001:0005c050       ?parseHL7@@YAXPEAPEADPEAD11111@Z 000000014005d050 f   total.obj
 0001:0005c760       ?MyDcmError@@YAXHPEBDH@Z   000000014005d760 f   total.obj
 0001:0005c8d0       ?StatusDisplay@@YAXPEAU_iobuf@@@Z 000000014005d8d0 f   total.obj
 0001:0005cf10       ?IARQ@@YAXAEAVAAssociateRQ@@H@Z 000000014005df10 f   total.obj
 0001:0005d550       ?DumpVR@@YAHPEAVVR@@PEAU_iobuf@@H@Z 000000014005e550 f   total.obj
 0001:0005d860       ?NonDestructiveDumpDICOMObject@@YAHPEAVDICOMObject@@PEAU_iobuf@@H@Z 000000014005e860 f   total.obj
 0001:0005db40       ?PrintFreeSpace@@YAHXZ     000000014005eb40 f   total.obj
 0001:0005dcd0       ?DumpDD@@YAHPEAUDBENTRY@@@Z 000000014005ecd0 f   total.obj
 0001:0005ddf0       ?PrintKFactorFile@@YAHXZ   000000014005edf0 f   total.obj
 0001:0005dfa0       ?GenUID@@YAHPEAD@Z         000000014005efa0 f   total.obj
 0001:0005e110       ?BackgroundExec@@YAHPEAD0@Z 000000014005f110 f   total.obj
 0001:0005e2d0       ?CallImportConverters@@YAHPEAVDICOMDataObject@@PEAD111PEAVExtendedPDU_Service@@1@Z 000000014005f2d0 f   total.obj
 0001:0005e440       ?copyprocess@@YAHPEADPEAVExtendedPDU_Service@@0@Z 000000014005f440 f   total.obj
 0001:0005e4b0       ?ApplyWorklist@@YAHPEAVDICOMDataObject@@PEAVDatabase@@@Z 000000014005f4b0 f   total.obj
 0001:0005ea70       ?KodakFixer@@YAXPEAVDICOMDataObject@@H@Z 000000014005fa70 f   total.obj
 0001:0005ec60       ?crc_ddo@@YAIPEAVDICOMObject@@@Z 000000014005fc60 f   total.obj
 0001:0005ee40       ?compare_ddo@@YAHPEAVDICOMObject@@0@Z 000000014005fe40 f   total.obj
 0001:0005f280       ?RemoveQueryDuplicates@@YAXPEBDPEAV?$Array@PEAVDICOMDataObject@@@@@Z 0000000140060280 f   total.obj
 0001:0005f6e0       ?QualifyOn@@YAHPEAE0000@Z  00000001400606e0 f   total.obj
 0001:0005f830       ?QualifyOn@MyPatientRootRetrieve@@UEAAHPEAE000@Z 0000000140060830 f   total.obj
 0001:0005f8a0       ?QualifyOn@MyPatientRootRetrieveNKI@@UEAAHPEAE0000@Z 00000001400608a0 f   total.obj
 0001:0005f8e0       ?QualifyOn@MyPatientRootRetrieveGeneric@@UEAAHPEAE0000@Z 00000001400608e0 f   total.obj
 0001:0005f920       ?QualifyOn@MyStudyRootRetrieve@@UEAAHPEAE000@Z 0000000140060920 f   total.obj
 0001:0005f990       ?QualifyOn@MyStudyRootRetrieveNKI@@UEAAHPEAE0000@Z 0000000140060990 f   total.obj
 0001:0005f9d0       ?QualifyOn@MyStudyRootRetrieveGeneric@@UEAAHPEAE0000@Z 00000001400609d0 f   total.obj
 0001:0005fa10       ?QualifyOn@MyPatientStudyOnlyRetrieve@@UEAAHPEAE000@Z 0000000140060a10 f   total.obj
 0001:0005fa80       ?QualifyOn@MyPatientStudyOnlyRetrieveNKI@@UEAAHPEAE0000@Z 0000000140060a80 f   total.obj
 0001:0005fac0       ?QualifyOn@MyPatientStudyOnlyRetrieveGeneric@@UEAAHPEAE0000@Z 0000000140060ac0 f   total.obj
 0001:0005fb00       ?Server@DriverApp@@QEAAHPEAE@Z 0000000140060b00 f   total.obj
 0001:0005fe90       ?LogUser@@YAXPEBDPEAVAAssociateRQ@@PEAVDICOMCommandObject@@@Z 0000000140060e90 f   total.obj
 0001:0005feb0       ?NewTempFile@@YAXPEADPEBD@Z 0000000140060eb0 f   total.obj
 0001:00060060       ?WriteGIFFrame@@YAHPEAU_iobuf@@PEAEHH111HHHW4ColorStyleType@@@Z 0000000140061060 f   total.obj
 0001:00060580       ?WriteGIF@@YAHPEAU_iobuf@@PEAEHHH111HHPEBD@Z 0000000140061580 f   total.obj
 0001:000606a0       ??0sentry@?$basic_istream@DU?$char_traits@D@std@@@std@@QEAA@AEAV12@_N@Z 00000001400616a0 f i total.obj
 0001:00060700       ?imbue@?$basic_filebuf@DU?$char_traits@D@std@@@std@@MEAAXAEBVlocale@2@@Z 0000000140061700 f i total.obj
 0001:00060730       ??_E?$Array@VTransferSyntax@@@@UEAAPEAXI@Z 0000000140061730 f i total.obj
 0001:00060730       ??_G?$Array@VTransferSyntax@@@@UEAAPEAXI@Z 0000000140061730 f i total.obj
 0001:00060770       ??_E?$Array@VPresentationContextAccept@@@@UEAAPEAXI@Z 0000000140061770 f i total.obj
 0001:00060770       ??_G?$Array@VPresentationContextAccept@@@@UEAAPEAXI@Z 0000000140061770 f i total.obj
 0001:000607b0       ?append@?$basic_string@DU?$char_traits@D@std@@V?$allocator@D@2@@std@@QEAAAEAV12@_KD@Z 00000001400617b0 f i total.obj
 0001:000608f0       ?open@?$basic_filebuf@DU?$char_traits@D@std@@@std@@QEAAPEAV12@PEBDHH@Z 00000001400618f0 f i total.obj
 0001:00060a30       ?assign@?$basic_string@DU?$char_traits@D@std@@V?$allocator@D@2@@std@@QEAAAEAV12@_KD@Z 0000000140061a30 f i total.obj
 0001:00060b70       ?init@?$basic_ios@DU?$char_traits@D@std@@@std@@IEAAXPEAV?$basic_streambuf@DU?$char_traits@D@std@@@2@_N@Z 0000000140061b70 f i total.obj
 0001:00060c00       ??1?$DataLink@VPresentationContext@@@@QEAA@XZ 0000000140061c00 f i total.obj
 0001:00060c10       ??0?$DataLink@VPresentationContext@@@@QEAA@XZ 0000000140061c10 f i total.obj
 0001:00060c40       ??5Buffer@@QEAAAEAV0@AEAD@Z 0000000140061c40 f i total.obj
 0001:00060c90       ??0DICOMDataObject@@QEAA@XZ 0000000140061c90 f i total.obj
 0001:00060d30       ??1DICOMDataObject@@UEAA@XZ 0000000140061d30 f i total.obj
 0001:00060d40       ?MakeChapter10@PDU_Service@@UEAAHPEAVDICOMDataObject@@PEBD@Z 0000000140061d40 f   total.obj
 0001:00061440       ?BuildSearchString@@YAHPEAVDatabase@@PEAUDBENTRY@@PEADPEAVVR@@22H@Z 0000000140062440 f   total.obj
 0001:00061ba0       ?QueryOnStudy@@YAHPEAVDICOMDataObject@@PEAV?$Array@PEAVDICOMDataObject@@@@@Z 0000000140062ba0 f   total.obj
 0001:000655d0       ?QueryOnSeries@@YAHPEAVDICOMDataObject@@PEAV?$Array@PEAVDICOMDataObject@@@@@Z 00000001400665d0 f   total.obj
 0001:00069b60       ?QueryOnImage@@YAHPEAVDICOMDataObject@@PEAV?$Array@PEAVDICOMDataObject@@@@@Z 000000014006ab60 f   total.obj
 0001:0006f7d0       ?QueryOnModalityWorkList@@YAHPEAVDICOMDataObject@@PEAV?$Array@PEAVDICOMDataObject@@@@@Z 00000001400707d0 f   total.obj
 0001:00072590       ?OnUDP@Debug@@QEAAXPEADPEBD@Z 0000000140073590 f   total.obj
 0001:00072680       ?LargestFreeMAG@@YAIXZ     0000000140073680 f   total.obj
 0001:00072730       ?MaxMagDevice@@YAIXZ       0000000140073730 f   total.obj
 0001:00072800       ?MaxCACHEDevice@@YAHI@Z    0000000140073800 f   total.obj
 0001:000728e0       ?GetKBUsedForPatient@@YAHPEAD0H@Z 00000001400738e0 f   total.obj
 0001:00073060       ?GetKBUsedForSeries@@YAHPEAD0H@Z 0000000140074060 f   total.obj
 0001:00073730       ?ModifyDeviceNameForPatient@@YAHPEADPEBD0@Z 0000000140074730 f   total.obj
 0001:00073b20       ?ModifyDeviceNameForSeries@@YAHPEADPEBD0@Z 0000000140074b20 f   total.obj
 0001:00073ef0       ?MovePatientData@@YAHPEAD000@Z 0000000140074ef0 f   total.obj
 0001:000747c0       ?CopyPatientData@@YAHPEAD000@Z 00000001400757c0 f   total.obj
 0001:00075100       ?CopySeriesData@@YAHPEAD000@Z 0000000140076100 f   total.obj
 0001:00075a40       ?ComparePatientData@@YAHPEAD000@Z 0000000140076a40 f   total.obj
 0001:000760f0       ?CompareSeriesData@@YAHPEAD000@Z 00000001400770f0 f   total.obj
 0001:000767a0       ?DeletePatientData@@YAHPEAD000@Z 00000001400777a0 f   total.obj
 0001:00077020       ?DeleteSeriesData@@YAHPEAD000@Z 0000000140078020 f   total.obj
 0001:000778a0       ?MakeListOfPatientsOnDevice@@YAHPEADPEAPEAD@Z 00000001400788a0 f   total.obj
 0001:00078010       ?RestoreMAGFlags@@YAHXZ    0000000140079010 f   total.obj
 0001:00078160       ?MakeListOfSeriesOnDevice@@YAHPEADPEAPEADHH@Z 0000000140079160 f   total.obj
 0001:00078650       ?SelectSeriesForArchival@@YAHPEADHH@Z 0000000140079650 f   total.obj
 0001:000787e0       ?PrepareBunchForBurning@@YAHPEAD0@Z 00000001400797e0 f   total.obj
 0001:00078f90       ?CompareBunchAfterBurning@@YAHPEAD@Z 0000000140079f90 f   total.obj
 0001:00079180       ?DeleteBunchAfterBurning@@YAHPEAD@Z 000000014007a180 f   total.obj
 0001:00079530       ?VerifyMirrorDisk@@YAHPEAD@Z 000000014007a530 f   total.obj
 0001:00079740       ?RenameDevice@@YAHPEAD0@Z  000000014007a740 f   total.obj
 0001:00079800       ?MakeListOfOldestPatientsOnDevice@@YAHPEAPEADHPEBDPEAD@Z 000000014007a800 f   total.obj
 0001:0007a020       ?DICOM2SQLValue@@YAHPEAD@Z 000000014007b020 f   total.obj
 0001:0007a100       ?AddToTable@@YAHAEAVDatabase@@PEAUDBENTRY@@PEADPEAVDICOMDataObject@@22@Z 000000014007b100 f   total.obj
 0001:0007a880       ?UpdateOrAddToTable@@YAHAEAVDatabase@@PEAUDBENTRY@@PEADPEAVDICOMDataObject@@PEBD422PEAHHH@Z 000000014007b880 f   total.obj
 0001:0007c840       ?UpdateAccessTimes@@YAHAEAVDatabase@@PEAD@Z 000000014007d840 f   total.obj
 0001:0007cdc0       ?ChangeUID@@YAHPEADPEBD0@Z 000000014007ddc0 f   total.obj
 0001:0007d2d0       ?ChangeUIDTo@@YAHPEAD00@Z  000000014007e2d0 f   total.obj
 0001:0007d7f0       ?ChangeUIDBack@@YAHPEAD0@Z 000000014007e7f0 f   total.obj
 0001:0007db10       ?DeleteUIDChanges@@YAHPEAD@Z 000000014007eb10 f   total.obj
 0001:0007dc70       ?MergeUIDs@@YAHQEAPEADHPEBDPEAD@Z 000000014007ec70 f   total.obj
 0001:0007e380       ?GetFileName@@YAHPEAVVR@@PEAD1AEAVDatabase@@H111@Z 000000014007f380 f   total.obj
 0001:0007e7d0       ?MakeCopy@@YAPEAVDICOMDataObject@@PEAV1@@Z 000000014007f7d0 f   total.obj
 0001:0007ec30       ?NewDeleteSopFromDB@@YAHPEAD000AEAVDatabase@@@Z 000000014007fc30 f   total.obj
 0001:0007f340       ?InitializeTables@@YAHH@Z  0000000140080340 f   total.obj
 0001:00080170       ??0RTC@@QEAA@HPEAD@Z       0000000140081170 f   total.obj
 0001:000801a0       ?RunTimeClass@RTC@@QEAAHPEAVDICOMObject@@@Z 00000001400811a0 f   total.obj
 0001:00080370       ?MkBinaryRtc@@YAHPEAD0H@Z  0000000140081370 f   total.obj
 0001:00080710       ??0DICOMCommandObject@@QEAA@XZ 0000000140081710 f i total.obj
 0001:000807b0       ??1DICOMCommandObject@@UEAA@XZ 00000001400817b0 f i total.obj
 0001:00080bf0       ?ParseImagePixelDataRawToDCM@PDU_Service@@MEAAHAEAVLinkedBuffer@@PEAVDICOMObject@@@Z 0000000140081bf0 f   total.obj
 0001:000810f0       ?Implicit_ParseRawVRIntoDCM@PDU_Service@@MEAAHAEAVLinkedBuffer@@PEAVDICOMObject@@H@Z 00000001400820f0 f   total.obj
 0001:00081ca0       ?Explicit_ParseRawVRIntoDCM@PDU_Service@@MEAAHAEAVLinkedBuffer@@PEAVDICOMObject@@@Z 0000000140082ca0 f   total.obj
 0001:00082bb0       ?Dynamic_ParseRawVRIntoDCM@PDU_Service@@MEAAHAEAVLinkedBuffer@@PEAVDICOMObject@@I@Z 0000000140083bb0 f   total.obj
 0001:00083ed0       ?ReadDynamic@PDataTF@@QEAAHAEAVBuffer@@@Z 0000000140084ed0 f   total.obj
 0001:000840c0       ?ReadDynamic@AAssociateRJ@@QEAAHAEAVBuffer@@@Z 00000001400850c0 f   total.obj
 0001:000841a0       ?ReadDynamic@AReleaseRQ@@QEAAHAEAVBuffer@@@Z 00000001400851a0 f   total.obj
 0001:00084200       ?ReadDynamic@AReleaseRP@@QEAAHAEAVBuffer@@@Z 0000000140085200 f   total.obj
 0001:00084260       ?ReadDynamic@AAbortRQ@@QEAAHAEAVBuffer@@@Z 0000000140085260 f   total.obj
 0001:00084340       ?Write@PresentationContextAccept@@QEAAHAEAVBuffer@@@Z 0000000140085340 f   total.obj
 0001:00084420       ??_GAAssociateAC@@UEAAPEAXI@Z 0000000140085420 f i total.obj
 0001:00084420       ??_EAAssociateAC@@UEAAPEAXI@Z 0000000140085420 f i total.obj
 0001:00084480       ?Write@AAssociateAC@@QEAAHAEAVBuffer@@@Z 0000000140085480 f   total.obj
 0001:00084670       ?ReadDynamic@ApplicationContext@@QEAAHAEAVBuffer@@@Z 0000000140085670 f   total.obj
 0001:00084730       ?ReadDynamic@AbstractSyntax@@QEAAHAEAVBuffer@@@Z 0000000140085730 f   total.obj
 0001:000847f0       ?ReadDynamic@TransferSyntax@@QEAAHAEAVBuffer@@@Z 00000001400857f0 f   total.obj
 0001:000848b0       ?ReadDynamic@ImplementationClass@@QEAAHAEAVBuffer@@@Z 00000001400858b0 f   total.obj
 0001:00084970       ?ReadDynamic@ImplementationVersion@@QEAAHAEAVBuffer@@@Z 0000000140085970 f   total.obj
 0001:00084a30       ?ReadDynamic@MaximumSubLength@@QEAAHAEAVBuffer@@@Z 0000000140085a30 f   total.obj
 0001:00084a90       ?ReadDynamic@SCPSCURoleSelect@@QEAAHAEAVBuffer@@@Z 0000000140085a90 f   total.obj
 0001:00084be0       ?ReadDynamic@UserInformation@@QEAAHAEAVBuffer@@@Z 0000000140085be0 f   total.obj
 0001:00084e40       ??_GDICOMObject@@UEAAPEAXI@Z 0000000140085e40 f i total.obj
 0001:00084e40       ??_EDICOMObject@@UEAAPEAXI@Z 0000000140085e40 f i total.obj
 0001:00084e80       ?ExtractFrame@@YAHPEAVDICOMDataObject@@I@Z 0000000140085e80 f   total.obj
 0001:00085130       ?ExtractFrames@@YAHPEAVDICOMDataObject@@IIH@Z 0000000140086130 f   total.obj
 0001:000855a0       ?MaybeDownsize@@YAHPEAVDICOMDataObject@@PEAVDICOMCommandObject@@H@Z 00000001400865a0 f   total.obj
 0001:00085d30       ?NewTempFileWExt@@YAXPEADPEBD@Z 0000000140086d30 f   total.obj
 0001:00085f00       ?NewTempFile@@YAXPEAD@Z    0000000140086f00 f   total.obj
 0001:00086d80       ?ProcessHL7Data@@YAXPEAD@Z 0000000140087d80 f   total.obj
 0001:000874c0       ?CGI@@YAHPEADPEBD1@Z       00000001400884c0 f   total.obj
 0001:00088860       ?TestFilter@@YAHPEAD0H0@Z  0000000140089860 f   total.obj
 0001:00088f30       ?PrefetchPatientData@@YAHPEADI@Z 0000000140089f30 f   total.obj
 0001:00089e10       ?new_prefetcherqueue@@YAPEAUconquest_queue@@XZ 000000014008ae10 f   total.obj
 0001:00089ff0       ?prefetcher@@YAHPEAVDICOMDataObject@@H@Z 000000014008aff0 f   total.obj
 0001:0008a210       ?SearchOn@MyModalityWorkListQuery@@UEAAHPEAVDICOMDataObject@@PEAV?$Array@PEAVDICOMDataObject@@@@@Z 000000014008b210 f   total.obj
 0001:0008a850       ?read@?$basic_istream@DU?$char_traits@D@std@@@std@@QEAAAEAV12@PEAD_J@Z 000000014008b850 f i total.obj
 0001:0008a970       ?open@?$basic_ifstream@DU?$char_traits@D@std@@@std@@QEAAXPEBDHH@Z 000000014008b970 f i total.obj
 0001:0008a9f0       ?uflow@?$basic_filebuf@DU?$char_traits@D@std@@@std@@MEAAHXZ 000000014008b9f0 f i total.obj
 0001:0008ae90       ??0?$basic_string@DU?$char_traits@D@std@@V?$allocator@D@2@@std@@QEAA@_KD@Z 000000014008be90 f i total.obj
 0001:0008aed0       ??0?$basic_istream@DU?$char_traits@D@std@@@std@@QEAA@PEAV?$basic_streambuf@DU?$char_traits@D@std@@@1@_N@Z 000000014008bed0 f i total.obj
 0001:0008afd0       ?_Endwrite@?$basic_filebuf@DU?$char_traits@D@std@@@std@@IEAA_NXZ 000000014008bfd0 f i total.obj
 0001:0008b2e0       ?Add@?$Array@VPresentationContext@@@@QEAAAEAVPresentationContext@@AEAV2@@Z 000000014008c2e0 f i total.obj
 0001:0008b390       ??_G?$DataLink@VPresentationContext@@@@QEAAPEAXI@Z 000000014008c390 f i total.obj
 0001:0008b3d0       ?LoadDICOMDataObject@PDU_Service@@QEAAPEAVDICOMDataObject@@PEAD@Z 000000014008c3d0 f   total.obj
 0001:0008b730       ??_GDICOMDataObject@@UEAAPEAXI@Z 000000014008c730 f i total.obj
 0001:0008b730       ??_EDICOMDataObject@@UEAAPEAXI@Z 000000014008c730 f i total.obj
 0001:0008b770       ?LoadKFactorFile@@YAHPEAD@Z 000000014008c770 f   total.obj
 0001:0008bbf0       ?SaveToDataBase@@YAHAEAVDatabase@@PEAVDICOMDataObject@@PEADPEBDH@Z 000000014008cbf0 f   total.obj
 0001:0008c1a0       ?GetFileName@@YAHPEAVVR@@PEAD1H111@Z 000000014008d1a0 f   total.obj
 0001:0008c320       ??_GDICOMCommandObject@@UEAAPEAXI@Z 000000014008d320 f i total.obj
 0001:0008c320       ??_EDICOMCommandObject@@UEAAPEAXI@Z 000000014008d320 f i total.obj
 0001:0008c360       ?Read@NGetRQ@@QEAAHPEAVDICOMCommandObject@@PEAVPDU_Service@@PEAVDICOMDataObject@@@Z 000000014008d360 f   total.obj
 0001:0008c440       ?Read@AAssociateRJ@@QEAAHAEAVBuffer@@@Z 000000014008d440 f   total.obj
 0001:0008c490       ?Read@AReleaseRQ@@QEAAHAEAVBuffer@@@Z 000000014008d490 f   total.obj
 0001:0008c510       ?Read@AReleaseRP@@QEAAHAEAVBuffer@@@Z 000000014008d510 f   total.obj
 0001:0008c590       ?Read@AAbortRQ@@QEAAHAEAVBuffer@@@Z 000000014008d590 f   total.obj
 0001:0008c5e0       ?Read@ApplicationContext@@QEAAHAEAVBuffer@@@Z 000000014008d5e0 f   total.obj
 0001:0008c640       ?Read@AbstractSyntax@@QEAAHAEAVBuffer@@@Z 000000014008d640 f   total.obj
 0001:0008c6a0       ?Read@TransferSyntax@@QEAAHAEAVBuffer@@@Z 000000014008d6a0 f   total.obj
 0001:0008c700       ?Read@ImplementationClass@@QEAAHAEAVBuffer@@@Z 000000014008d700 f   total.obj
 0001:0008c760       ?Read@ImplementationVersion@@QEAAHAEAVBuffer@@@Z 000000014008d760 f   total.obj
 0001:0008c7c0       ?ReadDynamic@PresentationContext@@QEAAHAEAVBuffer@@@Z 000000014008d7c0 f   total.obj
 0001:0008cbb0       ?Read@MaximumSubLength@@QEAAHAEAVBuffer@@@Z 000000014008dbb0 f   total.obj
 0001:0008cc30       ?Read@SCPSCURoleSelect@@QEAAHAEAVBuffer@@@Z 000000014008dc30 f   total.obj
 0001:0008cc80       ?Read@UserInformation@@QEAAHAEAVBuffer@@@Z 000000014008dc80 f   total.obj
 0001:0008cce0       ?AddPresentationContext@AAssociateRQ@@QEAAXAEAVPresentationContext@@@Z 000000014008dce0 f   total.obj
 0001:0008cd40       ?ReadDynamic@AAssociateRQ@@QEAAHAEAVBuffer@@@Z 000000014008dd40 f   total.obj
 0001:0008cfe0       ?CompressJPEGL@@YAHPEAVDICOMDataObject@@HH@Z 000000014008dfe0 f   total.obj
 0001:0008ed00       ?CompressJPEG2K@@YAHPEAVDICOMDataObject@@H@Z 000000014008fd00 f   total.obj
 0001:00091a10       ?overflow@?$basic_filebuf@DU?$char_traits@D@std@@@std@@MEAAHH@Z 0000000140092a10 f i total.obj
 0001:00091e10       ?seekoff@?$basic_filebuf@DU?$char_traits@D@std@@@std@@MEAA?AV?$fpos@H@2@_JHH@Z 0000000140092e10 f i total.obj
 0001:00091f40       ?seekpos@?$basic_filebuf@DU?$char_traits@D@std@@@std@@MEAA?AV?$fpos@H@2@V32@H@Z 0000000140092f40 f i total.obj
 0001:00092060       ?close@?$basic_filebuf@DU?$char_traits@D@std@@@std@@QEAAPEAV12@XZ 0000000140093060 f i total.obj
 0001:00092170       ?RemoveAt@?$Array@VPresentationContext@@@@QEAAHI@Z 0000000140093170 f i total.obj
 0001:00092260       ??1?$Array@VPresentationContext@@@@UEAA@XZ 0000000140093260 f i total.obj
 0001:00092380       ?InterogateAAssociateRQ@PDU_Service@@IEAAHXZ 0000000140093380 f   total.obj
 0001:00093020       ?Close@PDU_Service@@QEAAHXZ 0000000140094020 f   total.obj
 0001:00093110       ?GetPresentationContextID@PDU_Service@@QEAAEAEAVUID@@@Z 0000000140094110 f   total.obj
 0001:00093490       ?GetPresentationContextID@PDU_Service@@QEAAEAEAVUID@@0@Z 0000000140094490 f   total.obj
 0001:00093ab0       ?IsAbstractSyntaxAccepted@PDU_Service@@QEAAHAEAVUID@@@Z 0000000140094ab0 f   total.obj
 0001:00093cb0       ?AddAbstractSyntaxAlias@PDU_Service@@UEAAHAEAVUID@@0@Z 0000000140094cb0 f   total.obj
 0001:000943b0       ?ReadDynamic@PresentationContextAccept@@QEAAHAEAVBuffer@@@Z 00000001400953b0 f   total.obj
 0001:00094490       ?ReadDynamic@AAssociateAC@@QEAAHAEAVBuffer@@@Z 0000000140095490 f   total.obj
 0001:00094a00       ?Read@PresentationContext@@QEAAHAEAVBuffer@@@Z 0000000140095a00 f   total.obj
 0001:00094a50       ??0AAssociateRQ@@QEAA@XZ   0000000140095a50 f   total.obj
 0001:00094b80       ??0AAssociateRQ@@QEAA@PEAE0@Z 0000000140095b80 f   total.obj
 0001:00094d50       ??1AAssociateRQ@@UEAA@XZ   0000000140095d50 f   total.obj
 0001:00094f30       ?ClearPresentationContexts@AAssociateRQ@@QEAAXXZ 0000000140095f30 f   total.obj
 0001:00095050       ?Read@AAssociateRQ@@QEAAHAEAVBuffer@@@Z 0000000140096050 f   total.obj
 0001:000950a0       ?GetAcceptedCompressionType@ExtendedPDU_Service@@QEAAPEADVUID@@@Z 00000001400960a0 f   total.obj
 0001:00095a50       ?new_queue@@YAPEAUconquest_queue@@HHHP6AHPEADPEAVExtendedPDU_Service@@0@Z1H@Z 0000000140096a50 f   total.obj
 0001:00095b90       ?mirrorcopy_queue@@YAXPEAD0@Z 0000000140096b90 f   total.obj
 0001:00095d90       ?close@?$basic_ifstream@DU?$char_traits@D@std@@@std@@QEAAXXZ 0000000140096d90 f i total.obj
 0001:00095de0       ??1?$basic_filebuf@DU?$char_traits@D@std@@@std@@UEAA@XZ 0000000140096de0 f i total.obj
 0001:00095ea0       ??_E?$Array@VPresentationContext@@@@UEAAPEAXI@Z 0000000140096ea0 f i total.obj
 0001:00095ea0       ??_G?$Array@VPresentationContext@@@@UEAAPEAXI@Z 0000000140096ea0 f i total.obj
 0001:00095ee0       ??_E?$basic_filebuf@DU?$char_traits@D@std@@@std@@UEAAPEAXI@Z 0000000140096ee0 f i total.obj
 0001:00095ee0       ??_G?$basic_filebuf@DU?$char_traits@D@std@@@std@@UEAAPEAXI@Z 0000000140096ee0 f i total.obj
 0001:00095f20       ?ParseDCMIntoRawVR@PDU_Service@@MEAAEPEAVDICOMObject@@AEAVLinkedBuffer@@AEAVUID@@H@Z 0000000140096f20 f   total.obj
 0001:00096190       ??0PDU_Service@@QEAA@XZ    0000000140097190 f   total.obj
 0001:00096510       ?ShouldIAcceptRemoteApTitle@PDU_Service@@MEAAHPEAE@Z 0000000140097510 f i total.obj
 0001:00096520       ?ShouldIAcceptLocalApTitle@PDU_Service@@MEAAHPEAE@Z 0000000140097520 f i total.obj
 0001:00096530       ?ShouldIAcceptApplicationContext@PDU_Service@@MEAAHAEAVApplicationContext@@@Z 0000000140097530 f i total.obj
 0001:00096540       ?ShouldIAcceptPresentationContext@PDU_Service@@MEAAHAEAVPresentationContext@@AEAVPresentationContextAccept@@@Z 0000000140097540 f i total.obj
 0001:00096550       ?ShouldIAcceptAbstractSyntax@PDU_Service@@MEAAHAEAVAbstractSyntax@@@Z 0000000140097550 f i total.obj
 0001:00096560       ?ReadBinary@PDU_Service@@UEAAHPEAEI@Z 0000000140097560 f i total.obj
 0001:00096580       ?SendBinary@PDU_Service@@UEAAHPEAEI@Z 0000000140097580 f i total.obj
 0001:00096590       ??_EPDU_Service@@WEDA@EAAPEAXI@Z 0000000140097590 f i total.obj
 0001:000965a0       ??_EPDU_Service@@WEJA@EAAPEAXI@Z 00000001400975a0 f i total.obj
 0001:000965b0       ??_EPDU_Service@@WEHI@EAAPEAXI@Z 00000001400975b0 f i total.obj
 0001:000965c0       ??_EPDU_Service@@WEGA@EAAPEAXI@Z 00000001400975c0 f i total.obj
 0001:000965d0       ??_EPDU_Service@@WIA@EAAPEAXI@Z 00000001400975d0 f i total.obj
 0001:000965e0       ??_EPDU_Service@@WEEI@EAAPEAXI@Z 00000001400975e0 f i total.obj
 0001:000965f0       ??_EPDU_Service@@WCFI@EAAPEAXI@Z 00000001400975f0 f i total.obj
 0001:00096600       ??1PDU_Service@@UEAA@XZ    0000000140097600 f   total.obj
 0001:000968b0       ?Write@PDU_Service@@QEAAHPEAVDICOMCommandObject@@AEAVUID@@@Z 00000001400978b0 f   total.obj
 0001:00096960       ?Write@PDU_Service@@QEAAHPEAVDICOMDataObject@@AEAVUID@@@Z 0000000140097960 f   total.obj
 0001:00096a10       ?Listen@PDU_Service@@QEAAHPEAE@Z 0000000140097a10 f   total.obj
 0001:00096b30       ?Listen@PDU_Service@@QEAAHH@Z 0000000140097b30 f   total.obj
 0001:00096d20       ?Multiplex@PDU_Service@@QEAAHH@Z 0000000140097d20 f   total.obj
 0001:00096ef0       ?Connect@PDU_Service@@QEAAHPEAE0@Z 0000000140097ef0 f   total.obj
 0001:000975e0       ?Read@PresentationContextAccept@@QEAAHAEAVBuffer@@@Z 00000001400985e0 f   total.obj
 0001:00097630       ?Read@AAssociateAC@@QEAAHAEAVBuffer@@@Z 0000000140098630 f   total.obj
 0001:00097680       ??_EAAssociateRQ@@UEAAPEAXI@Z 0000000140098680 f i total.obj
 0001:00097680       ??_GAAssociateRQ@@UEAAPEAXI@Z 0000000140098680 f i total.obj
 0001:000976c0       ?SaveDICOMDataObject@@YAXPEADPEAVDICOMDataObject@@@Z 00000001400986c0 f   total.obj
 0001:00097900       ?DecompressImage@@YAHPEAPEAVDICOMDataObject@@PEAH@Z 0000000140098900 f   total.obj
 0001:000982d0       ?CompressJPEGImage@@YAHPEAPEAVDICOMDataObject@@HPEAHH@Z 00000001400992d0 f   total.obj
 0001:00098a00       ?To8bitMonochromeOrRGB@@YAHPEAVDICOMDataObject@@HPEAH1PEAPEAEHHHI@Z 0000000140099a00 f   total.obj
 0001:00099f40       ?ToGif@@YAHPEAVDICOMDataObject@@PEADHHHHI@Z 000000014009af40 f   total.obj
 0001:0009a420       ?ToBMP@@YAHPEAVDICOMDataObject@@PEADHHHHI@Z 000000014009b420 f   total.obj
 0001:0009ab30       ?MergeUIDofDDO@@YAHPEAVDICOMDataObject@@PEBD1@Z 000000014009bb30 f   total.obj
 0001:0009ae60       ??0?$basic_ifstream@DU?$char_traits@D@std@@@std@@QEAA@XZ 000000014009be60 f i total.obj
 0001:0009b000       ??1?$basic_ifstream@DU?$char_traits@D@std@@@std@@UEAA@XZ 000000014009c000 f i total.obj
 0001:0009b060       ??_D?$basic_ifstream@DU?$char_traits@D@std@@@std@@QEAAXXZ 000000014009c060 f i total.obj
 0001:0009b0f0       ?LoadImplicitLittleEndianFile@@YAPEAVDICOMDataObject@@PEADI@Z 000000014009c0f0 f   total.obj
 0001:0009b420       ?TestFile@@YAHPEAD0@Z      000000014009c420 f   total.obj
 0001:0009b780       ?TestPatientData@@YAHPEAD00@Z 000000014009c780 f   total.obj
 0001:0009bda0       ?TestSeriesData@@YAHPEAD00@Z 000000014009cda0 f   total.obj
 0001:0009c3c0       ?TestImages@@YAHPEAD@Z     000000014009d3c0 f   total.obj
 0001:0009c540       ??0CheckedPDU_Service@@QEAA@PEAD@Z 000000014009d540 f   total.obj
 0001:0009c600       ??_ECheckedPDU_Service@@WEHI@EAAPEAXI@Z 000000014009d600 f i total.obj
 0001:0009c610       ??_ECheckedPDU_Service@@WEGA@EAAPEAXI@Z 000000014009d610 f i total.obj
 0001:0009c620       ??_ECheckedPDU_Service@@WIA@EAAPEAXI@Z 000000014009d620 f i total.obj
 0001:0009c630       ??_ECheckedPDU_Service@@WEEI@EAAPEAXI@Z 000000014009d630 f i total.obj
 0001:0009c640       ??_ECheckedPDU_Service@@WCFI@EAAPEAXI@Z 000000014009d640 f i total.obj
 0001:0009c650       ??_ECheckedPDU_Service@@WEDA@EAAPEAXI@Z 000000014009d650 f i total.obj
 0001:0009c660       ??_ECheckedPDU_Service@@WEJA@EAAPEAXI@Z 000000014009d660 f i total.obj
 0001:0009c670       ??1CheckedPDU_Service@@UEAA@XZ 000000014009d670 f   total.obj
 0001:0009c720       ?Write@NEventReportRQ@@QEAAHPEAVPDU_Service@@PEAVDICOMDataObject@@PEAVUID@@G@Z 000000014009d720 f   total.obj
 0001:0009cb00       ?Write@NEventReportRQ@@QEAAHPEAVPDU_Service@@PEAVUID@@G@Z 000000014009db00 f   total.obj
 0001:0009cb20       ?Write@NEventReportRSP@@QEAAHPEAVPDU_Service@@PEAVDICOMCommandObject@@PEAVUID@@GGPEAVDICOMDataObject@@@Z 000000014009db20 f   total.obj
 0001:0009cfc0       ?Write@NEventReportRSP@@QEAAHPEAVPDU_Service@@PEAVDICOMCommandObject@@PEAVUID@@GPEAVDICOMDataObject@@@Z 000000014009dfc0 f   total.obj
 0001:0009d000       ?Write@NGetRQ@@QEAAHPEAVPDU_Service@@PEAVDICOMDataObject@@PEAVUID@@@Z 000000014009e000 f   total.obj
 0001:0009d370       ?Write@NGetRSP@@QEAAHPEAVPDU_Service@@PEAVDICOMCommandObject@@PEAVUID@@GPEAVDICOMDataObject@@@Z 000000014009e370 f   total.obj
 0001:0009d7b0       ?Write@NSetRQ@@QEAAHPEAVPDU_Service@@PEAVDICOMDataObject@@PEAVUID@@@Z 000000014009e7b0 f   total.obj
 0001:0009db00       ?Write@NSetRQ@@QEAAHPEAVPDU_Service@@PEAVUID@@@Z 000000014009eb00 f   total.obj
 0001:0009db10       ?Write@NSetRSP@@QEAAHPEAVPDU_Service@@PEAVDICOMCommandObject@@PEAVUID@@GPEAVDICOMDataObject@@@Z 000000014009eb10 f   total.obj
 0001:0009df50       ?Write@NActionRQ@@QEAAHPEAVPDU_Service@@PEAVDICOMDataObject@@PEAVUID@@G@Z 000000014009ef50 f   total.obj
 0001:0009e310       ?Write@NActionRQ@@QEAAHPEAVPDU_Service@@PEAVUID@@G@Z 000000014009f310 f   total.obj
 0001:0009e330       ?Write@NActionRSP@@QEAAHPEAVPDU_Service@@PEAVDICOMCommandObject@@PEAVUID@@GGPEAVDICOMDataObject@@@Z 000000014009f330 f   total.obj
 0001:0009e7d0       ?Write@NCreateRQ@@QEAAHPEAVPDU_Service@@PEAVDICOMDataObject@@PEAVUID@@@Z 000000014009f7d0 f   total.obj
 0001:0009eb20       ?Write@NCreateRQ@@QEAAHPEAVPDU_Service@@PEAVUID@@@Z 000000014009fb20 f   total.obj
 0001:0009eb30       ?Write@NCreateRSP@@QEAAHPEAVPDU_Service@@PEAVDICOMCommandObject@@PEAVUID@@GPEAVDICOMDataObject@@@Z 000000014009fb30 f   total.obj
 0001:0009ef70       ?Write@NDeleteRQ@@QEAAHPEAVPDU_Service@@PEAVUID@@@Z 000000014009ff70 f   total.obj
 0001:0009f290       ?Write@NDeleteRSP@@QEAAHPEAVPDU_Service@@PEAVDICOMCommandObject@@PEAVUID@@G@Z 00000001400a0290 f   total.obj
 0001:0009f690       ?Write@CEchoRQ@@QEAAHPEAVPDU_Service@@@Z 00000001400a0690 f   total.obj
 0001:0009f9c0       ?Write@CEchoRSP@@QEAAHPEAVPDU_Service@@PEAVDICOMCommandObject@@GPEAVVR@@@Z 00000001400a09c0 f   total.obj
 0001:0009fce0       ?Write@CEchoRSP@@QEAAHPEAVPDU_Service@@PEAVDICOMCommandObject@@G@Z 00000001400a0ce0 f   total.obj
 0001:0009fd00       ?Write@CEchoRSP@@QEAAHPEAVPDU_Service@@PEAVDICOMCommandObject@@@Z 00000001400a0d00 f   total.obj
 0001:0009fd20       ?Write@CStoreRQ@@QEAAHPEAVPDU_Service@@PEAVDICOMDataObject@@PEAVVR@@PEAE@Z 00000001400a0d20 f   total.obj
 0001:000a0280       ?Write@CStoreRSP@@QEAAHPEAVPDU_Service@@PEAVDICOMCommandObject@@G@Z 00000001400a1280 f   total.obj
 0001:000a06f0       ?Write@CStoreRSP@@QEAAHPEAVPDU_Service@@PEAVDICOMCommandObject@@@Z 00000001400a16f0 f   total.obj
 0001:000a0700       ?Write@CFindRQ@@QEAAHPEAVPDU_Service@@PEAVDICOMDataObject@@@Z 00000001400a1700 f   total.obj
 0001:000a0ab0       ?Write@CFindRSP@@QEAAHPEAVPDU_Service@@PEAVDICOMCommandObject@@GPEAVDICOMDataObject@@PEAD@Z 00000001400a1ab0 f   total.obj
 0001:000a10d0       ?Write@CFindRSP@@QEAAHPEAVPDU_Service@@PEAVDICOMCommandObject@@PEAVDICOMDataObject@@PEAD@Z 00000001400a20d0 f   total.obj
 0001:000a1120       ?Write@CMoveRQ@@QEAAHPEAVPDU_Service@@PEAVDICOMDataObject@@PEAE@Z 00000001400a2120 f   total.obj
 0001:000a1580       ?Write@CMoveRSP@@QEAAHPEAVPDU_Service@@PEAVDICOMCommandObject@@GGGGGPEAVDICOMDataObject@@@Z 00000001400a2580 f   total.obj
 0001:000a1c40       ??_EPDU_Service@@UEAAPEAXI@Z 00000001400a2c40 f i total.obj
 0001:000a1c40       ??_GPDU_Service@@UEAAPEAXI@Z 00000001400a2c40 f i total.obj
 0001:000a1c80       ?Read@PDU_Service@@QEAAHPEAVDICOMObject@@@Z 00000001400a2c80 f   total.obj
 0001:000a1f10       ?Multiplex@PDU_Service@@QEAAHPEAE@Z 00000001400a2f10 f   total.obj
 0001:000a1fd0       ?ToJPG@@YAHPEAVDICOMDataObject@@PEADHHHHI@Z 00000001400a2fd0 f   total.obj
 0001:000a2530       ?RegenToDatabase@@YAHPEAVDatabase@@PEAD1PEBD@Z 00000001400a3530 f   total.obj
 0001:000a2790       ?RegenFile@@YAHPEAD@Z      00000001400a3790 f   total.obj
 0001:000a2a40       ?RegenDir@@YAHPEAVDatabase@@PEADPEBD@Z 00000001400a3a40 f   total.obj
 0001:000a2d50       ?Regen@@YAHPEBDHPEAD@Z     00000001400a3d50 f   total.obj
 0001:000a3410       ?Regen@@YAHXZ              00000001400a4410 f   total.obj
 0001:000a51e0       ?DcmMove2@@YAHPEADPEBDHHPEAVDICOMDataObject@@1@Z 00000001400a61e0 f   total.obj
 0001:000a6790       ?GrabImagesFromServer@@YAHPEAEPEBDPEAD@Z 00000001400a7790 f   total.obj
 0001:000a87e0       ?SendServerCommand@@YAHPEBD0HPEADHH@Z 00000001400a97e0 f   total.obj
 0001:000a9a00       ??_G?$basic_ifstream@DU?$char_traits@D@std@@@std@@UEAAPEAXI@Z 00000001400aaa00 f i total.obj
 0001:000a9a00       ??_E?$basic_ifstream@DU?$char_traits@D@std@@@std@@UEAAPEAXI@Z 00000001400aaa00 f i total.obj
 0001:000a9a50       ?fileToBuffer@@YAHPEAPEAXPEBDH@Z 00000001400aaa50 f   total.obj
 0001:000a9f30       ?fileToBufferWithErr@@YAHPEAPEAXPEBDPEADHH@Z 00000001400aaf30 f   total.obj
 0001:000aa220       ??0ExtendedPDU_Service@@QEAA@PEAD@Z 00000001400ab220 f i total.obj
 0001:000aa300       ??_EExtendedPDU_Service@@WEHI@EAAPEAXI@Z 00000001400ab300 f i total.obj
 0001:000aa310       ??_EExtendedPDU_Service@@WEGA@EAAPEAXI@Z 00000001400ab310 f i total.obj
 0001:000aa320       ??_EExtendedPDU_Service@@WIA@EAAPEAXI@Z 00000001400ab320 f i total.obj
 0001:000aa330       ??_EExtendedPDU_Service@@WEEI@EAAPEAXI@Z 00000001400ab330 f i total.obj
 0001:000aa340       ??_EExtendedPDU_Service@@WCFI@EAAPEAXI@Z 00000001400ab340 f i total.obj
 0001:000aa350       ??_EExtendedPDU_Service@@WEDA@EAAPEAXI@Z 00000001400ab350 f i total.obj
 0001:000aa360       ??_EExtendedPDU_Service@@WEJA@EAAPEAXI@Z 00000001400ab360 f i total.obj
 0001:000aa370       ??1ExtendedPDU_Service@@UEAA@XZ 00000001400ab370 f i total.obj
 0001:000aa4a0       ??_GExtendedPDU_Service@@UEAAPEAXI@Z 00000001400ab4a0 f i total.obj
 0001:000aa4a0       ??_EExtendedPDU_Service@@UEAAPEAXI@Z 00000001400ab4a0 f i total.obj
 0001:000aa4e0       ?InitACRNemaAddressArray@ACRNemaMap@@QEAAHPEAD@Z 00000001400ab4e0 f   total.obj
 0001:000aaa60       ?readIniFile@IniValue@@AEAAHXZ 00000001400aba60 f   total.obj
 0001:000aab30       ?WriteToIni@IniValue@@QEAAHPEBD00@Z 00000001400abb30 f   total.obj
 0001:000aafd0       ??_ECheckedPDU_Service@@UEAAPEAXI@Z 00000001400abfd0 f i total.obj
 0001:000aafd0       ??_GCheckedPDU_Service@@UEAAPEAXI@Z 00000001400abfd0 f i total.obj
 0001:000ab010       ?Write@StandardStorage@@QEAAHPEAVPDU_Service@@PEAVDICOMDataObject@@PEAVVR@@PEAE@Z 00000001400ac010 f   total.obj
 0001:000ab1c0       ?Read@Verification@@QEAAHPEAVPDU_Service@@PEAVDICOMCommandObject@@@Z 00000001400ac1c0 f   total.obj
 0001:000ab330       ?WriteResponse@Verification@@QEAAHPEAVPDU_Service@@PEAVDICOMCommandObject@@PEAVVR@@@Z 00000001400ac330 f   total.obj
 0001:000ab360       ?Write@Verification@@QEAAHPEAVPDU_Service@@@Z 00000001400ac360 f   total.obj
 0001:000ab4b0       ?Read@NEventReportRQ@@QEAAHPEAVDICOMCommandObject@@PEAVPDU_Service@@PEAVDICOMDataObject@@@Z 00000001400ac4b0 f   total.obj
 0001:000ab5f0       ?Read@NEventReportRSP@@QEAAHPEAVDICOMCommandObject@@PEAVPDU_Service@@PEAVDICOMDataObject@@@Z 00000001400ac5f0 f   total.obj
 0001:000ab740       ?Read@NGetRSP@@QEAAHPEAVDICOMCommandObject@@PEAVPDU_Service@@PEAVDICOMDataObject@@@Z 00000001400ac740 f   total.obj
 0001:000ab890       ?Read@NSetRQ@@QEAAHPEAVDICOMCommandObject@@PEAVPDU_Service@@PEAVDICOMDataObject@@@Z 00000001400ac890 f   total.obj
 0001:000ab9e0       ?Read@NSetRSP@@QEAAHPEAVDICOMCommandObject@@PEAVPDU_Service@@PEAVDICOMDataObject@@@Z 00000001400ac9e0 f   total.obj
 0001:000abb30       ?Read@NActionRQ@@QEAAHPEAVDICOMCommandObject@@PEAVPDU_Service@@PEAVDICOMDataObject@@@Z 00000001400acb30 f   total.obj
 0001:000abc80       ?Read@NActionRSP@@QEAAHPEAVDICOMCommandObject@@PEAVPDU_Service@@PEAVDICOMDataObject@@@Z 00000001400acc80 f   total.obj
 0001:000abdd0       ?Read@NCreateRQ@@QEAAHPEAVDICOMCommandObject@@PEAVPDU_Service@@PEAVDICOMDataObject@@@Z 00000001400acdd0 f   total.obj
 0001:000abf20       ?Read@NCreateRSP@@QEAAHPEAVDICOMCommandObject@@PEAVPDU_Service@@PEAVDICOMDataObject@@@Z 00000001400acf20 f   total.obj
 0001:000ac070       ?Read@CStoreRQ@@QEAAHPEAVDICOMCommandObject@@PEAVPDU_Service@@PEAVDICOMDataObject@@@Z 00000001400ad070 f   total.obj
 0001:000ac1c0       ?Read@CStoreRQ@@QEAAHPEAVDICOMCommandObject@@@Z 00000001400ad1c0 f   total.obj
 0001:000ac1d0       ?Read@CFindRQ@@QEAAHPEAVDICOMCommandObject@@PEAVPDU_Service@@PEAVDICOMDataObject@@@Z 00000001400ad1d0 f   total.obj
 0001:000ac320       ?Read@CFindRQ@@QEAAHPEAVDICOMCommandObject@@@Z 00000001400ad320 f   total.obj
 0001:000ac330       ?Read@CFindRSP@@QEAAHPEAVDICOMCommandObject@@PEAVPDU_Service@@PEAVDICOMDataObject@@@Z 00000001400ad330 f   total.obj
 0001:000ac480       ?Read@CFindRSP@@QEAAHPEAVDICOMCommandObject@@@Z 00000001400ad480 f   total.obj
 0001:000ac520       ?Read@CMoveRQ@@QEAAHPEAVDICOMCommandObject@@PEAVPDU_Service@@PEAVDICOMDataObject@@@Z 00000001400ad520 f   total.obj
 0001:000ac670       ?Read@CMoveRQ@@QEAAHPEAVDICOMCommandObject@@@Z 00000001400ad670 f   total.obj
 0001:000ac680       ?Read@CMoveRSP@@QEAAHPEAVDICOMCommandObject@@PEAVPDU_Service@@PEAVDICOMDataObject@@@Z 00000001400ad680 f   total.obj
 0001:000ac7d0       ?Read@CMoveRSP@@QEAAHPEAVDICOMCommandObject@@@Z 00000001400ad7d0 f   total.obj
 0001:000ac870       ?Write@StandardRetrieveNKI@@QEAAHPEAVPDU_Service@@PEAVDICOMDataObject@@PEAE@Z 00000001400ad870 f   total.obj
 0001:000ad9a0       ?LoadForGUI@@YAPEAVDICOMDataObject@@PEAD@Z 00000001400ae9a0 f   total.obj
 0001:000ae1f0       ?LoadForBridge@@YAPEAVDICOMDataObject@@PEAD0@Z 00000001400af1f0 f   total.obj
 0001:000ae520       ?GetImageFileUID@@YAHPEAD0@Z 00000001400af520 f   total.obj
 0001:000ae670       ?SearchDICOMObject@@YAHPEAVDICOMObject@@PEBDPEADPEAPEAV?$Array@PEAVDICOMDataObject@@@@PEAPEAVDICOMDataObject@@@Z 00000001400af670 f   total.obj
 0001:000af410       ??_FExtendedPDU_Service@@QEAAXXZ 00000001400b0410 f i total.obj
 0001:000af420       ?PrinterSupport@StorageApp@@QEAAHPEAVCheckedPDU_Service@@PEAVDICOMCommandObject@@QEAPEAVDICOMDataObject@@@Z 00000001400b0420 f   total.obj
 0001:000b1200       ?StorageCommitmentSupport@StorageApp@@QEAAHPEAVCheckedPDU_Service@@PEAVDICOMCommandObject@@PEAPEAVDICOMDataObject@@@Z 00000001400b2200 f   total.obj
 0001:000b1cd0       ?Write@RunTimeClassStorage@@QEAAHPEAVPDU_Service@@PEAVDICOMDataObject@@@Z 00000001400b2cd0 f i total.obj
 0001:000b1cf0       ?DeleteNameFromIniFile@IniValue@@QEAAHPEBD0@Z 00000001400b2cf0 f   total.obj
 0001:000b2080       ?GetIniLine@IniValue@@QEAAPEADPEBD@Z 00000001400b3080 f   total.obj
 0001:000b2270       ?ReadIni@IniValue@@QEAAHXZ 00000001400b3270 f   total.obj
 0001:000b2d80       ?WriteToIni@IniValue@@QEAAHPEBD0@Z 00000001400b3d80 f   total.obj
 0001:000b2e60       ?Read@StandardQuery@@QEAAHPEAVPDU_Service@@PEAVDICOMCommandObject@@@Z 00000001400b3e60 f   total.obj
 0001:000b3440       ?Write@StandardQuery@@QEAAHPEAVPDU_Service@@PEAVDICOMDataObject@@PEAV?$Array@PEAVDICOMDataObject@@@@@Z 00000001400b4440 f   total.obj
 0001:000b38b0       ?Read@StandardRetrieve@@QEAAHPEAVPDU_Service@@PEAVDICOMCommandObject@@@Z 00000001400b48b0 f   total.obj
 0001:000b41e0       ?Write@StandardRetrieve@@QEAAHPEAVPDU_Service@@PEAVDICOMDataObject@@PEAE@Z 00000001400b51e0 f   total.obj
 0001:000b4660       ?Read@StandardStorage@@QEAAHPEAVPDU_Service@@PEAVDICOMCommandObject@@PEAVDICOMDataObject@@@Z 00000001400b5660 f   total.obj
 0001:000b47e0       ?Read@UnknownStorage@@QEAAHPEAVPDU_Service@@PEAVDICOMCommandObject@@PEAVDICOMDataObject@@@Z 00000001400b57e0 f   total.obj
 0001:000b5970       ?FailSafeStorage@StorageApp@@QEAAXPEAVCheckedPDU_Service@@@Z 00000001400b6970 f   total.obj
 0001:000b5ec0       ?Read@PatientRootQuery@@QEAAHPEAVPDU_Service@@PEAVDICOMCommandObject@@@Z 00000001400b6ec0 f i total.obj
 0001:000b5ed0       ?Write@PatientRootQuery@@QEAAHPEAVPDU_Service@@PEAVDICOMDataObject@@PEAV?$Array@PEAVDICOMDataObject@@@@@Z 00000001400b6ed0 f i total.obj
 0001:000b5ee0       ?Read@StudyRootQuery@@QEAAHPEAVPDU_Service@@PEAVDICOMCommandObject@@@Z 00000001400b6ee0 f i total.obj
 0001:000b5ef0       ?Write@StudyRootQuery@@QEAAHPEAVPDU_Service@@PEAVDICOMDataObject@@PEAV?$Array@PEAVDICOMDataObject@@@@@Z 00000001400b6ef0 f i total.obj
 0001:000b5f00       ?Read@PatientStudyOnlyQuery@@QEAAHPEAVPDU_Service@@PEAVDICOMCommandObject@@@Z 00000001400b6f00 f i total.obj
 0001:000b5f10       ?Read@ModalityWorkListQuery@@QEAAHPEAVPDU_Service@@PEAVDICOMCommandObject@@@Z 00000001400b6f10 f i total.obj
 0001:000b5f20       ?Write@ModalityWorkListQuery@@QEAAHPEAVPDU_Service@@PEAVDICOMDataObject@@PEAV?$Array@PEAVDICOMDataObject@@@@@Z 00000001400b6f20 f i total.obj
 0001:000b5f30       ?DeleteNameFromIniFile@IniValue@@QEAAHPEBD@Z 00000001400b6f30 f   total.obj
 0001:000b6080       ?VirtualQuery@@YAHPEAVDICOMDataObject@@PEBDHPEAV?$Array@PEAVDICOMDataObject@@@@PEAD@Z 00000001400b7080 f   total.obj
 0001:000b80d0       ?ImageFileLister@@YAHPEBDPEAD1111PEAU_iobuf@@@Z 00000001400b90d0 f   total.obj
 0001:000b9500       ?SeriesUIDLister@@YAHPEAD000PEAU_iobuf@@@Z 00000001400ba500 f   total.obj
 0001:000b9d60       ?DcmSubmitData@@YAHPEAD000000H0@Z 00000001400bad60 f   total.obj
 0001:000bb040       ?QueryOnPatient@@YAHPEAVDICOMDataObject@@PEAV?$Array@PEAVDICOMDataObject@@@@@Z 00000001400bc040 f   total.obj
 0001:000bdd80       ?RemoveFromWorld@@YAHPEAVDICOMDataObject@@AEAVDatabase@@@Z 00000001400bed80 f   total.obj
 0001:000bde80       ?RemoveFromPACS@@YAHPEAVDICOMDataObject@@H@Z 00000001400bee80 f   total.obj
 0001:000bec60       ?do_lua@@YAPEBDPEAPEAUlua_State@@PEBDPEAUscriptdata@@@Z 00000001400bfc60 f   total.obj
 0001:000bf790       ?lua_setvar@@YAXPEAVExtendedPDU_Service@@PEAD1@Z 00000001400c0790 f   total.obj
 0001:000bf850       ?lua_getstring@@YAXPEAVExtendedPDU_Service@@PEAVDICOMCommandObject@@PEAVDICOMDataObject@@PEAD3@Z 00000001400c0850 f   total.obj
 0001:000bf960       ?DgateCgi@@YAXPEAD0@Z      00000001400c0960 f   total.obj
 0001:000caf90       ?DeletePatient@@YAHPEADH@Z 00000001400cbf90 f   total.obj
 0001:000cb150       ?DeleteStudy@@YAHPEADH@Z   00000001400cc150 f   total.obj
 0001:000cb410       ?DeleteStudies@@YAHPEADH@Z 00000001400cc410 f   total.obj
 0001:000cb5e0       ?DeleteSeries@@YAHPEADH@Z  00000001400cc5e0 f   total.obj
 0001:000cb8a0       ?DeleteImage@@YAHPEADH@Z   00000001400cc8a0 f   total.obj
 0001:000cba70       ?DeleteImageFile@@YAHPEADH@Z 00000001400cca70 f   total.obj
 0001:000cbd90       ?CallExportConverterN@@YAHPEADH0000PEAVExtendedPDU_Service@@000@Z 00000001400ccd90 f   total.obj
 0001:000d16d0       ?exportprocessN@@YAHPEADPEAVExtendedPDU_Service@@0@Z 00000001400d26d0 f   total.obj
 0001:000d1770       ?export_queueN@@YAXPEAPEAUconquest_queue@@PEADH111111@Z 00000001400d2770 f   total.obj
 0001:000d1b60       ?QueueExportConverters@@YAXPEAD000000@Z 00000001400d2b60 f   total.obj
 0001:000d21e0       ?VirtualQueryCached@@YAHPEAVDICOMDataObject@@PEBDHPEAV?$Array@PEAVDICOMDataObject@@@@@Z 00000001400d31e0 f   total.obj
 0001:000d3820       ?PatientStudyFinder@@YAHPEAD00PEAU_iobuf@@PEBD@Z 00000001400d4820 f   total.obj
 0001:000d5a50       ?SearchOn@MyPatientRootQuery@@UEAAHPEAVDICOMDataObject@@PEAV?$Array@PEAVDICOMDataObject@@@@@Z 00000001400d6a50 f   total.obj
 0001:000d5f30       ?SearchOn@MyStudyRootQuery@@UEAAHPEAVDICOMDataObject@@PEAV?$Array@PEAVDICOMDataObject@@@@@Z 00000001400d6f30 f   total.obj
 0001:000d66e0       ?SearchOn@MyPatientStudyOnlyQuery@@UEAAHPEAVDICOMDataObject@@PEAV?$Array@PEAVDICOMDataObject@@@@@Z 00000001400d76e0 f   total.obj
 0001:000d6e60       ?PanicKillOff@@YAHI@Z      00000001400d7e60 f   total.obj
 0001:000d7740       ?MAGRampage@@YAHXZ         00000001400d8740 f   total.obj
 0001:000d77d0       ?GetDevice@@YAHPEADI@Z     00000001400d87d0 f   total.obj
 0001:000d8540       ?StartZipThread@@YAXXZ     00000001400d9540 f   total.obj
 0001:000d85a0       ?GenerateFileName@@YAHPEAVDICOMDataObject@@PEAD11HH11PEAVDatabase@@@Z 00000001400d95a0 f   total.obj
 0001:000daad0       ?SaveToDisk@@YAHAEAVDatabase@@PEAVDICOMDataObject@@PEADHPEAVExtendedPDU_Service@@HH@Z 00000001400dbad0 f   total.obj
 0001:000dbbc0       ?VirtualQueryToDB@@YAHPEAVDICOMDataObject@@HPEAD@Z 00000001400dcbc0 f   total.obj
 0001:000dc950       ?SearchOn@MyPatientRootRetrieve@@UEAAHPEAVDICOMDataObject@@PEAV?$Array@PEAVDICOMDataObject@@@@@Z 00000001400dd950 f   total.obj
 0001:000dd000       ?SearchOn@MyPatientRootRetrieveNKI@@UEAAHPEAVDICOMDataObject@@PEAV?$Array@PEAVDICOMDataObject@@@@@Z 00000001400de000 f   total.obj
 0001:000dd6b0       ?SearchOn@MyPatientRootRetrieveGeneric@@UEAAHPEAVDICOMDataObject@@PEAV?$Array@PEAVDICOMDataObject@@@@@Z 00000001400de6b0 f   total.obj
 0001:000ddd60       ?SearchOn@MyStudyRootRetrieve@@UEAAHPEAVDICOMDataObject@@PEAV?$Array@PEAVDICOMDataObject@@@@@Z 00000001400ded60 f   total.obj
 0001:000de410       ?SearchOn@MyStudyRootRetrieveNKI@@UEAAHPEAVDICOMDataObject@@PEAV?$Array@PEAVDICOMDataObject@@@@@Z 00000001400df410 f   total.obj
 0001:000deac0       ?SearchOn@MyStudyRootRetrieveGeneric@@UEAAHPEAVDICOMDataObject@@PEAV?$Array@PEAVDICOMDataObject@@@@@Z 00000001400dfac0 f   total.obj
 0001:000df170       ?SearchOn@MyPatientStudyOnlyRetrieve@@UEAAHPEAVDICOMDataObject@@PEAV?$Array@PEAVDICOMDataObject@@@@@Z 00000001400e0170 f   total.obj
 0001:000df820       ?SearchOn@MyPatientStudyOnlyRetrieveNKI@@UEAAHPEAVDICOMDataObject@@PEAV?$Array@PEAVDICOMDataObject@@@@@Z 00000001400e0820 f   total.obj
 0001:000dfed0       ?SearchOn@MyPatientStudyOnlyRetrieveGeneric@@UEAAHPEAVDICOMDataObject@@PEAV?$Array@PEAVDICOMDataObject@@@@@Z 00000001400e0ed0 f   total.obj
 0001:000e0580       ?TestSyntax@@YAXPEADHPEAVExtendedPDU_Service@@@Z 00000001400e1580 f   total.obj
 0001:000e0b70       ?TestThreadedSave@@YAXPEAD@Z 00000001400e1b70 f   total.obj
 0001:000e0bb0       ?CloneDB@@YAXPEAD@Z        00000001400e1bb0 f   total.obj
 0001:000e19b0       ?DcmMergeStudy@@YAHPEBDPEAD1111PEAVExtendedPDU_Service@@@Z 00000001400e29b0 f   total.obj
 0001:000e23b0       ?prefetchprocess@@YAHPEADPEAVExtendedPDU_Service@@0@Z 00000001400e33b0 f   total.obj
 0001:000e29f0       ?prefetch_queue@@YAHPEBDPEAD000000000H0@Z 00000001400e39f0 f   total.obj
 0001:000e2ea0       ?CallImportConverterN@@YAHPEAVDICOMDataObject@@HPEAD111PEAVExtendedPDU_Service@@11@Z 00000001400e3ea0 f   total.obj
 0001:000ebeb0       ?QueryMoveScript@MyPatientRootQuery@@UEAAHPEAVPDU_Service@@PEAVDICOMCommandObject@@PEAVDICOMDataObject@@@Z 00000001400eceb0 f   total.obj
 0001:000ebf10       ?QueryResultScript@MyPatientRootQuery@@UEAAHPEAVPDU_Service@@PEAVDICOMCommandObject@@PEAVDICOMDataObject@@@Z 00000001400ecf10 f   total.obj
 0001:000ebfe0       ?QueryMoveScript@MyStudyRootQuery@@UEAAHPEAVPDU_Service@@PEAVDICOMCommandObject@@PEAVDICOMDataObject@@@Z 00000001400ecfe0 f   total.obj
 0001:000ec040       ?QueryResultScript@MyStudyRootQuery@@UEAAHPEAVPDU_Service@@PEAVDICOMCommandObject@@PEAVDICOMDataObject@@@Z 00000001400ed040 f   total.obj
 0001:000ec110       ?QueryMoveScript@MyPatientStudyOnlyQuery@@UEAAHPEAVPDU_Service@@PEAVDICOMCommandObject@@PEAVDICOMDataObject@@@Z 00000001400ed110 f   total.obj
 0001:000ec170       ?QueryResultScript@MyPatientStudyOnlyQuery@@UEAAHPEAVPDU_Service@@PEAVDICOMCommandObject@@PEAVDICOMDataObject@@@Z 00000001400ed170 f   total.obj
 0001:000ec240       ?QueryMoveScript@MyModalityWorkListQuery@@UEAAHPEAVPDU_Service@@PEAVDICOMCommandObject@@PEAVDICOMDataObject@@@Z 00000001400ed240 f   total.obj
 0001:000ec2a0       ?QueryResultScript@MyModalityWorkListQuery@@UEAAHPEAVPDU_Service@@PEAVDICOMCommandObject@@PEAVDICOMDataObject@@@Z 00000001400ed2a0 f   total.obj
 0001:000ec300       ?QueryMoveScript@MyPatientRootRetrieve@@UEAAHPEAVPDU_Service@@PEAVDICOMCommandObject@@PEAVDICOMDataObject@@@Z 00000001400ed300 f   total.obj
 0001:000ec420       ?QueryMoveScript@MyPatientRootRetrieveNKI@@UEAAHPEAVPDU_Service@@PEAVDICOMCommandObject@@PEAVDICOMDataObject@@@Z 00000001400ed420 f   total.obj
 0001:000ec540       ?QueryMoveScript@MyPatientRootRetrieveGeneric@@UEAAHPEAVPDU_Service@@PEAVDICOMCommandObject@@PEAVDICOMDataObject@@@Z 00000001400ed540 f   total.obj
 0001:000ec660       ?QueryMoveScript@MyStudyRootRetrieve@@UEAAHPEAVPDU_Service@@PEAVDICOMCommandObject@@PEAVDICOMDataObject@@@Z 00000001400ed660 f   total.obj
 0001:000ec780       ?QueryMoveScript@MyStudyRootRetrieveNKI@@UEAAHPEAVPDU_Service@@PEAVDICOMCommandObject@@PEAVDICOMDataObject@@@Z 00000001400ed780 f   total.obj
 0001:000ec8a0       ?QueryMoveScript@MyStudyRootRetrieveGeneric@@UEAAHPEAVPDU_Service@@PEAVDICOMCommandObject@@PEAVDICOMDataObject@@@Z 00000001400ed8a0 f   total.obj
 0001:000ec9c0       ?QueryMoveScript@MyPatientStudyOnlyRetrieve@@UEAAHPEAVPDU_Service@@PEAVDICOMCommandObject@@PEAVDICOMDataObject@@@Z 00000001400ed9c0 f   total.obj
 0001:000ecae0       ?QueryMoveScript@MyPatientStudyOnlyRetrieveNKI@@UEAAHPEAVPDU_Service@@PEAVDICOMCommandObject@@PEAVDICOMDataObject@@@Z 00000001400edae0 f   total.obj
 0001:000ecc00       ?QueryMoveScript@MyPatientStudyOnlyRetrieveGeneric@@UEAAHPEAVPDU_Service@@PEAVDICOMCommandObject@@PEAVDICOMDataObject@@@Z 00000001400edc00 f   total.obj
 0001:000ecd20       ?ProcessDDO@@YAHPEAPEAVDICOMDataObject@@PEAVDICOMCommandObject@@PEAVExtendedPDU_Service@@@Z 00000001400edd20 f   total.obj
 0001:000eceb0       ?recompress@@YAHPEAPEAVDICOMDataObject@@PEBD1HPEAVExtendedPDU_Service@@@Z 00000001400edeb0 f   total.obj
 0001:000ed720       ?CheckObject@MyBridgeStorage@@UEAAGPEAVDICOMDataObject@@PEAVPDU_Service@@@Z 00000001400ee720 f i total.obj
 0001:000eda80       ?ModifyPATIDofImageFile@@YAHPEAD0H0PEAVExtendedPDU_Service@@@Z 00000001400eea80 f   total.obj
 0001:000ee220       ?ModifyImageFile@@YAHPEAD0PEAVExtendedPDU_Service@@@Z 00000001400ef220 f   total.obj
 0001:000ee2d0       ?ModifyData@@YAHPEAD000PEAVExtendedPDU_Service@@@Z 00000001400ef2d0 f   total.obj
 0001:000ee580       ?AttachFile@@YAHPEAD00PEAVExtendedPDU_Service@@@Z 00000001400ef580 f   total.obj
 0001:000ee7b0       ?AttachRTPLANToRTSTRUCT@@YAHPEAD0PEAVExtendedPDU_Service@@@Z 00000001400ef7b0 f   total.obj
 0001:000eea00       ?AttachAnyToPatient@@YAHPEAD0PEAVExtendedPDU_Service@@@Z 00000001400efa00 f   total.obj
 0001:000eebe0       ?AttachAnyToStudy@@YAHPEAD0PEAVExtendedPDU_Service@@@Z 00000001400efbe0 f   total.obj
 0001:000eedf0       ?AttachAnyToSeries@@YAHPEAD0PEAVExtendedPDU_Service@@@Z 00000001400efdf0 f   total.obj
 0001:000ef030       ?CheckObject@MyUnknownStorage@@UEAAGPEAVDICOMDataObject@@PEAVPDU_Service@@@Z 00000001400f0030 f i total.obj
 0001:000eff10       ?VirtualServer2@@YAHPEAUReadAheadThreadData@@H@Z 00000001400f0f10 f   total.obj
 0001:000f2880       ?RetrieveOn@@YAHPEAVDICOMDataObject@@PEAPEAV1@PEAPEAVStandardStorage@@AEAVRunTimeClassStorage@@PEAVDICOMCommandObject@@PEAV?$Array@PEAVDICOMDataObject@@@@PEAX@Z 00000001400f3880 f   total.obj
 0001:000f3e10       ?RetrieveOn@MyPatientRootRetrieve@@UEAAHPEAVDICOMDataObject@@PEAPEAV2@PEAPEAVStandardStorage@@@Z 00000001400f4e10 f   total.obj
 0001:000f3ea0       ?RetrieveOn@MyPatientRootRetrieveNKI@@UEAAHPEAVDICOMDataObject@@PEAPEAV2@PEAPEAVStandardStorage@@PEAVDICOMCommandObject@@PEAV?$Array@PEAVDICOMDataObject@@@@PEAX@Z 00000001400f4ea0 f   total.obj
 0001:000f3f40       ?RetrieveOn@MyPatientRootRetrieveGeneric@@UEAAHPEAVDICOMDataObject@@PEAPEAV2@PEAPEAVStandardStorage@@PEAVDICOMCommandObject@@PEAV?$Array@PEAVDICOMDataObject@@@@PEAX@Z 00000001400f4f40 f   total.obj
 0001:000f3fe0       ?RetrieveOn@MyStudyRootRetrieve@@UEAAHPEAVDICOMDataObject@@PEAPEAV2@PEAPEAVStandardStorage@@@Z 00000001400f4fe0 f   total.obj
 0001:000f4070       ?RetrieveOn@MyStudyRootRetrieveNKI@@UEAAHPEAVDICOMDataObject@@PEAPEAV2@PEAPEAVStandardStorage@@PEAVDICOMCommandObject@@PEAV?$Array@PEAVDICOMDataObject@@@@PEAX@Z 00000001400f5070 f   total.obj
 0001:000f4110       ?RetrieveOn@MyStudyRootRetrieveGeneric@@UEAAHPEAVDICOMDataObject@@PEAPEAV2@PEAPEAVStandardStorage@@PEAVDICOMCommandObject@@PEAV?$Array@PEAVDICOMDataObject@@@@PEAX@Z 00000001400f5110 f   total.obj
 0001:000f41b0       ?RetrieveOn@MyPatientStudyOnlyRetrieve@@UEAAHPEAVDICOMDataObject@@PEAPEAV2@PEAPEAVStandardStorage@@@Z 00000001400f51b0 f   total.obj
 0001:000f4240       ?RetrieveOn@MyPatientStudyOnlyRetrieveNKI@@UEAAHPEAVDICOMDataObject@@PEAPEAV2@PEAPEAVStandardStorage@@PEAVDICOMCommandObject@@PEAV?$Array@PEAVDICOMDataObject@@@@PEAX@Z 00000001400f5240 f   total.obj
 0001:000f42e0       ?RetrieveOn@MyPatientStudyOnlyRetrieveGeneric@@UEAAHPEAVDICOMDataObject@@PEAPEAV2@PEAPEAVStandardStorage@@PEAVDICOMCommandObject@@PEAV?$Array@PEAVDICOMDataObject@@@@PEAX@Z 00000001400f52e0 f   total.obj
 0001:000f4380       ?TestCompress@@YAXPEADPEBDPEAVExtendedPDU_Service@@@Z 00000001400f5380 f   total.obj
 0001:000f4f70       ?TestForward@@YAXPEADPEBD0PEAVExtendedPDU_Service@@@Z 00000001400f5f70 f   total.obj
 0001:000f5a50       ?ProcessMoveDevicePatient@@YAXPEAD0@Z 00000001400f6a50 f   total.obj
 0001:000f6070       ?ProcessMoveDeviceSeries@@YAXPEAD0@Z 00000001400f7070 f   total.obj
 0001:000f6690       ?MoveDataToDevice@@YAHPEAD0@Z 00000001400f7690 f   total.obj
 0001:000f6b50       ?MoveSeriesToDevice@@YAHPEAD0@Z 00000001400f7b50 f   total.obj
 0001:000f7020       ?Read@StandardRetrieveNKI@@QEAAHPEAVExtendedPDU_Service@@PEAVDICOMCommandObject@@PEAX@Z 00000001400f8020 f   total.obj
 0001:000f8510       ?recompressFile@@YAHPEAD0PEAVExtendedPDU_Service@@@Z 00000001400f9510 f   total.obj
 0001:000f86f0       ?AddImageFile@@YAHPEAD0PEAVExtendedPDU_Service@@@Z 00000001400f96f0 f   total.obj
 0001:000f9020       ?Read@PatientRootRetrieveNKI@@QEAAHPEAVExtendedPDU_Service@@PEAVDICOMCommandObject@@PEAX@Z 00000001400fa020 f i total.obj
 0001:000f9030       ?Read@StudyRootRetrieveNKI@@QEAAHPEAVExtendedPDU_Service@@PEAVDICOMCommandObject@@PEAX@Z 00000001400fa030 f i total.obj
 0001:000f9040       ?Read@PatientStudyOnlyRetrieveNKI@@QEAAHPEAVExtendedPDU_Service@@PEAVDICOMCommandObject@@PEAX@Z 00000001400fa040 f i total.obj
 0001:000f9050       ?Read@PatientRootRetrieveGeneric@@QEAAHPEAVExtendedPDU_Service@@PEAVDICOMCommandObject@@PEAX@Z 00000001400fa050 f i total.obj
 0001:000f9060       ?Read@StudyRootRetrieveGeneric@@QEAAHPEAVExtendedPDU_Service@@PEAVDICOMCommandObject@@PEAX@Z 00000001400fa060 f i total.obj
 0001:000f9070       ?Read@PatientStudyOnlyRetrieveGeneric@@QEAAHPEAVExtendedPDU_Service@@PEAVDICOMCommandObject@@PEAX@Z 00000001400fa070 f i total.obj
 0001:000f9080       ?RecompressPatient@@YAXPEAD00PEAVExtendedPDU_Service@@@Z 00000001400fa080 f   total.obj
 0001:000f9b20       ?SelectLRUForArchival@@YAHPEADHPEAVExtendedPDU_Service@@@Z 00000001400fab20 f   total.obj
 0001:000f9e50       ?LoadAndDeleteDir@@YAHPEAD0PEAVExtendedPDU_Service@@@Z 00000001400fae50 f   total.obj
 0001:000fa3a0       ?StartMonitorThread@@YAXPEAD@Z 00000001400fb3a0 f   total.obj
 0001:000fa3e0       ?ServerChild@StorageApp@@UEAAHHI@Z 00000001400fb3e0 f   total.obj
 0001:001054c0       ?ParseArgs@@YAHHQEAPEADPEAVExtendedPDU_Service@@@Z 00000001401064c0 f   total.obj
 0001:00108050       main                       0000000140109050 f   total.obj
 0001:00108d50       sqlite3_compileoption_get  0000000140109d50 f   sqlite3.obj
 0001:00109be0       sqlite3_mutex_alloc        000000014010abe0 f   sqlite3.obj
 0001:00109c30       sqlite3_mutex_free         000000014010ac30 f   sqlite3.obj
 0001:00109c50       sqlite3_mutex_enter        000000014010ac50 f   sqlite3.obj
 0001:00109c70       sqlite3_mutex_try          000000014010ac70 f   sqlite3.obj
 0001:00109c90       sqlite3_mutex_leave        000000014010ac90 f   sqlite3.obj
 0001:00109de0       sqlite3_release_memory     000000014010ade0 f   sqlite3.obj
 0001:00109eb0       sqlite3_memory_alarm       000000014010aeb0 f   sqlite3.obj
 0001:0010a070       sqlite3_free               000000014010b070 f   sqlite3.obj
 0001:0010a5b0       sqlite3_stricmp            000000014010b5b0 f   sqlite3.obj
 0001:0010a610       sqlite3_strnicmp           000000014010b610 f   sqlite3.obj
 0001:0010be50       sqlite3_win32_write_debug  000000014010ce50 f   sqlite3.obj
 0001:0010bf00       sqlite3_win32_sleep        000000014010cf00 f   sqlite3.obj
 0001:0010c370       sqlite3_win32_mbcs_to_utf8 000000014010d370 f   sqlite3.obj
 0001:0010c3c0       sqlite3_win32_utf8_to_mbcs 000000014010d3c0 f   sqlite3.obj
 0001:0010cff0       sqlite3_os_end             000000014010dff0 f   sqlite3.obj
 0001:00112500       sqlite3_enable_shared_cache 0000000140113500 f   sqlite3.obj
 0001:00113ec0       sqlite3_backup_remaining   0000000140114ec0 f   sqlite3.obj
 0001:00113ed0       sqlite3_backup_pagecount   0000000140114ed0 f   sqlite3.obj
 0001:00114440       sqlite3_sql                0000000140115440 f   sqlite3.obj
 0001:00115280       sqlite3_expired            0000000140116280 f   sqlite3.obj
 0001:001152a0       sqlite3_value_double       00000001401162a0 f   sqlite3.obj
 0001:00115310       sqlite3_value_int          0000000140116310 f   sqlite3.obj
 0001:00115320       sqlite3_value_int64        0000000140116320 f   sqlite3.obj
 0001:00115330       sqlite3_value_type         0000000140116330 f   sqlite3.obj
 0001:00115340       sqlite3_result_null        0000000140116340 f   sqlite3.obj
 0001:001153b0       sqlite3_result_error_nomem 00000001401163b0 f   sqlite3.obj
 0001:00115430       sqlite3_user_data          0000000140116430 f   sqlite3.obj
 0001:00115440       sqlite3_context_db_handle  0000000140116440 f   sqlite3.obj
 0001:00115450       sqlite3_get_auxdata        0000000140116450 f   sqlite3.obj
 0001:00115480       sqlite3_aggregate_count    0000000140116480 f   sqlite3.obj
 0001:00115490       sqlite3_column_count       0000000140116490 f   sqlite3.obj
 0001:001154a0       sqlite3_data_count         00000001401164a0 f   sqlite3.obj
 0001:00115570       sqlite3_bind_parameter_count 0000000140116570 f   sqlite3.obj
 0001:00115590       sqlite3_bind_parameter_name 0000000140116590 f   sqlite3.obj
 0001:00115690       sqlite3_bind_parameter_index 0000000140116690 f   sqlite3.obj
 0001:001156d0       sqlite3_db_handle          00000001401166d0 f   sqlite3.obj
 0001:001156e0       sqlite3_stmt_readonly      00000001401166e0 f   sqlite3.obj
 0001:00115700       sqlite3_stmt_busy          0000000140116700 f   sqlite3.obj
 0001:00115730       sqlite3_next_stmt          0000000140116730 f   sqlite3.obj
 0001:00115790       sqlite3_stmt_status        0000000140116790 f   sqlite3.obj
 0001:001158b0       sqlite3_value_numeric_type 00000001401168b0 f   sqlite3.obj
 0001:00115940       sqlite3_blob_bytes         0000000140116940 f   sqlite3.obj
 0001:00117020       sqlite3_set_authorizer     0000000140118020 f   sqlite3.obj
 0001:001196a0       sqlite3_enable_load_extension 000000014011a6a0 f   sqlite3.obj
 0001:0011a7b0       sqlite3_free_table         000000014011b7b0 f   sqlite3.obj
 0001:0011b4c0       sqlite3_vtab_on_conflict   000000014011c4c0 f   sqlite3.obj
 0001:0011c6a0       sqlite3_complete           000000014011d6a0 f   sqlite3.obj
 0001:0011cd80       sqlite3_libversion         000000014011dd80 f   sqlite3.obj
 0001:0011cd90       sqlite3_sourceid           000000014011dd90 f   sqlite3.obj
 0001:0011cda0       sqlite3_libversion_number  000000014011dda0 f   sqlite3.obj
 0001:0011cdb0       sqlite3_threadsafe         000000014011ddb0 f   sqlite3.obj
 0001:0011cdc0       sqlite3_db_mutex           000000014011ddc0 f   sqlite3.obj
 0001:0011cdd0       sqlite3_db_release_memory  000000014011ddd0 f   sqlite3.obj
 0001:0011d0b0       sqlite3_last_insert_rowid  000000014011e0b0 f   sqlite3.obj
 0001:0011d0c0       sqlite3_changes            000000014011e0c0 f   sqlite3.obj
 0001:0011d0d0       sqlite3_total_changes      000000014011e0d0 f   sqlite3.obj
 0001:0011d500       sqlite3_busy_handler       000000014011e500 f   sqlite3.obj
 0001:0011d580       sqlite3_progress_handler   000000014011e580 f   sqlite3.obj
 0001:0011d630       sqlite3_busy_timeout       000000014011e630 f   sqlite3.obj
 0001:0011d6d0       sqlite3_interrupt          000000014011e6d0 f   sqlite3.obj
 0001:0011d6e0       sqlite3_trace              000000014011e6e0 f   sqlite3.obj
 0001:0011d770       sqlite3_profile            000000014011e770 f   sqlite3.obj
 0001:0011d800       sqlite3_commit_hook        000000014011e800 f   sqlite3.obj
 0001:0011d890       sqlite3_update_hook        000000014011e890 f   sqlite3.obj
 0001:0011d920       sqlite3_rollback_hook      000000014011e920 f   sqlite3.obj
 0001:0011d9b0       sqlite3_wal_hook           000000014011e9b0 f   sqlite3.obj
 0001:0011da50       sqlite3_limit              000000014011ea50 f   sqlite3.obj
 0001:0011da90       sqlite3_collation_needed   000000014011ea90 f   sqlite3.obj
 0001:0011db10       sqlite3_collation_needed16 000000014011eb10 f   sqlite3.obj
 0001:0011db90       sqlite3_global_recover     000000014011eb90 f   sqlite3.obj
 0001:0011dba0       sqlite3_get_autocommit     000000014011eba0 f   sqlite3.obj
 0001:0011dbb0       sqlite3_thread_cleanup     000000014011ebb0 f   sqlite3.obj
 0001:0011dbc0       sqlite3_extended_result_codes 000000014011ebc0 f   sqlite3.obj
 0001:0011dc20       sqlite3_uri_parameter      000000014011ec20 f   sqlite3.obj
 0001:0011dd20       sqlite3_uri_boolean        000000014011ed20 f   sqlite3.obj
 0001:0011dd70       sqlite3_uri_int64          000000014011ed70 f   sqlite3.obj
 0001:0011ded0       sqlite3_db_filename        000000014011eed0 f   sqlite3.obj
 0001:0011df20       sqlite3_db_readonly        000000014011ef20 f   sqlite3.obj
 0001:0011df50       sqlite3_compileoption_used 000000014011ef50 f   sqlite3.obj
 0001:0011e340       sqlite3_vfs_find           000000014011f340 f   sqlite3.obj
 0001:0011e420       sqlite3_vfs_register       000000014011f420 f   sqlite3.obj
 0001:0011e540       sqlite3_vfs_unregister     000000014011f540 f   sqlite3.obj
 0001:0011eda0       sqlite3_realloc            000000014011fda0 f   sqlite3.obj
 0001:0011f5a0       sqlite3_randomness         00000001401205a0 f   sqlite3.obj
 0001:00124bc0       sqlite3_clear_bindings     0000000140125bc0 f   sqlite3.obj
 0001:00124d90       sqlite3_result_double      0000000140125d90 f   sqlite3.obj
 0001:00124da0       sqlite3_result_int         0000000140125da0 f   sqlite3.obj
 0001:00124e20       sqlite3_result_int64       0000000140125e20 f   sqlite3.obj
 0001:00124ea0       sqlite3_result_zeroblob    0000000140125ea0 f   sqlite3.obj
 0001:00125000       sqlite3_aggregate_context  0000000140126000 f   sqlite3.obj
 0001:001250c0       sqlite3_set_auxdata        00000001401260c0 f   sqlite3.obj
 0001:001253e0       sqlite3_transfer_bindings  00000001401263e0 f   sqlite3.obj
 0001:0012bbd0       sqlite3_db_config          000000014012cbd0 f   sqlite3.obj
 0001:0012bd00       sqlite3_sleep              000000014012cd00 f   sqlite3.obj
 0001:0012bdd0       sqlite3_file_control       000000014012cdd0 f   sqlite3.obj
 0001:0012d710       sqlite3_vmprintf           000000014012e710 f   sqlite3.obj
 0001:0012d870       sqlite3_mprintf            000000014012e870 f   sqlite3.obj
 0001:0012d8c0       sqlite3_vsnprintf          000000014012e8c0 f   sqlite3.obj
 0001:0012d9d0       sqlite3_snprintf           000000014012e9d0 f   sqlite3.obj
 0001:0012db60       sqlite3_log                000000014012eb60 f   sqlite3.obj
 0001:00131250       sqlite3_result_value       0000000140132250 f   sqlite3.obj
 0001:0013ab60       sqlite3_status             000000014013bb60 f   sqlite3.obj
 0001:0013abe0       sqlite3_db_status          000000014013bbe0 f   sqlite3.obj
 0001:0013b420       sqlite3_memory_used        000000014013c420 f   sqlite3.obj
 0001:0013b430       sqlite3_memory_highwater   000000014013c430 f   sqlite3.obj
 0001:0013c400       sqlite3_os_init            000000014013d400 f   sqlite3.obj
 0001:0013e790       sqlite3_value_bytes        000000014013f790 f   sqlite3.obj
 0001:0013e7e0       sqlite3_value_bytes16      000000014013f7e0 f   sqlite3.obj
 0001:0013e830       sqlite3_value_text         000000014013f830 f   sqlite3.obj
 0001:0013e840       sqlite3_value_text16       000000014013f840 f   sqlite3.obj
 0001:0013e850       sqlite3_value_text16be     000000014013f850 f   sqlite3.obj
 0001:0013e860       sqlite3_value_text16le     000000014013f860 f   sqlite3.obj
 0001:0013e870       sqlite3_result_error       000000014013f870 f   sqlite3.obj
 0001:0013e9d0       sqlite3_result_error16     000000014013f9d0 f   sqlite3.obj
 0001:0013ea00       sqlite3_result_error_code  000000014013fa00 f   sqlite3.obj
 0001:0013ebd0       sqlite3_result_error_toobig 000000014013fbd0 f   sqlite3.obj
 0001:0013ed50       sqlite3_column_name        000000014013fd50 f   sqlite3.obj
 0001:0013ee00       sqlite3_column_name16      000000014013fe00 f   sqlite3.obj
 0001:0013eeb0       sqlite3_column_decltype    000000014013feb0 f   sqlite3.obj
 0001:0013ef60       sqlite3_column_decltype16  000000014013ff60 f   sqlite3.obj
 0001:00147ef0       sqlite3_config             0000000140148ef0 f   sqlite3.obj
 0001:00148320       sqlite3_errmsg             0000000140149320 f   sqlite3.obj
 0001:00148480       sqlite3_errmsg16           0000000140149480 f   sqlite3.obj
 0001:00148700       sqlite3_errcode            0000000140149700 f   sqlite3.obj
 0001:001487a0       sqlite3_extended_errcode   00000001401497a0 f   sqlite3.obj
 0001:0014ba60       sqlite3_value_blob         000000014014ca60 f   sqlite3.obj
 0001:0014bb10       sqlite3_result_blob        000000014014cb10 f   sqlite3.obj
 0001:0014bb50       sqlite3_result_text        000000014014cb50 f   sqlite3.obj
 0001:0014bb90       sqlite3_result_text16      000000014014cb90 f   sqlite3.obj
 0001:0014bbd0       sqlite3_result_text16be    000000014014cbd0 f   sqlite3.obj
 0001:0014bc10       sqlite3_result_text16le    000000014014cc10 f   sqlite3.obj
 0001:0014bee0       sqlite3_bind_double        000000014014cee0 f   sqlite3.obj
 0001:0014bf70       sqlite3_bind_int64         000000014014cf70 f   sqlite3.obj
 0001:0014c040       sqlite3_bind_null          000000014014d040 f   sqlite3.obj
 0001:0014c090       sqlite3_bind_zeroblob      000000014014d090 f   sqlite3.obj
 0001:00155de0       sqlite3_vtab_config        0000000140156de0 f   sqlite3.obj
 0001:0015a0a0       sqlite3_column_blob        000000014015b0a0 f   sqlite3.obj
 0001:0015a130       sqlite3_column_bytes       000000014015b130 f   sqlite3.obj
 0001:0015a1b0       sqlite3_column_bytes16     000000014015b1b0 f   sqlite3.obj
 0001:0015a230       sqlite3_column_double      000000014015b230 f   sqlite3.obj
 0001:0015a2d0       sqlite3_column_int         000000014015b2d0 f   sqlite3.obj
 0001:0015a310       sqlite3_column_int64       000000014015b310 f   sqlite3.obj
 0001:0015a350       sqlite3_column_text        000000014015b350 f   sqlite3.obj
 0001:0015a3a0       sqlite3_column_value       000000014015b3a0 f   sqlite3.obj
 0001:0015a400       sqlite3_column_text16      000000014015b400 f   sqlite3.obj
 0001:0015a450       sqlite3_column_type        000000014015b450 f   sqlite3.obj
 0001:0015a5d0       sqlite3_bind_blob          000000014015b5d0 f   sqlite3.obj
 0001:0015a600       sqlite3_bind_int           000000014015b600 f   sqlite3.obj
 0001:0015a610       sqlite3_bind_text          000000014015b610 f   sqlite3.obj
 0001:0015a640       sqlite3_bind_text16        000000014015b640 f   sqlite3.obj
 0001:0015a670       sqlite3_bind_value         000000014015b670 f   sqlite3.obj
 0001:0015d6f0       sqlite3_load_extension     000000014015e6f0 f   sqlite3.obj
 0001:0015e510       sqlite3_create_module      000000014015f510 f   sqlite3.obj
 0001:0015e530       sqlite3_create_module_v2   000000014015f530 f   sqlite3.obj
 0001:0015f690       sqlite3_create_function_v2 0000000140160690 f   sqlite3.obj
 0001:0015f820       sqlite3_create_function16  0000000140160820 f   sqlite3.obj
 0001:0015f950       sqlite3_overload_function  0000000140160950 f   sqlite3.obj
 0001:0015faa0       sqlite3_create_collation   0000000140160aa0 f   sqlite3.obj
 0001:0015fb70       sqlite3_create_collation_v2 0000000140160b70 f   sqlite3.obj
 0001:0015fc40       sqlite3_create_collation16 0000000140160c40 f   sqlite3.obj
 0001:00160880       sqlite3_initialize         0000000140161880 f   sqlite3.obj
 0001:00160b60       sqlite3_create_function    0000000140161b60 f   sqlite3.obj
 0001:00160bc0       sqlite3_soft_heap_limit64  0000000140161bc0 f   sqlite3.obj
 0001:00160ce0       sqlite3_soft_heap_limit    0000000140161ce0 f   sqlite3.obj
 0001:00160d00       sqlite3_malloc             0000000140161d00 f   sqlite3.obj
 0001:0016a040       sqlite3_auto_extension     000000014016b040 f   sqlite3.obj
 0001:0016a170       sqlite3_reset_auto_extension 000000014016b170 f   sqlite3.obj
 0001:0016a480       sqlite3_complete16         000000014016b480 f   sqlite3.obj
 0001:0016a5a0       sqlite3_shutdown           000000014016b5a0 f   sqlite3.obj
 0001:0016aee0       sqlite3_test_control       000000014016bee0 f   sqlite3.obj
 0001:00172070       sqlite3_backup_step        0000000140173070 f   sqlite3.obj
 0001:00172fc0       sqlite3_backup_finish      0000000140173fc0 f   sqlite3.obj
 0001:00178b60       sqlite3_close              0000000140179b60 f   sqlite3.obj
 0001:001790f0       sqlite3_wal_checkpoint_v2  000000014017a0f0 f   sqlite3.obj
 0001:00179230       sqlite3_wal_checkpoint     000000014017a230 f   sqlite3.obj
 0001:00179470       sqlite3_backup_init        000000014017a470 f   sqlite3.obj
 0001:00179fe0       sqlite3_finalize           000000014017afe0 f   sqlite3.obj
 0001:0017a0c0       sqlite3_reset              000000014017b0c0 f   sqlite3.obj
 0001:0017a1e0       sqlite3_blob_close         000000014017b1e0 f   sqlite3.obj
 0001:0017a440       sqlite3_blob_read          000000014017b440 f   sqlite3.obj
 0001:0017a460       sqlite3_blob_write         000000014017b460 f   sqlite3.obj
 0001:0017e400       sqlite3_prepare            000000014017f400 f   sqlite3.obj
 0001:0017e440       sqlite3_prepare_v2         000000014017f440 f   sqlite3.obj
 0001:0017e6c0       sqlite3_prepare16          000000014017f6c0 f   sqlite3.obj
 0001:0017e6f0       sqlite3_prepare16_v2       000000014017f6f0 f   sqlite3.obj
 0001:0017f330       sqlite3_wal_autocheckpoint 0000000140180330 f   sqlite3.obj
 0001:0017fa60       sqlite3_open               0000000140180a60 f   sqlite3.obj
 0001:0017fa70       sqlite3_open_v2            0000000140180a70 f   sqlite3.obj
 0001:0017fa80       sqlite3_open16             0000000140180a80 f   sqlite3.obj
 0001:0018d5b0       sqlite3_step               000000014018e5b0 f   sqlite3.obj
 0001:0018d990       sqlite3_blob_reopen        000000014018e990 f   sqlite3.obj
 0001:0018e0e0       sqlite3_exec               000000014018f0e0 f   sqlite3.obj
 0001:0018ef70       sqlite3_get_table          000000014018ff70 f   sqlite3.obj
 0001:00195a80       sqlite3_blob_open          0000000140196a80 f   sqlite3.obj
 0001:001a6d00       sqlite3_declare_vtab       00000001401a7d00 f   sqlite3.obj
 0001:001a70a0       lua_xmove                  00000001401a80a0 f   lua.obj
 0001:001a7120       lua_setlevel               00000001401a8120 f   lua.obj
 0001:001a7130       lua_atpanic                00000001401a8130 f   lua.obj
 0001:001a7150       lua_gettop                 00000001401a8150 f   lua.obj
 0001:001a7160       lua_settop                 00000001401a8160 f   lua.obj
 0001:001a71d0       lua_remove                 00000001401a81d0 f   lua.obj
 0001:001a7230       lua_insert                 00000001401a8230 f   lua.obj
 0001:001a72a0       lua_pushvalue              00000001401a82a0 f   lua.obj
 0001:001a72d0       lua_type                   00000001401a82d0 f   lua.obj
 0001:001a7300       lua_typename               00000001401a8300 f   lua.obj
 0001:001a7330       lua_iscfunction            00000001401a8330 f   lua.obj
 0001:001a7370       lua_isstring               00000001401a8370 f   lua.obj
 0001:001a73b0       lua_isuserdata             00000001401a83b0 f   lua.obj
 0001:001a73e0       lua_toboolean              00000001401a83e0 f   lua.obj
 0001:001a7420       lua_tocfunction            00000001401a8420 f   lua.obj
 0001:001a7460       lua_touserdata             00000001401a8460 f   lua.obj
 0001:001a74a0       lua_tothread               00000001401a84a0 f   lua.obj
 0001:001a74d0       lua_topointer              00000001401a84d0 f   lua.obj
 0001:001a7550       lua_pushnil                00000001401a8550 f   lua.obj
 0001:001a7570       lua_pushnumber             00000001401a8570 f   lua.obj
 0001:001a7590       lua_pushinteger            00000001401a8590 f   lua.obj
 0001:001a75c0       lua_pushboolean            00000001401a85c0 f   lua.obj
 0001:001a75f0       lua_pushlightuserdata      00000001401a85f0 f   lua.obj
 0001:001a7610       lua_pushthread             00000001401a8610 f   lua.obj
 0001:001a7640       lua_getmetatable           00000001401a8640 f   lua.obj
 0001:001a76b0       lua_getfenv                00000001401a86b0 f   lua.obj
 0001:001a7740       lua_status                 00000001401a8740 f   lua.obj
 0001:001a7750       lua_getallocf              00000001401a8750 f   lua.obj
 0001:001a7770       lua_setallocf              00000001401a8770 f   lua.obj
 0001:001a7820       lua_getupvalue             00000001401a8820 f   lua.obj
 0001:001a7f20       lua_sethook                00000001401a8f20 f   lua.obj
 0001:001a7f50       lua_gethook                00000001401a8f50 f   lua.obj
 0001:001a7f60       lua_gethookmask            00000001401a8f60 f   lua.obj
 0001:001a7f70       lua_gethookcount           00000001401a8f70 f   lua.obj
 0001:001a7f80       lua_getstack               00000001401a8f80 f   lua.obj
 0001:001ad400       luaL_buffinit              00000001401ae400 f   lua.obj
 0001:001ae160       lua_checkstack             00000001401af160 f   lua.obj
 0001:001ae240       lua_isnumber               00000001401af240 f   lua.obj
 0001:001ae290       lua_rawequal               00000001401af290 f   lua.obj
 0001:001ae2f0       lua_equal                  00000001401af2f0 f   lua.obj
 0001:001ae370       lua_lessthan               00000001401af370 f   lua.obj
 0001:001ae3d0       lua_tonumber               00000001401af3d0 f   lua.obj
 0001:001ae440       lua_tointeger              00000001401af440 f   lua.obj
 0001:001ae4b0       lua_objlen                 00000001401af4b0 f   lua.obj
 0001:001ae550       lua_rawget                 00000001401af550 f   lua.obj
 0001:001ae590       lua_rawgeti                00000001401af590 f   lua.obj
 0001:001ae5e0       lua_rawset                 00000001401af5e0 f   lua.obj
 0001:001ae680       lua_setmetatable           00000001401af680 f   lua.obj
 0001:001ae7b0       lua_setfenv                00000001401af7b0 f   lua.obj
 0001:001ae8a0       lua_setupvalue             00000001401af8a0 f   lua.obj
 0001:001aeaf0       lua_getlocal               00000001401afaf0 f   lua.obj
 0001:001aeb70       lua_setlocal               00000001401afb70 f   lua.obj
 0001:001b15f0       lua_gettable               00000001401b25f0 f   lua.obj
 0001:001b1620       lua_settable               00000001401b2620 f   lua.obj
 0001:001b1660       lua_rawseti                00000001401b2660 f   lua.obj
 0001:001b1750       lua_dump                   00000001401b2750 f   lua.obj
 0001:001b1b20       lua_getinfo                00000001401b2b20 f   lua.obj
 0001:001b27f0       luaL_ref                   00000001401b37f0 f   lua.obj
 0001:001b2980       luaL_unref                 00000001401b3980 f   lua.obj
 0001:001b2ab0       lua_tolstring              00000001401b3ab0 f   lua.obj
 0001:001b2b80       lua_createtable            00000001401b3b80 f   lua.obj
 0001:001b2c00       lua_gc                     00000001401b3c00 f   lua.obj
 0001:001b5660       lua_call                   00000001401b6660 f   lua.obj
 0001:001b5de0       lua_pushvfstring           00000001401b6de0 f   lua.obj
 0001:001b5e40       lua_pushfstring            00000001401b6e40 f   lua.obj
 0001:001b5ea0       lua_error                  00000001401b6ea0 f   lua.obj
 0001:001b6050       lua_yield                  00000001401b7050 f   lua.obj
 0001:001b6be0       lua_replace                00000001401b7be0 f   lua.obj
 0001:001b6d60       lua_pushlstring            00000001401b7d60 f   lua.obj
 0001:001b6de0       lua_pushstring             00000001401b7de0 f   lua.obj
 0001:001b6e40       lua_getfield               00000001401b7e40 f   lua.obj
 0001:001b6ed0       lua_setfield               00000001401b7ed0 f   lua.obj
 0001:001b6f70       lua_next                   00000001401b7f70 f   lua.obj
 0001:001b6fc0       lua_concat                 00000001401b7fc0 f   lua.obj
 0001:001b7330       lua_resume                 00000001401b8330 f   lua.obj
 0001:001b7ce0       lua_newstate               00000001401b8ce0 f   lua.obj
 0001:001b7ef0       lua_close                  00000001401b8ef0 f   lua.obj
 0001:001b8ff0       luaL_where                 00000001401b9ff0 f   lua.obj
 0001:001b9170       luaL_error                 00000001401ba170 f   lua.obj
 0001:001b9230       luaL_newmetatable          00000001401ba230 f   lua.obj
 0001:001b9370       luaL_checkstack            00000001401ba370 f   lua.obj
 0001:001b93c0       luaL_getmetafield          00000001401ba3c0 f   lua.obj
 0001:001b9510       luaL_callmeta              00000001401ba510 f   lua.obj
 0001:001b95c0       luaL_findtable             00000001401ba5c0 f   lua.obj
 0001:001b9a10       luaL_prepbuffer            00000001401baa10 f   lua.obj
 0001:001b9a80       luaL_addlstring            00000001401baa80 f   lua.obj
 0001:001b9b90       luaL_addstring             00000001401bab90 f   lua.obj
 0001:001b9bd0       luaL_pushresult            00000001401babd0 f   lua.obj
 0001:001b9c40       luaL_addvalue              00000001401bac40 f   lua.obj
 0001:001b9da0       luaL_newstate              00000001401bada0 f   lua.obj
 0001:001beb60       lua_newthread              00000001401bfb60 f   lua.obj
 0001:001bebb0       lua_pcall                  00000001401bfbb0 f   lua.obj
 0001:001bec60       lua_newuserdata            00000001401bfc60 f   lua.obj
 0001:001c2180       luaL_argerror              00000001401c3180 f   lua.obj
 0001:001c22f0       luaL_typerror              00000001401c32f0 f   lua.obj
 0001:001c2430       luaL_checkudata            00000001401c3430 f   lua.obj
 0001:001c25c0       luaL_checktype             00000001401c35c0 f   lua.obj
 0001:001c2620       luaL_checkany              00000001401c3620 f   lua.obj
 0001:001c2670       luaL_checklstring          00000001401c3670 f   lua.obj
 0001:001c2720       luaL_optlstring            00000001401c3720 f   lua.obj
 0001:001c27d0       luaL_checknumber           00000001401c37d0 f   lua.obj
 0001:001c2930       luaL_optnumber             00000001401c3930 f   lua.obj
 0001:001c2980       luaL_checkinteger          00000001401c3980 f   lua.obj
 0001:001c2ad0       luaL_optinteger            00000001401c3ad0 f   lua.obj
 0001:001c2b20       luaL_gsub                  00000001401c3b20 f   lua.obj
 0001:001cf060       lua_pushcclosure           00000001401d0060 f   lua.obj
 0001:001cf200       lua_cpcall                 00000001401d0200 f   lua.obj
 0001:001d02a0       luaL_checkoption           00000001401d12a0 f   lua.obj
 0001:001d03b0       luaL_openlib               00000001401d13b0 f   lua.obj
 0001:001d1400       luaL_openlibs              00000001401d2400 f   lua.obj
 0001:001d7010       luaL_register              00000001401d8010 f   lua.obj
 0001:001d73b0       luaopen_base               00000001401d83b0 f   lua.obj
 0001:001d73f0       luaopen_debug              00000001401d83f0 f   lua.obj
 0001:001d7600       luaopen_io                 00000001401d8600 f   lua.obj
 0001:001d7890       luaopen_math               00000001401d8890 f   lua.obj
 0001:001d7a70       luaopen_package            00000001401d8a70 f   lua.obj
 0001:001d8200       luaopen_os                 00000001401d9200 f   lua.obj
 0001:001d8230       luaopen_string             00000001401d9230 f   lua.obj
 0001:001d8320       luaopen_table              00000001401d9320 f   lua.obj
 0001:001d9cd0       lua_load                   00000001401dacd0 f   lua.obj
 0001:001d9db0       luaL_loadfile              00000001401dadb0 f   lua.obj
 0001:001da1e0       luaL_loadbuffer            00000001401db1e0 f   lua.obj
 0001:001da2d0       luaL_loadstring            00000001401db2d0 f   lua.obj
 0001:001db260       jas_clrspc_numchans        00000001401dc260 f   jasperlib.obj
 0001:001db2a0       jas_setdbglevel            00000001401dc2a0 f   jasperlib.obj
 0001:001db2b0       jas_getdbglevel            00000001401dc2b0 f   jasperlib.obj
 0001:001db2c0       jas_eprintf                00000001401dc2c0 f   jasperlib.obj
 0001:001db310       jas_memdump                00000001401dc310 f   jasperlib.obj
 0001:001db440       jas_getopt                 00000001401dc440 f   jasperlib.obj
 0001:001db630       jas_iccprof_gethdr         00000001401dc630 f   jasperlib.obj
 0001:001db660       jas_iccprof_sethdr         00000001401dc660 f   jasperlib.obj
 0001:001db700       jas_iccattrval_clone       00000001401dc700 f   jasperlib.obj
 0001:001dbd70       jas_image_getfmt           00000001401dcd70 f   jasperlib.obj
 0001:001dbe00       jas_image_fmtfromname      00000001401dce00 f   jasperlib.obj
 0001:001dbea0       jas_image_rawsize          00000001401dcea0 f   jasperlib.obj
 0001:001dbfb0       jas_image_lookupfmtbyid    00000001401dcfb0 f   jasperlib.obj
 0001:001dbff0       jas_image_lookupfmtbyname  00000001401dcff0 f   jasperlib.obj
 0001:001dc230       jas_image_getcmptbytype    00000001401dd230 f   jasperlib.obj
 0001:001dc270       jas_image_ishomosamp       00000001401dd270 f   jasperlib.obj
 0001:001dc4c0       jas_malloc                 00000001401dd4c0 f   jasperlib.obj
 0001:001dc4d0       jas_free                   00000001401dd4d0 f   jasperlib.obj
 0001:001dc4e0       jas_realloc                00000001401dd4e0 f   jasperlib.obj
 0001:001dc4f0       jas_calloc                 00000001401dd4f0 f   jasperlib.obj
 0001:001dc550       jas_matrix_destroy         00000001401dd550 f   jasperlib.obj
 0001:001dc5d0       jas_matrix_bindsub         00000001401dd5d0 f   jasperlib.obj
 0001:001dc700       jas_matrix_cmp             00000001401dd700 f   jasperlib.obj
 0001:001dc7c0       jas_matrix_divpow2         00000001401dd7c0 f   jasperlib.obj
 0001:001dc870       jas_matrix_clip            00000001401dd870 f   jasperlib.obj
 0001:001dc920       jas_matrix_asr             00000001401dd920 f   jasperlib.obj
 0001:001dc9e0       jas_matrix_asl             00000001401dd9e0 f   jasperlib.obj
 0001:001dca70       jas_matrix_resize          00000001401dda70 f   jasperlib.obj
 0001:001dcb00       jas_matrix_setall          00000001401ddb00 f   jasperlib.obj
 0001:001dcb80       jas_seq2d_output           00000001401ddb80 f   jasperlib.obj
 0001:001dceb0       jas_stream_ungetc          00000001401ddeb0 f   jasperlib.obj
 0001:001dcef0       jas_stream_isseekable      00000001401ddef0 f   jasperlib.obj
 0001:001dcf50       jas_stream_tell            00000001401ddf50 f   jasperlib.obj
 0001:001dd0e0       jas_stream_fillbuf         00000001401de0e0 f   jasperlib.obj
 0001:001dd250       jas_stream_flushbuf        00000001401de250 f   jasperlib.obj
 0001:001dd420       jas_stream_copy            00000001401de420 f   jasperlib.obj
 0001:001dd570       jas_stream_setrwcount      00000001401de570 f   jasperlib.obj
 0001:001dd580       jas_stream_display         00000001401de580 f   jasperlib.obj
 0001:001ddc10       jas_strdup                 00000001401dec10 f   jasperlib.obj
 0001:001ddc90       jas_tmr_start              00000001401dec90 f   jasperlib.obj
 0001:001ddca0       jas_tmr_stop               00000001401deca0 f   jasperlib.obj
 0001:001ddcb0       jas_tmr_get                00000001401decb0 f   jasperlib.obj
 0001:001ddcc0       jas_tvparser_destroy       00000001401decc0 f   jasperlib.obj
 0001:001ddcf0       jas_tvparser_next          00000001401decf0 f   jasperlib.obj
 0001:001ddee0       jas_tvparser_gettag        00000001401deee0 f   jasperlib.obj
 0001:001ddef0       jas_tvparser_getval        00000001401deef0 f   jasperlib.obj
 0001:001ddf00       jas_taginfos_lookup        00000001401def00 f   jasperlib.obj
 0001:001ddf60       jas_taginfo_nonull         00000001401def60 f   jasperlib.obj
 0001:001ddf80       jas_getversion             00000001401def80 f   jasperlib.obj
 0001:001ddf90       bmp_info_create            00000001401def90 f   jasperlib.obj
 0001:001ddfc0       bmp_info_destroy           00000001401defc0 f   jasperlib.obj
 0001:001ddff0       bmp_isgrayscalepal         00000001401deff0 f   jasperlib.obj
 0001:001de020       bmp_numcmpts               00000001401df020 f   jasperlib.obj
 0001:001de7e0       jp2_box_destroy            00000001401df7e0 f   jasperlib.obj
 0001:001df190       jp2_boxinfolookup          00000001401e0190 f   jasperlib.obj
 0001:001df6f0       jp2_cdef_lookup            00000001401e06f0 f   jasperlib.obj
 0001:001df9c0       jpc_bitstream_putbit_func  00000001401e09c0 f   jasperlib.obj
 0001:001dfb00       jpc_bitstream_putbits      00000001401e0b00 f   jasperlib.obj
 0001:001dfcf0       jpc_bitstream_fillbuf      00000001401e0cf0 f   jasperlib.obj
 0001:001dfe70       jpc_bitstream_needalign    00000001401e0e70 f   jasperlib.obj
 0001:001dff00       jpc_bitstream_pending      00000001401e0f00 f   jasperlib.obj
 0001:001dff20       jpc_bitstream_outalign     00000001401e0f20 f   jasperlib.obj
 0001:001e00f0       jpc_cstate_create          00000001401e10f0 f   jasperlib.obj
 0001:001e0120       jpc_cstate_destroy         00000001401e1120 f   jasperlib.obj
 0001:001e0130       jpc_ms_destroy             00000001401e1130 f   jasperlib.obj
 0001:001e0b80       jpc_getuint8               00000001401e1b80 f   jasperlib.obj
 0001:001e0c00       jpc_putuint8               00000001401e1c00 f   jasperlib.obj
 0001:001e0c80       jpc_getuint16              00000001401e1c80 f   jasperlib.obj
 0001:001e0d90       jpc_putuint16              00000001401e1d90 f   jasperlib.obj
 0001:001e0e90       jpc_getuint32              00000001401e1e90 f   jasperlib.obj
 0001:001e1070       jpc_putuint32              00000001401e2070 f   jasperlib.obj
 0001:001e1250       jpc_getdata                00000001401e2250 f   jasperlib.obj
 0001:001e1270       jpc_putdata                00000001401e2270 f   jasperlib.obj
 0001:001e1be0       jpc_seglist_insert         00000001401e2be0 f   jasperlib.obj
 0001:001e1c20       jpc_seglist_remove         00000001401e2c20 f   jasperlib.obj
 0001:001e1c70       jpc_seg_alloc              00000001401e2c70 f   jasperlib.obj
 0001:001e2060       jpc_streamlist_create      00000001401e3060 f   jasperlib.obj
 0001:001e2100       jpc_streamlist_insert      00000001401e3100 f   jasperlib.obj
 0001:001e21d0       jpc_streamlist_remove      00000001401e31d0 f   jasperlib.obj
 0001:001e2250       jpc_streamlist_get         00000001401e3250 f   jasperlib.obj
 0001:001e22a0       jpc_streamlist_numstreams  00000001401e32a0 f   jasperlib.obj
 0001:001e22b0       jpc_ppxstab_create         00000001401e32b0 f   jasperlib.obj
 0001:001e22e0       jpc_ppxstab_grow           00000001401e32e0 f   jasperlib.obj
 0001:001e2360       jpc_ppxstab_insert         00000001401e3360 f   jasperlib.obj
 0001:001e2480       jpc_ppxstabent_create      00000001401e3480 f   jasperlib.obj
 0001:001e24c0       jpc_ppxstabent_destroy     00000001401e34c0 f   jasperlib.obj
 0001:001e24f0       jpc_enc_cp_destroy         00000001401e34f0 f   jasperlib.obj
 0001:001e2540       ratestrtosize              00000001401e3540 f   jasperlib.obj
 0001:001e2600       dump_passes                00000001401e3600 f   jasperlib.obj
 0001:001e26b0       jpc_quantize               00000001401e36b0 f   jasperlib.obj
 0001:001e2770       calcrdslopes               00000001401e3770 f   jasperlib.obj
 0001:001e28f0       dump_layeringinfo          00000001401e38f0 f   jasperlib.obj
 0001:001e2b80       jpc_enc_dump               00000001401e3b80 f   jasperlib.obj
 0001:001e2e50       jpc_floorlog2              00000001401e3e50 f   jasperlib.obj
 0001:001e2ea0       jpc_firstone               00000001401e3ea0 f   jasperlib.obj
 0001:001e2ef0       jpc_rct                    00000001401e3ef0 f   jasperlib.obj
 0001:001e3020       jpc_irct                   00000001401e4020 f   jasperlib.obj
 0001:001e3150       jpc_ict                    00000001401e4150 f   jasperlib.obj
 0001:001e3350       jpc_iict                   00000001401e4350 f   jasperlib.obj
 0001:001e34e0       jpc_mct_getsynweight       00000001401e44e0 f   jasperlib.obj
 0001:001e3570       jpc_mqdec_destroy          00000001401e4570 f   jasperlib.obj
 0001:001e35a0       jpc_mqdec_setinput         00000001401e45a0 f   jasperlib.obj
 0001:001e35b0       jpc_mqdec_setctxs          00000001401e45b0 f   jasperlib.obj
 0001:001e3640       jpc_mqdec_setctx           00000001401e4640 f   jasperlib.obj
 0001:001e3680       jpc_mqdec_mpsexchrenormd   00000001401e4680 f   jasperlib.obj
 0001:001e37d0       jpc_mqdec_lpsexchrenormd   00000001401e47d0 f   jasperlib.obj
 0001:001e3a40       jpc_mqdec_dump             00000001401e4a40 f   jasperlib.obj
 0001:001e3b10       jpc_mqenc_destroy          00000001401e4b10 f   jasperlib.obj
 0001:001e3b40       jpc_mqenc_init             00000001401e4b40 f   jasperlib.obj
 0001:001e3b70       jpc_mqenc_setctxs          00000001401e4b70 f   jasperlib.obj
 0001:001e3c00       jpc_mqenc_getstate         00000001401e4c00 f   jasperlib.obj
 0001:001e3c20       jpc_mqenc_codemps2         00000001401e4c20 f   jasperlib.obj
 0001:001e3e60       jpc_mqenc_codelps          00000001401e4e60 f   jasperlib.obj
 0001:001e40e0       jpc_mqenc_dump             00000001401e50e0 f   jasperlib.obj
 0001:001e4190       jpc_qmfb_split_row         00000001401e5190 f   jasperlib.obj
 0001:001e4340       jpc_qmfb_split_col         00000001401e5340 f   jasperlib.obj
 0001:001e4560       jpc_qmfb_split_colgrp      00000001401e5560 f   jasperlib.obj
 0001:001e4830       jpc_qmfb_split_colres      00000001401e5830 f   jasperlib.obj
 0001:001e4b50       jpc_qmfb_join_row          00000001401e5b50 f   jasperlib.obj
 0001:001e4ca0       jpc_qmfb_join_col          00000001401e5ca0 f   jasperlib.obj
 0001:001e4e40       jpc_qmfb_join_colgrp       00000001401e5e40 f   jasperlib.obj
 0001:001e50c0       jpc_qmfb_join_colres       00000001401e60c0 f   jasperlib.obj
 0001:001e53b0       jpc_ft_fwdlift_row         00000001401e63b0 f   jasperlib.obj
 0001:001e5510       jpc_ft_fwdlift_col         00000001401e6510 f   jasperlib.obj
 0001:001e5690       jpc_ft_fwdlift_colgrp      00000001401e6690 f   jasperlib.obj
 0001:001e5c10       jpc_ft_fwdlift_colres      00000001401e6c10 f   jasperlib.obj
 0001:001e5ef0       jpc_ft_invlift_row         00000001401e6ef0 f   jasperlib.obj
 0001:001e6050       jpc_ft_invlift_col         00000001401e7050 f   jasperlib.obj
 0001:001e6200       jpc_ft_invlift_colgrp      00000001401e7200 f   jasperlib.obj
 0001:001e6760       jpc_ft_invlift_colres      00000001401e7760 f   jasperlib.obj
 0001:001e6a50       jpc_ft_analyze             00000001401e7a50 f   jasperlib.obj
 0001:001e6bc0       jpc_ft_synthesize          00000001401e7bc0 f   jasperlib.obj
 0001:001e6d30       jpc_ns_fwdlift_row         00000001401e7d30 f   jasperlib.obj
 0001:001e7050       jpc_ns_fwdlift_colgrp      00000001401e8050 f   jasperlib.obj
 0001:001e7d50       jpc_ns_fwdlift_colres      00000001401e8d50 f   jasperlib.obj
 0001:001e83c0       jpc_ns_fwdlift_col         00000001401e93c0 f   jasperlib.obj
 0001:001e8730       jpc_ns_invlift_row         00000001401e9730 f   jasperlib.obj
 0001:001e8a20       jpc_ns_invlift_colgrp      00000001401e9a20 f   jasperlib.obj
 0001:001e96f0       jpc_ns_invlift_colres      00000001401ea6f0 f   jasperlib.obj
 0001:001e9d20       jpc_ns_invlift_col         00000001401ead20 f   jasperlib.obj
 0001:001ea090       jpc_ns_analyze             00000001401eb090 f   jasperlib.obj
 0001:001ea200       jpc_ns_synthesize          00000001401eb200 f   jasperlib.obj
 0001:001ea370       JPC_PASSTYPE               00000001401eb370 f   jasperlib.obj
 0001:001ea3f0       JPC_NOMINALGAIN            00000001401eb3f0 f   jasperlib.obj
 0001:001ea4c0       JPC_SEGTYPE                00000001401eb4c0 f   jasperlib.obj
 0001:001ea520       JPC_SEGPASSCNT             00000001401eb520 f   jasperlib.obj
 0001:001ea5d0       JPC_ISTERMINATED           00000001401eb5d0 f   jasperlib.obj
 0001:001ea620       jpc_getsignmsedec_func     00000001401eb620 f   jasperlib.obj
 0001:001ea6f0       jpc_getzcctxno             00000001401eb6f0 f   jasperlib.obj
 0001:001ea870       jpc_getspb                 00000001401eb870 f   jasperlib.obj
 0001:001ea980       jpc_getscctxno             00000001401eb980 f   jasperlib.obj
 0001:001eab50       jpc_getmagctxno            00000001401ebb50 f   jasperlib.obj
 0001:001eabc0       jpc_initctxs               00000001401ebbc0 f   jasperlib.obj
 0001:001eac40       jpc_initmqctxs             00000001401ebc40 f   jasperlib.obj
 0001:001eacc0       jpc_pow2i                  00000001401ebcc0 f   jasperlib.obj
 0001:001f04a0       jpc_pchglist_create        00000001401f14a0 f   jasperlib.obj
 0001:001f04d0       jpc_pchglist_insert        00000001401f14d0 f   jasperlib.obj
 0001:001f0590       jpc_pchglist_remove        00000001401f1590 f   jasperlib.obj
 0001:001f0630       jpc_pchg_copy              00000001401f1630 f   jasperlib.obj
 0001:001f0680       jpc_pchg_destroy           00000001401f1680 f   jasperlib.obj
 0001:001f0690       jpc_pchglist_get           00000001401f1690 f   jasperlib.obj
 0001:001f06a0       jpc_pchglist_numpchgs      00000001401f16a0 f   jasperlib.obj
 0001:001f06b0       jpc_pi_init                00000001401f16b0 f   jasperlib.obj
 0001:001f0960       jpc_dec_lookahead          00000001401f1960 f   jasperlib.obj
 0001:001f0ef0       jpc_tagtree_destroy        00000001401f1ef0 f   jasperlib.obj
 0001:001f0f60       jpc_tagtree_copy           00000001401f1f60 f   jasperlib.obj
 0001:001f1000       jpc_tagtree_reset          00000001401f2000 f   jasperlib.obj
 0001:001f1030       jpc_tagtree_setvalue       00000001401f2030 f   jasperlib.obj
 0001:001f10a0       jpc_tagtree_getleaf        00000001401f20a0 f   jasperlib.obj
 0001:001f10c0       jpc_tagtree_encode         00000001401f20c0 f   jasperlib.obj
 0001:001f1450       jpc_tagtree_decode         00000001401f2450 f   jasperlib.obj
 0001:001f15b0       jpc_tagtree_dump           00000001401f25b0 f   jasperlib.obj
 0001:001f1630       jpc_cod_gettsfb            00000001401f2630 f   jasperlib.obj
 0001:001f16c0       jpc_tsfb_destroy           00000001401f26c0 f   jasperlib.obj
 0001:001f16d0       jpc_tsfb_analyze2          00000001401f26d0 f   jasperlib.obj
 0001:001f17e0       jpc_tsfb_analyze           00000001401f27e0 f   jasperlib.obj
 0001:001f1880       jpc_tsfb_synthesize2       00000001401f2880 f   jasperlib.obj
 0001:001f1990       jpc_tsfb_synthesize        00000001401f2990 f   jasperlib.obj
 0001:001f1a30       jpc_tsfb_getbands2         00000001401f2a30 f   jasperlib.obj
 0001:001f1e00       jpc_atoaf                  00000001401f2e00 f   jasperlib.obj
 0001:001f1fc0       jpc_seq_norm               00000001401f2fc0 f   jasperlib.obj
 0001:001f20e0       jpg_decode                 00000001401f30e0 f   jasperlib.obj
 0001:001f2130       jpg_encode                 00000001401f3130 f   jasperlib.obj
 0001:001f24f0       pgx_dumphdr                00000001401f34f0 f   jasperlib.obj
 0001:001f2db0       pnm_type                   00000001401f3db0 f   jasperlib.obj
 0001:001f2e40       pnm_fmt                    00000001401f3e40 f   jasperlib.obj
 0001:001f2e90       pnm_maxvaltodepth          00000001401f3e90 f   jasperlib.obj
 0001:001f3880       jas_cmxform_apply          00000001401f4880 f   jasperlib.obj
 0001:001f4840       jas_iccprof_getattr        00000001401f5840 f   jasperlib.obj
 0001:001f4990       jas_iccattrval_destroy     00000001401f5990 f   jasperlib.obj
 0001:001f49d0       jas_iccattrval_dump        00000001401f59d0 f   jasperlib.obj
 0001:001f53a0       jas_image_create0          00000001401f63a0 f   jasperlib.obj
 0001:001f5440       jas_image_encode           00000001401f6440 f   jasperlib.obj
 0001:001f54b0       jas_image_clearfmts        00000001401f64b0 f   jasperlib.obj
 0001:001f5550       jas_image_addfmt           00000001401f6550 f   jasperlib.obj
 0001:001f56a0       jas_image_strtofmt         00000001401f66a0 f   jasperlib.obj
 0001:001f56d0       jas_image_fmttostr         00000001401f66d0 f   jasperlib.obj
 0001:001f5b90       jas_cleanup                00000001401f6b90 f   jasperlib.obj
 0001:001f5ba0       jas_matrix_create          00000001401f6ba0 f   jasperlib.obj
 0001:001f5d20       jas_matrix_copy            00000001401f6d20 f   jasperlib.obj
 0001:001f5dd0       jas_seq2d_bindsub          00000001401f6dd0 f   jasperlib.obj
 0001:001f5e40       jas_stream_fopen           00000001401f6e40 f   jasperlib.obj
 0001:001f60b0       jas_stream_freopen         00000001401f70b0 f   jasperlib.obj
 0001:001f6240       jas_stream_tmpfile         00000001401f7240 f   jasperlib.obj
 0001:001f6440       jas_stream_fdopen          00000001401f7440 f   jasperlib.obj
 0001:001f6640       jas_stream_getc_func       00000001401f7640 f   jasperlib.obj
 0001:001f66f0       jas_stream_putc_func       00000001401f76f0 f   jasperlib.obj
 0001:001f67c0       jas_stream_read            00000001401f77c0 f   jasperlib.obj
 0001:001f6960       jas_stream_write           00000001401f7960 f   jasperlib.obj
 0001:001f6b20       jas_stream_puts            00000001401f7b20 f   jasperlib.obj
 0001:001f6cd0       jas_stream_gets            00000001401f7cd0 f   jasperlib.obj
 0001:001f6ea0       jas_stream_gobble          00000001401f7ea0 f   jasperlib.obj
 0001:001f6f60       jas_stream_pad             00000001401f7f60 f   jasperlib.obj
 0001:001f7010       jas_stream_flush           00000001401f8010 f   jasperlib.obj
 0001:001f7030       jas_tvparser_create        00000001401f8030 f   jasperlib.obj
 0001:001f70b0       bmp_validate               00000001401f80b0 f   jasperlib.obj
 0001:001f7a10       jp2_box_create             00000001401f8a10 f   jasperlib.obj
 0001:001f7ac0       jp2_box_dump               00000001401f8ac0 f   jasperlib.obj
 0001:001f8a50       jp2_validate               00000001401f9a50 f   jasperlib.obj
 0001:001f8b50       jpc_bitstream_sopen        00000001401f9b50 f   jasperlib.obj
 0001:001f8c60       jpc_bitstream_getbit_func  00000001401f9c60 f   jasperlib.obj
 0001:001f8cc0       jpc_bitstream_getbits      00000001401f9cc0 f   jasperlib.obj
 0001:001f8ef0       jpc_bitstream_inalign      00000001401f9ef0 f   jasperlib.obj
 0001:001f8ff0       jpc_ms_create              00000001401f9ff0 f   jasperlib.obj
 0001:001f9090       jpc_ms_dump                00000001401fa090 f   jasperlib.obj
 0001:001fade0       jpc_validate               00000001401fbde0 f   jasperlib.obj
 0001:001fba40       jpc_ppxstab_destroy        00000001401fca40 f   jasperlib.obj
 0001:001fbad0       jpc_pptstabwrite           00000001401fcad0 f   jasperlib.obj
 0001:001fcd30       jpc_mqdec_init             00000001401fdd30 f   jasperlib.obj
 0001:001fce00       jpc_mqdec_getbit_func      00000001401fde00 f   jasperlib.obj
 0001:001fce70       jpc_mqenc_create           00000001401fde70 f   jasperlib.obj
 0001:001fcf40       jpc_mqenc_putbit_func      00000001401fdf40 f   jasperlib.obj
 0001:001fd1d0       jpc_mqenc_flush            00000001401fe1d0 f   jasperlib.obj
 0001:001fda10       jpc_initluts               00000001401fea10 f   jasperlib.obj
 0001:00200290       jpc_pi_next                0000000140201290 f   jasperlib.obj
 0001:002003a0       jpc_pi_create0             00000001402013a0 f   jasperlib.obj
 0001:00200420       jpc_pi_addpchg             0000000140201420 f   jasperlib.obj
 0001:002004e0       jpc_pchglist_destroy       00000001402014e0 f   jasperlib.obj
 0001:00200690       jpc_save_t2state           0000000140201690 f   jasperlib.obj
 0001:00200980       jpc_restore_t2state        0000000140201980 f   jasperlib.obj
 0001:00200c70       jpc_tagtree_create         0000000140201c70 f   jasperlib.obj
 0001:00200f00       jpc_tsfb_getbands          0000000140201f00 f   jasperlib.obj
 0001:00201050       jpg_validate               0000000140202050 f   jasperlib.obj
 0001:002010f0       mif_validate               00000001402020f0 f   jasperlib.obj
 0001:00201780       pgx_validate               0000000140202780 f   jasperlib.obj
 0001:002019f0       pnm_validate               00000001402029f0 f   jasperlib.obj
 0001:00202210       ras_validate               0000000140203210 f   jasperlib.obj
 0001:00203110       jas_iccattrtab_dump        0000000140204110 f   jasperlib.obj
 0001:00203590       jas_iccattrval_create      0000000140204590 f   jasperlib.obj
 0001:00203650       jas_iccattrval_allowmodify 0000000140204650 f   jasperlib.obj
 0001:00205680       jas_seq2d_create           0000000140206680 f   jasperlib.obj
 0001:00205710       jas_seq2d_copy             0000000140206710 f   jasperlib.obj
 0001:00205860       jas_seq2d_input            0000000140206860 f   jasperlib.obj
 0001:00205a40       jas_stream_close           0000000140206a40 f   jasperlib.obj
 0001:00205ab0       jas_stream_printf          0000000140206ab0 f   jasperlib.obj
 0001:00205b40       jas_stream_seek            0000000140206b40 f   jasperlib.obj
 0001:00205c20       jas_stream_length          0000000140206c20 f   jasperlib.obj
 0001:00205d20       jpc_bitstream_align        0000000140206d20 f   jasperlib.obj
 0001:00206ba0       jpc_seg_destroy            0000000140207ba0 f   jasperlib.obj
 0001:00206c30       jpc_streamlist_destroy     0000000140207c30 f   jasperlib.obj
 0001:00206ee0       jpc_mqdec_create           0000000140207ee0 f   jasperlib.obj
 0001:00206fc0       getthebyte                 0000000140207fc0 f   jasperlib.obj
 0001:002070a0       jpc_pi_destroy             00000001402080a0 f   jasperlib.obj
 0001:002071c0       jpc_pchglist_copy          00000001402081c0 f   jasperlib.obj
 0001:00207380       jpc_dec_pi_create          0000000140208380 f   jasperlib.obj
 0001:00207770       jpc_enc_pi_create          0000000140208770 f   jasperlib.obj
 0001:00207b80       jpc_seq_upsample           0000000140208b80 f   jasperlib.obj
 0001:00207cd0       jpc_seq_conv               0000000140208cd0 f   jasperlib.obj
 0001:00208bc0       jas_iccprof_dump           0000000140209bc0 f   jasperlib.obj
 0001:00208ff0       jas_iccprof_setattr        0000000140209ff0 f   jasperlib.obj
 0001:00209230       jas_image_readcmpt         000000014020a230 f   jasperlib.obj
 0001:00209540       jas_image_writecmpt        000000014020a540 f   jasperlib.obj
 0001:00209850       jas_image_delcmpt          000000014020a850 f   jasperlib.obj
 0001:002098e0       jas_image_readcmptsample   000000014020a8e0 f   jasperlib.obj
 0001:00209a30       jas_image_writecmptsample  000000014020aa30 f   jasperlib.obj
 0001:00209b80       jas_image_readcmpt2        000000014020ab80 f   jasperlib.obj
 0001:00209d10       jas_image_writecmpt2       000000014020ad10 f   jasperlib.obj
 0001:00209e90       jas_stream_memopen         000000014020ae90 f   jasperlib.obj
 0001:0020a0a0       jas_stream_rewind          000000014020b0a0 f   jasperlib.obj
 0001:0020af90       jp2_box_get                000000014020bf90 f   jasperlib.obj
 0001:0020b270       jp2_box_put                000000014020c270 f   jasperlib.obj
 0001:0020b470       jpc_bitstream_close        000000014020c470 f   jasperlib.obj
 0001:0020b510       jpc_getms                  000000014020c510 f   jasperlib.obj
 0001:0020b810       jpc_putms                  000000014020c810 f   jasperlib.obj
 0001:0020d1f0       jpc_ppmstabtostreams       000000014020e1f0 f   jasperlib.obj
 0001:0020e850       jpc_enc_enccblk            000000014020f850 f   jasperlib.obj
 0001:0020fea0       jpc_dec_decodepkts         0000000140210ea0 f   jasperlib.obj
 0001:002101a0       jpc_enc_encpkt             00000001402111a0 f   jasperlib.obj
 0001:00210f90       jpc_init_t2state           0000000140211f90 f   jasperlib.obj
 0001:00213290       jas_cmxform_destroy        0000000140214290 f   jasperlib.obj
 0001:00213ec0       jas_iccprof_destroy        0000000140214ec0 f   jasperlib.obj
 0001:00213f00       jas_iccprof_save           0000000140214f00 f   jasperlib.obj
 0001:00214880       jas_image_addcmpt          0000000140215880 f   jasperlib.obj
 0001:002149c0       jas_image_copycmpt         00000001402159c0 f   jasperlib.obj
 0001:00214a90       jas_image_dump             0000000140215a90 f   jasperlib.obj
 0001:00214ee0       jas_image_depalettize      0000000140215ee0 f   jasperlib.obj
 0001:00215080       jas_image_sampcmpt         0000000140216080 f   jasperlib.obj
 0001:00215770       bmp_encode                 0000000140216770 f   jasperlib.obj
 0001:00215bf0       rateallocate               0000000140216bf0 f   jasperlib.obj
 0001:00216fb0       jpc_dec_decodecblks        0000000140217fb0 f   jasperlib.obj
 0001:00217140       jpc_enc_enccblks           0000000140218140 f   jasperlib.obj
 0001:002174b0       jpc_enc_encpkts            00000001402184b0 f   jasperlib.obj
 0001:00217610       pgx_encode                 0000000140218610 f   jasperlib.obj
 0001:00217820       pnm_encode                 0000000140218820 f   jasperlib.obj
 0001:00217d00       jas_cmprof_destroy         0000000140218d00 f   jasperlib.obj
 0001:00217db0       jas_cmxform_create         0000000140218db0 f   jasperlib.obj
 0001:00218260       jas_iccprof_copy           0000000140219260 f   jasperlib.obj
 0001:00218320       jas_iccprof_load           0000000140219320 f   jasperlib.obj
 0001:00218620       jas_iccprof_createfrombuf  0000000140219620 f   jasperlib.obj
 0001:00218680       jas_iccprof_createfromclrspc 0000000140219680 f   jasperlib.obj
 0001:00218720       jas_image_destroy          0000000140219720 f   jasperlib.obj
 0001:002191e0       jpc_enc_encodetiledata     000000014021a1e0 f   jasperlib.obj
 0001:00219650       mif_encode                 000000014021a650 f   jasperlib.obj
 0001:00219a20       pgx_decode                 000000014021aa20 f   jasperlib.obj
 0001:00219b60       ras_encode                 000000014021ab60 f   jasperlib.obj
 0001:00219fa0       jas_cmprof_createfromiccprof 000000014021afa0 f   jasperlib.obj
 0001:0021a2a0       jas_cmprof_copy            000000014021b2a0 f   jasperlib.obj
 0001:0021a410       jas_iccprof_createfromcmprof 000000014021b410 f   jasperlib.obj
 0001:0021a420       jas_image_create           000000014021b420 f   jasperlib.obj
 0001:0021a6a0       jas_image_copy             000000014021b6a0 f   jasperlib.obj
 0001:0021a7c0       jas_image_chclrspc         000000014021b7c0 f   jasperlib.obj
 0001:0021b780       bmp_decode                 000000014021c780 f   jasperlib.obj
 0001:0021bb60       jpc_decode                 000000014021cb60 f   jasperlib.obj
 0001:0021c720       pnm_decode                 000000014021d720 f   jasperlib.obj
 0001:0021c8f0       ras_decode                 000000014021d8f0 f   jasperlib.obj
 0001:0021cca0       jas_cmprof_createfromclrspc 000000014021dca0 f   jasperlib.obj
 0001:0021cda0       jas_image_decode           000000014021dda0 f   jasperlib.obj
 0001:0021ce90       jp2_decode                 000000014021de90 f   jasperlib.obj
 0001:0021da60       jpc_enc_tile_destroy       000000014021ea60 f   jasperlib.obj
 0001:0021ded0       mif_decode                 000000014021eed0 f   jasperlib.obj
 0001:0021e340       jpc_enc_destroy            000000014021f340 f   jasperlib.obj
 0001:0021e420       jpc_enc_tile_create        000000014021f420 f   jasperlib.obj
 0001:0021e800       jpc_enc_create             000000014021f800 f   jasperlib.obj
 0001:0021fce0       jpc_encode                 0000000140220ce0 f   jasperlib.obj
 0001:0021fe50       jp2_encode                 0000000140220e50 f   jasperlib.obj
 0001:00220740       jas_init                   0000000140221740 f   jasperlib.obj
 0001:00220f76       SQLFreeEnv                 0000000140221f76 f   odbc32:ODBC32.dll
 0001:00220f7c       SQLFreeConnect             0000000140221f7c f   odbc32:ODBC32.dll
 0001:00220f82       SQLDisconnect              0000000140221f82 f   odbc32:ODBC32.dll
 0001:00220f88       SQLFreeStmt                0000000140221f88 f   odbc32:ODBC32.dll
 0001:00220f8e       SQLError                   0000000140221f8e f   odbc32:ODBC32.dll
 0001:00220f94       SQLExecDirect              0000000140221f94 f   odbc32:ODBC32.dll
 0001:00220f9a       SQLAllocStmt               0000000140221f9a f   odbc32:ODBC32.dll
 0001:00220fa0       SQLConnect                 0000000140221fa0 f   odbc32:ODBC32.dll
 0001:00220fa6       SQLAllocConnect            0000000140221fa6 f   odbc32:ODBC32.dll
 0001:00220fac       SQLAllocEnv                0000000140221fac f   odbc32:ODBC32.dll
 0001:00220fb2       SQLTables                  0000000140221fb2 f   odbc32:ODBC32.dll
 0001:00220fb8       SQLBindCol                 0000000140221fb8 f   odbc32:ODBC32.dll
 0001:00220fbe       SQLFetch                   0000000140221fbe f   odbc32:ODBC32.dll
 0001:00220fd0       SQLInstallTranslatorExW    0000000140221fd0 f   odbccp32:funcload.obj
 0001:00221050       SQLInstallDriverExW        0000000140222050 f   odbccp32:funcload.obj
 0001:002210d0       SQLWriteFileDSNW           00000001402220d0 f   odbccp32:funcload.obj
 0001:00221130       SQLReadFileDSNW            0000000140222130 f   odbccp32:funcload.obj
 0001:002211a0       SQLPostInstallerErrorW     00000001402221a0 f   odbccp32:funcload.obj
 0001:002211e0       SQLInstallerErrorW         00000001402221e0 f   odbccp32:funcload.obj
 0001:00221250       SQLConfigDriverW           0000000140222250 f   odbccp32:funcload.obj
 0001:002212d0       SQLRemoveDriverW           00000001402222d0 f   odbccp32:funcload.obj
 0001:00221330       SQLRemoveTranslatorW       0000000140222330 f   odbccp32:funcload.obj
 0001:00221380       SQLInstallTranslatorW      0000000140222380 f   odbccp32:funcload.obj
 0001:00221410       SQLGetPrivateProfileStringW 0000000140222410 f   odbccp32:funcload.obj
 0001:00221480       SQLWritePrivateProfileStringW 0000000140222480 f   odbccp32:funcload.obj
 0001:002214e0       SQLValidDSNW               00000001402224e0 f   odbccp32:funcload.obj
 0001:00221510       SQLGetTranslatorW          0000000140222510 f   odbccp32:funcload.obj
 0001:002215a0       SQLCreateDataSourceW       00000001402225a0 f   odbccp32:funcload.obj
 0001:002215f0       SQLInstallODBCW            00000001402225f0 f   odbccp32:funcload.obj
 0001:00221650       SQLRemoveDSNFromIniW       0000000140222650 f   odbccp32:funcload.obj
 0001:00221680       SQLWriteDSNToIniW          0000000140222680 f   odbccp32:funcload.obj
 0001:002216d0       SQLConfigDataSourceW       00000001402226d0 f   odbccp32:funcload.obj
 0001:00221730       SQLGetAvailableDriversW    0000000140222730 f   odbccp32:funcload.obj
 0001:00221790       SQLGetInstalledDriversW    0000000140222790 f   odbccp32:funcload.obj
 0001:002217f0       SQLInstallDriverManagerW   00000001402227f0 f   odbccp32:funcload.obj
 0001:00221850       SQLInstallDriverW          0000000140222850 f   odbccp32:funcload.obj
 0001:002218c0       SQLInstallTranslatorEx     00000001402228c0 f   odbccp32:funcload.obj
 0001:00221940       SQLSetConfigMode           0000000140222940 f   odbccp32:funcload.obj
 0001:00221970       SQLGetConfigMode           0000000140222970 f   odbccp32:funcload.obj
 0001:002219a0       SQLInstallDriverEx         00000001402229a0 f   odbccp32:funcload.obj
 0001:00221a20       SQLWriteFileDSN            0000000140222a20 f   odbccp32:funcload.obj
 0001:00221a80       SQLReadFileDSN             0000000140222a80 f   odbccp32:funcload.obj
 0001:00221af0       SQLPostInstallerError      0000000140222af0 f   odbccp32:funcload.obj
 0001:00221b30       SQLInstallerError          0000000140222b30 f   odbccp32:funcload.obj
 0001:00221ba0       SQLConfigDriver            0000000140222ba0 f   odbccp32:funcload.obj
 0001:00221c20       SQLRemoveDriver            0000000140222c20 f   odbccp32:funcload.obj
 0001:00221c80       SQLRemoveTranslator        0000000140222c80 f   odbccp32:funcload.obj
 0001:00221cd0       SQLInstallTranslator       0000000140222cd0 f   odbccp32:funcload.obj
 0001:00221d60       SQLRemoveDriverManager     0000000140222d60 f   odbccp32:funcload.obj
 0001:00221d90       SQLGetPrivateProfileString 0000000140222d90 f   odbccp32:funcload.obj
 0001:00221e00       SQLWritePrivateProfileString 0000000140222e00 f   odbccp32:funcload.obj
 0001:00221e60       SQLValidDSN                0000000140222e60 f   odbccp32:funcload.obj
 0001:00221e90       SQLGetTranslator           0000000140222e90 f   odbccp32:funcload.obj
 0001:00221f20       SQLCreateDataSource        0000000140222f20 f   odbccp32:funcload.obj
 0001:00221f70       SQLManageDataSources       0000000140222f70 f   odbccp32:funcload.obj
 0001:00221fa0       SQLInstallODBC             0000000140222fa0 f   odbccp32:funcload.obj
 0001:00222000       SQLRemoveDSNFromIni        0000000140223000 f   odbccp32:funcload.obj
 0001:00222030       SQLWriteDSNToIni           0000000140223030 f   odbccp32:funcload.obj
 0001:00222080       SQLRemoveDefaultDataSource 0000000140223080 f   odbccp32:funcload.obj
 0001:002220b0       SQLConfigDataSource        00000001402230b0 f   odbccp32:funcload.obj
 0001:00222110       SQLGetAvailableDrivers     0000000140223110 f   odbccp32:funcload.obj
 0001:00222170       SQLGetInstalledDrivers     0000000140223170 f   odbccp32:funcload.obj
 0001:002221d0       SQLInstallDriverManager    00000001402231d0 f   odbccp32:funcload.obj
 0001:00222230       SQLInstallDriver           0000000140223230 f   odbccp32:funcload.obj
 0001:00222340       StringCchPrintfA           0000000140223340 f i odbccp32:dllload.obj
 0001:00222460       ODBC___GetSetupProc        0000000140223460 f   odbccp32:dllload.obj
 0001:00222670       WSAStartup                 0000000140223670 f   wsock32:WSOCK32.dll
 0001:00222676       WSACleanup                 0000000140223676 f   wsock32:WSOCK32.dll
 0001:0022267c       closesocket                000000014022367c f   wsock32:WSOCK32.dll
 0001:00222682       shutdown                   0000000140223682 f   wsock32:WSOCK32.dll
 0001:00222688       inet_addr                  0000000140223688 f   wsock32:WSOCK32.dll
 0001:0022268e       gethostbyname              000000014022368e f   wsock32:WSOCK32.dll
 0001:00222694       htons                      0000000140223694 f   wsock32:WSOCK32.dll
 0001:0022269a       getservbyname              000000014022369a f   wsock32:WSOCK32.dll
 0001:002226a0       accept                     00000001402236a0 f   wsock32:WSOCK32.dll
 0001:002226a6       connect                    00000001402236a6 f   wsock32:WSOCK32.dll
 0001:002226ac       setsockopt                 00000001402236ac f   wsock32:WSOCK32.dll
 0001:002226b2       socket                     00000001402236b2 f   wsock32:WSOCK32.dll
 0001:002226b8       select                     00000001402236b8 f   wsock32:WSOCK32.dll
 0001:002226be       send                       00000001402236be f   wsock32:WSOCK32.dll
 0001:002226c4       recv                       00000001402236c4 f   wsock32:WSOCK32.dll
 0001:002226ca       WSAGetLastError            00000001402236ca f   wsock32:WSOCK32.dll
 0001:002226d0       bind                       00000001402236d0 f   wsock32:WSOCK32.dll
 0001:002226d6       listen                     00000001402236d6 f   wsock32:WSOCK32.dll
 0001:002226dc       inet_ntoa                  00000001402236dc f   wsock32:WSOCK32.dll
 0001:002226e2       MessageBoxA                00000001402236e2 f   user32:USER32.dll
 0001:002226e8       LoadStringA                00000001402236e8 f   user32:USER32.dll
 0001:002226ee       Sleep                      00000001402236ee f   kernel32:KERNEL32.dll
 0001:002226f4       LeaveCriticalSection       00000001402236f4 f   kernel32:KERNEL32.dll
 0001:002226fa       EnterCriticalSection       00000001402236fa f   kernel32:KERNEL32.dll
 0001:00222700       InitializeCriticalSection  0000000140223700 f   kernel32:KERNEL32.dll
 0001:00222706       GetProcAddress             0000000140223706 f   kernel32:KERNEL32.dll
 0001:0022270c       LoadLibraryA               000000014022370c f   kernel32:KERNEL32.dll
 0001:00222712       HeapUnlock                 0000000140223712 f   kernel32:KERNEL32.dll
 0001:00222718       HeapLock                   0000000140223718 f   kernel32:KERNEL32.dll
 0001:0022271e       GetProcessHeap             000000014022371e f   kernel32:KERNEL32.dll
 0001:00222724       ReadFile                   0000000140223724 f   kernel32:KERNEL32.dll
 0001:0022272a       CloseHandle                000000014022372a f   kernel32:KERNEL32.dll
 0001:00222730       CreateFileA                0000000140223730 f   kernel32:KERNEL32.dll
 0001:00222736       DeleteCriticalSection      0000000140223736 f   kernel32:KERNEL32.dll
 0001:0022273c       CallNamedPipeA             000000014022373c f   kernel32:KERNEL32.dll
 0001:00222742       WaitNamedPipeA             0000000140223742 f   kernel32:KERNEL32.dll
 0001:00222748       GetDiskFreeSpaceExA        0000000140223748 f   kernel32:KERNEL32.dll
 0001:0022274e       FindClose                  000000014022374e f   kernel32:KERNEL32.dll
 0001:00222754       FindNextFileA              0000000140223754 f   kernel32:KERNEL32.dll
 0001:0022275a       FindFirstFileA             000000014022375a f   kernel32:KERNEL32.dll
 0001:00222760       GetTickCount               0000000140223760 f   kernel32:KERNEL32.dll
 0001:00222766       CreateThread               0000000140223766 f   kernel32:KERNEL32.dll
 0001:0022276c       WaitForSingleObject        000000014022376c f   kernel32:KERNEL32.dll
 0001:00222772       GetLastError               0000000140223772 f   kernel32:KERNEL32.dll
 0001:00222778       CreateProcessA             0000000140223778 f   kernel32:KERNEL32.dll
 0001:0022277e       WinExec                    000000014022377e f   kernel32:KERNEL32.dll
 0001:00222784       UnmapViewOfFile            0000000140223784 f   kernel32:KERNEL32.dll
 0001:0022278a       MapViewOfFile              000000014022378a f   kernel32:KERNEL32.dll
 0001:00222790       OpenFileMappingA           0000000140223790 f   kernel32:KERNEL32.dll
 0001:00222796       SetEnvironmentVariableA    0000000140223796 f   kernel32:KERNEL32.dll
 0001:0022279c       OutputDebugStringW         000000014022379c f   kernel32:KERNEL32.dll
 0001:002227a2       OutputDebugStringA         00000001402237a2 f   kernel32:KERNEL32.dll
 0001:002227a8       SetFilePointerEx           00000001402237a8 f   kernel32:KERNEL32.dll
 0001:002227ae       WaitForSingleObjectEx      00000001402237ae f   kernel32:KERNEL32.dll
 0001:002227b4       WriteFile                  00000001402237b4 f   kernel32:KERNEL32.dll
 0001:002227ba       WideCharToMultiByte        00000001402237ba f   kernel32:KERNEL32.dll
 0001:002227c0       UnlockFileEx               00000001402237c0 f   kernel32:KERNEL32.dll
 0001:002227c6       UnlockFile                 00000001402237c6 f   kernel32:KERNEL32.dll
 0001:002227cc       SystemTimeToFileTime       00000001402237cc f   kernel32:KERNEL32.dll
 0001:002227d2       SetFilePointer             00000001402237d2 f   kernel32:KERNEL32.dll
 0001:002227d8       SetEndOfFile               00000001402237d8 f   kernel32:KERNEL32.dll
 0001:002227de       QueryPerformanceCounter    00000001402237de f   kernel32:KERNEL32.dll
 0001:002227e4       MultiByteToWideChar        00000001402237e4 f   kernel32:KERNEL32.dll
 0001:002227ea       LockFileEx                 00000001402237ea f   kernel32:KERNEL32.dll
 0001:002227f0       LockFile                   00000001402237f0 f   kernel32:KERNEL32.dll
 0001:002227f6       LocalFree                  00000001402237f6 f   kernel32:KERNEL32.dll
 0001:002227fc       LoadLibraryW               00000001402237fc f   kernel32:KERNEL32.dll
 0001:00222802       HeapValidate               0000000140223802 f   kernel32:KERNEL32.dll
 0001:00222808       HeapSize                   0000000140223808 f   kernel32:KERNEL32.dll
 0001:0022280e       HeapReAlloc                000000014022380e f   kernel32:KERNEL32.dll
 0001:00222814       HeapFree                   0000000140223814 f   kernel32:KERNEL32.dll
 0001:0022281a       HeapDestroy                000000014022381a f   kernel32:KERNEL32.dll
 0001:00222820       HeapCreate                 0000000140223820 f   kernel32:KERNEL32.dll
 0001:00222826       HeapAlloc                  0000000140223826 f   kernel32:KERNEL32.dll
 0001:0022282c       GetVersionExA              000000014022382c f   kernel32:KERNEL32.dll
 0001:00222832       GetTempPathW               0000000140223832 f   kernel32:KERNEL32.dll
 0001:00222838       GetTempPathA               0000000140223838 f   kernel32:KERNEL32.dll
 0001:0022283e       GetSystemTimeAsFileTime    000000014022383e f   kernel32:KERNEL32.dll
 0001:00222844       GetSystemTime              0000000140223844 f   kernel32:KERNEL32.dll
 0001:0022284a       GetSystemInfo              000000014022384a f   kernel32:KERNEL32.dll
 0001:00222850       GetFullPathNameW           0000000140223850 f   kernel32:KERNEL32.dll
 0001:00222856       GetFullPathNameA           0000000140223856 f   kernel32:KERNEL32.dll
 0001:0022285c       GetFileSize                000000014022385c f   kernel32:KERNEL32.dll
 0001:00222862       GetFileAttributesExW       0000000140223862 f   kernel32:KERNEL32.dll
 0001:00222868       GetFileAttributesW         0000000140223868 f   kernel32:KERNEL32.dll
 0001:0022286e       GetFileAttributesA         000000014022386e f   kernel32:KERNEL32.dll
 0001:00222874       GetDiskFreeSpaceW          0000000140223874 f   kernel32:KERNEL32.dll
 0001:0022287a       GetDiskFreeSpaceA          000000014022387a f   kernel32:KERNEL32.dll
 0001:00222880       GetCurrentProcessId        0000000140223880 f   kernel32:KERNEL32.dll
 0001:00222886       FreeLibrary                0000000140223886 f   kernel32:KERNEL32.dll
 0001:0022288c       FormatMessageW             000000014022388c f   kernel32:KERNEL32.dll
 0001:00222892       FormatMessageA             0000000140223892 f   kernel32:KERNEL32.dll
 0001:00222898       FlushFileBuffers           0000000140223898 f   kernel32:KERNEL32.dll
 0001:0022289e       DeleteFileW                000000014022389e f   kernel32:KERNEL32.dll
 0001:002228a4       DeleteFileA                00000001402238a4 f   kernel32:KERNEL32.dll
 0001:002228aa       CreateMutexW               00000001402238aa f   kernel32:KERNEL32.dll
 0001:002228b0       CreateFileMappingW         00000001402238b0 f   kernel32:KERNEL32.dll
 0001:002228b6       CreateFileW                00000001402238b6 f   kernel32:KERNEL32.dll
 0001:002228bc       AreFileApisANSI            00000001402238bc f   kernel32:KERNEL32.dll
 0001:002228c2       GetModuleFileNameA         00000001402238c2 f   kernel32:KERNEL32.dll
 0001:002228c8       GetModuleHandleA           00000001402238c8 f   kernel32:KERNEL32.dll
 0001:002228ce       GetSystemDirectoryA        00000001402238ce f   kernel32:KERNEL32.dll
 0001:002228e0       jpeg_CreateDecompress      00000001402238e0 f   libjpeg:jdapimin.obj
 0001:00222a10       jpeg_destroy_decompress    0000000140223a10 f   libjpeg:jdapimin.obj
 0001:00222a20       jpeg_abort_decompress      0000000140223a20 f   libjpeg:jdapimin.obj
 0001:00222c10       jpeg_consume_input         0000000140223c10 f   libjpeg:jdapimin.obj
 0001:00222d00       jpeg_input_complete        0000000140223d00 f   libjpeg:jdapimin.obj
 0001:00222d60       jpeg_has_multiple_scans    0000000140223d60 f   libjpeg:jdapimin.obj
 0001:00222dc0       jpeg_finish_decompress     0000000140223dc0 f   libjpeg:jdapimin.obj
 0001:00222e90       jpeg_read_header           0000000140223e90 f   libjpeg:jdapimin.obj
 0001:00223030       jpeg_read_scanlines        0000000140224030 f   libjpeg:jdapistd.obj
 0001:002232c0       jpeg_read_raw_data         00000001402242c0 f   libjpeg:jdapistd.obj
 0001:002234d0       jpeg_start_output          00000001402244d0 f   libjpeg:jdapistd.obj
 0001:00223550       jpeg_finish_output         0000000140224550 f   libjpeg:jdapistd.obj
 0001:002235f0       jpeg_start_decompress      00000001402245f0 f   libjpeg:jdapistd.obj
 0001:002237b0       jpeg_calc_output_dimensions 00000001402247b0 f   libjpeg:jdmaster.obj
 0001:00223d90       jpeg_new_colormap          0000000140224d90 f   libjpeg:jdmaster.obj
 0001:00223e20       jinit_master_decompress    0000000140224e20 f   libjpeg:jdmaster.obj
 0001:00225b30       jpeg_resync_to_restart     0000000140226b30 f   libjpeg:jdmarker.obj
 0001:00225db0       jinit_marker_reader        0000000140226db0 f   libjpeg:jdmarker.obj
 0001:00225e80       jpeg_save_markers          0000000140226e80 f   libjpeg:jdmarker.obj
 0001:00225f50       jpeg_set_marker_processor  0000000140226f50 f   libjpeg:jdmarker.obj
 0001:00226170       jpeg_std_error             0000000140227170 f   libjpeg:jerror.obj
 0001:002261e0       jpeg_CreateCompress        00000001402271e0 f   libjpeg:jcapimin.obj
 0001:00226310       jpeg_destroy_compress      0000000140227310 f   libjpeg:jcapimin.obj
 0001:00226320       jpeg_abort_compress        0000000140227320 f   libjpeg:jcapimin.obj
 0001:00226330       jpeg_suppress_tables       0000000140227330 f   libjpeg:jcapimin.obj
 0001:00226390       jpeg_finish_compress       0000000140227390 f   libjpeg:jcapimin.obj
 0001:002264b0       jpeg_write_marker          00000001402274b0 f   libjpeg:jcapimin.obj
 0001:00226550       jpeg_write_m_header        0000000140227550 f   libjpeg:jcapimin.obj
 0001:002265c0       jpeg_write_m_byte          00000001402275c0 f   libjpeg:jcapimin.obj
 0001:002265d0       jpeg_write_tables          00000001402275d0 f   libjpeg:jcapimin.obj
 0001:00226630       jpeg_start_compress        0000000140227630 f   libjpeg:jcapistd.obj
 0001:002266c0       jpeg_write_scanlines       00000001402276c0 f   libjpeg:jcapistd.obj
 0001:002267a0       jpeg_write_raw_data        00000001402277a0 f   libjpeg:jcapistd.obj
 0001:00226b10       jpeg_stdio_dest            0000000140227b10 f   libjpeg:jdatadst.obj
 0001:00226b70       jpeg_add_quant_table       0000000140227b70 f   libjpeg:jcparam.obj
 0001:00226c80       jpeg_set_linear_quality    0000000140227c80 f   libjpeg:jcparam.obj
 0001:00226e20       jpeg_quality_scaling       0000000140227e20 f   libjpeg:jcparam.obj
 0001:00226e50       jpeg_set_quality           0000000140227e50 f   libjpeg:jcparam.obj
 0001:00227350       jpeg_set_colorspace        0000000140228350 f   libjpeg:jcparam.obj
 0001:002279a0       jpeg_simple_progression    00000001402289a0 f   libjpeg:jcparam.obj
 0001:00227d20       jpeg_default_colorspace    0000000140228d20 f   libjpeg:jcparam.obj
 0001:00227dc0       jpeg_simple_lossless       0000000140228dc0 f   libjpeg:jcparam.obj
 0001:00227ed0       jpeg_set_defaults          0000000140228ed0 f   libjpeg:jcparam.obj
 0001:00228560       jinit_input_controller     0000000140229560 f   libjpeg:jdinput.obj
 0001:00229810       jinit_memory_mgr           000000014022a810 f   libjpeg:jmemmgr.obj
 0001:002299a0       jpeg_abort                 000000014022a9a0 f   libjpeg:jcomapi.obj
 0001:00229a10       jpeg_destroy               000000014022aa10 f   libjpeg:jcomapi.obj
 0001:00229a50       jpeg_alloc_quant_table     000000014022aa50 f   libjpeg:jcomapi.obj
 0001:00229a70       jpeg_alloc_huff_table      000000014022aa70 f   libjpeg:jcomapi.obj
 0001:0022a240       jinit_d_main_controller    000000014022b240 f   libjpeg:jdmainct.obj
 0001:0022a6c0       jinit_d_post_controller    000000014022b6c0 f   libjpeg:jdpostct.obj
 0001:0022adb0       jinit_upsampler            000000014022bdb0 f   libjpeg:jdsample.obj
 0001:0022b690       jinit_color_deconverter    000000014022c690 f   libjpeg:jdcolor.obj
 0001:0022bec0       jinit_merged_upsampler     000000014022cec0 f   libjpeg:jdmerge.obj
 0001:0022dac0       jinit_2pass_quantizer      000000014022eac0 f   libjpeg:jquant2.obj
 0001:0022eca0       jinit_1pass_quantizer      000000014022fca0 f   libjpeg:jquant1.obj
 0001:0022ed60       jdiv_round_up              000000014022fd60 f   libjpeg:jutils.obj
 0001:0022ed70       jround_up                  000000014022fd70 f   libjpeg:jutils.obj
 0001:0022ed90       jcopy_sample_rows          000000014022fd90 f   libjpeg:jutils.obj
 0001:0022ee00       jcopy_block_row            000000014022fe00 f   libjpeg:jutils.obj
 0001:0022ee20       jzero_far                  000000014022fe20 f   libjpeg:jutils.obj
 0001:00230030       jinit_marker_writer        0000000140231030 f   libjpeg:jcmarker.obj
 0001:002300b0       jinit_compress_master      00000001402310b0 f   libjpeg:jcinit.obj
 0001:00230120       jinit_c_codec              0000000140231120 f   libjpeg:jcodec.obj
 0001:00230140       jinit_d_codec              0000000140231140 f   libjpeg:jcodec.obj
 0001:00230160       jpeg_get_small             0000000140231160 f   libjpeg:jmemnobs.obj
 0001:00230170       jpeg_free_small            0000000140231170 f   libjpeg:jmemnobs.obj
 0001:00230180       jpeg_get_large             0000000140231180 f   libjpeg:jmemnobs.obj
 0001:00230190       jpeg_free_large            0000000140231190 f   libjpeg:jmemnobs.obj
 0001:002301a0       jpeg_mem_available         00000001402311a0 f   libjpeg:jmemnobs.obj
 0001:002301b0       jpeg_open_backing_store    00000001402311b0 f   libjpeg:jmemnobs.obj
 0001:002301c0       jpeg_mem_init              00000001402311c0 f   libjpeg:jmemnobs.obj
 0001:002301d0       jpeg_mem_term              00000001402311d0 f   libjpeg:jmemnobs.obj
 0001:00230310       jinit_c_main_controller    0000000140231310 f   libjpeg:jcmainct.obj
 0001:00230b30       jinit_c_prep_controller    0000000140231b30 f   libjpeg:jcprepct.obj
 0001:00231650       jinit_downsampler          0000000140232650 f   libjpeg:jcsample.obj
 0001:00232520       jinit_color_converter      0000000140233520 f   libjpeg:jccolor.obj
 0001:00233550       jinit_c_master_control     0000000140234550 f   libjpeg:jcmaster.obj
 0001:002336a0       jinit_lossy_c_codec        00000001402346a0 f   libjpeg:jclossy.obj
 0001:00233790       jinit_lossless_c_codec     0000000140234790 f   libjpeg:jclossls.obj
 0001:00233b10       jinit_lossy_d_codec        0000000140234b10 f   libjpeg:jdlossy.obj
 0001:00233c10       jinit_lossless_d_codec     0000000140234c10 f   libjpeg:jdlossls.obj
 0001:00234660       jinit_c_coef_controller    0000000140235660 f   libjpeg:jccoefct.obj
 0001:002353c0       jinit_shuff_encoder        00000001402363c0 f   libjpeg:jcshuff.obj
 0001:00236500       jinit_phuff_encoder        0000000140237500 f   libjpeg:jcphuff.obj
 0001:00237370       jinit_forward_dct          0000000140238370 f   libjpeg:jcdctmgr.obj
 0001:00237ce0       jinit_c_diff_controller    0000000140238ce0 f   libjpeg:jcdiffct.obj
 0001:002388b0       jinit_lhuff_encoder        00000001402398b0 f   libjpeg:jclhuff.obj
 0001:00239020       jinit_differencer          000000014023a020 f   libjpeg:jcpred.obj
 0001:002390d0       jinit_c_scaler             000000014023a0d0 f   libjpeg:jcscale.obj
 0001:0023a310       jinit_d_coef_controller    000000014023b310 f   libjpeg:jdcoefct.obj
 0001:0023abb0       jinit_shuff_decoder        000000014023bbb0 f   libjpeg:jdshuff.obj
 0001:0023ba70       jinit_phuff_decoder        000000014023ca70 f   libjpeg:jdphuff.obj
 0001:0023bf20       jinit_inverse_dct          000000014023cf20 f   libjpeg:jddctmgr.obj
 0001:0023c880       jinit_d_diff_controller    000000014023d880 f   libjpeg:jddiffct.obj
 0001:0023cb60       jinit_d_scaler             000000014023db60 f   libjpeg:jdscale.obj
 0001:0023d040       jinit_undifferencer        000000014023e040 f   libjpeg:jdpred.obj
 0001:0023d520       jinit_lhuff_decoder        000000014023e520 f   libjpeg:jdlhuff.obj
 0001:0023d580       jpeg_make_c_derived_tbl    000000014023e580 f   libjpeg:jchuff.obj
 0001:0023d800       jpeg_gen_optimal_table     000000014023e800 f   libjpeg:jchuff.obj
 0001:0023db60       jpeg_fdct_islow            000000014023eb60 f   libjpeg:jfdctint.obj
 0001:0023de70       jpeg_fdct_ifast            000000014023ee70 f   libjpeg:jfdctfst.obj
 0001:0023e570       jpeg_fdct_float            000000014023f570 f   libjpeg:jfdctflt.obj
 0001:0023f8a0       jpeg_make_d_derived_tbl    00000001402408a0 f   libjpeg:jdhuff.obj
 0001:0023fbb0       jpeg_fill_bit_buffer       0000000140240bb0 f   libjpeg:jdhuff.obj
 0001:0023fd10       jpeg_huff_decode           0000000140240d10 f   libjpeg:jdhuff.obj
 0001:0023fe20       jpeg_idct_4x4              0000000140240e20 f   libjpeg:jidctred.obj
 0001:00240270       jpeg_idct_2x2              0000000140241270 f   libjpeg:jidctred.obj
 0001:00240540       jpeg_idct_1x1              0000000140241540 f   libjpeg:jidctred.obj
 0001:00240590       jpeg_idct_islow            0000000140241590 f   libjpeg:jidctint.obj
 0001:00240bf0       jpeg_idct_ifast            0000000140241bf0 f   libjpeg:jidctfst.obj
 0001:00241170       jpeg_idct_float            0000000140242170 f   libjpeg:jidctflt.obj
 0001:00241718       _Tolower                   0000000140242718 f   libcpmt:_tolower.obj
 0001:00241848       _Getctype                  0000000140242848 f   libcpmt:_tolower.obj
 0001:002418b4       ??0_Init_locks@std@@QEAA@XZ 00000001402428b4 f   libcpmt:xlock.obj
 0001:00241900       ??1_Init_locks@std@@QEAA@XZ 0000000140242900 f   libcpmt:xlock.obj
 0001:0024193c       ?_Init_locks_ctor@_Init_locks@std@@CAXPEAV12@@Z 000000014024293c f   libcpmt:xlock.obj
 0001:00241978       ?_Init_locks_dtor@_Init_locks@std@@CAXPEAV12@@Z 0000000140242978 f   libcpmt:xlock.obj
 0001:002419b4       ??0_Lockit@std@@QEAA@XZ    00000001402429b4 f   libcpmt:xlock.obj
 0001:002419d8       ??0_Lockit@std@@QEAA@H@Z   00000001402429d8 f   libcpmt:xlock.obj
 0001:00241a08       ??1_Lockit@std@@QEAA@XZ    0000000140242a08 f   libcpmt:xlock.obj
 0001:00241a30       ?_Lockit_ctor@_Lockit@std@@CAXPEAV12@@Z 0000000140242a30 f   libcpmt:xlock.obj
 0001:00241a3c       ?_Lockit_ctor@_Lockit@std@@CAXPEAV12@H@Z 0000000140242a3c f   libcpmt:xlock.obj
 0001:00241a58       ?_Lockit_dtor@_Lockit@std@@CAXPEAV12@@Z 0000000140242a58 f   libcpmt:xlock.obj
 0001:00241a70       ?_Lockit_ctor@_Lockit@std@@SAXH@Z 0000000140242a70 f   libcpmt:xlock.obj
 0001:00241a8c       ?_Lockit_dtor@_Lockit@std@@SAXH@Z 0000000140242a8c f   libcpmt:xlock.obj
 0001:00241aa8       ??2@YAPEAX_KPEAX@Z         0000000140242aa8 f i libcpmt:locale0.obj
 0001:00241aac       ??3@YAXPEAX0@Z             0000000140242aac f i libcpmt:locale0.obj
 0001:00241ab0       ??0locale@std@@QEAA@W4_Uninitialized@1@@Z 0000000140242ab0 f i libcpmt:locale0.obj
 0001:00241ab4       ??0locale@std@@AEAA@PEAV_Locimp@01@@Z 0000000140242ab4 f i libcpmt:locale0.obj
 0001:00241abc       ??0_Fac_node@std@@QEAA@PEAU01@PEAVfacet@locale@1@@Z 0000000140242abc f i libcpmt:locale0.obj
 0001:00241ac8       ??1_Fac_node@std@@QEAA@XZ  0000000140242ac8 f i libcpmt:locale0.obj
 0001:00241b2c       ??_G_Fac_node@std@@QEAAPEAXI@Z 0000000140242b2c f i libcpmt:locale0.obj
 0001:00241b5c       ?_Facet_Register@facet@locale@std@@CAXPEAV123@@Z 0000000140242b5c f   libcpmt:locale0.obj
 0001:00241b90       _Deletegloballocale        0000000140242b90 f   libcpmt:locale0.obj
 0001:00241c2c       ?_Getgloballocale@locale@std@@CAPEAV_Locimp@12@XZ 0000000140242c2c f   libcpmt:locale0.obj
 0001:00241c34       ?_Setgloballocale@locale@std@@CAXPEAX@Z 0000000140242c34 f   libcpmt:locale0.obj
 0001:00241c68       ?_Locimp_dtor@_Locimp@locale@std@@CAXPEAV123@@Z 0000000140242c68 f   libcpmt:locale0.obj
 0001:00241d14       ?_Empty@?$_Yarn@D@std@@QEBA_NXZ 0000000140242d14 f i libcpmt:locale0.obj
 0001:00241d20       ?_C_str@?$_Yarn@D@std@@QEBAPEBDXZ 0000000140242d20 f i libcpmt:locale0.obj
 0001:00241d84       ??1_Fac_tidy_reg_t@std@@QEAA@XZ 0000000140242d84 f i libcpmt:locale0.obj
 0001:00241dd8       ?_Locinfo_dtor@_Locinfo@std@@SAXPEAV12@@Z 0000000140242dd8 f   libcpmt:locale0.obj
 0001:00241df4       ??4?$_Yarn@D@std@@QEAAAEAV01@PEBD@Z 0000000140242df4 f i libcpmt:locale0.obj
 0001:00241e6c       ?_Locinfo_ctor@_Locinfo@std@@SAXPEAV12@PEBD@Z 0000000140242e6c f   libcpmt:locale0.obj
 0001:00241ed8       ??0?$_Yarn@D@std@@QEAA@PEBD@Z 0000000140242ed8 f i libcpmt:locale0.obj
 0001:00241ef8       ??0_Locimp@locale@std@@AEAA@_N@Z 0000000140242ef8 f i libcpmt:locale0.obj
 0001:00241f44       ??1_Locimp@locale@std@@MEAA@XZ 0000000140242f44 f i libcpmt:locale0.obj
 0001:00241f90       ??_E_Locimp@locale@std@@MEAAPEAXI@Z 0000000140242f90 f i libcpmt:locale0.obj
 0001:00241f90       ??_G_Locimp@locale@std@@MEAAPEAXI@Z 0000000140242f90 f i libcpmt:locale0.obj
 0001:00241ff8       ?_Init@locale@std@@CAPEAV_Locimp@12@XZ 0000000140242ff8 f   libcpmt:locale0.obj
 0001:002420f4       ?classic@locale@std@@SAAEBV12@XZ 00000001402430f4 f   libcpmt:locale0.obj
 0001:0024210c       ?empty@locale@std@@SA?AV12@XZ 000000014024310c f   libcpmt:locale0.obj
 0001:00242188       ??0error_category@std@@QEAA@XZ 0000000140243188 f i libcpmt:syserror.obj
 0001:00242198       ??1error_category@std@@UEAA@XZ 0000000140243198 f i libcpmt:syserror.obj
 0001:002421a4       ??8error_category@std@@QEBA_NAEBV01@@Z 00000001402431a4 f i libcpmt:syserror.obj
 0001:002421ac       ??_Gerror_category@std@@UEAAPEAXI@Z 00000001402431ac f i libcpmt:syserror.obj
 0001:002421ac       ??_Eerror_category@std@@UEAAPEAXI@Z 00000001402431ac f i libcpmt:syserror.obj
 0001:002421d4       ?value@error_code@std@@QEBAHXZ 00000001402431d4 f i libcpmt:syserror.obj
 0001:002421d8       ?category@error_code@std@@QEBAAEBVerror_category@2@XZ 00000001402431d8 f i libcpmt:syserror.obj
 0001:002421e0       ??0error_condition@std@@QEAA@HAEBVerror_category@1@@Z 00000001402431e0 f i libcpmt:syserror.obj
 0001:002421ec       ?value@error_condition@std@@QEBAHXZ 00000001402431ec f i libcpmt:syserror.obj
 0001:002421f0       ?category@error_condition@std@@QEBAAEBVerror_category@2@XZ 00000001402431f0 f i libcpmt:syserror.obj
 0001:002421f8       ??8error_condition@std@@QEBA_NAEBV01@@Z 00000001402431f8 f i libcpmt:syserror.obj
 0001:00242214       ?default_error_condition@error_category@std@@UEBA?AVerror_condition@2@H@Z 0000000140243214 f i libcpmt:syserror.obj
 0001:00242220       ?equivalent@error_category@std@@UEBA_NHAEBVerror_condition@2@@Z 0000000140243220 f i libcpmt:syserror.obj
 0001:00242258       ?equivalent@error_category@std@@UEBA_NAEBVerror_code@2@H@Z 0000000140243258 f i libcpmt:syserror.obj
 0001:0024226c       ??0_Generic_error_category@std@@QEAA@XZ 000000014024326c f i libcpmt:syserror.obj
 0001:00242288       ?length@?$char_traits@D@std@@SA_KPEBD@Z 0000000140243288 f i libcpmt:syserror.obj
 0001:00242290       ?name@_Generic_error_category@std@@UEBAPEBDXZ 0000000140243290 f i libcpmt:syserror.obj
 0001:00242298       ??1_Generic_error_category@std@@UEAA@XZ 0000000140243298 f i libcpmt:syserror.obj
 0001:002422a4       ??0_Iostream_error_category@std@@QEAA@XZ 00000001402432a4 f i libcpmt:syserror.obj
 0001:002422c0       ?name@_Iostream_error_category@std@@UEBAPEBDXZ 00000001402432c0 f i libcpmt:syserror.obj
 0001:002422c8       ??1_Iostream_error_category@std@@UEAA@XZ 00000001402432c8 f i libcpmt:syserror.obj
 0001:002422d4       ??0_System_error_category@std@@QEAA@XZ 00000001402432d4 f i libcpmt:syserror.obj
 0001:002422f8       ?name@_System_error_category@std@@UEBAPEBDXZ 00000001402432f8 f i libcpmt:syserror.obj
 0001:00242300       ?default_error_condition@_System_error_category@std@@UEBA?AVerror_condition@2@H@Z 0000000140243300 f i libcpmt:syserror.obj
 0001:0024230c       ??1_System_error_category@std@@UEAA@XZ 000000014024330c f i libcpmt:syserror.obj
 0001:00242318       ?generic_category@std@@YAAEBVerror_category@1@XZ 0000000140243318 f   libcpmt:syserror.obj
 0001:00242320       ?iostream_category@std@@YAAEBVerror_category@1@XZ 0000000140243320 f   libcpmt:syserror.obj
 0001:00242328       ?system_category@std@@YAAEBVerror_category@1@XZ 0000000140243328 f   libcpmt:syserror.obj
 0001:00242330       ?_Myptr@?$basic_string@DU?$char_traits@D@std@@V?$allocator@D@2@@std@@QEBAPEBDXZ 0000000140243330 f i libcpmt:syserror.obj
 0001:00242340       ??_E_Generic_error_category@std@@UEAAPEAXI@Z 0000000140243340 f i libcpmt:syserror.obj
 0001:00242340       ??_G_Generic_error_category@std@@UEAAPEAXI@Z 0000000140243340 f i libcpmt:syserror.obj
 0001:00242368       ??_E_Iostream_error_category@std@@UEAAPEAXI@Z 0000000140243368 f i libcpmt:syserror.obj
 0001:00242368       ??_G_Iostream_error_category@std@@UEAAPEAXI@Z 0000000140243368 f i libcpmt:syserror.obj
 0001:00242390       ??_G_System_error_category@std@@UEAAPEAXI@Z 0000000140243390 f i libcpmt:syserror.obj
 0001:00242390       ??_E_System_error_category@std@@UEAAPEAXI@Z 0000000140243390 f i libcpmt:syserror.obj
 0001:002423b8       ?_Inside@?$basic_string@DU?$char_traits@D@std@@V?$allocator@D@2@@std@@QEAA_NPEBD@Z 00000001402433b8 f i libcpmt:syserror.obj
 0001:002423f8       ?assign@?$basic_string@DU?$char_traits@D@std@@V?$allocator@D@2@@std@@QEAAAEAV12@AEBV12@_K1@Z 00000001402433f8 f i libcpmt:syserror.obj
 0001:002424f4       ?assign@?$basic_string@DU?$char_traits@D@std@@V?$allocator@D@2@@std@@QEAAAEAV12@PEBD_K@Z 00000001402434f4 f i libcpmt:syserror.obj
 0001:002425ec       ?assign@?$basic_string@DU?$char_traits@D@std@@V?$allocator@D@2@@std@@QEAAAEAV12@PEBD@Z 00000001402435ec f i libcpmt:syserror.obj
 0001:0024261c       ??0?$basic_string@DU?$char_traits@D@std@@V?$allocator@D@2@@std@@QEAA@PEBD@Z 000000014024361c f i libcpmt:syserror.obj
 0001:00242660       ?message@_Generic_error_category@std@@UEBA?AV?$basic_string@DU?$char_traits@D@std@@V?$allocator@D@2@@2@H@Z 0000000140243660 f i libcpmt:syserror.obj
 0001:002426b4       ?message@_Iostream_error_category@std@@UEBA?AV?$basic_string@DU?$char_traits@D@std@@V?$allocator@D@2@@2@H@Z 00000001402436b4 f i libcpmt:syserror.obj
 0001:00242730       ?_Callfns@ios_base@std@@AEAAXW4event@12@@Z 0000000140243730 f i libcpmt:ios.obj
 0001:00242770       ?_Tidy@ios_base@std@@AEAAXXZ 0000000140243770 f i libcpmt:ios.obj
 0001:002427e0       ?_Addstd@ios_base@std@@SAXPEAV12@@Z 00000001402437e0 f   libcpmt:ios.obj
 0001:00242854       ?_Ios_base_dtor@ios_base@std@@CAXPEAV12@@Z 0000000140243854 f   libcpmt:ios.obj
 0001:002428a0       ??_U@YAPEAX_K@Z            00000001402438a0 f   libcpmt:newaop.obj
 0001:002428a8       ??0logic_error@std@@QEAA@PEBD@Z 00000001402438a8 f i libcpmt:xthrow.obj
 0001:002428d4       ??1logic_error@std@@UEAA@XZ 00000001402438d4 f i libcpmt:xthrow.obj
 0001:002428dc       ??0invalid_argument@std@@QEAA@PEBD@Z 00000001402438dc f i libcpmt:xthrow.obj
 0001:00242908       ??1invalid_argument@std@@UEAA@XZ 0000000140243908 f i libcpmt:xthrow.obj
 0001:00242910       ??0length_error@std@@QEAA@PEBD@Z 0000000140243910 f i libcpmt:xthrow.obj
 0001:0024293c       ??1length_error@std@@UEAA@XZ 000000014024393c f i libcpmt:xthrow.obj
 0001:00242944       ??0out_of_range@std@@QEAA@PEBD@Z 0000000140243944 f i libcpmt:xthrow.obj
 0001:00242970       ??1out_of_range@std@@UEAA@XZ 0000000140243970 f i libcpmt:xthrow.obj
 0001:00242978       ??0overflow_error@std@@QEAA@PEBD@Z 0000000140243978 f i libcpmt:xthrow.obj
 0001:002429a4       ??1overflow_error@std@@UEAA@XZ 00000001402439a4 f i libcpmt:xthrow.obj
 0001:002429ac       ?_Xinvalid_argument@std@@YAXPEBD@Z 00000001402439ac f   libcpmt:xthrow.obj
 0001:002429e4       ??0logic_error@std@@QEAA@AEBV01@@Z 00000001402439e4 f i libcpmt:xthrow.obj
 0001:00242a08       ?_Xlength_error@std@@YAXPEBD@Z 0000000140243a08 f   libcpmt:xthrow.obj
 0001:00242a40       ??0length_error@std@@QEAA@AEBV01@@Z 0000000140243a40 f i libcpmt:xthrow.obj
 0001:00242a64       ?_Xout_of_range@std@@YAXPEBD@Z 0000000140243a64 f   libcpmt:xthrow.obj
 0001:00242a9c       ??0out_of_range@std@@QEAA@AEBV01@@Z 0000000140243a9c f i libcpmt:xthrow.obj
 0001:00242ac0       ?_Xoverflow_error@std@@YAXPEBD@Z 0000000140243ac0 f   libcpmt:xthrow.obj
 0001:00242af8       ?_Xruntime_error@std@@YAXPEBD@Z 0000000140243af8 f   libcpmt:xthrow.obj
 0001:00242b30       ??_Glogic_error@std@@UEAAPEAXI@Z 0000000140243b30 f i libcpmt:xthrow.obj
 0001:00242b30       ??_Elogic_error@std@@UEAAPEAXI@Z 0000000140243b30 f i libcpmt:xthrow.obj
 0001:00242b60       ??_Einvalid_argument@std@@UEAAPEAXI@Z 0000000140243b60 f i libcpmt:xthrow.obj
 0001:00242b60       ??_Ginvalid_argument@std@@UEAAPEAXI@Z 0000000140243b60 f i libcpmt:xthrow.obj
 0001:00242b90       ??_Glength_error@std@@UEAAPEAXI@Z 0000000140243b90 f i libcpmt:xthrow.obj
 0001:00242b90       ??_Elength_error@std@@UEAAPEAXI@Z 0000000140243b90 f i libcpmt:xthrow.obj
 0001:00242bc0       ??_Eout_of_range@std@@UEAAPEAXI@Z 0000000140243bc0 f i libcpmt:xthrow.obj
 0001:00242bc0       ??_Gout_of_range@std@@UEAAPEAXI@Z 0000000140243bc0 f i libcpmt:xthrow.obj
 0001:00242bf0       ??_Goverflow_error@std@@UEAAPEAXI@Z 0000000140243bf0 f i libcpmt:xthrow.obj
 0001:00242bf0       ??_Eoverflow_error@std@@UEAAPEAXI@Z 0000000140243bf0 f i libcpmt:xthrow.obj
 0001:00242c20       ??0invalid_argument@std@@QEAA@AEBV01@@Z 0000000140243c20 f i libcpmt:xthrow.obj
 0001:00242c44       ??0overflow_error@std@@QEAA@AEBV01@@Z 0000000140243c44 f i libcpmt:xthrow.obj
 0001:00242c68       _Toupper                   0000000140243c68 f   libcpmt:_toupper.obj
 0001:00242da8       ??0_Mutex@std@@QEAA@XZ     0000000140243da8 f   libcpmt:xmutex.obj
 0001:00242dd0       ??1_Mutex@std@@QEAA@XZ     0000000140243dd0 f   libcpmt:xmutex.obj
 0001:00242df0       ?_Lock@_Mutex@std@@QEAAXXZ 0000000140243df0 f   libcpmt:xmutex.obj
 0001:00242df8       ?_Unlock@_Mutex@std@@QEAAXXZ 0000000140243df8 f   libcpmt:xmutex.obj
 0001:00242e00       ?_Mutex_ctor@_Mutex@std@@CAXPEAV12@@Z 0000000140243e00 f   libcpmt:xmutex.obj
 0001:00242e24       ?_Mutex_dtor@_Mutex@std@@CAXPEAV12@@Z 0000000140243e24 f   libcpmt:xmutex.obj
 0001:00242e44       ?_Mutex_Lock@_Mutex@std@@CAXPEAV12@@Z 0000000140243e44 f   libcpmt:xmutex.obj
 0001:00242e4c       ?_Mutex_Unlock@_Mutex@std@@CAXPEAV12@@Z 0000000140243e4c f   libcpmt:xmutex.obj
 0001:00242e54       ?_Xfsopen@std@@YAPEAU_iobuf@@PEBDHH@Z 0000000140243e54 f   libcpmt:fiopen.obj
 0001:00242e68       ?_Xfsopen@std@@YAPEAU_iobuf@@PEB_WHH@Z 0000000140243e68 f   libcpmt:fiopen.obj
 0001:00242e7c       ??$_Xfiopen@D@std@@YAPEAU_iobuf@@PEBDHH@Z 0000000140243e7c f i libcpmt:fiopen.obj
 0001:00242f78       ??$_Xfiopen@_W@std@@YAPEAU_iobuf@@PEB_WHH@Z 0000000140243f78 f i libcpmt:fiopen.obj
 0001:00243074       ?_Fiopen@std@@YAPEAU_iobuf@@PEBDHH@Z 0000000140244074 f   libcpmt:fiopen.obj
 0001:0024307c       ?_Fiopen@std@@YAPEAU_iobuf@@PEB_WHH@Z 000000014024407c f   libcpmt:fiopen.obj
 0001:00243084       ?_Fiopen@std@@YAPEAU_iobuf@@PEBGHH@Z 0000000140244084 f   libcpmt:fiopen.obj
 0001:0024308c       _Once                      000000014024408c f   libcpmt:xmtx.obj
 0001:002430d4       _Mtxinit                   00000001402440d4 f   libcpmt:xmtx.obj
 0001:002430dc       _Mtxdst                    00000001402440dc f   libcpmt:xmtx.obj
 0001:002430e4       _Mtxlock                   00000001402440e4 f   libcpmt:xmtx.obj
 0001:002430ec       _Mtxunlock                 00000001402440ec f   libcpmt:xmtx.obj
 0001:002430f4       ?_Atexit@@YAXP6AXXZ@Z      00000001402440f4 f   libcpmt:iosptrs.obj
 0001:00243134       ??1_Init_atexit@@QEAA@XZ   0000000140244134 f i libcpmt:iosptrs.obj
 0001:00243170       strchr                     0000000140244170 f   LIBCMT:strchr.obj
 0001:0024318c       strrchr                    000000014024418c f   LIBCMT:strrchr.obj
 0001:002431b4       strstr                     00000001402441b4 f   LIBCMT:strstr.obj
 0001:0024320c       memchr                     000000014024420c f   LIBCMT:memchr.obj
 0001:00243228       _ctime64_s                 0000000140244228 f   LIBCMT:ctime64.obj
 0001:002432cc       _ctime64                   00000001402442cc f   LIBCMT:ctime64.obj
 0001:00243338       _invoke_watson_if_error    0000000140244338 f i LIBCMT:loctim64.obj
 0001:0024336c       _localtime64_s             000000014024436c f   LIBCMT:loctim64.obj
 0001:00243688       _localtime64               0000000140244688 f   LIBCMT:loctim64.obj
 0001:00243984       _mktime64                  0000000140244984 f   LIBCMT:mktime64.obj
 0001:00243990       _mkgmtime64                0000000140244990 f   LIBCMT:mktime64.obj
 0001:00243998       _time64                    0000000140244998 f   LIBCMT:time64.obj
 0001:00243a10       memset                     0000000140244a10 f   LIBCMT:memset.obj
 0001:00243b10       memmove                    0000000140244b10     LIBCMT:memcpy.obj
 0001:00243b10       memcpy                     0000000140244b10 f   LIBCMT:memcpy.obj
 0001:00243e44       _fsopen                    0000000140244e44 f   LIBCMT:fopen.obj
 0001:00243f1c       fopen                      0000000140244f1c f   LIBCMT:fopen.obj
 0001:00243f28       fopen_s                    0000000140244f28 f   LIBCMT:fopen.obj
 0001:00243f7c       _fclose_nolock             0000000140244f7c f   LIBCMT:fclose.obj
 0001:00243ff8       fclose                     0000000140244ff8 f   LIBCMT:fclose.obj
 0001:00244060       _fwrite_nolock             0000000140245060 f   LIBCMT:fwrite.obj
 0001:002441ec       fwrite                     00000001402451ec f   LIBCMT:fwrite.obj
 0001:0024427c       _fread_nolock_s            000000014024527c f   LIBCMT:fread.obj
 0001:002444b4       _fread_nolock              00000001402454b4 f   LIBCMT:fread.obj
 0001:002444d4       fread_s                    00000001402454d4 f   LIBCMT:fread.obj
 0001:0024457c       fread                      000000014024557c f   LIBCMT:fread.obj
 0001:0024459c       feof                       000000014024559c f   LIBCMT:feoferr.obj
 0001:002445c4       ferror                     00000001402455c4 f   LIBCMT:feoferr.obj
 0001:002445ec       ??0exception@std@@QEAA@XZ  00000001402455ec f   LIBCMT:stdexcpt.obj
 0001:00244604       ??0exception@std@@QEAA@AEBQEBDH@Z 0000000140245604 f   LIBCMT:stdexcpt.obj
 0001:00244620       ?what@exception@std@@UEBAPEBDXZ 0000000140245620 f   LIBCMT:stdexcpt.obj
 0001:00244634       ?_Copy_str@exception@std@@AEAAXPEBD@Z 0000000140245634 f   LIBCMT:stdexcpt.obj
 0001:00244690       ?_Tidy@exception@std@@AEAAXXZ 0000000140245690 f   LIBCMT:stdexcpt.obj
 0001:002446b8       ??0exception@std@@QEAA@AEBQEBD@Z 00000001402456b8 f   LIBCMT:stdexcpt.obj
 0001:002446e8       ??4exception@std@@QEAAAEAV01@AEBV01@@Z 00000001402456e8 f   LIBCMT:stdexcpt.obj
 0001:0024472c       ??1exception@std@@UEAA@XZ  000000014024572c f   LIBCMT:stdexcpt.obj
 0001:0024473c       ??0bad_cast@std@@QEAA@PEBD@Z 000000014024573c f   LIBCMT:stdexcpt.obj
 0001:00244768       ??1bad_cast@std@@UEAA@XZ   0000000140245768 f   LIBCMT:stdexcpt.obj
 0001:00244778       ??0bad_typeid@std@@QEAA@PEBD@Z 0000000140245778 f   LIBCMT:stdexcpt.obj
 0001:002447a4       ??1bad_typeid@std@@UEAA@XZ 00000001402457a4 f   LIBCMT:stdexcpt.obj
 0001:002447b4       ??0__non_rtti_object@std@@QEAA@PEBD@Z 00000001402457b4 f   LIBCMT:stdexcpt.obj
 0001:002447d8       ??1__non_rtti_object@std@@UEAA@XZ 00000001402457d8 f   LIBCMT:stdexcpt.obj
 0001:002447e8       ??_Gexception@std@@UEAAPEAXI@Z 00000001402457e8 f i LIBCMT:stdexcpt.obj
 0001:002447e8       ??_Eexception@std@@UEAAPEAXI@Z 00000001402457e8 f i LIBCMT:stdexcpt.obj
 0001:00244824       ??0exception@std@@QEAA@AEBV01@@Z 0000000140245824 f   LIBCMT:stdexcpt.obj
 0001:00244850       ??_Gbad_cast@std@@UEAAPEAXI@Z 0000000140245850 f i LIBCMT:stdexcpt.obj
 0001:00244850       ??_Ebad_cast@std@@UEAAPEAXI@Z 0000000140245850 f i LIBCMT:stdexcpt.obj
 0001:0024488c       ??0bad_cast@std@@QEAA@AEBV01@@Z 000000014024588c f   LIBCMT:stdexcpt.obj
 0001:002448b0       ??_Gbad_typeid@std@@UEAAPEAXI@Z 00000001402458b0 f i LIBCMT:stdexcpt.obj
 0001:002448b0       ??_Ebad_typeid@std@@UEAAPEAXI@Z 00000001402458b0 f i LIBCMT:stdexcpt.obj
 0001:002448ec       ??0bad_typeid@std@@QEAA@AEBV01@@Z 00000001402458ec f   LIBCMT:stdexcpt.obj
 0001:00244910       ??_E__non_rtti_object@std@@UEAAPEAXI@Z 0000000140245910 f i LIBCMT:stdexcpt.obj
 0001:00244910       ??_G__non_rtti_object@std@@UEAAPEAXI@Z 0000000140245910 f i LIBCMT:stdexcpt.obj
 0001:0024494c       ??0__non_rtti_object@std@@QEAA@AEBV01@@Z 000000014024594c f   LIBCMT:stdexcpt.obj
 0001:00244970       ?name@type_info@@QEBAPEBDPEAU__type_info_node@@@Z 0000000140245970 f   LIBCMT:typinfo.obj
 0001:00244978       ??1type_info@@UEAA@XZ      0000000140245978 f   LIBCMT:typinfo.obj
 0001:00244988       ??_Etype_info@@UEAAPEAXI@Z 0000000140245988 f i LIBCMT:typinfo.obj
 0001:00244988       ??_Gtype_info@@UEAAPEAXI@Z 0000000140245988 f i LIBCMT:typinfo.obj
 0001:002449c4       ?_name_internal_method@type_info@@QEBAPEBDPEAU__type_info_node@@@Z 00000001402459c4 f   LIBCMT:typinfo.obj
 0001:002449cc       ?_type_info_dtor_internal_method@type_info@@QEAAXXZ 00000001402459cc f   LIBCMT:typinfo.obj
 0001:002449d4       ??8type_info@@QEBA_NAEBV0@@Z 00000001402459d4 f   LIBCMT:typinfo.obj
 0001:002449f4       ??9type_info@@QEBA_NAEBV0@@Z 00000001402459f4 f   LIBCMT:typinfo.obj
 0001:00244a14       ?before@type_info@@QEBAHAEBV1@@Z 0000000140245a14 f   LIBCMT:typinfo.obj
 0001:00244a38       ?raw_name@type_info@@QEBAPEBDXZ 0000000140245a38 f   LIBCMT:typinfo.obj
 0001:00244a40       ??0type_info@@AEAA@AEBV0@@Z 0000000140245a40 f   LIBCMT:typinfo.obj
 0001:00244a50       ??4type_info@@AEAAAEAV0@AEBV0@@Z 0000000140245a50 f   LIBCMT:typinfo.obj
 0001:00244a54       ??3@YAXPEAX@Z              0000000140245a54 f   LIBCMT:delete.obj
 0001:00244b90       _stat64i32                 0000000140245b90 f   LIBCMT:stati32.obj
 0001:00245090       _purecall                  0000000140246090 f   LIBCMT:purevirt.obj
 0001:002450c8       _set_purecall_handler      00000001402460c8 f   LIBCMT:purevirt.obj
 0001:00245104       _get_purecall_handler      0000000140246104 f   LIBCMT:purevirt.obj
 0001:00245114       free                       0000000140246114 f   LIBCMT:free.obj
 0001:00245154       _heap_alloc                0000000140246154 f i LIBCMT:malloc.obj
 0001:002451a4       malloc                     00000001402461a4 f   LIBCMT:malloc.obj
 0001:00245270       strncmp                    0000000140246270 f   LIBCMT:strncmp.obj
 0001:00245328       _ftell_nolock              0000000140246328 f   LIBCMT:ftell.obj
 0001:002454e0       ftell                      00000001402464e0 f   LIBCMT:ftell.obj
 0001:00245538       _fseek_nolock              0000000140246538 f   LIBCMT:fseek.obj
 0001:002455ec       fseek                      00000001402465ec f   LIBCMT:fseek.obj
 0001:00245668       __GSHandlerCheckCommon     0000000140246668 f   LIBCMT:gshandler.obj
 0001:002456cc       __GSHandlerCheck           00000001402466cc f   LIBCMT:gshandler.obj
 0001:00245700       __security_check_cookie    0000000140246700 f   LIBCMT:amdsecgs.obj
 0001:00245720       rename                     0000000140246720 f   LIBCMT:rename.obj
 0001:00245760       memcmp                     0000000140246760 f   LIBCMT:memcmp.obj
 0001:00245828       fprintf                    0000000140246828 f   LIBCMT:fprintf.obj
 0001:00245958       _fprintf_l                 0000000140246958 f   LIBCMT:fprintf.obj
 0001:00245978       _fprintf_s_l               0000000140246978 f   LIBCMT:fprintf.obj
 0001:00245998       fprintf_s                  0000000140246998 f   LIBCMT:fprintf.obj
 0001:002459bc       _fprintf_p_l               00000001402469bc f   LIBCMT:fprintf.obj
 0001:002459dc       _fprintf_p                 00000001402469dc f   LIBCMT:fprintf.obj
 0001:00245a00       _snprintf                  0000000140246a00 f   LIBCMT:snprintf.obj
 0001:00245ab4       _snprintf_l                0000000140246ab4 f   LIBCMT:snprintf.obj
 0001:00245ad4       atol                       0000000140246ad4 f   LIBCMT:atox.obj
 0001:00245ae0       _atol_l                    0000000140246ae0 f   LIBCMT:atox.obj
 0001:00245af0       atoi                       0000000140246af0 f   LIBCMT:atox.obj
 0001:00245afc       _atoi_l                    0000000140246afc f   LIBCMT:atox.obj
 0001:00245b0c       _atoi64                    0000000140246b0c f   LIBCMT:atox.obj
 0001:00245b18       _atoi64_l                  0000000140246b18 f   LIBCMT:atox.obj
 0001:00245b28       _get_sys_err_msg           0000000140246b28 f i LIBCMT:strerror.obj
 0001:00245b5c       strerror                   0000000140246b5c f   LIBCMT:strerror.obj
 0001:00245bf8       strerror_s                 0000000140246bf8 f   LIBCMT:strerror.obj
 0001:00245c88       _get_errno_from_oserr      0000000140246c88 f   LIBCMT:dosmap.obj
 0001:00245cd0       _errno                     0000000140246cd0 f   LIBCMT:dosmap.obj
 0001:00245cf0       __doserrno                 0000000140246cf0 f   LIBCMT:dosmap.obj
 0001:00245d10       _dosmaperr                 0000000140246d10 f   LIBCMT:dosmap.obj
 0001:00245d58       _set_errno                 0000000140246d58 f   LIBCMT:dosmap.obj
 0001:00245d94       _get_errno                 0000000140246d94 f   LIBCMT:dosmap.obj
 0001:00245dd0       _set_doserrno              0000000140246dd0 f   LIBCMT:dosmap.obj
 0001:00245e0c       _get_doserrno              0000000140246e0c f   LIBCMT:dosmap.obj
 0001:00245e48       fgets                      0000000140246e48 f   LIBCMT:fgets.obj
 0001:00245fb0       printf                     0000000140246fb0 f   LIBCMT:printf.obj
 0001:0024605c       _printf_l                  000000014024705c f   LIBCMT:printf.obj
 0001:00246080       _printf_s_l                0000000140247080 f   LIBCMT:printf.obj
 0001:002460a4       printf_s                   00000001402470a4 f   LIBCMT:printf.obj
 0001:002460cc       _printf_p_l                00000001402470cc f   LIBCMT:printf.obj
 0001:002460f0       _printf_p                  00000001402470f0 f   LIBCMT:printf.obj
 0001:00246118       _set_printf_count_output   0000000140247118 f   LIBCMT:printf.obj
 0001:00246140       _get_printf_count_output   0000000140247140 f   LIBCMT:printf.obj
 0001:00246158       ??0bad_alloc@std@@QEAA@XZ  0000000140247158 f i LIBCMT:new.obj
 0001:00246190       ??2@YAPEAX_K@Z             0000000140247190 f   LIBCMT:new.obj
 0001:00246250       strncpy                    0000000140247250 f   LIBCMT:strncpy.obj
 0001:002463b4       __iob_func                 00000001402473b4 f   LIBCMT:_file.obj
 0001:002463bc       __initstdio                00000001402473bc f   LIBCMT:_file.obj
 0001:0024649c       __endstdio                 000000014024749c f   LIBCMT:_file.obj
 0001:002464c4       _lock_file                 00000001402474c4 f   LIBCMT:_file.obj
 0001:00246528       _lock_file2                0000000140247528 f   LIBCMT:_file.obj
 0001:0024655c       _unlock_file               000000014024755c f   LIBCMT:_file.obj
 0001:002465a8       _unlock_file2              00000001402475a8 f   LIBCMT:_file.obj
 0001:002465c8       _lseeki64_nolock           00000001402475c8 f   LIBCMT:lseeki64.obj
 0001:00246660       _lseeki64                  0000000140247660 f   LIBCMT:lseeki64.obj
 0001:00246744       srand                      0000000140247744 f   LIBCMT:rand.obj
 0001:0024675c       rand                       000000014024775c f   LIBCMT:rand.obj
 0001:00246788       perror                     0000000140247788 f   LIBCMT:perror.obj
 0001:00246838       strcspn                    0000000140247838 f   LIBCMT:strcspn.obj
 0001:002468cc       sprintf                    00000001402478cc f   LIBCMT:sprintf.obj
 0001:0024696c       _sprintf_l                 000000014024796c f   LIBCMT:sprintf.obj
 0001:0024698c       sprintf_s                  000000014024798c f   LIBCMT:sprintf.obj
 0001:002469b0       _sprintf_s_l               00000001402479b0 f   LIBCMT:sprintf.obj
 0001:002469d0       _snprintf_s                00000001402479d0 f   LIBCMT:sprintf.obj
 0001:002469f4       _snprintf_s_l              00000001402479f4 f   LIBCMT:sprintf.obj
 0001:00246a18       _sprintf_p                 0000000140247a18 f   LIBCMT:sprintf.obj
 0001:00246a3c       _sprintf_p_l               0000000140247a3c f   LIBCMT:sprintf.obj
 0001:00246a5c       _scprintf                  0000000140247a5c f   LIBCMT:sprintf.obj
 0001:00246a84       _scprintf_p                0000000140247a84 f   LIBCMT:sprintf.obj
 0001:00246aac       _scprintf_l                0000000140247aac f   LIBCMT:sprintf.obj
 0001:00246ad0       _scprintf_p_l              0000000140247ad0 f   LIBCMT:sprintf.obj
 0001:00246af4       __crtCorExitProcess        0000000140247af4 f   LIBCMT:crt0dat.obj
 0001:00246b30       __crtExitProcess           0000000140247b30 f   LIBCMT:crt0dat.obj
 0001:00246b48       _lockexit                  0000000140247b48 f   LIBCMT:crt0dat.obj
 0001:00246b54       _unlockexit                0000000140247b54 f   LIBCMT:crt0dat.obj
 0001:00246b60       _init_pointers             0000000140247b60 f   LIBCMT:crt0dat.obj
 0001:00246bd8       _initterm_e                0000000140247bd8 f   LIBCMT:crt0dat.obj
 0001:00246c14       _get_wpgmptr               0000000140247c14 f   LIBCMT:crt0dat.obj
 0001:00246c4c       _get_pgmptr                0000000140247c4c f   LIBCMT:crt0dat.obj
 0001:00246c84       _cinit                     0000000140247c84 f   LIBCMT:crt0dat.obj
 0001:00246ec4       exit                       0000000140247ec4 f   LIBCMT:crt0dat.obj
 0001:00246ed0       _exit                      0000000140247ed0 f   LIBCMT:crt0dat.obj
 0001:00246edc       _cexit                     0000000140247edc f   LIBCMT:crt0dat.obj
 0001:00246eec       _c_exit                    0000000140247eec f   LIBCMT:crt0dat.obj
 0001:00246efc       _amsg_exit                 0000000140247efc f   LIBCMT:crt0dat.obj
 0001:00246f40       longjmp                    0000000140247f40 f   LIBCMT:longjmp.obj
 0001:0024702c       _cfltcvt_init              000000014024802c f   LIBCMT:_fpinit_.obj
 0001:002470b4       __setfflag                 00000001402480b4 f   LIBCMT:_fpinit_.obj
 0001:002470c4       _fpmath                    00000001402480c4 f   LIBCMT:_fpinit_.obj
 0001:002470cc       ??0_LocaleUpdate@@QEAA@PEAUlocaleinfo_struct@@@Z 00000001402480cc f i LIBCMT:_ctype.obj
 0001:00247170       ??1_LocaleUpdate@@QEAA@XZ  0000000140248170 f i LIBCMT:_ctype.obj
 0001:00247184       ?GetLocaleT@_LocaleUpdate@@QEAAPEAUlocaleinfo_struct@@XZ 0000000140248184 f i LIBCMT:_ctype.obj
 0001:00247188       _isalpha_l                 0000000140248188 f i LIBCMT:_ctype.obj
 0001:002471f0       isalpha                    00000001402481f0 f i LIBCMT:_ctype.obj
 0001:00247274       _isupper_l                 0000000140248274 f i LIBCMT:_ctype.obj
 0001:002472d8       isupper                    00000001402482d8 f i LIBCMT:_ctype.obj
 0001:00247358       _islower_l                 0000000140248358 f i LIBCMT:_ctype.obj
 0001:002473bc       islower                    00000001402483bc f i LIBCMT:_ctype.obj
 0001:0024743c       _isdigit_l                 000000014024843c f i LIBCMT:_ctype.obj
 0001:002474a0       isdigit                    00000001402484a0 f i LIBCMT:_ctype.obj
 0001:00247520       _isxdigit_l                0000000140248520 f i LIBCMT:_ctype.obj
 0001:00247588       isxdigit                   0000000140248588 f i LIBCMT:_ctype.obj
 0001:0024760c       _isspace_l                 000000014024860c f i LIBCMT:_ctype.obj
 0001:00247670       isspace                    0000000140248670 f i LIBCMT:_ctype.obj
 0001:002476f0       _ispunct_l                 00000001402486f0 f i LIBCMT:_ctype.obj
 0001:00247754       ispunct                    0000000140248754 f i LIBCMT:_ctype.obj
 0001:002477d4       _isalnum_l                 00000001402487d4 f i LIBCMT:_ctype.obj
 0001:0024783c       isalnum                    000000014024883c f i LIBCMT:_ctype.obj
 0001:002478c0       _isprint_l                 00000001402488c0 f i LIBCMT:_ctype.obj
 0001:00247928       isprint                    0000000140248928 f i LIBCMT:_ctype.obj
 0001:002479ac       _isgraph_l                 00000001402489ac f i LIBCMT:_ctype.obj
 0001:00247a14       isgraph                    0000000140248a14 f i LIBCMT:_ctype.obj
 0001:00247a98       _iscntrl_l                 0000000140248a98 f i LIBCMT:_ctype.obj
 0001:00247afc       iscntrl                    0000000140248afc f i LIBCMT:_ctype.obj
 0001:00247b7c       __isascii                  0000000140248b7c f i LIBCMT:_ctype.obj
 0001:00247b88       __toascii                  0000000140248b88 f i LIBCMT:_ctype.obj
 0001:00247b90       _iscsymf_l                 0000000140248b90 f i LIBCMT:_ctype.obj
 0001:00247c08       __iscsymf                  0000000140248c08 f i LIBCMT:_ctype.obj
 0001:00247c30       _iscsym_l                  0000000140248c30 f i LIBCMT:_ctype.obj
 0001:00247ca8       __iscsym                   0000000140248ca8 f i LIBCMT:_ctype.obj
 0001:00247cd0       _heapwalk                  0000000140248cd0 f   LIBCMT:heapwalk.obj
 0001:00247e18       _vsprintf_l                0000000140248e18 f   LIBCMT:vsprintf.obj
 0001:00247ed0       vsprintf                   0000000140248ed0 f   LIBCMT:vsprintf.obj
 0001:00247edc       _vscprintf_helper          0000000140248edc f   LIBCMT:vsprintf.obj
 0001:00247f6c       _vscprintf                 0000000140248f6c f   LIBCMT:vsprintf.obj
 0001:00247f84       _vscprintf_l               0000000140248f84 f   LIBCMT:vsprintf.obj
 0001:00247f9c       _vscprintf_p               0000000140248f9c f   LIBCMT:vsprintf.obj
 0001:00247fb4       _vscprintf_p_l             0000000140248fb4 f   LIBCMT:vsprintf.obj
 0001:00247fcc       fputc                      0000000140248fcc f   LIBCMT:fputc.obj
 0001:002480e4       putc                       00000001402490e4 f   LIBCMT:fputc.obj
 0001:002481fc       _CxxThrowException         00000001402491fc f   LIBCMT:throw.obj
 0001:00248290       ??_V@YAXPEAX@Z             0000000140249290 f   LIBCMT:delete2.obj
 0001:00248298       _atof_l                    0000000140249298 f   LIBCMT:atof.obj
 0001:00248368       atof                       0000000140249368 f   LIBCMT:atof.obj
 0001:00248370       __strgtold12               0000000140249370 f   LIBCMT:atof.obj
 0001:00248400       __STRINGTOLD               0000000140249400 f   LIBCMT:atof.obj
 0001:00248470       _toupper                   0000000140249470 f   LIBCMT:toupper.obj
 0001:00248474       _toupper_l                 0000000140249474 f   LIBCMT:toupper.obj
 0001:002485c4       toupper                    00000001402495c4 f   LIBCMT:toupper.obj
 0001:00248600       __chkstk                   0000000140249600 f   LIBCMT:chkstk.obj
 0001:00248600       _alloca_probe              0000000140249600     LIBCMT:chkstk.obj
 0001:00248650       _flush                     0000000140249650 f   LIBCMT:fflush.obj
 0001:002486cc       _fflush_nolock             00000001402496cc f   LIBCMT:fflush.obj
 0001:00248804       fflush                     0000000140249804 f   LIBCMT:fflush.obj
 0001:00248848       _flushall                  0000000140249848 f   LIBCMT:fflush.obj
 0001:00248854       ?_GetEstablisherFrame@@YAPEA_KPEA_KPEAU_xDISPATCHER_CONTEXT@@PEBU_s_FuncInfo@@0@Z 0000000140249854 f   LIBCMT:trnsctrl.obj
 0001:00248940       _GetImageBase              0000000140249940 f   LIBCMT:trnsctrl.obj
 0001:00248958       _GetThrowImageBase         0000000140249958 f   LIBCMT:trnsctrl.obj
 0001:00248970       _SetImageBase              0000000140249970 f   LIBCMT:trnsctrl.obj
 0001:0024898c       _SetThrowImageBase         000000014024998c f   LIBCMT:trnsctrl.obj
 0001:002489a8       _MoveContext               00000001402499a8 f   LIBCMT:trnsctrl.obj
 0001:00248a20       ?_ExecutionInCatch@@YAHPEAU_xDISPATCHER_CONTEXT@@PEBU_s_FuncInfo@@@Z 0000000140249a20 f   LIBCMT:trnsctrl.obj
 0001:00248ab0       ?__FrameUnwindToEmptyState@@YAXPEA_KPEAU_xDISPATCHER_CONTEXT@@PEBU_s_FuncInfo@@@Z 0000000140249ab0 f   LIBCMT:trnsctrl.obj
 0001:00248b5c       __CxxFrameHandler3         0000000140249b5c f   LIBCMT:trnsctrl.obj
 0001:00248be4       __CxxFrameHandler2         0000000140249be4 f   LIBCMT:trnsctrl.obj
 0001:00248bec       __CxxFrameHandler          0000000140249bec f   LIBCMT:trnsctrl.obj
 0001:00248c74       ?__SehTransFilter@@YAHPEAU_EXCEPTION_POINTERS@@PEAUEHExceptionRecord@@PEA_KPEAU_CONTEXT@@PEAU_xDISPATCHER_CONTEXT@@PEBU_s_FuncInfo@@PEAH@Z 0000000140249c74 f   LIBCMT:trnsctrl.obj
 0001:00248d18       _CallSETranslator          0000000140249d18 f   LIBCMT:trnsctrl.obj
 0001:00248d6c       ?_GetRangeOfTrysToCheck@@YAPEBU_s_TryBlockMapEntry@@PEA_KPEBU_s_FuncInfo@@HHPEAI2PEAU_xDISPATCHER_CONTEXT@@@Z 0000000140249d6c f   LIBCMT:trnsctrl.obj
 0001:00248e98       _CreateFrameInfo           0000000140249e98 f   LIBCMT:trnsctrl.obj
 0001:00248edc       _IsExceptionObjectToBeDestroyed 0000000140249edc f   LIBCMT:trnsctrl.obj
 0001:00248f10       _FindAndUnlinkFrame        0000000140249f10 f   LIBCMT:trnsctrl.obj
 0001:00248f70       _UnwindNestedFrames        0000000140249f70 f   LIBCMT:trnsctrl.obj
 0001:00249060       fgetc                      000000014024a060 f   LIBCMT:fgetc.obj
 0001:00249164       getc                       000000014024a164 f   LIBCMT:fgetc.obj
 0001:00249268       _getc_nolock               000000014024a268 f   LIBCMT:fgetc.obj
 0001:00249290       _ungetc_nolock             000000014024a290 f   LIBCMT:ungetc.obj
 0001:0024939c       ungetc                     000000014024a39c f   LIBCMT:ungetc.obj
 0001:002493fc       setvbuf                    000000014024a3fc f   LIBCMT:setvbuf.obj
 0001:00249600       __onexitinit               000000014024a600 f   LIBCMT:onexit.obj
 0001:00249644       _onexit                    000000014024a644 f   LIBCMT:onexit.obj
 0001:00249750       atexit                     000000014024a750 f   LIBCMT:onexit.obj
 0001:00249768       fputs                      000000014024a768 f   LIBCMT:fputs.obj
 0001:002498b0       setjmp                     000000014024a8b0     LIBCMT:setjmp.obj
 0001:002498b0       _setjmp                    000000014024a8b0 f   LIBCMT:setjmp.obj
 0001:00249a40       qsort                      000000014024aa40 f   LIBCMT:qsort.obj
 0001:00249de0       sscanf                     000000014024ade0 f   LIBCMT:sscanf.obj
 0001:00249e18       _sscanf_l                  000000014024ae18 f   LIBCMT:sscanf.obj
 0001:00249e4c       sscanf_s                   000000014024ae4c f   LIBCMT:sscanf.obj
 0001:00249e84       _sscanf_s_l                000000014024ae84 f   LIBCMT:sscanf.obj
 0001:00249eb8       _getenv_helper_nolock      000000014024aeb8 f   LIBCMT:getenv.obj
 0001:0024a0f4       getenv                     000000014024b0f4 f   LIBCMT:getenv.obj
 0001:0024a160       getenv_s                   000000014024b160 f   LIBCMT:getenv.obj
 0001:0024a260       _dupenv_s                  000000014024b260 f   LIBCMT:getenv.obj
 0001:0024a364       memcpy_s                   000000014024b364 f   LIBCMT:memcpy_s.obj
 0001:0024a3ec       rewind                     000000014024b3ec f   LIBCMT:rewind.obj
 0001:0024a4ac       fgetpos                    000000014024b4ac f   LIBCMT:fgetpos.obj
 0001:0024a4f8       _fseeki64_nolock           000000014024b4f8 f   LIBCMT:fseeki64.obj
 0001:0024a5c4       _fseeki64                  000000014024b5c4 f   LIBCMT:fseeki64.obj
 0001:0024a640       fsetpos                    000000014024b640 f   LIBCMT:fsetpos.obj
 0001:0024a678       _invoke_watson_if_oneof    000000014024b678 f i LIBCMT:system.obj
 0001:0024a6b8       system                     000000014024b6b8 f   LIBCMT:system.obj
 0001:0024a7c0       remove                     000000014024b7c0 f   LIBCMT:unlink.obj
 0001:0024a7f0       _unlink                    000000014024b7f0 f   LIBCMT:unlink.obj
 0001:0024a7f0       unlink                     000000014024b7f0 f   LIBCMT:unlink.obj
 0001:0024a7f8       _tolower                   000000014024b7f8 f   LIBCMT:tolower.obj
 0001:0024a7fc       _tolower_l                 000000014024b7fc f   LIBCMT:tolower.obj
 0001:0024a94c       tolower                    000000014024b94c f   LIBCMT:tolower.obj
 0001:0024a96c       _MarkAllocaS               000000014024b96c f i LIBCMT:strftime.obj
 0001:0024a97c       _freea                     000000014024b97c f i LIBCMT:strftime.obj
 0001:0024a99c       _Getdays_l                 000000014024b99c f   LIBCMT:strftime.obj
 0001:0024aad4       _Getdays                   000000014024bad4 f   LIBCMT:strftime.obj
 0001:0024aadc       _Getmonths_l               000000014024badc f   LIBCMT:strftime.obj
 0001:0024ac20       _Getmonths                 000000014024bc20 f   LIBCMT:strftime.obj
 0001:0024ac28       _Gettnames_l               000000014024bc28 f   LIBCMT:strftime.obj
 0001:0024b00c       _Gettnames                 000000014024c00c f   LIBCMT:strftime.obj
 0001:0024bd1c       _Strftime_l                000000014024cd1c f   LIBCMT:strftime.obj
 0001:0024beec       _strftime_l                000000014024ceec f   LIBCMT:strftime.obj
 0001:0024bf0c       strftime                   000000014024cf0c f   LIBCMT:strftime.obj
 0001:0024bf28       _Strftime                  000000014024cf28 f   LIBCMT:strftime.obj
 0001:0024bf48       realloc                    000000014024cf48 f   LIBCMT:realloc.obj
 0001:0024c01c       floor                      000000014024d01c f   LIBCMT:_floor_.obj
 0001:0024c38c       strtol                     000000014024d38c f   LIBCMT:strtol.obj
 0001:0024c3bc       _strtol_l                  000000014024d3bc f   LIBCMT:strtol.obj
 0001:0024c3e0       strtoul                    000000014024d3e0 f   LIBCMT:strtol.obj
 0001:0024c414       _strtoul_l                 000000014024d414 f   LIBCMT:strtol.obj
 0001:0024c43c       _strtod_l                  000000014024d43c f   LIBCMT:strtod.obj
 0001:0024c5a8       strtod                     000000014024d5a8 f   LIBCMT:strtod.obj
 0001:0024c5c0       strncat                    000000014024d5c0 f   LIBCMT:strncat.obj
 0001:0024c758       _strcoll_l                 000000014024d758 f   LIBCMT:strcoll.obj
 0001:0024c824       strcoll                    000000014024d824 f   LIBCMT:strcoll.obj
 0001:0024c82c       vfscanf                    000000014024d82c f   LIBCMT:fscanf.obj
 0001:0024c950       fscanf                     000000014024d950 f   LIBCMT:fscanf.obj
 0001:0024c988       _fscanf_l                  000000014024d988 f   LIBCMT:fscanf.obj
 0001:0024c9bc       fscanf_s                   000000014024d9bc f   LIBCMT:fscanf.obj
 0001:0024c9f4       _fscanf_s_l                000000014024d9f4 f   LIBCMT:fscanf.obj
 0001:0024ca28       _difftime64                000000014024da28 f   LIBCMT:difftm64.obj
 0001:0024ca58       _gmtime64_s                000000014024da58 f   LIBCMT:gmtime64.obj
 0001:0024cd28       _gmtime64                  000000014024dd28 f   LIBCMT:gmtime64.obj
 0001:0024cd70       clock                      000000014024dd70 f   LIBCMT:clock.obj
 0001:0024cdb0       __inittime                 000000014024ddb0 f   LIBCMT:clock.obj
 0001:0024cfdc       __inc_tmpoff               000000014024dfdc f   LIBCMT:tmpfile.obj
 0001:0024cfe4       _tmpnam_helper             000000014024dfe4 f   LIBCMT:tmpfile.obj
 0001:0024d1a4       tmpnam_s                   000000014024e1a4 f   LIBCMT:tmpfile.obj
 0001:0024d1e4       tmpnam                     000000014024e1e4 f   LIBCMT:tmpfile.obj
 0001:0024d214       _tmpfile_helper            000000014024e214 f   LIBCMT:tmpfile.obj
 0001:0024d4a0       tmpfile                    000000014024e4a0 f   LIBCMT:tmpfile.obj
 0001:0024d4c4       tmpfile_s                  000000014024e4c4 f   LIBCMT:tmpfile.obj
 0001:0024d4d0       localeconv                 000000014024e4d0 f   LIBCMT:lconv.obj
 0001:0024d5a0       _popen                     000000014024e5a0 f   LIBCMT:popen.obj
 0001:0024dc0c       _pclose                    000000014024ec0c f   LIBCMT:popen.obj
 0001:0024dce8       clearerr_s                 000000014024ece8 f   LIBCMT:clearerr.obj
 0001:0024dda0       clearerr                   000000014024eda0 f   LIBCMT:clearerr.obj
 0001:0024df84       sinh                       000000014024ef84 f   LIBCMT:_sinh_.obj
 0001:0024e590       cosh                       000000014024f590 f   LIBCMT:_cosh_.obj
 0001:0024eb60       tan                        000000014024fb60 f   LIBCMT:_tan_.obj
 0001:0024f00c       tanh                       000000014025000c f   LIBCMT:_tanh_.obj
 0001:0024f324       asin                       0000000140250324 f   LIBCMT:_asin_.obj
 0001:0024f638       acos                       0000000140250638 f   LIBCMT:_acos_.obj
 0001:0024f96c       atan                       000000014025096c f   LIBCMT:_atan_.obj
 0001:0024fd80       atan2                      0000000140250d80 f   LIBCMT:_atan2_.obj
 0001:0025055c       ceil                       000000014025155c f   LIBCMT:_ceil_.obj
 0001:00250670       fmod                       0000000140251670 f   LIBCMT:_fmod_.obj
 0001:0025073c       modf                       000000014025173c f   LIBCMT:_modf_.obj
 0001:002507fc       sqrt                       00000001402517fc f   LIBCMT:_sqrt_.obj
 0001:00250910       frexp                      0000000140251910 f   LIBCMT:_frexp_.obj
 0001:002509f4       ldexp                      00000001402519f4 f   LIBCMT:_ldexp_.obj
 0001:00250b78       strpbrk                    0000000140251b78 f   LIBCMT:strpbrk.obj
 0001:00250c14       ___setlc_active_func       0000000140251c14 f   LIBCMT:setlocal.obj
 0001:00250c1c       ___unguarded_readlc_active_add_func 0000000140251c1c f   LIBCMT:setlocal.obj
 0001:00250c58       _configthreadlocale        0000000140251c58 f   LIBCMT:setlocal.obj
 0001:00250cf4       _free_locale               0000000140251cf4 f   LIBCMT:setlocal.obj
 0001:00250d9c       __free_locale              0000000140251d9c f   LIBCMT:setlocal.obj
 0001:00250da4       _get_current_locale        0000000140251da4 f   LIBCMT:setlocal.obj
 0001:00250e40       __get_current_locale       0000000140251e40 f   LIBCMT:setlocal.obj
 0001:00250e48       __init_dummy               0000000140251e48 f   LIBCMT:setlocal.obj
 0001:00250e4c       _strcats                   0000000140251e4c f   LIBCMT:setlocal.obj
 0001:00250eb4       __lc_strtolc               0000000140251eb4 f   LIBCMT:setlocal.obj
 0001:00251064       __lc_lctostr               0000000140252064 f   LIBCMT:setlocal.obj
 0001:002512d8       _expandlocale              00000001402522d8 f   LIBCMT:setlocal.obj
 0001:00251a48       _create_locale             0000000140252a48 f   LIBCMT:setlocal.obj
 0001:00251b80       __create_locale            0000000140252b80 f   LIBCMT:setlocal.obj
 0001:00251b88       setlocale                  0000000140252b88 f   LIBCMT:setlocal.obj
 0001:00251d50       _freopen_helper            0000000140252d50 f   LIBCMT:freopen.obj
 0001:00251e40       freopen                    0000000140252e40 f   LIBCMT:freopen.obj
 0001:00251e70       freopen_s                  0000000140252e70 f   LIBCMT:freopen.obj
 0001:00251e88       abort                      0000000140252e88 f   LIBCMT:abort.obj
 0001:00251ec8       _set_abort_behavior        0000000140252ec8 f   LIBCMT:abort.obj
 0001:00251ee4       vfprintf_helper            0000000140252ee4 f   LIBCMT:vfprintf.obj
 0001:00252028       _vfprintf_l                0000000140253028 f   LIBCMT:vfprintf.obj
 0001:0025204c       _vfprintf_s_l              000000014025304c f   LIBCMT:vfprintf.obj
 0001:00252070       _vfprintf_p_l              0000000140253070 f   LIBCMT:vfprintf.obj
 0001:00252094       vfprintf                   0000000140253094 f   LIBCMT:vfprintf.obj
 0001:002520b8       vfprintf_s                 00000001402530b8 f   LIBCMT:vfprintf.obj
 0001:002520dc       _vfprintf_p                00000001402530dc f   LIBCMT:vfprintf.obj
 0001:00252124       _wassert                   0000000140253124 f   LIBCMT:wassert.obj
 0001:002529f4       strtok                     00000001402539f4 f   LIBCMT:strtok.obj
 0001:00252cd0       mainCRTStartup             0000000140253cd0 f   LIBCMT:crt0.obj
 0001:00252fcc       __crtLCMapStringA          0000000140253fcc f   LIBCMT:a_map.obj
 0001:00253064       __pwctype_func             0000000140254064 f   LIBCMT:ctype.obj
 0001:0025306c       __pctype_func              000000014025406c f   LIBCMT:ctype.obj
 0001:002530a8       __init_ctype               00000001402540a8 f   LIBCMT:initctyp.obj
 0001:002534c8       ___mb_cur_max_func         00000001402544c8 f   LIBCMT:initctyp.obj
 0001:00253504       ___mb_cur_max_l_func       0000000140254504 f   LIBCMT:initctyp.obj
 0001:00253518       ___lc_codepage_func        0000000140254518 f   LIBCMT:initctyp.obj
 0001:00253550       ___lc_collate_cp_func      0000000140254550 f   LIBCMT:initctyp.obj
 0001:00253588       ___lc_handle_func          0000000140254588 f   LIBCMT:initctyp.obj
 0001:002535c0       wait_a_bit                 00000001402545c0 f i LIBCMT:crtheap.obj
 0001:002535e8       _set_malloc_crt_max_wait   00000001402545e8 f   LIBCMT:crtheap.obj
 0001:002535f8       _malloc_crt                00000001402545f8 f   LIBCMT:crtheap.obj
 0001:00253678       _calloc_crt                0000000140254678 f   LIBCMT:crtheap.obj
 0001:002536fc       _realloc_crt               00000001402546fc f   LIBCMT:crtheap.obj
 0001:00253784       _recalloc_crt              0000000140254784 f   LIBCMT:crtheap.obj
 0001:00253820       strlen                     0000000140254820 f   LIBCMT:strlen.obj
 0001:002538c8       _wfsopen                   00000001402548c8 f   LIBCMT:wfopen.obj
 0001:002539a8       _wfopen                    00000001402549a8 f   LIBCMT:wfopen.obj
 0001:002539b4       _wfopen_s                  00000001402549b4 f   LIBCMT:wfopen.obj
 0001:00253a08       _initp_misc_invarg         0000000140254a08 f   LIBCMT:invarg.obj
 0001:00253a10       _call_reportfault          0000000140254a10 f   LIBCMT:invarg.obj
 0001:00253b5c       _set_invalid_parameter_handler 0000000140254b5c f   LIBCMT:invarg.obj
 0001:00253b98       _get_invalid_parameter_handler 0000000140254b98 f   LIBCMT:invarg.obj
 0001:00253ba8       _invoke_watson             0000000140254ba8 f   LIBCMT:invarg.obj
 0001:00253bdc       ?_invoke_watson@@YAXPEBG00I_K@Z 0000000140254bdc f   LIBCMT:invarg.obj
 0001:00253bf0       _invalid_parameter         0000000140254bf0 f   LIBCMT:invarg.obj
 0001:00253c60       _invalid_parameter_noinfo  0000000140254c60 f   LIBCMT:invarg.obj
 0001:00253c80       _invalid_parameter_noinfo_noreturn 0000000140254c80 f   LIBCMT:invarg.obj
 0001:00253cb0       ?_invalid_parameter@@YAXPEBG00I_K@Z 0000000140254cb0 f   LIBCMT:invarg.obj
 0001:00253cfc       asctime_s                  0000000140254cfc f   LIBCMT:asctime.obj
 0001:00254004       asctime                    0000000140255004 f   LIBCMT:asctime.obj
 0001:00254330       _set_daylight              0000000140255330 f i LIBCMT:tzset.obj
 0001:00254348       _set_dstbias               0000000140255348 f i LIBCMT:tzset.obj
 0001:00254360       _set_timezone              0000000140255360 f i LIBCMT:tzset.obj
 0001:00254d78       __tzset                    0000000140255d78 f   LIBCMT:tzset.obj
 0001:00254db4       _tzset                     0000000140255db4 f   LIBCMT:tzset.obj
 0001:00254dd8       _isindst                   0000000140255dd8 f   LIBCMT:tzset.obj
 0001:00254e08       _get_daylight              0000000140255e08 f   LIBCMT:timeset.obj
 0001:00254e38       _get_dstbias               0000000140255e38 f   LIBCMT:timeset.obj
 0001:00254e68       _get_timezone              0000000140255e68 f   LIBCMT:timeset.obj
 0001:00254e98       _get_tzname                0000000140255e98 f   LIBCMT:timeset.obj
 0001:00254f50       __daylight                 0000000140255f50 f   LIBCMT:timeset.obj
 0001:00254f58       __dstbias                  0000000140255f58 f   LIBCMT:timeset.obj
 0001:00254f60       __timezone                 0000000140255f60 f   LIBCMT:timeset.obj
 0001:00254f68       __tzname                   0000000140255f68 f   LIBCMT:timeset.obj
 0001:00254f70       _gmtime32_s                0000000140255f70 f   LIBCMT:gmtime.obj
 0001:00255110       __getgmtimebuf             0000000140256110 f   LIBCMT:gmtime.obj
 0001:00255158       _gmtime32                  0000000140256158 f   LIBCMT:gmtime.obj
 0001:002551a0       __C_specific_handler       00000001402561a0 f   LIBCMT:chandler.obj
 0001:002553a0       _openfile                  00000001402563a0 f   LIBCMT:_open.obj
 0001:00255658       _getstream                 0000000140256658 f   LIBCMT:stream.obj
 0001:002557c0       _local_unwind              00000001402567c0 f   LIBCMT:jmpuwind.obj
 0001:002557f0       _NLG_Notify                00000001402567f0 f   LIBCMT:jmpuwind.obj
 0001:00255810       __NLG_Dispatch2            0000000140256810 f   LIBCMT:jmpuwind.obj
 0001:00255820       __NLG_Return2              0000000140256820 f   LIBCMT:jmpuwind.obj
 0001:00255824       _close_nolock              0000000140256824 f   LIBCMT:close.obj
 0001:002558e0       close                      00000001402568e0 f   LIBCMT:close.obj
 0001:002558e0       _close                     00000001402568e0 f   LIBCMT:close.obj
 0001:002559a4       _fileno                    00000001402569a4 f   LIBCMT:fileno.obj
 0001:002559a4       fileno                     00000001402569a4 f   LIBCMT:fileno.obj
 0001:002559cc       _freebuf                   00000001402569cc f   LIBCMT:_freebuf.obj
 0001:00255a04       _flsbuf                    0000000140256a04 f   LIBCMT:_flsbuf.obj
 0001:00255b94       _write_nolock              0000000140256b94 f   LIBCMT:write.obj
 0001:002562f4       write                      00000001402572f4 f   LIBCMT:write.obj
 0001:002562f4       _write                     00000001402572f4 f   LIBCMT:write.obj
 0001:002563d4       _filbuf                    00000001402573d4 f   LIBCMT:_filbuf.obj
 0001:00256528       _read_nolock               0000000140257528 f   LIBCMT:read.obj
 0001:00256c4c       _read                      0000000140257c4c f   LIBCMT:read.obj
 0001:00256c4c       read                       0000000140257c4c f   LIBCMT:read.obj
 0001:00256d68       strcpy_s                   0000000140257d68 f   LIBCMT:strcpy_s.obj
 0001:00256dcc       ?_Type_info_dtor@type_info@@CAXPEAV1@@Z 0000000140257dcc f   LIBCMT:typname.obj
 0001:00256e38       ?_Name_base@type_info@@CAPEBDPEBV1@PEAU__type_info_node@@@Z 0000000140257e38 f   LIBCMT:typname.obj
 0001:00256f6c       ?_Type_info_dtor_internal@type_info@@CAXPEAV1@@Z 0000000140257f6c f   LIBCMT:typname.obj
 0001:00256fd8       __unDNameHelper            0000000140257fd8 f   LIBCMT:typname.obj
 0001:00257010       ?_Name_base_internal@type_info@@CAPEBDPEBV1@PEAU__type_info_node@@@Z 0000000140258010 f   LIBCMT:typname.obj
 0001:0025716c       __clean_type_info_names_internal 000000014025816c f   LIBCMT:typname.obj
 0001:002571d0       strcmp                     00000001402581d0 f   LIBCMT:strcmp.obj
 0001:00257280       _fullpath                  0000000140258280 f   LIBCMT:fullpath.obj
 0001:002573ac       __dtoxmode                 00000001402583ac f   LIBCMT:stat.obj
 0001:002575c8       _stat32                    00000001402585c8 f   LIBCMT:stat.obj
 0001:00257ac0       _fstat64i32                0000000140258ac0 f   LIBCMT:fstati32.obj
 0001:0025861c       _open                      000000014025961c f   LIBCMT:open.obj
 0001:0025861c       open                       000000014025961c f   LIBCMT:open.obj
 0001:002586f4       _sopen_helper              00000001402596f4 f   LIBCMT:open.obj
 0001:002587c8       _sopen                     00000001402597c8 f   LIBCMT:open.obj
 0001:002587c8       sopen                      00000001402597c8 f   LIBCMT:open.obj
 0001:0025880c       _sopen_s                   000000014025980c f   LIBCMT:open.obj
 0001:00258840       __loctotime64_t            0000000140259840 f   LIBCMT:dtoxtm64.obj
 0001:00258b0c       _getdrive                  0000000140259b0c f   LIBCMT:drive.obj
 0001:00258bfc       _chdrive                   0000000140259bfc f   LIBCMT:drive.obj
 0001:00258c98       _mbctolower_l              0000000140259c98 f   LIBCMT:mbtolwr.obj
 0001:00258d7c       _mbctolower                0000000140259d7c f   LIBCMT:mbtolwr.obj
 0001:00258d84       _mbspbrk_l                 0000000140259d84 f   LIBCMT:mbspbrk.obj
 0001:00258e78       _mbspbrk                   0000000140259e78 f   LIBCMT:mbspbrk.obj
 0001:00258e80       _GET_RTERRMSG              0000000140259e80 f   LIBCMT:crt0msg.obj
 0001:00258eac       _NMSG_WRITE                0000000140259eac f   LIBCMT:crt0msg.obj
 0001:0025910c       _FF_MSGBANNER              000000014025a10c f   LIBCMT:crt0msg.obj
 0001:00259150       __getlocaleinfo            000000014025a150 f   LIBCMT:inithelp.obj
 0001:0025932c       _initp_misc_purevirt       000000014025a32c f   LIBCMT:inithelp.obj
 0001:00259334       _heap_init                 000000014025a334 f   LIBCMT:heapinit.obj
 0001:0025938c       _heap_term                 000000014025a38c f   LIBCMT:heapinit.obj
 0001:002593ac       _get_heap_handle           000000014025a3ac f   LIBCMT:heapinit.obj
 0001:002593b4       _initp_heap_handler        000000014025a3b4 f   LIBCMT:handler.obj
 0001:002593bc       ?_set_new_handler@@YAP6AH_K@ZP6AH0@Z@Z 000000014025a3bc f   LIBCMT:handler.obj
 0001:0025940c       ?_set_new_handler@@YAP6AH_K@ZH@Z 000000014025a40c f   LIBCMT:handler.obj
 0001:00259414       ?_query_new_handler@@YAP6AH_K@ZXZ 000000014025a414 f   LIBCMT:handler.obj
 0001:00259424       _callnewh                  000000014025a424 f   LIBCMT:handler.obj
 0001:00259458       _ioinit                    000000014025a458 f   LIBCMT:ioinit.obj
 0001:0025972c       _ioterm                    000000014025a72c f   LIBCMT:ioinit.obj
 0001:002597a0       _lseek_nolock              000000014025a7a0 f   LIBCMT:lseek.obj
 0001:00259838       lseek                      000000014025a838 f   LIBCMT:lseek.obj
 0001:00259838       _lseek                     000000014025a838 f   LIBCMT:lseek.obj
 0001:00259918       __report_gsfailure         000000014025a918 f   LIBCMT:gs_report.obj
 0001:00259a64       _stbuf                     000000014025aa64 f   LIBCMT:_sftbuf.obj
 0001:00259b38       _ftbuf                     000000014025ab38 f   LIBCMT:_sftbuf.obj
 0001:00259cb4       get_int_arg                000000014025acb4 f i LIBCMT:output.obj
 0001:00259cc0       get_int64_arg              000000014025acc0 f i LIBCMT:output.obj
 0001:00259ccc       get_short_arg              000000014025accc f i LIBCMT:output.obj
 0001:00259cd8       _output_l                  000000014025acd8 f   LIBCMT:output.obj
 0001:0025a73c       _vsnprintf_l               000000014025b73c f   LIBCMT:vsnprint.obj
 0001:0025a808       _vsnprintf                 000000014025b808 f   LIBCMT:vsnprint.obj
 0001:0025aa88       _strtoi64                  000000014025ba88 f   LIBCMT:strtoq.obj
 0001:0025aab8       _strtoi64_l                000000014025bab8 f   LIBCMT:strtoq.obj
 0001:0025aadc       _strtoui64                 000000014025badc f   LIBCMT:strtoq.obj
 0001:0025ab10       _strtoui64_l               000000014025bb10 f   LIBCMT:strtoq.obj
 0001:0025ab38       __sys_nerr                 000000014025bb38 f   LIBCMT:syserr.obj
 0001:0025ab40       __sys_errlist              000000014025bb40 f   LIBCMT:syserr.obj
 0001:0025ab48       _encoded_null              000000014025bb48 f   LIBCMT:tidtable.obj
 0001:0025ab54       __fls_getvalue             000000014025bb54 f   LIBCMT:tidtable.obj
 0001:0025ab5c       __get_flsindex             000000014025bb5c f   LIBCMT:tidtable.obj
 0001:0025ab64       __set_flsgetvalue          000000014025bb64 f   LIBCMT:tidtable.obj
 0001:0025ab68       __fls_setvalue             000000014025bb68 f   LIBCMT:tidtable.obj
 0001:0025ab70       _mtterm                    000000014025bb70 f   LIBCMT:tidtable.obj
 0001:0025ab98       _initptd                   000000014025bb98 f   LIBCMT:tidtable.obj
 0001:0025ac50       _getptd_noexit             000000014025bc50 f   LIBCMT:tidtable.obj
 0001:0025acd4       _getptd                    000000014025bcd4 f   LIBCMT:tidtable.obj
 0001:0025acf8       _freefls                   000000014025bcf8 f   LIBCMT:tidtable.obj
 0001:0025ae2c       _freeptd                   000000014025be2c f   LIBCMT:tidtable.obj
 0001:0025ae6c       __threadid                 000000014025be6c f   LIBCMT:tidtable.obj
 0001:0025ae74       __threadhandle             000000014025be74 f   LIBCMT:tidtable.obj
 0001:0025ae7c       _mtinit                    000000014025be7c f   LIBCMT:tidtable.obj
 0001:0025af00       strncpy_s                  000000014025bf00 f   LIBCMT:strncpy_s.obj
 0001:0025afc0       vprintf_helper             000000014025bfc0 f   LIBCMT:vprintf.obj
 0001:0025b068       _vprintf_l                 000000014025c068 f   LIBCMT:vprintf.obj
 0001:0025b080       _vprintf_s_l               000000014025c080 f   LIBCMT:vprintf.obj
 0001:0025b098       _vprintf_p_l               000000014025c098 f   LIBCMT:vprintf.obj
 0001:0025b0b0       vprintf                    000000014025c0b0 f   LIBCMT:vprintf.obj
 0001:0025b0c8       vprintf_s                  000000014025c0c8 f   LIBCMT:vprintf.obj
 0001:0025b0e0       _vprintf_p                 000000014025c0e0 f   LIBCMT:vprintf.obj
 0001:0025b0f8       _fcloseall                 000000014025c0f8 f   LIBCMT:closeall.obj
 0001:0025b1a4       _mtinitlocks               000000014025c1a4 f   LIBCMT:mlock.obj
 0001:0025b228       _mtdeletelocks             000000014025c228 f   LIBCMT:mlock.obj
 0001:0025b2b0       _unlock                    000000014025c2b0 f   LIBCMT:mlock.obj
 0001:0025b2c8       _lockerr_exit              000000014025c2c8 f   LIBCMT:mlock.obj
 0001:0025b2e8       _mtinitlocknum             000000014025c2e8 f   LIBCMT:mlock.obj
 0001:0025b3d0       _lock                      000000014025c3d0 f   LIBCMT:mlock.obj
 0001:0025b414       _set_osfhnd                000000014025c414 f   LIBCMT:osfinfo.obj
 0001:0025b4c4       _free_osfhnd               000000014025c4c4 f   LIBCMT:osfinfo.obj
 0001:0025b570       _get_osfhandle             000000014025c570 f   LIBCMT:osfinfo.obj
 0001:0025b5e4       __lock_fhandle             000000014025c5e4 f   LIBCMT:osfinfo.obj
 0001:0025b68c       _unlock_fhandle            000000014025c68c f   LIBCMT:osfinfo.obj
 0001:0025b6b4       _alloc_osfhnd              000000014025c6b4 f   LIBCMT:osfinfo.obj
 0001:0025b8bc       _open_osfhandle            000000014025c8bc f   LIBCMT:osfinfo.obj
 0001:0025b9b8       _vsnprintf_helper          000000014025c9b8 f   LIBCMT:vsnprnc.obj
 0001:0025baa0       _vsnprintf_c               000000014025caa0 f   LIBCMT:vsnprnc.obj
 0001:0025bad4       _vsnprintf_c_l             000000014025cad4 f   LIBCMT:vsnprnc.obj
 0001:0025bb0c       _vsprintf_s_l              000000014025cb0c f   LIBCMT:vsnprnc.obj
 0001:0025bb7c       vsprintf_s                 000000014025cb7c f   LIBCMT:vsnprnc.obj
 0001:0025bb94       _vsnprintf_s_l             000000014025cb94 f   LIBCMT:vsnprnc.obj
 0001:0025bcdc       _vsnprintf_s               000000014025ccdc f   LIBCMT:vsnprnc.obj
 0001:0025bcfc       _vsprintf_p                000000014025ccfc f   LIBCMT:vsnprnc.obj
 0001:0025bd30       _vsprintf_p_l              000000014025cd30 f   LIBCMT:vsnprnc.obj
 0001:0025bd68       ?terminate@@YAXXZ          000000014025cd68 f   LIBCMT:hooks.obj
 0001:0025bd8c       ?unexpected@@YAXXZ         000000014025cd8c f   LIBCMT:hooks.obj
 0001:0025bdac       ?_inconsistency@@YAXXZ     000000014025cdac f   LIBCMT:hooks.obj
 0001:0025bdd4       _initp_eh_hooks            000000014025cdd4 f   LIBCMT:hooks.obj
 0001:0025bdf4       _initp_misc_winsig         000000014025cdf4 f   LIBCMT:winsig.obj
 0001:0025bee4       __get_sigabrt              000000014025cee4 f   LIBCMT:winsig.obj
 0001:0025bef4       __fpecode                  000000014025cef4 f   LIBCMT:winsig.obj
 0001:0025bf08       __pxcptinfoptrs            000000014025cf08 f   LIBCMT:winsig.obj
 0001:0025bf1c       signal                     000000014025cf1c f   LIBCMT:winsig.obj
 0001:0025c1dc       raise                      000000014025d1dc f   LIBCMT:winsig.obj
 0001:0025c410       _initp_misc_rand_s         000000014025d410 f   LIBCMT:rand_s.obj
 0001:0025c418       rand_s                     000000014025d418 f   LIBCMT:rand_s.obj
 0001:0025c51c       _RTC_Initialize            000000014025d51c f   LIBCMT:_initsect_.obj
 0001:0025c554       _RTC_Terminate             000000014025d554 f   LIBCMT:_initsect_.obj
 0001:0025c58c       _initp_misc_cfltcvt_tab    000000014025d58c f   LIBCMT:cmiscdat.obj
 0001:0025c5d0       _ValidateImageBase         000000014025d5d0 f   LIBCMT:pesect.obj
 0001:0025c600       _FindPESection             000000014025d600 f   LIBCMT:pesect.obj
 0001:0025c650       _IsNonwritableInCurrentImage 000000014025d650 f   LIBCMT:pesect.obj
 0001:0025c694       _forcdecpt_l               000000014025d694 f   LIBCMT:cvt.obj
 0001:0025c714       _cropzeros_l               000000014025d714 f   LIBCMT:cvt.obj
 0001:0025c7b4       _positive                  000000014025d7b4 f   LIBCMT:cvt.obj
 0001:0025c7cc       _fassign_l                 000000014025d7cc f   LIBCMT:cvt.obj
 0001:0025c810       _fassign                   000000014025d810 f   LIBCMT:cvt.obj
 0001:0025c84c       _forcdecpt                 000000014025d84c f   LIBCMT:cvt.obj
 0001:0025c854       _cropzeros                 000000014025d854 f   LIBCMT:cvt.obj
 0001:0025ca90       _cftoe_l                   000000014025da90 f   LIBCMT:cvt.obj
 0001:0025cb88       _cftoe                     000000014025db88 f   LIBCMT:cvt.obj
 0001:0025cba4       _cftoa_l                   000000014025dba4 f   LIBCMT:cvt.obj
 0001:0025cf84       _cftoa                     000000014025df84 f   LIBCMT:cvt.obj
 0001:0025d13c       _cftof_l                   000000014025e13c f   LIBCMT:cvt.obj
 0001:0025d210       _cftof                     000000014025e210 f   LIBCMT:cvt.obj
 0001:0025d224       _cftog_l                   000000014025e224 f   LIBCMT:cvt.obj
 0001:0025d358       _cftog                     000000014025e358 f   LIBCMT:cvt.obj
 0001:0025d374       _cfltcvt_l                 000000014025e374 f   LIBCMT:cvt.obj
 0001:0025d40c       _cfltcvt                   000000014025e40c f   LIBCMT:cvt.obj
 0001:0025d6e0       __updatetmbcinfo           000000014025e6e0 f   LIBCMT:mbctype.obj
 0001:0025d82c       _setmbcp_nolock            000000014025e82c f   LIBCMT:mbctype.obj
 0001:0025daa4       _getmbcp                   000000014025eaa4 f   LIBCMT:mbctype.obj
 0001:0025daf4       _setmbcp                   000000014025eaf4 f   LIBCMT:mbctype.obj
 0001:0025dcd4       __initmbctable             000000014025ecd4 f   LIBCMT:mbctype.obj
 0001:0025dcfc       __addlocaleref             000000014025ecfc f   LIBCMT:localref.obj
 0001:0025dd88       __removelocaleref          000000014025ed88 f   LIBCMT:localref.obj
 0001:0025de2c       __freetlocinfo             000000014025ee2c f   LIBCMT:localref.obj
 0001:0025dfa8       _updatetlocinfoEx_nolock   000000014025efa8 f   LIBCMT:localref.obj
 0001:0025e000       __updatetlocinfo           000000014025f000 f   LIBCMT:localref.obj
 0001:0025e078       _isctype_l                 000000014025f078 f   LIBCMT:isctype.obj
 0001:0025e160       _isctype                   000000014025f160 f   LIBCMT:isctype.obj
 0001:0025e184       _validate_param_reuseA     000000014025f184 f   LIBCMT:outputp.obj
 0001:0025e424       get_crtdouble_arg          000000014025f424 f i LIBCMT:outputp.obj
 0001:0025e430       _output_p_l                000000014025f430 f   LIBCMT:outputp.obj
 0001:0025f548       _fltin2                    0000000140260548 f   LIBCMT:_cfin_.obj
 0001:0025f60c       __addl                     000000014026060c f i LIBCMT:_strgtold_.obj
 0001:0025f628       __shl_12                   0000000140260628 f i LIBCMT:_strgtold_.obj
 0001:0025f654       __shr_12                   0000000140260654 f i LIBCMT:_strgtold_.obj
 0001:0025f680       __ld12mul                  0000000140260680 f i LIBCMT:_strgtold_.obj
 0001:0025f9b8       __multtenpow12             00000001402609b8 f i LIBCMT:_strgtold_.obj
 0001:0025fd58       __strgtold12_l             0000000140260d58 f   LIBCMT:_strgtold_.obj
 0001:002605bc       __STRINGTOLD_L             00000001402615bc f   LIBCMT:_strgtold_.obj
 0001:00260634       _isleadbyte_l              0000000140261634 f i LIBCMT:_wctype.obj
 0001:0026067c       isleadbyte                 000000014026167c f i LIBCMT:_wctype.obj
 0001:002606c4       _iswalpha_l                00000001402616c4 f i LIBCMT:_wctype.obj
 0001:002606d0       iswalpha                   00000001402616d0 f i LIBCMT:_wctype.obj
 0001:002606dc       _iswupper_l                00000001402616dc f i LIBCMT:_wctype.obj
 0001:002606e8       iswupper                   00000001402616e8 f i LIBCMT:_wctype.obj
 0001:002606f4       _iswlower_l                00000001402616f4 f i LIBCMT:_wctype.obj
 0001:00260700       iswlower                   0000000140261700 f i LIBCMT:_wctype.obj
 0001:0026070c       _iswdigit_l                000000014026170c f i LIBCMT:_wctype.obj
 0001:00260718       iswdigit                   0000000140261718 f i LIBCMT:_wctype.obj
 0001:00260724       _iswxdigit_l               0000000140261724 f i LIBCMT:_wctype.obj
 0001:00260730       iswxdigit                  0000000140261730 f i LIBCMT:_wctype.obj
 0001:0026073c       _iswspace_l                000000014026173c f i LIBCMT:_wctype.obj
 0001:00260748       iswspace                   0000000140261748 f i LIBCMT:_wctype.obj
 0001:00260754       _iswpunct_l                0000000140261754 f i LIBCMT:_wctype.obj
 0001:00260760       iswpunct                   0000000140261760 f i LIBCMT:_wctype.obj
 0001:0026076c       _iswalnum_l                000000014026176c f i LIBCMT:_wctype.obj
 0001:00260778       iswalnum                   0000000140261778 f i LIBCMT:_wctype.obj
 0001:00260784       _iswprint_l                0000000140261784 f i LIBCMT:_wctype.obj
 0001:00260790       iswprint                   0000000140261790 f i LIBCMT:_wctype.obj
 0001:0026079c       _iswgraph_l                000000014026179c f i LIBCMT:_wctype.obj
 0001:002607a8       iswgraph                   00000001402617a8 f i LIBCMT:_wctype.obj
 0001:002607b4       _iswcntrl_l                00000001402617b4 f i LIBCMT:_wctype.obj
 0001:002607c0       iswcntrl                   00000001402617c0 f i LIBCMT:_wctype.obj
 0001:002607cc       iswascii                   00000001402617cc f i LIBCMT:_wctype.obj
 0001:002607dc       _iswcsym_l                 00000001402617dc f i LIBCMT:_wctype.obj
 0001:00260808       __iswcsym                  0000000140261808 f i LIBCMT:_wctype.obj
 0001:00260834       _iswcsymf_l                0000000140261834 f i LIBCMT:_wctype.obj
 0001:00260860       __iswcsymf                 0000000140261860 f i LIBCMT:_wctype.obj
 0001:0026088c       _commit                    000000014026188c f   LIBCMT:commit.obj
 0001:00260964       ?__StateFromIp@@YAHPEBU_s_FuncInfo@@PEAU_xDISPATCHER_CONTEXT@@_J@Z 0000000140261964 f   LIBCMT:ehstate.obj
 0001:002609f0       ?__StateFromControlPc@@YAHPEBU_s_FuncInfo@@PEAU_xDISPATCHER_CONTEXT@@@Z 00000001402619f0 f   LIBCMT:ehstate.obj
 0001:002609f8       ?__GetCurrentState@@YAHPEA_KPEAU_xDISPATCHER_CONTEXT@@PEBU_s_FuncInfo@@@Z 00000001402619f8 f   LIBCMT:ehstate.obj
 0001:00260a20       ?__SetState@@YAXPEA_KPEAU_xDISPATCHER_CONTEXT@@PEBU_s_FuncInfo@@H@Z 0000000140261a20 f   LIBCMT:ehstate.obj
 0001:00260a2c       ?__SetUnwindTryBlock@@YAXPEA_KPEAU_xDISPATCHER_CONTEXT@@PEBU_s_FuncInfo@@H@Z 0000000140261a2c f   LIBCMT:ehstate.obj
 0001:00260a68       ?__GetUnwindTryBlock@@YAHPEA_KPEAU_xDISPATCHER_CONTEXT@@PEBU_s_FuncInfo@@@Z 0000000140261a68 f   LIBCMT:ehstate.obj
 0001:00260a94       ??0bad_exception@std@@QEAA@PEBD@Z 0000000140261a94 f i LIBCMT:frame.obj
 0001:00260ac0       ??1bad_exception@std@@UEAA@XZ 0000000140261ac0 f i LIBCMT:frame.obj
 0001:00260ad0       ??_Ebad_exception@std@@UEAAPEAXI@Z 0000000140261ad0 f i LIBCMT:frame.obj
 0001:00260ad0       ??_Gbad_exception@std@@UEAAPEAXI@Z 0000000140261ad0 f i LIBCMT:frame.obj
 0001:00260b0c       __TypeMatch                0000000140261b0c f   LIBCMT:frame.obj
 0001:00260c30       __FrameUnwindFilter        0000000140261c30 f   LIBCMT:frame.obj
 0001:00260c84       __FrameUnwindToState       0000000140261c84 f   LIBCMT:frame.obj
 0001:00260ec0       __DestructExceptionObject  0000000140261ec0 f   LIBCMT:frame.obj
 0001:00260f04       __AdjustPointer            0000000140261f04 f   LIBCMT:frame.obj
 0001:00260f28       ?__uncaught_exception@@YA_NXZ 0000000140261f28 f   LIBCMT:frame.obj
 0001:00260f44       __CxxRegisterExceptionObject 0000000140261f44 f   LIBCMT:frame.obj
 0001:00261014       __CxxDetectRethrow         0000000140262014 f   LIBCMT:frame.obj
 0001:0026106c       __CxxUnregisterExceptionObject 000000014026206c f   LIBCMT:frame.obj
 0001:002611c4       __CxxQueryExceptionSize    00000001402621c4 f   LIBCMT:frame.obj
 0001:002611cc       __CxxCallUnwindDtor        00000001402621cc f   LIBCMT:frame.obj
 0001:002611e0       __CxxCallUnwindDelDtor     00000001402621e0 f   LIBCMT:frame.obj
 0001:002611f4       __CxxCallUnwindStdDelDtor  00000001402621f4 f   LIBCMT:frame.obj
 0001:00261208       __CxxCallUnwindVecDtor     0000000140262208 f   LIBCMT:frame.obj
 0001:00261390       ?_is_exception_typeof@@YAHAEBVtype_info@@PEAU_EXCEPTION_POINTERS@@@Z 0000000140262390 f   LIBCMT:frame.obj
 0001:0026145c       __CxxCallCatchBlock        000000014026245c f   LIBCMT:frame.obj
 0001:00261670       __BuildCatchObjectHelper   0000000140262670 f   LIBCMT:frame.obj
 0001:00261874       __BuildCatchObject         0000000140262874 f   LIBCMT:frame.obj
 0001:00261924       __CxxExceptionFilter       0000000140262924 f   LIBCMT:frame.obj
 0001:00262300       ??0bad_exception@std@@QEAA@AEBV01@@Z 0000000140263300 f i LIBCMT:frame.obj
 0001:00262324       __InternalCxxFrameHandler  0000000140263324 f   LIBCMT:frame.obj
 0001:0026254c       _getbuf                    000000014026354c f   LIBCMT:_getbuf.obj
 0001:002625a0       _msize                     00000001402635a0 f   LIBCMT:msize.obj
 0001:00262674       _INTRN_LOCALE_CONV         0000000140263674 f i LIBCMT:input.obj
 0001:00262728       _input_l                   0000000140263728 f   LIBCMT:input.obj
 0001:002638dc       _input_s_l                 00000001402648dc f   LIBCMT:inputs.obj
 0001:00264a48       _mbsnbicoll_l              0000000140265a48 f   LIBCMT:mbsnbico.obj
 0001:00264b4c       _mbsnbicoll                0000000140265b4c f   LIBCMT:mbsnbico.obj
 0001:00264b54       __wtomb_environ            0000000140265b54 f   LIBCMT:wtombenv.obj
 0001:00264c48       calloc                     0000000140265c48 f   LIBCMT:calloc.obj
 0001:00264c8c       _ftelli64_nolock           0000000140265c8c f   LIBCMT:ftelli64.obj
 0001:00264f7c       _ftelli64                  0000000140265f7c f   LIBCMT:ftelli64.obj
 0001:00264fd8       _spawnvpe                  0000000140265fd8 f   LIBCMT:spawnvpe.obj
 0001:00265338       _spawnve                   0000000140266338 f   LIBCMT:spawnve.obj
 0001:002655c0       _access_s                  00000001402665c0 f   LIBCMT:access.obj
 0001:00265640       _access                    0000000140266640 f   LIBCMT:access.obj
 0001:00265654       __ascii_stricmp            0000000140266654 f   LIBCMT:stricmp.obj
 0001:00265690       _stricmp_l                 0000000140266690 f   LIBCMT:stricmp.obj
 0001:00265768       stricmp                    0000000140266768 f   LIBCMT:stricmp.obj
 0001:00265768       _stricmp                   0000000140266768 f   LIBCMT:stricmp.obj
 0001:002658c8       _handle_errorf             00000001402668c8 f   LIBCMT:_libm_error_.obj
 0001:00265a24       _handle_error              0000000140266a24 f   LIBCMT:_libm_error_.obj
 0001:00265b74       _powf_special              0000000140266b74 f   LIBCMT:_pow_special_.obj
 0001:00265c9c       _pow_special               0000000140266c9c f   LIBCMT:_pow_special_.obj
 0001:002660fc       __crtCompareStringA        00000001402670fc f   LIBCMT:a_cmp.obj
 0001:00266188       strcat_s                   0000000140267188 f   LIBCMT:strcat_s.obj
 0001:002662f8       _itoa_s                    00000001402672f8 f   LIBCMT:xtoas.obj
 0001:00266320       _ltoa_s                    0000000140267320 f   LIBCMT:xtoas.obj
 0001:00266344       _ultoa_s                   0000000140267344 f   LIBCMT:xtoas.obj
 0001:00266450       _i64toa_s                  0000000140267450 f   LIBCMT:xtoas.obj
 0001:00266474       _ui64toa_s                 0000000140267474 f   LIBCMT:xtoas.obj
 0001:00266488       _getpid                    0000000140267488 f   LIBCMT:getpid.obj
 0001:00266490       _mbsrchr_l                 0000000140267490 f   LIBCMT:mbsrchr.obj
 0001:00266570       _mbsrchr                   0000000140267570 f   LIBCMT:mbsrchr.obj
 0001:00266578       _rmtmp                     0000000140267578 f   LIBCMT:rmtmp.obj
 0001:00266618       strdup                     0000000140267618 f   LIBCMT:strdup.obj
 0001:00266618       _strdup                    0000000140267618 f   LIBCMT:strdup.obj
 0001:00266688       _getpath                   0000000140267688 f   LIBCMT:getpath.obj
 0001:00266740       _fdopen                    0000000140267740 f   LIBCMT:fdopen.obj
 0001:002668ec       _pipe                      00000001402678ec f   LIBCMT:pipe.obj
 0001:00266bd0       _cwait                     0000000140267bd0 f   LIBCMT:wait.obj
 0001:00266c84       __remainder_piby2          0000000140267c84 f   LIBCMT:_remainder_piby2_.obj
 0001:00267164       _sincos_special            0000000140268164 f   LIBCMT:_sincos_special_.obj
 0001:00267240       _sincosf_special           0000000140268240 f   LIBCMT:_sincos_special_.obj
 0001:002672d8       _sinf_special              00000001402682d8 f   LIBCMT:_sincos_special_.obj
 0001:002672ec       _sin_special               00000001402682ec f   LIBCMT:_sincos_special_.obj
 0001:00267300       _cosf_special              0000000140268300 f   LIBCMT:_sincos_special_.obj
 0001:00267314       _cos_special               0000000140268314 f   LIBCMT:_sincos_special_.obj
 0001:00267328       _controlfp_s               0000000140268328 f   LIBCMT:_contrlfp_.obj
 0001:0026749c       _logf_special              000000014026849c f   LIBCMT:_log_special_.obj
 0001:002674bc       _log10f_special            00000001402684bc f   LIBCMT:_log_special_.obj
 0001:002675ac       _log_special               00000001402685ac f   LIBCMT:_log_special_.obj
 0001:002675cc       _log10_special             00000001402685cc f   LIBCMT:_log_special_.obj
 0001:002675ec       _expf_special              00000001402685ec f   LIBCMT:_exp_special_.obj
 0001:002676cc       _exp_special               00000001402686cc f   LIBCMT:_exp_special_.obj
 0001:002677a0       _set_exp                   00000001402687a0 f   LIBCMT:_util_.obj
 0001:002677d8       _get_exp                   00000001402687d8 f   LIBCMT:_util_.obj
 0001:00267800       _add_exp                   0000000140268800 f   LIBCMT:_util_.obj
 0001:00267850       _set_bexp                  0000000140268850 f   LIBCMT:_util_.obj
 0001:00267880       _sptype                    0000000140268880 f   LIBCMT:_util_.obj
 0001:002678f4       _decomp                    00000001402688f4 f   LIBCMT:_util_.obj
 0001:00267a34       _raise_exc_ex              0000000140268a34 f   LIBCMT:_fpexcept_.obj
 0001:00267d40       _raise_exc                 0000000140268d40 f   LIBCMT:_fpexcept_.obj
 0001:00267d68       _raise_excf                0000000140268d68 f   LIBCMT:_fpexcept_.obj
 0001:00267d94       _handle_exc                0000000140268d94 f   LIBCMT:_fpexcept_.obj
 0001:00268000       _set_errno_from_matherr    0000000140269000 f   LIBCMT:_fpexcept_.obj
 0001:00268064       _errcode                   0000000140269064 f   LIBCMT:_fpexcept_.obj
 0001:002680a8       _umatherr                  00000001402690a8 f   LIBCMT:_fpexcept_.obj
 0001:0026817c       _handle_qnan1              000000014026917c f   LIBCMT:_fpexcept_.obj
 0001:002681e0       _handle_qnan2              00000001402691e0 f   LIBCMT:_fpexcept_.obj
 0001:00268248       _except1                   0000000140269248 f   LIBCMT:_fpexcept_.obj
 0001:0026833c       _except2                   000000014026933c f   LIBCMT:_fpexcept_.obj
 0001:00268444       _statfp                    0000000140269444 f   LIBCMT:_fpctrl_.obj
 0001:00268458       _clrfp                     0000000140269458 f   LIBCMT:_fpctrl_.obj
 0001:00268478       _ctrlfp                    0000000140269478 f   LIBCMT:_fpctrl_.obj
 0001:002684f4       _set_statfp                00000001402694f4 f   LIBCMT:_fpctrl_.obj
 0001:00268514       _copysign                  0000000140269514 f   LIBCMT:__copysign_.obj
 0001:002690bc       __free_lc_time             000000014026a0bc f   LIBCMT:inittime.obj
 0001:002694ac       __init_time                000000014026a4ac f   LIBCMT:inittime.obj
 0001:00269584       __free_lconv_num           000000014026a584 f   LIBCMT:initnum.obj
 0001:002695f0       __init_numeric             000000014026a5f0 f   LIBCMT:initnum.obj
 0001:00269894       __free_lconv_mon           000000014026a894 f   LIBCMT:initmon.obj
 0001:002699a0       __init_monetary            000000014026a9a0 f   LIBCMT:initmon.obj
 0001:00269e54       __init_collate             000000014026ae54 f   LIBCMT:initcoll.obj
 0001:0026a6f4       __get_qualified_locale     000000014026b6f4 f   LIBCMT:getqloc.obj
 0001:0026ab34       __crtGetStringTypeA        000000014026bb34 f   LIBCMT:a_str.obj
 0001:0026acf8       _output_s_l                000000014026bcf8 f   LIBCMT:outputs.obj
 0001:0026b7a4       _vswprintf_helper          000000014026c7a4 f   LIBCMT:vswprnc.obj
 0001:0026b8c0       _vswprintf_c               000000014026c8c0 f   LIBCMT:vswprnc.obj
 0001:0026b8f4       _vswprintf_c_l             000000014026c8f4 f   LIBCMT:vswprnc.obj
 0001:0026b92c       _vswprintf_s_l             000000014026c92c f   LIBCMT:vswprnc.obj
 0001:0026b9a8       vswprintf_s                000000014026c9a8 f   LIBCMT:vswprnc.obj
 0001:0026b9c0       _vsnwprintf_s_l            000000014026c9c0 f   LIBCMT:vswprnc.obj
 0001:0026bb10       _vsnwprintf_s              000000014026cb10 f   LIBCMT:vswprnc.obj
 0001:0026bb30       _vswprintf_p               000000014026cb30 f   LIBCMT:vswprnc.obj
 0001:0026bb64       _vswprintf_p_l             000000014026cb64 f   LIBCMT:vswprnc.obj
 0001:0026bb9c       fwprintf                   000000014026cb9c f   LIBCMT:fwprintf.obj
 0001:0026bc30       _fwprintf_l                000000014026cc30 f   LIBCMT:fwprintf.obj
 0001:0026bc50       _fwprintf_s_l              000000014026cc50 f   LIBCMT:fwprintf.obj
 0001:0026bc70       fwprintf_s                 000000014026cc70 f   LIBCMT:fwprintf.obj
 0001:0026bc94       _fwprintf_p_l              000000014026cc94 f   LIBCMT:fwprintf.obj
 0001:0026bcb4       _fwprintf_p                000000014026ccb4 f   LIBCMT:fwprintf.obj
 0001:0026bcd8       __crtMessageBoxW           000000014026ccd8 f   LIBCMT:crtmboxw.obj
 0001:0026bfec       _itow_s                    000000014026cfec f   LIBCMT:xtows.obj
 0001:0026c014       _ltow_s                    000000014026d014 f   LIBCMT:xtows.obj
 0001:0026c038       _ultow_s                   000000014026d038 f   LIBCMT:xtows.obj
 0001:0026c160       _i64tow_s                  000000014026d160 f   LIBCMT:xtows.obj
 0001:0026c184       _ui64tow_s                 000000014026d184 f   LIBCMT:xtows.obj
 0001:0026c198       wcsncat_s                  000000014026d198 f   LIBCMT:wcsncat_s.obj
 0001:0026c280       wcsncpy_s                  000000014026d280 f   LIBCMT:wcsncpy_s.obj
 0001:0026c350       wcslen                     000000014026d350 f   LIBCMT:wcslen.obj
 0001:0026c36c       wcscat_s                   000000014026d36c f   LIBCMT:wcscat_s.obj
 0001:0026c3f4       wcscpy_s                   000000014026d3f4 f   LIBCMT:wcscpy_s.obj
 0001:0026c460       _set_error_mode            000000014026d460 f   LIBCMT:errmode.obj
 0001:0026c4a0       __set_app_type             000000014026d4a0 f   LIBCMT:errmode.obj
 0001:0026c4a8       ?__CxxUnhandledExceptionFilter@@YAJPEAU_EXCEPTION_POINTERS@@@Z 000000014026d4a8 f   LIBCMT:unhandld.obj
 0001:0026c4ec       __CxxSetUnhandledExceptionFilter 000000014026d4ec f   LIBCMT:unhandld.obj
 0001:0026c534       _XcptFilter                000000014026d534 f   LIBCMT:winxfltr.obj
 0001:0026c704       __CppXcptFilter            000000014026d704 f   LIBCMT:winxfltr.obj
 0001:0026c718       _setenvp                   000000014026d718 f   LIBCMT:stdenvp.obj
 0001:0026c848       _set_pgmptr                000000014026d848 f i LIBCMT:stdargv.obj
 0001:0026ca20       _setargv                   000000014026da20 f   LIBCMT:stdargv.obj
 0001:0026cb18       __crtGetEnvironmentStringsA 000000014026db18 f   LIBCMT:a_env.obj
 0001:0026cc0c       __security_init_cookie     000000014026dc0c f   LIBCMT:gs_support.obj
 0001:0026ccc0       _calloc_impl               000000014026dcc0 f   LIBCMT:calloc_impl.obj
 0001:0026cd5c       _recalloc                  000000014026dd5c f   LIBCMT:recalloc.obj
 0001:0026cde4       _wopenfile                 000000014026dde4 f   LIBCMT:_wopen.obj
 0001:0026d0c4       __crt_debugger_hook        000000014026e0c4 f   LIBCMT:dbghook.obj
 0001:0026d0cc       _mbsnbicmp_l               000000014026e0cc f   LIBCMT:mbsnbicm.obj
 0001:0026d2b4       _mbsnbicmp                 000000014026e2b4 f   LIBCMT:mbsnbicm.obj
 0001:0026d2bc       _mbsnbcmp_l                000000014026e2bc f   LIBCMT:mbsnbcmp.obj
 0001:0026d41c       _mbsnbcmp                  000000014026e41c f   LIBCMT:mbsnbcmp.obj
 0001:0026d424       _isatty                    000000014026e424 f   LIBCMT:isatty.obj
 0001:0026d484       _putwch_nolock             000000014026e484 f   LIBCMT:putwch.obj
 0001:0026d4e0       _putwch                    000000014026e4e0 f   LIBCMT:putwch.obj
 0001:0026d514       _mbtowc_l                  000000014026e514 f   LIBCMT:mbtowc.obj
 0001:0026d68c       mbtowc                     000000014026e68c f   LIBCMT:mbtowc.obj
 0001:0026d694       ??0Block@_HeapManager@@QEAA@XZ 000000014026e694 f i LIBCMT:undname.obj
 0001:0026d69c       ?Constructor@_HeapManager@@QEAAXP6APEAX_K@ZP6AXPEAX@Z@Z 000000014026e69c f i LIBCMT:undname.obj
 0001:0026d6b4       ?Destructor@_HeapManager@@QEAAXXZ 000000014026e6b4 f i LIBCMT:undname.obj
 0001:0026d6f8       ?getNumberOfDimensions@UnDecorator@@CAHXZ 000000014026e6f8 f   LIBCMT:undname.obj
 0001:0026d768       ?getTypeEncoding@UnDecorator@@CAHXZ 000000014026e768 f i LIBCMT:undname.obj
 0001:0026dc68       ?doUnderScore@UnDecorator@@SAHXZ 000000014026ec68 f i LIBCMT:undname.obj
 0001:0026dc74       ?doMSKeywords@UnDecorator@@SAHXZ 000000014026ec74 f i LIBCMT:undname.obj
 0001:0026dc84       ?doPtr64@UnDecorator@@SAHXZ 000000014026ec84 f i LIBCMT:undname.obj
 0001:0026dc94       ?doFunctionReturns@UnDecorator@@SAHXZ 000000014026ec94 f i LIBCMT:undname.obj
 0001:0026dca4       ?doAllocationModel@UnDecorator@@SAHXZ 000000014026eca4 f i LIBCMT:undname.obj
 0001:0026dcb4       ?doAllocationLanguage@UnDecorator@@SAHXZ 000000014026ecb4 f i LIBCMT:undname.obj
 0001:0026dcc4       ?doThisTypes@UnDecorator@@SAHXZ 000000014026ecc4 f i LIBCMT:undname.obj
 0001:0026dcd8       ?doAccessSpecifiers@UnDecorator@@SAHXZ 000000014026ecd8 f i LIBCMT:undname.obj
 0001:0026dce8       ?doThrowTypes@UnDecorator@@SAHXZ 000000014026ece8 f i LIBCMT:undname.obj
 0001:0026dcf8       ?doMemberTypes@UnDecorator@@SAHXZ 000000014026ecf8 f i LIBCMT:undname.obj
 0001:0026dd08       ?doNameOnly@UnDecorator@@SAHXZ 000000014026ed08 f i LIBCMT:undname.obj
 0001:0026dd14       ?doTypeOnly@UnDecorator@@SAHXZ 000000014026ed14 f i LIBCMT:undname.obj
 0001:0026dd20       ?haveTemplateParameters@UnDecorator@@SAHXZ 000000014026ed20 f i LIBCMT:undname.obj
 0001:0026dd2c       ?doEcsu@UnDecorator@@SAHXZ 000000014026ed2c f i LIBCMT:undname.obj
 0001:0026dd3c       ?doNoIdentCharCheck@UnDecorator@@SAHXZ 000000014026ed3c f i LIBCMT:undname.obj
 0001:0026dd48       ?doEllipsis@UnDecorator@@SAHXZ 000000014026ed48 f i LIBCMT:undname.obj
 0001:0026dd58       ?UScore@UnDecorator@@SAPEBDW4Tokens@@@Z 000000014026ed58 f   LIBCMT:undname.obj
 0001:0026dd78       ?getMemory@_HeapManager@@QEAAPEAX_KH@Z 000000014026ed78 f   LIBCMT:undname.obj
 0001:0026de2c       ??0DName@@QEAA@XZ          000000014026ee2c f i LIBCMT:undname.obj
 0001:0026de40       ??0DName@@QEAA@AEBV0@@Z    000000014026ee40 f i LIBCMT:undname.obj
 0001:0026de4c       ?isValid@DName@@QEBAHXZ    000000014026ee4c f i LIBCMT:undname.obj
 0001:0026de58       ?isEmpty@DName@@QEBAHXZ    000000014026ee58 f i LIBCMT:undname.obj
 0001:0026de64       ?status@DName@@QEBA?AW4DNameStatus@@XZ 000000014026ee64 f i LIBCMT:undname.obj
 0001:0026de6c       ?setPtrRef@DName@@QEAAAEAV1@XZ 000000014026ee6c f i LIBCMT:undname.obj
 0001:0026de78       ?isPtrRef@DName@@QEBAHXZ   000000014026ee78 f i LIBCMT:undname.obj
 0001:0026de84       ?isUDC@DName@@QEBAHXZ      000000014026ee84 f i LIBCMT:undname.obj
 0001:0026de9c       ?setIsUDC@DName@@QEAAXXZ   000000014026ee9c f i LIBCMT:undname.obj
 0001:0026dea8       ?isUDTThunk@DName@@QEBAHXZ 000000014026eea8 f i LIBCMT:undname.obj
 0001:0026dec0       ?setIsArray@DName@@QEAAXXZ 000000014026eec0 f i LIBCMT:undname.obj
 0001:0026dec8       ?isArray@DName@@QEBAHXZ    000000014026eec8 f i LIBCMT:undname.obj
 0001:0026ded4       ?isNoTE@DName@@QEBAHXZ     000000014026eed4 f i LIBCMT:undname.obj
 0001:0026dee0       ?setIsNoTE@DName@@QEAAXXZ  000000014026eee0 f i LIBCMT:undname.obj
 0001:0026dee8       ?isPinPtr@DName@@QEBAHXZ   000000014026eee8 f i LIBCMT:undname.obj
 0001:0026def4       ?setIsPinPtr@DName@@QEAAXXZ 000000014026eef4 f i LIBCMT:undname.obj
 0001:0026defc       ?isComArray@DName@@QEBAHXZ 000000014026eefc f i LIBCMT:undname.obj
 0001:0026df08       ?setIsComArray@DName@@QEAAXXZ 000000014026ef08 f i LIBCMT:undname.obj
 0001:0026df10       ?isVCallThunk@DName@@QEBAHXZ 000000014026ef10 f i LIBCMT:undname.obj
 0001:0026df1c       ?setIsVCallThunk@DName@@QEAAXXZ 000000014026ef1c f i LIBCMT:undname.obj
 0001:0026df24       ?length@DName@@QEBAHXZ     000000014026ef24 f i LIBCMT:undname.obj
 0001:0026df38       ?getLastChar@DName@@QEBADXZ 000000014026ef38 f i LIBCMT:undname.obj
 0001:0026df4c       ?getString@DName@@QEBAPEADPEAD0@Z 000000014026ef4c f i LIBCMT:undname.obj
 0001:0026df60       ??_5DName@@QEAAAEAV0@AEBV0@@Z 000000014026ef60 f   LIBCMT:undname.obj
 0001:0026df74       ??4DName@@QEAAAEAV0@AEBV0@@Z 000000014026ef74 f   LIBCMT:undname.obj
 0001:0026df80       ?isFull@Replicator@@QEBAHXZ 000000014026ef80 f i LIBCMT:undname.obj
 0001:0026df8c       ??0Replicator@@QEAA@XZ     000000014026ef8c f i LIBCMT:undname.obj
 0001:0026df94       ??0DNameNode@@IEAA@XZ      000000014026ef94 f   LIBCMT:undname.obj
 0001:0026dfa4       ??0charNode@@QEAA@D@Z      000000014026efa4 f   LIBCMT:undname.obj
 0001:0026dfb8       ?length@charNode@@UEBAHXZ  000000014026efb8 f i LIBCMT:undname.obj
 0001:0026dfc0       ?getLastChar@charNode@@UEBADXZ 000000014026efc0 f i LIBCMT:undname.obj
 0001:0026dfc4       ?getString@charNode@@UEBAPEADPEAD0@Z 000000014026efc4 f i LIBCMT:undname.obj
 0001:0026dfd8       ??0pDNameNode@@QEAA@PEAVDName@@@Z 000000014026efd8 f   LIBCMT:undname.obj
 0001:0026e000       ?length@pDNameNode@@UEBAHXZ 000000014026f000 f i LIBCMT:undname.obj
 0001:0026e024       ?getLastChar@pDNameNode@@UEBADXZ 000000014026f024 f i LIBCMT:undname.obj
 0001:0026e048       ?getString@pDNameNode@@UEBAPEADPEAD0@Z 000000014026f048 f i LIBCMT:undname.obj
 0001:0026e070       ??0DNameStatusNode@@AEAA@W4DNameStatus@@@Z 000000014026f070 f   LIBCMT:undname.obj
 0001:0026e094       ?length@DNameStatusNode@@UEBAHXZ 000000014026f094 f i LIBCMT:undname.obj
 0001:0026e098       ?getLastChar@DNameStatusNode@@UEBADXZ 000000014026f098 f i LIBCMT:undname.obj
 0001:0026e0a4       ?make@DNameStatusNode@@SAPEAV1@W4DNameStatus@@@Z 000000014026f0a4 f i LIBCMT:undname.obj
 0001:0026e12c       ??0pairNode@@QEAA@PEAVDNameNode@@0@Z 000000014026f12c f   LIBCMT:undname.obj
 0001:0026e148       ?length@pairNode@@UEBAHXZ  000000014026f148 f i LIBCMT:undname.obj
 0001:0026e190       ?getLastChar@pairNode@@UEBADXZ 000000014026f190 f i LIBCMT:undname.obj
 0001:0026e1b8       ?getString@pairNode@@UEBAPEADPEAD0@Z 000000014026f1b8 f i LIBCMT:undname.obj
 0001:0026e250       ??0UnDecorator@@QEAA@PEADPEBDHP6APEADJ@ZK@Z 000000014026f250 f i LIBCMT:undname.obj
 0001:0026e2c4       ?getDataIndirectType@UnDecorator@@CA?AVDName@@XZ 000000014026f2c4 f i LIBCMT:undname.obj
 0001:0026e30c       ?getThisType@UnDecorator@@CA?AVDName@@XZ 000000014026f30c f i LIBCMT:undname.obj
 0001:0026e354       ??2@YAPEAX_KAEAV_HeapManager@@H@Z 000000014026f354 f i LIBCMT:undname.obj
 0001:0026e364       ?getStringHelper@@YAPEADPEAD00H@Z 000000014026f364 f i LIBCMT:undname.obj
 0001:0026e390       ??0DName@@QEAA@PEAV0@@Z    000000014026f390 f   LIBCMT:undname.obj
 0001:0026e408       ??0DName@@QEAA@W4DNameStatus@@@Z 000000014026f408 f   LIBCMT:undname.obj
 0001:0026e454       ?getString@DName@@QEBAPEADPEADH@Z 000000014026f454 f i LIBCMT:undname.obj
 0001:0026e4dc       ?append@DName@@AEAAXPEAVDNameNode@@@Z 000000014026f4dc f   LIBCMT:undname.obj
 0001:0026e540       ??4DName@@QEAAAEAV0@PEAV0@@Z 000000014026f540 f   LIBCMT:undname.obj
 0001:0026e5b8       ??4DName@@QEAAAEAV0@W4DNameStatus@@@Z 000000014026f5b8 f   LIBCMT:undname.obj
 0001:0026e5f4       ??YReplicator@@QEAAAEAV0@AEBVDName@@@Z 000000014026f5f4 f   LIBCMT:undname.obj
 0001:0026e654       ??AReplicator@@QEBA?AVDName@@H@Z 000000014026f654 f   LIBCMT:undname.obj
 0001:0026e698       ??0pcharNode@@QEAA@PEBDH@Z 000000014026f698 f   LIBCMT:undname.obj
 0001:0026e71c       ?length@pcharNode@@UEBAHXZ 000000014026f71c f i LIBCMT:undname.obj
 0001:0026e720       ?getLastChar@pcharNode@@UEBADXZ 000000014026f720 f i LIBCMT:undname.obj
 0001:0026e734       ?getString@pcharNode@@UEBAPEADPEAD0@Z 000000014026f734 f i LIBCMT:undname.obj
 0001:0026e76c       ?getString@DNameStatusNode@@UEBAPEADPEAD0@Z 000000014026f76c f i LIBCMT:undname.obj
 0001:0026e7b0       ?getReturnType@UnDecorator@@CA?AVDName@@PEAV2@@Z 000000014026f7b0 f   LIBCMT:undname.obj
 0001:0026e7e4       ?getStorageConvention@UnDecorator@@CA?AVDName@@XZ 000000014026f7e4 f i LIBCMT:undname.obj
 0001:0026e82c       ??YDName@@QEAAAEAV0@W4DNameStatus@@@Z 000000014026f82c f   LIBCMT:undname.obj
 0001:0026e874       ?doPchar@DName@@AEAAXPEBDH@Z 000000014026f874 f   LIBCMT:undname.obj
 0001:0026e920       ??0DName@@QEAA@D@Z         000000014026f920 f   LIBCMT:undname.obj
 0001:0026e958       ??0DName@@QEAA@PEBD@Z      000000014026f958 f   LIBCMT:undname.obj
 0001:0026e9a0       ??0DName@@QEAA@AEAPEBDD@Z  000000014026f9a0 f   LIBCMT:undname.obj
 0001:0026ea90       ??0DName@@QEAA@_K@Z        000000014026fa90 f   LIBCMT:undname.obj
 0001:0026eb20       ??0DName@@QEAA@_J@Z        000000014026fb20 f   LIBCMT:undname.obj
 0001:0026ebcc       ??HDName@@QEBA?AV0@W4DNameStatus@@@Z 000000014026fbcc f   LIBCMT:undname.obj
 0001:0026ebf0       ??YDName@@QEAAAEAV0@AEBV0@@Z 000000014026fbf0 f   LIBCMT:undname.obj
 0001:0026ec30       ??YDName@@QEAAAEAV0@PEAV0@@Z 000000014026fc30 f   LIBCMT:undname.obj
 0001:0026ecbc       ??4DName@@QEAAAEAV0@D@Z    000000014026fcbc f i LIBCMT:undname.obj
 0001:0026ecf4       ??4DName@@QEAAAEAV0@PEBD@Z 000000014026fcf4 f   LIBCMT:undname.obj
 0001:0026ed34       ?getCallingConvention@UnDecorator@@CA?AVDName@@XZ 000000014026fd34 f   LIBCMT:undname.obj
 0001:0026ee34       ?getVCallThunkType@UnDecorator@@CA?AVDName@@XZ 000000014026fe34 f i LIBCMT:undname.obj
 0001:0026ee8c       ??HDName@@QEBA?AV0@AEBV0@@Z 000000014026fe8c f   LIBCMT:undname.obj
 0001:0026eeb0       ??HDName@@QEBA?AV0@PEAV0@@Z 000000014026feb0 f   LIBCMT:undname.obj
 0001:0026eed4       ??YDName@@QEAAAEAV0@D@Z    000000014026fed4 f   LIBCMT:undname.obj
 0001:0026ef58       ??YDName@@QEAAAEAV0@PEBD@Z 000000014026ff58 f   LIBCMT:undname.obj
 0001:0026efe4       ?getArgumentList@UnDecorator@@CA?AVDName@@XZ 000000014026ffe4 f   LIBCMT:undname.obj
 0001:0026f14c       ?getVdispMapType@UnDecorator@@CA?AVDName@@AEBV2@@Z 000000014027014c f i LIBCMT:undname.obj
 0001:0026f1a8       ??H@YA?AVDName@@DAEBV0@@Z  00000001402701a8 f i LIBCMT:undname.obj
 0001:0026f1e4       ??H@YA?AVDName@@W4DNameStatus@@AEBV0@@Z 00000001402701e4 f i LIBCMT:undname.obj
 0001:0026f220       ??H@YA?AVDName@@PEBDAEBV0@@Z 0000000140270220 f i LIBCMT:undname.obj
 0001:0026f25c       ??HDName@@QEBA?AV0@D@Z     000000014027025c f   LIBCMT:undname.obj
 0001:0026f280       ??HDName@@QEBA?AV0@PEBD@Z  0000000140270280 f   LIBCMT:undname.obj
 0001:0026f2a4       ?getDimension@UnDecorator@@CA?AVDName@@_N@Z 00000001402702a4 f   LIBCMT:undname.obj
 0001:0026f40c       ?getEnumType@UnDecorator@@CA?AVDName@@XZ 000000014027040c f i LIBCMT:undname.obj
 0001:0026f50c       ?getArgumentTypes@UnDecorator@@CA?AVDName@@XZ 000000014027050c f   LIBCMT:undname.obj
 0001:0026f614       ?getThrowTypes@UnDecorator@@CA?AVDName@@XZ 0000000140270614 f   LIBCMT:undname.obj
 0001:0026f708       ?getExtendedDataIndirectType@UnDecorator@@CA?AVDName@@AEAPEBDAEA_NH@Z 0000000140270708 f   LIBCMT:undname.obj
 0001:0026f970       ?getArrayType@UnDecorator@@CA?AVDName@@AEBV2@@Z 0000000140270970 f i LIBCMT:undname.obj
 0001:0026fc54       ?getLexicalFrame@UnDecorator@@CA?AVDName@@XZ 0000000140270c54 f i LIBCMT:undname.obj
 0001:0026fcb4       ?getDisplacement@UnDecorator@@CA?AVDName@@XZ 0000000140270cb4 f i LIBCMT:undname.obj
 0001:0026fcd0       ?getCallIndex@UnDecorator@@CA?AVDName@@XZ 0000000140270cd0 f i LIBCMT:undname.obj
 0001:0026fcec       ?getGuardNumber@UnDecorator@@CA?AVDName@@XZ 0000000140270cec f i LIBCMT:undname.obj
 0001:0026fd08       ?getVfTableType@UnDecorator@@CA?AVDName@@AEBV2@@Z 0000000140270d08 f i LIBCMT:undname.obj
 0001:0026fefc       ?getStringEncoding@UnDecorator@@CA?AVDName@@PEADH@Z 0000000140270efc f   LIBCMT:undname.obj
 0001:0026ffd0       ?getSignedDimension@UnDecorator@@CA?AVDName@@XZ 0000000140270fd0 f   LIBCMT:undname.obj
 0001:0027004c       ?getTemplateConstant@UnDecorator@@CA?AVDName@@XZ 000000014027104c f   LIBCMT:undname.obj
 0001:002703b4       ?getPtrRefDataType@UnDecorator@@CA?AVDName@@AEBV2@H@Z 00000001402713b4 f i LIBCMT:undname.obj
 0001:002704bc       ?getVbTableType@UnDecorator@@CA?AVDName@@AEBV2@@Z 00000001402714bc f i LIBCMT:undname.obj
 0001:002704d4       ?getTemplateArgumentList@UnDecorator@@CA?AVDName@@XZ 00000001402714d4 f   LIBCMT:undname.obj
 0001:00270748       ?getOperatorName@UnDecorator@@CA?AVDName@@_NPEA_N@Z 0000000140271748 f i LIBCMT:undname.obj
 0001:00270e84       ?getTemplateName@UnDecorator@@CA?AVDName@@_N@Z 0000000140271e84 f   LIBCMT:undname.obj
 0001:00271058       ?getZName@UnDecorator@@CA?AVDName@@_N0@Z 0000000140272058 f   LIBCMT:undname.obj
 0001:002712d0       ?getScopedName@UnDecorator@@CA?AVDName@@XZ 00000001402722d0 f   LIBCMT:undname.obj
 0001:002713e8       ?getECSUName@UnDecorator@@CA?AVDName@@XZ 00000001402723e8 f i LIBCMT:undname.obj
 0001:00271400       ?getECSUDataType@UnDecorator@@CA?AVDName@@XZ 0000000140272400 f   LIBCMT:undname.obj
 0001:00271560       ?getSymbolName@UnDecorator@@CA?AVDName@@XZ 0000000140272560 f i LIBCMT:undname.obj
 0001:002715ac       ?getBasedType@UnDecorator@@CA?AVDName@@XZ 00000001402725ac f   LIBCMT:undname.obj
 0001:00271698       ?composeDeclaration@UnDecorator@@CA?AVDName@@AEBV2@@Z 0000000140272698 f i LIBCMT:undname.obj
 0001:002723b4       ?getDecoratedName@UnDecorator@@CA?AVDName@@XZ 00000001402733b4 f   LIBCMT:undname.obj
 0001:00272644       ?getScope@UnDecorator@@CA?AVDName@@XZ 0000000140273644 f   LIBCMT:undname.obj
 0001:00272a30       ?getFunctionIndirectType@UnDecorator@@CA?AVDName@@AEBV2@@Z 0000000140273a30 f   LIBCMT:undname.obj
 0001:00272f1c       ?getDataIndirectType@UnDecorator@@CA?AVDName@@AEBV2@PEBD0H@Z 0000000140273f1c f   LIBCMT:undname.obj
 0001:0027365c       ??BUnDecorator@@QEAAPEADXZ 000000014027465c f i LIBCMT:undname.obj
 0001:00273804       ?getPtrRefType@UnDecorator@@CA?AVDName@@AEBV2@0PEBD@Z 0000000140274804 f   LIBCMT:undname.obj
 0001:0027393c       ?getPointerType@UnDecorator@@CA?AVDName@@AEBV2@0@Z 000000014027493c f i LIBCMT:undname.obj
 0001:0027395c       ?getPointerTypeArray@UnDecorator@@CA?AVDName@@AEBV2@0@Z 000000014027495c f i LIBCMT:undname.obj
 0001:0027397c       ?getReferenceType@UnDecorator@@CA?AVDName@@AEBV2@0PEBD@Z 000000014027497c f i LIBCMT:undname.obj
 0001:00273994       __unDName                  0000000140274994 f   LIBCMT:undname.obj
 0001:00273a9c       __unDNameEx                0000000140274a9c f   LIBCMT:undname.obj
 0001:00273ba8       ?getBasicDataType@UnDecorator@@CA?AVDName@@AEBV2@@Z 0000000140274ba8 f   LIBCMT:undname.obj
 0001:00273fe4       ?getPrimaryDataType@UnDecorator@@CA?AVDName@@AEBV2@@Z 0000000140274fe4 f   LIBCMT:undname.obj
 0001:002741f4       ?getDataType@UnDecorator@@CA?AVDName@@PEAV2@@Z 00000001402751f4 f   LIBCMT:undname.obj
 0001:002742dc       ?getExternalDataType@UnDecorator@@CA?AVDName@@AEBV2@@Z 00000001402752dc f i LIBCMT:undname.obj
 0001:002743b0       _validdrive                00000001402753b0 f   LIBCMT:getcwd.obj
 0001:00274414       _getdcwd_nolock            0000000140275414 f   LIBCMT:getcwd.obj
 0001:00274540       _getcwd                    0000000140275540 f   LIBCMT:getcwd.obj
 0001:00274584       _getdcwd                   0000000140275584 f   LIBCMT:getcwd.obj
 0001:002745d4       _mbsicmp_l                 00000001402755d4 f   LIBCMT:mbsicmp.obj
 0001:002747e0       _mbsicmp                   00000001402757e0 f   LIBCMT:mbsicmp.obj
 0001:002747e8       _fstat32                   00000001402757e8 f   LIBCMT:fstat.obj
 0001:00274b90       __loctotime32_t            0000000140275b90 f   LIBCMT:dtoxtime.obj
 0001:00274e44       __GSHandlerCheck_SEH       0000000140275e44 f   LIBCMT:gshandlerseh.obj
 0001:00274ed8       _chsize_nolock             0000000140275ed8 f   LIBCMT:chsize.obj
 0001:00275070       _chsize_s                  0000000140276070 f   LIBCMT:chsize.obj
 0001:00275160       _chsize                    0000000140276160 f   LIBCMT:chsize.obj
 0001:00275160       chsize                     0000000140276160 f   LIBCMT:chsize.obj
 0001:00275178       _setmode_nolock            0000000140276178 f   LIBCMT:setmode.obj
 0001:00275248       _set_fmode                 0000000140276248 f   LIBCMT:setmode.obj
 0001:00275288       _get_fmode                 0000000140276288 f   LIBCMT:setmode.obj
 0001:002752b8       setmode                    00000001402762b8 f   LIBCMT:setmode.obj
 0001:002752b8       _setmode                   00000001402762b8 f   LIBCMT:setmode.obj
 0001:0027550c       __crtGetLocaleInfoA        000000014027650c f   LIBCMT:a_loc.obj
 0001:00275574       _wctomb_s_l                0000000140276574 f   LIBCMT:wctomb.obj
 0001:00275738       wctomb_s                   0000000140276738 f   LIBCMT:wctomb.obj
 0001:0027574c       _wctomb_l                  000000014027674c f   LIBCMT:wctomb.obj
 0001:002757c8       wctomb                     00000001402767c8 f   LIBCMT:wctomb.obj
 0001:0027581c       _fptrap                    000000014027681c f   LIBCMT:crt0fp.obj
 0001:00275828       _atodbl_l                  0000000140276828 f   LIBCMT:atodbl.obj
 0001:00275928       _atodbl                    0000000140276928 f   LIBCMT:atodbl.obj
 0001:00275930       _atoldbl_l                 0000000140276930 f   LIBCMT:atodbl.obj
 0001:00275a34       _atoldbl                   0000000140276a34 f   LIBCMT:atodbl.obj
 0001:00275a3c       _atoflt_l                  0000000140276a3c f   LIBCMT:atodbl.obj
 0001:00275b3c       _atoflt                    0000000140276b3c f   LIBCMT:atodbl.obj
 0001:00275b44       _set_output_format         0000000140276b44 f   LIBCMT:outputformat.obj
 0001:00275b78       _get_output_format         0000000140276b78 f   LIBCMT:outputformat.obj
 0001:00275b80       _fptostr                   0000000140276b80 f   LIBCMT:_fptostr.obj
 0001:00275c4c       __dtold                    0000000140276c4c f   LIBCMT:_cfout_.obj
 0001:00275d14       _fltout2                   0000000140276d14 f   LIBCMT:_cfout_.obj
 0001:00275dcc       _ZeroTail                  0000000140276dcc f i LIBCMT:_intrncvt_.obj
 0001:00275e1c       _IncMan                    0000000140276e1c f i LIBCMT:_intrncvt_.obj
 0001:00275e94       _RoundMan                  0000000140276e94 f i LIBCMT:_intrncvt_.obj
 0001:00275fc4       _CopyMan                   0000000140276fc4 f i LIBCMT:_intrncvt_.obj
 0001:00275fe0       _FillZeroMan               0000000140276fe0 f i LIBCMT:_intrncvt_.obj
 0001:00275fec       _IsZeroMan                 0000000140276fec f i LIBCMT:_intrncvt_.obj
 0001:00276008       _ShrMan                    0000000140277008 f i LIBCMT:_intrncvt_.obj
 0001:002760ac       _ld12cvt                   00000001402770ac f i LIBCMT:_intrncvt_.obj
 0001:0027667c       _ld12tod                   000000014027767c f   LIBCMT:_intrncvt_.obj
 0001:00276c48       _ld12tof                   0000000140277c48 f   LIBCMT:_intrncvt_.obj
 0001:00277214       _ld12told                  0000000140278214 f   LIBCMT:_intrncvt_.obj
 0001:00277300       __add_12                   0000000140278300 f i LIBCMT:_mantold_.obj
 0001:0027737c       __mtold12                  000000014027837c f   LIBCMT:_mantold_.obj
 0001:00277598       iswctype                   0000000140278598 f   LIBCMT:iswctype.obj
 0001:00277600       is_wctype                  0000000140278600 f   LIBCMT:iswctype.obj
 0001:00277608       _iswctype_l                0000000140278608 f   LIBCMT:iswctype.obj
 0001:00277620       _CallSettingFrame          0000000140278620 f   LIBCMT:handlers.obj
 0001:00277660       _GetNextInstrOffset        0000000140278660 f   LIBCMT:handlers.obj
 0001:00277668       ?_ValidateRead@@YAHPEBXI@Z 0000000140278668 f   LIBCMT:validate.obj
 0001:00277674       ?_ValidateWrite@@YAHPEAXI@Z 0000000140278674 f   LIBCMT:validate.obj
 0001:00277680       ?_ValidateExecute@@YAHP6A_JXZ@Z 0000000140278680 f   LIBCMT:validate.obj
 0001:0027768c       _strnicoll_l               000000014027868c f   LIBCMT:strnicol.obj
 0001:00277790       _strnicoll                 0000000140278790 f   LIBCMT:strnicol.obj
 0001:002778b4       __crtsetenv                00000001402788b4 f   LIBCMT:setenv.obj
 0001:00277c50       _mbschr_l                  0000000140278c50 f   LIBCMT:mbschr.obj
 0001:00277d3c       _mbschr                    0000000140278d3c f   LIBCMT:mbschr.obj
 0001:00277d44       _dospawn                   0000000140278d44 f   LIBCMT:dospawn.obj
 0001:00277fdc       _cenvarg                   0000000140278fdc f   LIBCMT:cenvarg.obj
 0001:002784b0       _capture_argv              00000001402794b0 f   LIBCMT:cenvarg.obj
 0001:00278548       _matherr                   0000000140279548 f   LIBCMT:_matherr_.obj
 0001:002786c0       _fpreset                   00000001402796c0 f   LIBCMT:_ieee_.obj
 0001:002786cc       _statusfp                  00000001402796cc f   LIBCMT:_ieee_.obj
 0001:00278710       _clearfp                   0000000140279710 f   LIBCMT:_ieee_.obj
 0001:00278760       _control87                 0000000140279760 f i LIBCMT:_ieee_.obj
 0001:002789f0       _controlfp                 00000001402799f0 f   LIBCMT:_ieee_.obj
 0001:002789fc       _set_controlfp             00000001402799fc f   LIBCMT:_ieee_.obj
 0001:00278a40       _get_fpsr                  0000000140279a40 f   LIBCMT:_fpsr_.obj
 0001:00278a50       _set_fpsr                  0000000140279a50 f   LIBCMT:_fpsr_.obj
 0001:00278a5a       _fclrf                     0000000140279a5a f   LIBCMT:_fpsr_.obj
 0001:00278a6e       _frnd                      0000000140279a6e f   LIBCMT:_fpsr_.obj
 0001:00278a90       __ascii_strnicmp           0000000140279a90 f   LIBCMT:strnicmp.obj
 0001:00278ad8       _strnicmp_l                0000000140279ad8 f   LIBCMT:strnicmp.obj
 0001:00278bdc       _strnicmp                  0000000140279bdc f   LIBCMT:strnicmp.obj
 0001:00278bdc       strnicmp                   0000000140279bdc f   LIBCMT:strnicmp.obj
 0001:00278d64       _woutput_l                 0000000140279d64 f   LIBCMT:woutput.obj
 0001:0027997c       _woutput_s_l               000000014027a97c f   LIBCMT:woutputs.obj
 0001:0027a4bc       _validate_param_reuseW     000000014027b4bc f   LIBCMT:woutputp.obj
 0001:0027a768       _woutput_p_l               000000014027b768 f   LIBCMT:woutputp.obj
 0001:0027b910       vfwprintf_helper           000000014027c910 f   LIBCMT:vfwprint.obj
 0001:0027b9b0       _vfwprintf_l               000000014027c9b0 f   LIBCMT:vfwprint.obj
 0001:0027b9d4       _vfwprintf_s_l             000000014027c9d4 f   LIBCMT:vfwprint.obj
 0001:0027b9f8       _vfwprintf_p_l             000000014027c9f8 f   LIBCMT:vfwprint.obj
 0001:0027ba1c       vfwprintf                  000000014027ca1c f   LIBCMT:vfwprint.obj
 0001:0027ba40       vfwprintf_s                000000014027ca40 f   LIBCMT:vfwprint.obj
 0001:0027ba64       _vfwprintf_p               000000014027ca64 f   LIBCMT:vfwprint.obj
 0001:0027bb04       _ismbbkalnum_l             000000014027cb04 f   LIBCMT:ismbbyte.obj
 0001:0027bb1c       _ismbbkalnum               000000014027cb1c f   LIBCMT:ismbbyte.obj
 0001:0027bb30       _ismbbkprint_l             000000014027cb30 f   LIBCMT:ismbbyte.obj
 0001:0027bb48       _ismbbkprint               000000014027cb48 f   LIBCMT:ismbbyte.obj
 0001:0027bb5c       _ismbbkpunct_l             000000014027cb5c f   LIBCMT:ismbbyte.obj
 0001:0027bb74       _ismbbkpunct               000000014027cb74 f   LIBCMT:ismbbyte.obj
 0001:0027bb88       _ismbbalnum_l              000000014027cb88 f   LIBCMT:ismbbyte.obj
 0001:0027bba4       _ismbbalnum                000000014027cba4 f   LIBCMT:ismbbyte.obj
 0001:0027bbbc       _ismbbalpha_l              000000014027cbbc f   LIBCMT:ismbbyte.obj
 0001:0027bbd8       _ismbbalpha                000000014027cbd8 f   LIBCMT:ismbbyte.obj
 0001:0027bbf0       _ismbbgraph_l              000000014027cbf0 f   LIBCMT:ismbbyte.obj
 0001:0027bc0c       _ismbbgraph                000000014027cc0c f   LIBCMT:ismbbyte.obj
 0001:0027bc24       _ismbbprint_l              000000014027cc24 f   LIBCMT:ismbbyte.obj
 0001:0027bc40       _ismbbprint                000000014027cc40 f   LIBCMT:ismbbyte.obj
 0001:0027bc58       _ismbbpunct_l              000000014027cc58 f   LIBCMT:ismbbyte.obj
 0001:0027bc70       _ismbbpunct                000000014027cc70 f   LIBCMT:ismbbyte.obj
 0001:0027bc84       _ismbblead_l               000000014027cc84 f   LIBCMT:ismbbyte.obj
 0001:0027bc9c       _ismbblead                 000000014027cc9c f   LIBCMT:ismbbyte.obj
 0001:0027bcb0       _ismbbtrail_l              000000014027ccb0 f   LIBCMT:ismbbyte.obj
 0001:0027bcc8       _ismbbtrail                000000014027ccc8 f   LIBCMT:ismbbyte.obj
 0001:0027bcdc       _ismbbkana_l               000000014027ccdc f   LIBCMT:ismbbyte.obj
 0001:0027bd54       _ismbbkana                 000000014027cd54 f   LIBCMT:ismbbyte.obj
 0001:0027c504       _wopen                     000000014027d504 f   LIBCMT:wopen.obj
 0001:0027c5dc       _wsopen_helper             000000014027d5dc f   LIBCMT:wopen.obj
 0001:0027c6b0       _wsopen                    000000014027d6b0 f   LIBCMT:wopen.obj
 0001:0027c6f4       _wsopen_s                  000000014027d6f4 f   LIBCMT:wopen.obj
 0001:0027c728       _wcsnicmp_l                000000014027d728 f   LIBCMT:wcsnicmp.obj
 0001:0027c840       _wcsnicmp                  000000014027d840 f   LIBCMT:wcsnicmp.obj
 0001:0027c8d8       wcsncmp                    000000014027d8d8 f   LIBCMT:wcsncmp.obj
 0001:0027c904       __initconout               000000014027d904 f   LIBCMT:initcon.obj
 0001:0027c940       __termconout               000000014027d940 f   LIBCMT:initcon.obj
 0001:0027c964       $I10_OUTPUT                000000014027d964 f   LIBCMT:_x10fout_.obj
 0001:0027d418       _mbsnicmp_l                000000014027e418 f   LIBCMT:mbsnicmp.obj
 0001:0027d5d4       _mbsnicmp                  000000014027e5d4 f   LIBCMT:mbsnicmp.obj
 0001:0027d5dc       _fputwc_nolock             000000014027e5dc f   LIBCMT:fputwc.obj
 0001:0027d7dc       fputwc                     000000014027e7dc f   LIBCMT:fputwc.obj
 0001:0027d844       putwc                      000000014027e844 f   LIBCMT:fputwc.obj
 0001:0027da34       wcstol                     000000014027ea34 f   LIBCMT:wcstol.obj
 0001:0027da3c       _wcstol_l                  000000014027ea3c f   LIBCMT:wcstol.obj
 0001:0027da44       wcstoul                    000000014027ea44 f   LIBCMT:wcstol.obj
 0001:0027da50       _wcstoul_l                 000000014027ea50 f   LIBCMT:wcstol.obj
 0001:0027da5c       _towlower_l                000000014027ea5c f   LIBCMT:towlower.obj
 0001:0027db34       towlower                   000000014027eb34 f   LIBCMT:towlower.obj
 0001:0027db3c       _flswbuf                   000000014027eb3c f   LIBCMT:_flswbuf.obj
 0001:0027dccc       _wchartodigit              000000014027eccc f   LIBCMT:wchtodig.obj
 0001:0027de64       __crtLCMapStringW          000000014027ee64 f   LIBCMT:w_map.obj
 0001:0027dec4       wcsnlen                    000000014027eec4 f   LIBCMT:wcslen_s.obj
 0001:0027dee4       EncodePointer              000000014027eee4 f   kernel32:KERNEL32.dll
 0001:0027deea       DecodePointer              000000014027eeea f   kernel32:KERNEL32.dll
 0001:0027def0       FileTimeToSystemTime       000000014027eef0 f   kernel32:KERNEL32.dll
 0001:0027def6       FileTimeToLocalFileTime    000000014027eef6 f   kernel32:KERNEL32.dll
 0001:0027defc       GetDriveTypeA              000000014027eefc f   kernel32:KERNEL32.dll
 0001:0027df02       FindFirstFileExA           000000014027ef02 f   kernel32:KERNEL32.dll
 0001:0027df08       MoveFileA                  000000014027ef08 f   kernel32:KERNEL32.dll
 0001:0027df0e       GetModuleHandleW           000000014027ef0e f   kernel32:KERNEL32.dll
 0001:0027df14       ExitProcess                000000014027ef14 f   kernel32:KERNEL32.dll
 0001:0027df1a       RtlUnwindEx                000000014027ef1a f   kernel32:KERNEL32.dll
 0001:0027df20       HeapWalk                   000000014027ef20 f   kernel32:KERNEL32.dll
 0001:0027df26       RaiseException             000000014027ef26 f   kernel32:KERNEL32.dll
 0001:0027df2c       RtlPcToFileHeader          000000014027ef2c f   kernel32:KERNEL32.dll
 0001:0027df32       RtlLookupFunctionEntry     000000014027ef32 f   kernel32:KERNEL32.dll
 0001:0027df38       GetDateFormatA             000000014027ef38 f   kernel32:KERNEL32.dll
 0001:0027df3e       GetTimeFormatA             000000014027ef3e f   kernel32:KERNEL32.dll
 0001:0027df44       DuplicateHandle            000000014027ef44 f   kernel32:KERNEL32.dll
 0001:0027df4a       GetCurrentProcess          000000014027ef4a f   kernel32:KERNEL32.dll
 0001:0027df50       WriteConsoleW              000000014027ef50 f   kernel32:KERNEL32.dll
 0001:0027df56       GetFileType                000000014027ef56 f   kernel32:KERNEL32.dll
 0001:0027df5c       GetStdHandle               000000014027ef5c f   kernel32:KERNEL32.dll
 0001:0027df62       GetModuleFileNameW         000000014027ef62 f   kernel32:KERNEL32.dll
 0001:0027df68       GetCommandLineA            000000014027ef68 f   kernel32:KERNEL32.dll
 0001:0027df6e       LCMapStringW               000000014027ef6e f   kernel32:KERNEL32.dll
 0001:0027df74       GetCPInfo                  000000014027ef74 f   kernel32:KERNEL32.dll
 0001:0027df7a       UnhandledExceptionFilter   000000014027ef7a f   kernel32:KERNEL32.dll
 0001:0027df80       SetUnhandledExceptionFilter 000000014027ef80 f   kernel32:KERNEL32.dll
 0001:0027df86       IsDebuggerPresent          000000014027ef86 f   kernel32:KERNEL32.dll
 0001:0027df8c       RtlVirtualUnwind           000000014027ef8c f   kernel32:KERNEL32.dll
 0001:0027df92       RtlCaptureContext          000000014027ef92 f   kernel32:KERNEL32.dll
 0001:0027df98       TerminateProcess           000000014027ef98 f   kernel32:KERNEL32.dll
 0001:0027df9e       GetTimeZoneInformation     000000014027ef9e f   kernel32:KERNEL32.dll
 0001:0027dfa4       InitializeCriticalSectionAndSpinCount 000000014027efa4 f   kernel32:KERNEL32.dll
 0001:0027dfaa       GetConsoleCP               000000014027efaa f   kernel32:KERNEL32.dll
 0001:0027dfb0       GetConsoleMode             000000014027efb0 f   kernel32:KERNEL32.dll
 0001:0027dfb6       GetFileInformationByHandle 000000014027efb6 f   kernel32:KERNEL32.dll
 0001:0027dfbc       PeekNamedPipe              000000014027efbc f   kernel32:KERNEL32.dll
 0001:0027dfc2       GetCurrentDirectoryW       000000014027efc2 f   kernel32:KERNEL32.dll
 0001:0027dfc8       SetCurrentDirectoryW       000000014027efc8 f   kernel32:KERNEL32.dll
 0001:0027dfce       GetLocaleInfoW             000000014027efce f   kernel32:KERNEL32.dll
 0001:0027dfd4       HeapSetInformation         000000014027efd4 f   kernel32:KERNEL32.dll
 0001:0027dfda       GetVersion                 000000014027efda f   kernel32:KERNEL32.dll
 0001:0027dfe0       SetHandleCount             000000014027efe0 f   kernel32:KERNEL32.dll
 0001:0027dfe6       GetStartupInfoW            000000014027efe6 f   kernel32:KERNEL32.dll
 0001:0027dfec       FlsGetValue                000000014027efec f   kernel32:KERNEL32.dll
 0001:0027dff2       FlsSetValue                000000014027eff2 f   kernel32:KERNEL32.dll
 0001:0027dff8       FlsFree                    000000014027eff8 f   kernel32:KERNEL32.dll
 0001:0027dffe       SetLastError               000000014027effe f   kernel32:KERNEL32.dll
 0001:0027e004       GetCurrentThreadId         000000014027f004 f   kernel32:KERNEL32.dll
 0001:0027e00a       GetCurrentThread           000000014027f00a f   kernel32:KERNEL32.dll
 0001:0027e010       FlsAlloc                   000000014027f010 f   kernel32:KERNEL32.dll
 0001:0027e016       FatalAppExitA              000000014027f016 f   kernel32:KERNEL32.dll
 0001:0027e01c       SetStdHandle               000000014027f01c f   kernel32:KERNEL32.dll
 0001:0027e022       SetConsoleCtrlHandler      000000014027f022 f   kernel32:KERNEL32.dll
 0001:0027e028       GetACP                     000000014027f028 f   kernel32:KERNEL32.dll
 0001:0027e02e       GetOEMCP                   000000014027f02e f   kernel32:KERNEL32.dll
 0001:0027e034       IsValidCodePage            000000014027f034 f   kernel32:KERNEL32.dll
 0001:0027e03a       CompareStringW             000000014027f03a f   kernel32:KERNEL32.dll
 0001:0027e040       CreatePipe                 000000014027f040 f   kernel32:KERNEL32.dll
 0001:0027e046       GetExitCodeProcess         000000014027f046 f   kernel32:KERNEL32.dll
 0001:0027e04c       GetUserDefaultLCID         000000014027f04c f   kernel32:KERNEL32.dll
 0001:0027e052       GetLocaleInfoA             000000014027f052 f   kernel32:KERNEL32.dll
 0001:0027e058       EnumSystemLocalesA         000000014027f058 f   kernel32:KERNEL32.dll
 0001:0027e05e       IsValidLocale              000000014027f05e f   kernel32:KERNEL32.dll
 0001:0027e064       GetStringTypeW             000000014027f064 f   kernel32:KERNEL32.dll
 0001:0027e06a       FreeEnvironmentStringsW    000000014027f06a f   kernel32:KERNEL32.dll
 0001:0027e070       GetEnvironmentStringsW     000000014027f070 f   kernel32:KERNEL32.dll
 0001:0027e076       GetDriveTypeW              000000014027f076 f   kernel32:KERNEL32.dll
 0001:0027e07c       eof                        000000014027f07c f   LIBCMT:eof.obj
 0001:0027e07c       _eof                       000000014027f07c f   LIBCMT:eof.obj
 0001:0027e194       __ascii_memicmp            000000014027f194 f   LIBCMT:memicmp.obj
 0001:0027e1f0       _memicmp_l                 000000014027f1f0 f   LIBCMT:memicmp.obj
 0001:0027e2ec       memicmp                    000000014027f2ec f   LIBCMT:memicmp.obj
 0001:0027e2ec       _memicmp                   000000014027f2ec f   LIBCMT:memicmp.obj
 0001:0027e33c       ?_strlwr_s_l_stat@@YAHPEAD_KPEAUlocaleinfo_struct@@@Z 000000014027f33c f   LIBCMT:strlwr.obj
 0001:0027e538       _strlwr_s_l                000000014027f538 f   LIBCMT:strlwr.obj
 0001:0027e584       _strlwr_s                  000000014027f584 f   LIBCMT:strlwr.obj
 0001:0027e58c       _strlwr_l                  000000014027f58c f   LIBCMT:strlwr.obj
 0001:0027e5ac       strlwr                     000000014027f5ac f   LIBCMT:strlwr.obj
 0001:0027e5ac       _strlwr                    000000014027f5ac f   LIBCMT:strlwr.obj
 0001:0027e610       creat                      000000014027f610 f   LIBCMT:creat.obj
 0001:0027e610       _creat                     000000014027f610 f   LIBCMT:creat.obj
 0001:0027e844       _strupr_s_l                000000014027f844 f   LIBCMT:strupr.obj
 0001:0027e890       _strupr_s                  000000014027f890 f   LIBCMT:strupr.obj
 0001:0027e898       _strupr_l                  000000014027f898 f   LIBCMT:strupr.obj
 0001:0027e8b8       strupr                     000000014027f8b8 f   LIBCMT:strupr.obj
 0001:0027e8b8       _strupr                    000000014027f8b8 f   LIBCMT:strupr.obj
 0001:0027e91c       mkdir                      000000014027f91c f   LIBCMT:mkdir.obj
 0001:0027e91c       _mkdir                     000000014027f91c f   LIBCMT:mkdir.obj
 0001:0027e950       _rmdir                     000000014027f950 f   LIBCMT:rmdir.obj
 0001:0027e950       rmdir                      000000014027f950 f   LIBCMT:rmdir.obj
 0001:0027e980       spawnlpe                   000000014027f980 f   LIBCMT:spawnlpe.obj
 0001:0027e980       _spawnlpe                  000000014027f980 f   LIBCMT:spawnlpe.obj
 0001:0027ea3c       _ungetch_nolock            000000014027fa3c f   LIBCMT:getch.obj
 0001:0027ea58       _getextendedkeycode        000000014027fa58 f   LIBCMT:getch.obj
 0001:0027eb04       _getch_nolock              000000014027fb04 f   LIBCMT:getch.obj
 0001:0027ec04       _getche_nolock             000000014027fc04 f   LIBCMT:getch.obj
 0001:0027ec48       _kbhit_nolock              000000014027fc48 f   LIBCMT:getch.obj
 0001:0027ede8       _ungetch                   000000014027fde8 f   LIBCMT:getch.obj
 0001:0027ee18       getch                      000000014027fe18 f   LIBCMT:getch.obj
 0001:0027ee18       _getch                     000000014027fe18 f   LIBCMT:getch.obj
 0001:0027ee44       _getche                    000000014027fe44 f   LIBCMT:getch.obj
 0001:0027ee70       _kbhit                     000000014027fe70 f   LIBCMT:getch.obj
 0001:0027ee9c       __initconin                000000014027fe9c f   LIBCMT:initconin.obj
 0001:0027eed8       __termconin                000000014027fed8 f   LIBCMT:initconin.obj
 0001:0027eefc       _putch_nolock              000000014027fefc f   LIBCMT:putch.obj
 0001:0027efb8       _putch                     000000014027ffb8 f   LIBCMT:putch.obj
 0001:0027efe6       CreateDirectoryA           000000014027ffe6 f   kernel32:KERNEL32.dll
 0001:0027efec       RemoveDirectoryA           000000014027ffec f   kernel32:KERNEL32.dll
 0001:0027eff2       ReadConsoleInputA          000000014027fff2 f   kernel32:KERNEL32.dll
 0001:0027eff8       SetConsoleMode             000000014027fff8 f   kernel32:KERNEL32.dll
 0001:0027effe       PeekConsoleInputA          000000014027fffe f   kernel32:KERNEL32.dll
 0001:0027f004       GetNumberOfConsoleInputEvents 0000000140280004 f   kernel32:KERNEL32.dll
 0001:0029c4e0       ??__FacrInstance@?1??GetInstance@ACRNemaMap@@SAPEAV1@XZ@YAXXZ 000000014029d4e0 f i total.obj
 0001:0029c530       ??__FiniInstance@?1??GetInstance@IniValue@@SAPEAV1@XZ@YAXXZ 000000014029d530 f i total.obj
 0002:00000000       __xc_a                     000000014029f000     LIBCMT:crt0init.obj
 0002:000004e0       __xc_z                     000000014029f4e0     LIBCMT:crt0init.obj
 0002:000005f0       __xi_a                     000000014029f5f0     LIBCMT:crt0init.obj
 0002:00000938       __xi_z                     000000014029f938     LIBCMT:crt0init.obj
 0002:00000a48       __xp_a                     000000014029fa48     LIBCMT:crt0init.obj
 0002:00000d88       __xp_z                     000000014029fd88     LIBCMT:crt0init.obj
 0002:00000e98       __xt_a                     000000014029fe98     LIBCMT:crt0init.obj
 0002:00000fa8       __xt_z                     000000014029ffa8     LIBCMT:crt0init.obj
 0002:000010dc       ??_C@_06FIONAGJL@unpack?$AA@ 00000001402a00dc     total.obj
 0002:000010e4       ??_C@_04IPANLPFO@pack?$AA@ 00000001402a00e4     total.obj
 0002:000010f0       ??_C@_0BH@HLPCKIL@1?42?4840?410008?41?42?44?491?$AA@ 00000001402a00f0     total.obj
 0002:00001110       ??_C@_0BH@BOKEBLMK@1?42?4840?410008?41?42?44?490?$AA@ 00000001402a0110     total.obj
 0002:00001130       ??_C@_0BH@GHNEALM@1?42?4840?410008?41?42?44?481?$AA@ 00000001402a0130     total.obj
 0002:00001150       ??_C@_0BH@BPGGHBPN@1?42?4840?410008?41?42?44?480?$AA@ 00000001402a0150     total.obj
 0002:00001170       ??_C@_0BH@BEDKDGMA@1?42?4840?410008?41?42?44?470?$AA@ 00000001402a0170     total.obj
 0002:00001190       ??_C@_0BH@EDKCPLHB@1?42?4840?410008?41?42?44?466?$AA@ 00000001402a0190     total.obj
 0002:000011b0       ??_C@_0BH@GIIPKILC@1?42?4840?410008?41?42?44?465?$AA@ 00000001402a01b0     total.obj
 0002:000011d0       ??_C@_0BH@HBJEJJPD@1?42?4840?410008?41?42?44?464?$AA@ 00000001402a01d0     total.obj
 0002:000011f0       ??_C@_0BH@DONFAPDE@1?42?4840?410008?41?42?44?463?$AA@ 00000001402a01f0     total.obj
 0002:00001210       ??_C@_0BH@CHMODOHF@1?42?4840?410008?41?42?44?462?$AA@ 00000001402a0210     total.obj
 0002:00001230       ??_C@_0BH@MODGNLG@1?42?4840?410008?41?42?44?461?$AA@ 00000001402a0230     total.obj
 0002:00001250       ??_C@_0BH@BFPIFMPH@1?42?4840?410008?41?42?44?460?$AA@ 00000001402a0250     total.obj
 0002:00001270       ??_C@_0BH@MGHMFJOH@1?42?4840?410008?41?42?44?459?$AA@ 00000001402a0270     total.obj
 0002:00001290       ??_C@_0BH@NPGHGIKG@1?42?4840?410008?41?42?44?458?$AA@ 00000001402a0290     total.obj
 0002:000012b0       ??_C@_0BH@FIPPHEGJ@1?42?4840?410008?41?42?44?457?$AA@ 00000001402a02b0     total.obj
 0002:000012d0       ??_C@_0BH@EBOEEFCI@1?42?4840?410008?41?42?44?456?$AA@ 00000001402a02d0     total.obj
 0002:000012f0       ??_C@_0BH@GKMJBGOL@1?42?4840?410008?41?42?44?455?$AA@ 00000001402a02f0     total.obj
 0002:00001310       ??_C@_0BH@HDNCCHKK@1?42?4840?410008?41?42?44?454?$AA@ 00000001402a0310     total.obj
 0002:00001330       ??_C@_0BH@DMJDLBGN@1?42?4840?410008?41?42?44?453?$AA@ 00000001402a0330     total.obj
 0002:00001350       ??_C@_0BH@CFIIIACM@1?42?4840?410008?41?42?44?452?$AA@ 00000001402a0350     total.obj
 0002:00001370       ??_C@_0BH@OKFNDOP@1?42?4840?410008?41?42?44?451?$AA@ 00000001402a0370     total.obj
 0002:00001390       ??_C@_0BH@BHLOOCKO@1?42?4840?410008?41?42?44?450?$AA@ 00000001402a0390     total.obj
 0002:000013b0       ??_C@_0BE@LBDPDJDP@1?42?4840?410008?41?42?45?$AA@ 00000001402a03b0     total.obj
 0002:000013c8       ??_C@_0BE@POHOKPPI@1?42?4840?410008?41?42?42?$AA@ 00000001402a03c8     total.obj
 0002:000013e0       ??_C@_0BE@NFFDPMDL@1?42?4840?410008?41?42?41?$AA@ 00000001402a03e0     total.obj
 0002:000013f8       ??_C@_0BC@GCBEMKJD@1?42?4840?410008?41?42?$AA@ 00000001402a03f8     total.obj
 0002:00001410       ??_C@_01LOCGONAA@?$AA?$AA@ 00000001402a0410     total.obj
 0002:00001418       ??_C@_0P@CEBAKLIE@DT_ENDSEQUENCE?$AA@ 00000001402a0418     total.obj
 0002:00001430       ??_C@_0BB@JANMFPEP@DT_STARTSEQUENCE?$AA@ 00000001402a0430     total.obj
 0002:00001444       ??_C@_05GEALBLKK@DT_FD?$AA@ 00000001402a0444     total.obj
 0002:0000144c       ??_C@_05KMNCJBKC@DT_FL?$AA@ 00000001402a044c     total.obj
 0002:00001454       ??_C@_05MPMFHIMO@DT_UI?$AA@ 00000001402a0454     total.obj
 0002:00001460       ??_C@_07MDILEAGI@DT_TIME?$AA@ 00000001402a0460     total.obj
 0002:00001470       ??_C@_09BJNHCNJC@DT_UINT32?$AA@ 00000001402a0470     total.obj
 0002:00001480       ??_C@_09HODPDMPI@DT_UINT16?$AA@ 00000001402a0480     total.obj
 0002:00001490       ??_C@_07HFCIGHPK@DT_DATE?$AA@ 00000001402a0490     total.obj
 0002:000014a0       ??_C@_07IHKLBOAJ@DT_MSTR?$AA@ 00000001402a04a0     total.obj
 0002:000014ac       ??_C@_06MFALHKOG@DT_STR?$AA@ 00000001402a04ac     total.obj
 0002:000014b8       ??_C@_0L@HHAJCAAC@SQL_C_DATE?$AA@ 00000001402a04b8     total.obj
 0002:000014c8       ??_C@_0L@KHEPFGJF@SQL_C_CHAR?$AA@ 00000001402a04c8     total.obj
 0002:000014d8       ??_C@_01BJJEKLCA@?$CC?$AA@ 00000001402a04d8     total.obj
 0002:000014dc       ??_C@_01IHBHIGKO@?0?$AA@   00000001402a04dc     total.obj
 0002:000014e0       ??_C@_01CELHOKLL@?$HN?$AA@ 00000001402a04e0     total.obj
 0002:000014e4       ??_C@_01HCONENDN@?$HL?$AA@ 00000001402a04e4     total.obj
 0002:000014e8       ??_C@_0L@OGDMBIAL@?$CKWorkList?$CK?$AA@ 00000001402a04e8     total.obj
 0002:000014f8       ??_C@_07LEEGCGIC@?$CKImage?$CK?$AA@ 00000001402a04f8     total.obj
 0002:00001508       ??_C@_08OLOCNAON@?$CKSeries?$CK?$AA@ 00000001402a0508     total.obj
 0002:00001518       ??_C@_07MBNIHCOJ@?$CKStudy?$CK?$AA@ 00000001402a0518     total.obj
 0002:00001528       ??_C@_09KLHNDLMA@?$CKPatient?$CK?$AA@ 00000001402a0528     total.obj
 0002:00001534       ??_C@_02CHHINNLG@?$CK?1?$AA@ 00000001402a0534     total.obj
 0002:00001538       ??_C@_02FMMEOLBI@?1?$CK?$AA@ 00000001402a0538     total.obj
 0002:0000153c       ?has_denorm@_Num_base@std@@2W4float_denorm_style@2@B 00000001402a053c     total.obj
 0002:00001540       ?has_denorm_loss@_Num_base@std@@2_NB 00000001402a0540     total.obj
 0002:00001541       ?has_infinity@_Num_base@std@@2_NB 00000001402a0541     total.obj
 0002:00001542       ?has_quiet_NaN@_Num_base@std@@2_NB 00000001402a0542     total.obj
 0002:00001543       ?has_signaling_NaN@_Num_base@std@@2_NB 00000001402a0543     total.obj
 0002:00001544       ?is_bounded@_Num_base@std@@2_NB 00000001402a0544     total.obj
 0002:00001545       ?is_exact@_Num_base@std@@2_NB 00000001402a0545     total.obj
 0002:00001546       ?is_iec559@_Num_base@std@@2_NB 00000001402a0546     total.obj
 0002:00001547       ?is_integer@_Num_base@std@@2_NB 00000001402a0547     total.obj
 0002:00001548       ?is_modulo@_Num_base@std@@2_NB 00000001402a0548     total.obj
 0002:00001549       ?is_signed@_Num_base@std@@2_NB 00000001402a0549     total.obj
 0002:0000154a       ?is_specialized@_Num_base@std@@2_NB 00000001402a054a     total.obj
 0002:0000154b       ?tinyness_before@_Num_base@std@@2_NB 00000001402a054b     total.obj
 0002:0000154c       ?traps@_Num_base@std@@2_NB 00000001402a054c     total.obj
 0002:00001550       ?round_style@_Num_base@std@@2W4float_round_style@2@B 00000001402a0550     total.obj
 0002:00001554       ?digits@_Num_base@std@@2HB 00000001402a0554     total.obj
 0002:00001558       ?digits10@_Num_base@std@@2HB 00000001402a0558     total.obj
 0002:0000155c       ?max_digits10@_Num_base@std@@2HB 00000001402a055c     total.obj
 0002:00001560       ?max_exponent@_Num_base@std@@2HB 00000001402a0560     total.obj
 0002:00001564       ?max_exponent10@_Num_base@std@@2HB 00000001402a0564     total.obj
 0002:00001568       ?min_exponent@_Num_base@std@@2HB 00000001402a0568     total.obj
 0002:0000156c       ?min_exponent10@_Num_base@std@@2HB 00000001402a056c     total.obj
 0002:00001570       ?radix@_Num_base@std@@2HB  00000001402a0570     total.obj
 0002:00001574       ?is_bounded@_Num_int_base@std@@2_NB 00000001402a0574     total.obj
 0002:00001575       ?is_exact@_Num_int_base@std@@2_NB 00000001402a0575     total.obj
 0002:00001576       ?is_integer@_Num_int_base@std@@2_NB 00000001402a0576     total.obj
 0002:00001577       ?is_modulo@_Num_int_base@std@@2_NB 00000001402a0577     total.obj
 0002:00001578       ?is_specialized@_Num_int_base@std@@2_NB 00000001402a0578     total.obj
 0002:0000157c       ?radix@_Num_int_base@std@@2HB 00000001402a057c     total.obj
 0002:00001580       ?has_denorm@_Num_float_base@std@@2W4float_denorm_style@2@B 00000001402a0580     total.obj
 0002:00001584       ?has_denorm_loss@_Num_float_base@std@@2_NB 00000001402a0584     total.obj
 0002:00001585       ?has_infinity@_Num_float_base@std@@2_NB 00000001402a0585     total.obj
 0002:00001586       ?has_quiet_NaN@_Num_float_base@std@@2_NB 00000001402a0586     total.obj
 0002:00001587       ?has_signaling_NaN@_Num_float_base@std@@2_NB 00000001402a0587     total.obj
 0002:00001588       ?is_bounded@_Num_float_base@std@@2_NB 00000001402a0588     total.obj
 0002:00001589       ?is_exact@_Num_float_base@std@@2_NB 00000001402a0589     total.obj
 0002:0000158a       ?is_iec559@_Num_float_base@std@@2_NB 00000001402a058a     total.obj
 0002:0000158b       ?is_integer@_Num_float_base@std@@2_NB 00000001402a058b     total.obj
 0002:0000158c       ?is_modulo@_Num_float_base@std@@2_NB 00000001402a058c     total.obj
 0002:0000158d       ?is_signed@_Num_float_base@std@@2_NB 00000001402a058d     total.obj
 0002:0000158e       ?is_specialized@_Num_float_base@std@@2_NB 00000001402a058e     total.obj
 0002:0000158f       ?tinyness_before@_Num_float_base@std@@2_NB 00000001402a058f     total.obj
 0002:00001590       ?traps@_Num_float_base@std@@2_NB 00000001402a0590     total.obj
 0002:00001594       ?round_style@_Num_float_base@std@@2W4float_round_style@2@B 00000001402a0594     total.obj
 0002:00001598       ?radix@_Num_float_base@std@@2HB 00000001402a0598     total.obj
 0002:0000159c       ?is_signed@?$numeric_limits@D@std@@2_NB 00000001402a059c     total.obj
 0002:000015a0       ?digits@?$numeric_limits@D@std@@2HB 00000001402a05a0     total.obj
 0002:000015a4       ?digits10@?$numeric_limits@D@std@@2HB 00000001402a05a4     total.obj
 0002:000015a8       ?max_digits10@?$numeric_limits@D@std@@2HB 00000001402a05a8     total.obj
 0002:000015ac       ?is_signed@?$numeric_limits@_W@std@@2_NB 00000001402a05ac     total.obj
 0002:000015b0       ?digits@?$numeric_limits@_W@std@@2HB 00000001402a05b0     total.obj
 0002:000015b4       ?digits10@?$numeric_limits@_W@std@@2HB 00000001402a05b4     total.obj
 0002:000015b8       ?max_digits10@?$numeric_limits@_W@std@@2HB 00000001402a05b8     total.obj
 0002:000015bc       ?is_modulo@?$numeric_limits@_N@std@@2_NB 00000001402a05bc     total.obj
 0002:000015bd       ?is_signed@?$numeric_limits@_N@std@@2_NB 00000001402a05bd     total.obj
 0002:000015c0       ?digits@?$numeric_limits@_N@std@@2HB 00000001402a05c0     total.obj
 0002:000015c4       ?digits10@?$numeric_limits@_N@std@@2HB 00000001402a05c4     total.obj
 0002:000015c8       ?max_digits10@?$numeric_limits@_N@std@@2HB 00000001402a05c8     total.obj
 0002:000015cc       ?is_signed@?$numeric_limits@C@std@@2_NB 00000001402a05cc     total.obj
 0002:000015d0       ?digits@?$numeric_limits@C@std@@2HB 00000001402a05d0     total.obj
 0002:000015d4       ?digits10@?$numeric_limits@C@std@@2HB 00000001402a05d4     total.obj
 0002:000015d8       ?max_digits10@?$numeric_limits@C@std@@2HB 00000001402a05d8     total.obj
 0002:000015dc       ?is_signed@?$numeric_limits@E@std@@2_NB 00000001402a05dc     total.obj
 0002:000015e0       ?digits@?$numeric_limits@E@std@@2HB 00000001402a05e0     total.obj
 0002:000015e4       ?digits10@?$numeric_limits@E@std@@2HB 00000001402a05e4     total.obj
 0002:000015e8       ?max_digits10@?$numeric_limits@E@std@@2HB 00000001402a05e8     total.obj
 0002:000015ec       ?is_signed@?$numeric_limits@F@std@@2_NB 00000001402a05ec     total.obj
 0002:000015f0       ?digits@?$numeric_limits@F@std@@2HB 00000001402a05f0     total.obj
 0002:000015f4       ?digits10@?$numeric_limits@F@std@@2HB 00000001402a05f4     total.obj
 0002:000015f8       ?max_digits10@?$numeric_limits@F@std@@2HB 00000001402a05f8     total.obj
 0002:000015fc       ?is_signed@?$numeric_limits@G@std@@2_NB 00000001402a05fc     total.obj
 0002:00001600       ?digits@?$numeric_limits@G@std@@2HB 00000001402a0600     total.obj
 0002:00001604       ?digits10@?$numeric_limits@G@std@@2HB 00000001402a0604     total.obj
 0002:00001608       ?max_digits10@?$numeric_limits@G@std@@2HB 00000001402a0608     total.obj
 0002:0000160c       ?is_signed@?$numeric_limits@H@std@@2_NB 00000001402a060c     total.obj
 0002:00001610       ?digits@?$numeric_limits@H@std@@2HB 00000001402a0610     total.obj
 0002:00001614       ?digits10@?$numeric_limits@H@std@@2HB 00000001402a0614     total.obj
 0002:00001618       ?max_digits10@?$numeric_limits@H@std@@2HB 00000001402a0618     total.obj
 0002:0000161c       ?is_signed@?$numeric_limits@I@std@@2_NB 00000001402a061c     total.obj
 0002:00001620       ?digits@?$numeric_limits@I@std@@2HB 00000001402a0620     total.obj
 0002:00001624       ?digits10@?$numeric_limits@I@std@@2HB 00000001402a0624     total.obj
 0002:00001628       ?max_digits10@?$numeric_limits@I@std@@2HB 00000001402a0628     total.obj
 0002:0000162c       ?is_signed@?$numeric_limits@J@std@@2_NB 00000001402a062c     total.obj
 0002:00001630       ?digits@?$numeric_limits@J@std@@2HB 00000001402a0630     total.obj
 0002:00001634       ?digits10@?$numeric_limits@J@std@@2HB 00000001402a0634     total.obj
 0002:00001638       ?max_digits10@?$numeric_limits@J@std@@2HB 00000001402a0638     total.obj
 0002:0000163c       ?is_signed@?$numeric_limits@K@std@@2_NB 00000001402a063c     total.obj
 0002:00001640       ?digits@?$numeric_limits@K@std@@2HB 00000001402a0640     total.obj
 0002:00001644       ?digits10@?$numeric_limits@K@std@@2HB 00000001402a0644     total.obj
 0002:00001648       ?max_digits10@?$numeric_limits@K@std@@2HB 00000001402a0648     total.obj
 0002:0000164c       ?is_signed@?$numeric_limits@_J@std@@2_NB 00000001402a064c     total.obj
 0002:00001650       ?digits@?$numeric_limits@_J@std@@2HB 00000001402a0650     total.obj
 0002:00001654       ?digits10@?$numeric_limits@_J@std@@2HB 00000001402a0654     total.obj
 0002:00001658       ?max_digits10@?$numeric_limits@_J@std@@2HB 00000001402a0658     total.obj
 0002:0000165c       ?is_signed@?$numeric_limits@_K@std@@2_NB 00000001402a065c     total.obj
 0002:00001660       ?digits@?$numeric_limits@_K@std@@2HB 00000001402a0660     total.obj
 0002:00001664       ?digits10@?$numeric_limits@_K@std@@2HB 00000001402a0664     total.obj
 0002:00001668       ?max_digits10@?$numeric_limits@_K@std@@2HB 00000001402a0668     total.obj
 0002:0000166c       ?digits@?$numeric_limits@M@std@@2HB 00000001402a066c     total.obj
 0002:00001670       ?digits10@?$numeric_limits@M@std@@2HB 00000001402a0670     total.obj
 0002:00001674       ?max_digits10@?$numeric_limits@M@std@@2HB 00000001402a0674     total.obj
 0002:00001678       ?max_exponent@?$numeric_limits@M@std@@2HB 00000001402a0678     total.obj
 0002:0000167c       ?max_exponent10@?$numeric_limits@M@std@@2HB 00000001402a067c     total.obj
 0002:00001680       ?min_exponent@?$numeric_limits@M@std@@2HB 00000001402a0680     total.obj
 0002:00001684       ?min_exponent10@?$numeric_limits@M@std@@2HB 00000001402a0684     total.obj
 0002:00001688       ?digits@?$numeric_limits@N@std@@2HB 00000001402a0688     total.obj
 0002:0000168c       ?digits10@?$numeric_limits@N@std@@2HB 00000001402a068c     total.obj
 0002:00001690       ?max_digits10@?$numeric_limits@N@std@@2HB 00000001402a0690     total.obj
 0002:00001694       ?max_exponent@?$numeric_limits@N@std@@2HB 00000001402a0694     total.obj
 0002:00001698       ?max_exponent10@?$numeric_limits@N@std@@2HB 00000001402a0698     total.obj
 0002:0000169c       ?min_exponent@?$numeric_limits@N@std@@2HB 00000001402a069c     total.obj
 0002:000016a0       ?min_exponent10@?$numeric_limits@N@std@@2HB 00000001402a06a0     total.obj
 0002:000016a4       ?digits@?$numeric_limits@O@std@@2HB 00000001402a06a4     total.obj
 0002:000016a8       ?digits10@?$numeric_limits@O@std@@2HB 00000001402a06a8     total.obj
 0002:000016ac       ?max_digits10@?$numeric_limits@O@std@@2HB 00000001402a06ac     total.obj
 0002:000016b0       ?max_exponent@?$numeric_limits@O@std@@2HB 00000001402a06b0     total.obj
 0002:000016b4       ?max_exponent10@?$numeric_limits@O@std@@2HB 00000001402a06b4     total.obj
 0002:000016b8       ?min_exponent@?$numeric_limits@O@std@@2HB 00000001402a06b8     total.obj
 0002:000016bc       ?min_exponent10@?$numeric_limits@O@std@@2HB 00000001402a06bc     total.obj
 0002:000016c0       ?value@?$integral_constant@_N$0A@@tr1@std@@2_NB 00000001402a06c0     total.obj
 0002:000016c1       ?value@?$integral_constant@_N$00@tr1@std@@2_NB 00000001402a06c1     total.obj
 0002:000016c8       ?value@?$integral_constant@_K$0A@@tr1@std@@2_KB 00000001402a06c8     total.obj
 0002:000016d4       ?_Rank@?$_Arithmetic_traits@_N@std@@2HB 00000001402a06d4     total.obj
 0002:000016d8       ?_Rank@?$_Arithmetic_traits@D@std@@2HB 00000001402a06d8     total.obj
 0002:000016dc       ?_Rank@?$_Arithmetic_traits@C@std@@2HB 00000001402a06dc     total.obj
 0002:000016e0       ?_Rank@?$_Arithmetic_traits@E@std@@2HB 00000001402a06e0     total.obj
 0002:000016e4       ?_Rank@?$_Arithmetic_traits@F@std@@2HB 00000001402a06e4     total.obj
 0002:000016e8       ?_Rank@?$_Arithmetic_traits@G@std@@2HB 00000001402a06e8     total.obj
 0002:000016ec       ?_Rank@?$_Arithmetic_traits@H@std@@2HB 00000001402a06ec     total.obj
 0002:000016f0       ?_Rank@?$_Arithmetic_traits@I@std@@2HB 00000001402a06f0     total.obj
 0002:000016f4       ?_Rank@?$_Arithmetic_traits@J@std@@2HB 00000001402a06f4     total.obj
 0002:000016f8       ?_Rank@?$_Arithmetic_traits@K@std@@2HB 00000001402a06f8     total.obj
 0002:000016fc       ?_Rank@?$_Arithmetic_traits@_J@std@@2HB 00000001402a06fc     total.obj
 0002:00001700       ?_Rank@?$_Arithmetic_traits@_K@std@@2HB 00000001402a0700     total.obj
 0002:00001704       ?_Rank@?$_Arithmetic_traits@M@std@@2HB 00000001402a0704     total.obj
 0002:00001708       ?_Rank@?$_Arithmetic_traits@N@std@@2HB 00000001402a0708     total.obj
 0002:0000170c       ?_Rank@?$_Arithmetic_traits@O@std@@2HB 00000001402a070c     total.obj
 0002:00001710       ?collate@?$_Locbase@H@std@@2HB 00000001402a0710     total.obj
 0002:00001714       ?ctype@?$_Locbase@H@std@@2HB 00000001402a0714     total.obj
 0002:00001718       ?monetary@?$_Locbase@H@std@@2HB 00000001402a0718     total.obj
 0002:0000171c       ?numeric@?$_Locbase@H@std@@2HB 00000001402a071c     total.obj
 0002:00001720       ?time@?$_Locbase@H@std@@2HB 00000001402a0720     total.obj
 0002:00001724       ?messages@?$_Locbase@H@std@@2HB 00000001402a0724     total.obj
 0002:00001728       ?all@?$_Locbase@H@std@@2HB 00000001402a0728     total.obj
 0002:0000172c       ?none@?$_Locbase@H@std@@2HB 00000001402a072c     total.obj
 0002:00001730       ?table_size@?$ctype@D@std@@2_KB 00000001402a0730     total.obj
 0002:0000173c       ?skipws@?$_Iosb@H@std@@2W4_Fmtflags@12@B 00000001402a073c     total.obj
 0002:00001740       ?unitbuf@?$_Iosb@H@std@@2W4_Fmtflags@12@B 00000001402a0740     total.obj
 0002:00001744       ?uppercase@?$_Iosb@H@std@@2W4_Fmtflags@12@B 00000001402a0744     total.obj
 0002:00001748       ?showbase@?$_Iosb@H@std@@2W4_Fmtflags@12@B 00000001402a0748     total.obj
 0002:0000174c       ?showpoint@?$_Iosb@H@std@@2W4_Fmtflags@12@B 00000001402a074c     total.obj
 0002:00001750       ?showpos@?$_Iosb@H@std@@2W4_Fmtflags@12@B 00000001402a0750     total.obj
 0002:00001754       ?left@?$_Iosb@H@std@@2W4_Fmtflags@12@B 00000001402a0754     total.obj
 0002:00001758       ?right@?$_Iosb@H@std@@2W4_Fmtflags@12@B 00000001402a0758     total.obj
 0002:0000175c       ?internal@?$_Iosb@H@std@@2W4_Fmtflags@12@B 00000001402a075c     total.obj
 0002:00001760       ?dec@?$_Iosb@H@std@@2W4_Fmtflags@12@B 00000001402a0760     total.obj
 0002:00001764       ?oct@?$_Iosb@H@std@@2W4_Fmtflags@12@B 00000001402a0764     total.obj
 0002:00001768       ?hex@?$_Iosb@H@std@@2W4_Fmtflags@12@B 00000001402a0768     total.obj
 0002:0000176c       ?scientific@?$_Iosb@H@std@@2W4_Fmtflags@12@B 00000001402a076c     total.obj
 0002:00001770       ?fixed@?$_Iosb@H@std@@2W4_Fmtflags@12@B 00000001402a0770     total.obj
 0002:00001774       ?hexfloat@?$_Iosb@H@std@@2W4_Fmtflags@12@B 00000001402a0774     total.obj
 0002:00001778       ?boolalpha@?$_Iosb@H@std@@2W4_Fmtflags@12@B 00000001402a0778     total.obj
 0002:0000177c       ?_Stdio@?$_Iosb@H@std@@2W4_Fmtflags@12@B 00000001402a077c     total.obj
 0002:00001780       ?adjustfield@?$_Iosb@H@std@@2W4_Fmtflags@12@B 00000001402a0780     total.obj
 0002:00001784       ?basefield@?$_Iosb@H@std@@2W4_Fmtflags@12@B 00000001402a0784     total.obj
 0002:00001788       ?floatfield@?$_Iosb@H@std@@2W4_Fmtflags@12@B 00000001402a0788     total.obj
 0002:0000178c       ?goodbit@?$_Iosb@H@std@@2W4_Iostate@12@B 00000001402a078c     total.obj
 0002:00001790       ?eofbit@?$_Iosb@H@std@@2W4_Iostate@12@B 00000001402a0790     total.obj
 0002:00001794       ?failbit@?$_Iosb@H@std@@2W4_Iostate@12@B 00000001402a0794     total.obj
 0002:00001798       ?badbit@?$_Iosb@H@std@@2W4_Iostate@12@B 00000001402a0798     total.obj
 0002:0000179c       ?_Hardfail@?$_Iosb@H@std@@2W4_Iostate@12@B 00000001402a079c     total.obj
 0002:000017a0       ?in@?$_Iosb@H@std@@2W4_Openmode@12@B 00000001402a07a0     total.obj
 0002:000017a4       ?out@?$_Iosb@H@std@@2W4_Openmode@12@B 00000001402a07a4     total.obj
 0002:000017a8       ?ate@?$_Iosb@H@std@@2W4_Openmode@12@B 00000001402a07a8     total.obj
 0002:000017ac       ?app@?$_Iosb@H@std@@2W4_Openmode@12@B 00000001402a07ac     total.obj
 0002:000017b0       ?trunc@?$_Iosb@H@std@@2W4_Openmode@12@B 00000001402a07b0     total.obj
 0002:000017b4       ?_Nocreate@?$_Iosb@H@std@@2W4_Openmode@12@B 00000001402a07b4     total.obj
 0002:000017b8       ?_Noreplace@?$_Iosb@H@std@@2W4_Openmode@12@B 00000001402a07b8     total.obj
 0002:000017bc       ?binary@?$_Iosb@H@std@@2W4_Openmode@12@B 00000001402a07bc     total.obj
 0002:000017c0       ?beg@?$_Iosb@H@std@@2W4_Seekdir@12@B 00000001402a07c0     total.obj
 0002:000017c4       ?cur@?$_Iosb@H@std@@2W4_Seekdir@12@B 00000001402a07c4     total.obj
 0002:000017c8       ?end@?$_Iosb@H@std@@2W4_Seekdir@12@B 00000001402a07c8     total.obj
 0002:00001cd8       ??_C@_02JDPG@rb?$AA@       00000001402a0cd8     total.obj
 0002:00001cdc       ??_C@_02GMLFBBN@wb?$AA@    00000001402a0cdc     total.obj
 0002:00001ce8       ??_7bad_alloc@std@@6B@     00000001402a0ce8     total.obj
 0002:00001d08       ??_7runtime_error@std@@6B@ 00000001402a0d08     total.obj
 0002:00001d28       ??_7facet@locale@std@@6B@  00000001402a0d28     total.obj
 0002:00001d40       ??_7codecvt_base@std@@6B@  00000001402a0d40     total.obj
 0002:00001d70       ??_7ctype_base@std@@6B@    00000001402a0d70     total.obj
 0002:00001d88       ??_7ios_base@std@@6B@      00000001402a0d88     total.obj
 0002:00001da0       ??_7DriverApp@@6B@         00000001402a0da0     total.obj
 0002:00001db0       ??_C@_0BD@BAPKJDDP@?$CFs?3?$CF02d?3?$CF02d?3?$CF02d?6?$AA@ 00000001402a0db0     total.obj
 0002:00001dc8       ??_C@_0CF@LKELGPBM@Could?5not?5allocate?5?$CFd?5bytes?5for?5@ 00000001402a0dc8     total.obj
 0002:00001df8       ??_C@_0CF@NELNDJED@Error?5renaming?5the?5file?5?$CFs?5to?5?$CFs@ 00000001402a0df8     total.obj
 0002:00001e28       ??_C@_0BP@JNNEJPHJ@Error?5deleting?5the?5file?5?$CFs?3?5?$CFs?$AA@ 00000001402a0e28     total.obj
 0002:00001e50       ??_C@_0BO@BNJNDDCB@Error?5closing?5the?5file?5?$CFs?3?5?$CFs?$AA@ 00000001402a0e50     total.obj
 0002:00001e78       ??_C@_0N@BFFBAPFO@Thread?5Error?$AA@ 00000001402a0e78     total.obj
 0002:00001e88       ??_C@_0DB@FNNDDKKM@Only?5wrote?5?$CFld?5bytes?5of?5?$CFld?5to?5t@ 00000001402a0e88     total.obj
 0002:00001ec4       ??_C@_04MLLLIHIP@null?$AA@ 00000001402a0ec4     total.obj
 0002:00001ed0       ??_C@_0M@NJALGCHB@Application?$AA@ 00000001402a0ed0     total.obj
 0002:00001ee0       ??_C@_08LGNJOGGB@transfer?$AA@ 00000001402a0ee0     total.obj
 0002:00001ef0       ??_C@_08IMFJLGFD@abstract?$AA@ 00000001402a0ef0     total.obj
 0002:00001efc       ??_C@_03MLIFNKHK@sop?$AA@  00000001402a0efc     total.obj
 0002:00001f00       ??_C@_07DOIFPMDN@LocalAE?$AA@ 00000001402a0f00     total.obj
 0002:00001f10       ??_C@_08DCGGKBFN@RemoteAE?$AA@ 00000001402a0f10     total.obj
 0002:00001f1c       ??_C@_01KDCPPGHE@r?$AA@    00000001402a0f1c     total.obj
 0002:00001f28       ??_7AAssociateRJ@@6B@      00000001402a0f28     total.obj
 0002:00001f40       ??_7AReleaseRQ@@6B@        00000001402a0f40     total.obj
 0002:00001f58       ??_7AReleaseRP@@6B@        00000001402a0f58     total.obj
 0002:00001f70       ??_7AAbortRQ@@6B@          00000001402a0f70     total.obj
 0002:00001f80       ??_C@_0N@PKKIJDHK@DICOM?5ERROR?5?$AA@ 00000001402a0f80     total.obj
 0002:00001f90       ??_C@_0CH@HECCNILG@VR?3?5out?5of?5memory?5allocating?5?$CFd?5@ 00000001402a0f90     total.obj
 0002:00001fc0       ??_C@_0BA@EJOLBKMG@?$FL?$FLRGB_TO_MONO?$FN?$FN?$AA@ 00000001402a0fc0     total.obj
 0002:00001fd8       ??_C@_0BF@MEKPLDCK@?$FL?$FLRGB_TO_MONO_PLUS?$FN?$FN?$AA@ 00000001402a0fd8     total.obj
 0002:00001ff8       ??_C@_0M@KFCCMGML@?$FL?$FLFIX_TMS?$FN?$FN?$AA@ 00000001402a0ff8     total.obj
 0002:00002010       ??_7Socket@@6B@            00000001402a1010     total.obj
 0002:00002048       ??_C@_0BL@FOJILJIC@Connected?5by?5address?3?5?$CF08x?$AA@ 00000001402a1048     total.obj
 0002:00002068       ??_C@_0BI@MHLAJIKA@Could?5not?5resolve?5port?6?$AA@ 00000001402a1068     total.obj
 0002:00002088       ??_C@_0BI@JAIJHPDD@Could?5not?5resolve?5host?6?$AA@ 00000001402a1088     total.obj
 0002:000020a8       ??_C@_0DA@CNOKHGHP@Bufferspace?3?5out?5of?5memory?5alloc@ 00000001402a10a8     total.obj
 0002:000020e8       ??_C@_0L@CJMJKKPC@dbase_open?$AA@ 00000001402a10e8     total.obj
 0002:000020f8       ??_C@_01ICJEACDI@?$DL?$AA@ 00000001402a10f8     total.obj
 0002:000020fc       ??_C@_04FDGMDGHG@?$CF?9?$CKs?$AA@ 00000001402a10fc     total.obj
 0002:00002104       ??_C@_03HIJPJGOM@?$CF?$CKs?$AA@ 00000001402a1104     total.obj
 0002:00002108       ??_C@_06BCLENCFB@OLDUID?$AA@ 00000001402a1108     total.obj
 0002:00002110       ??_C@_0L@GKBMPOLF@ACCESSIONN?$AA@ 00000001402a1110     total.obj
 0002:00002120       ??_C@_0BE@EMLDCCDH@mysql_fetch_lengths?$AA@ 00000001402a1120     total.obj
 0002:00002138       ??_C@_0BJ@EGBIINKF@mysql_fetch_field_direct?$AA@ 00000001402a1138     total.obj
 0002:00002158       ??_C@_0M@FLFICPJP@mysql_error?$AA@ 00000001402a1158     total.obj
 0002:00002168       ??_C@_0BA@IAHNCKJL@mysql_fetch_row?$AA@ 00000001402a1168     total.obj
 0002:00002180       ??_C@_0BB@HACKKJNO@mysql_num_fields?$AA@ 00000001402a1180     total.obj
 0002:00002198       ??_C@_0P@KKHGNBMG@mysql_num_rows?$AA@ 00000001402a1198     total.obj
 0002:000021b0       ??_C@_0BD@DIJMDHNC@mysql_store_result?$AA@ 00000001402a11b0     total.obj
 0002:000021c8       ??_C@_0M@ELPLDFMM@mysql_query?$AA@ 00000001402a11c8     total.obj
 0002:000021d8       ??_C@_0BC@EPIDFEML@mysql_free_result?$AA@ 00000001402a11d8     total.obj
 0002:000021f0       ??_C@_0BA@DIBKOPFD@mysql_select_db?$AA@ 00000001402a11f0     total.obj
 0002:00002208       ??_C@_0BD@NPCAJHLL@mysql_real_connect?$AA@ 00000001402a1208     total.obj
 0002:00002220       ??_C@_0L@FOPABAIC@mysql_init?$AA@ 00000001402a1220     total.obj
 0002:00002230       ??_C@_0M@OABNLEKB@mysql_close?$AA@ 00000001402a1230     total.obj
 0002:00002240       ??_C@_0EP@CHNOHBBG@?$CK?$CK?$CK?5Fatal?5error?3?5could?5not?5load?5@ 00000001402a1240     total.obj
 0002:000022a0       ??_C@_09JAEFCFEE@dgate?4exe?$AA@ 00000001402a12a0     total.obj
 0002:000022b0       ??_C@_0BB@FJMNLIDC@x64?2libmysql?4dll?$AA@ 00000001402a12b0     total.obj
 0002:000022c8       ??_C@_0P@DLNLGAAH@libmysql64?4dll?$AA@ 00000001402a12c8     total.obj
 0002:000022e0       ??_C@_0N@PEFODMOF@libmysql?4dll?$AA@ 00000001402a12e0     total.obj
 0002:000022f0       ??_C@_0EI@FLJIFJHJ@?$CK?$CK?$CK?5Fatal?5error?3?5libpq?4dll?5for?5a@ 00000001402a12f0     total.obj
 0002:00002348       ??_C@_0P@BBLBJIFE@PQerrorMessage?$AA@ 00000001402a1348     total.obj
 0002:00002360       ??_C@_0BF@GGILJBKN@PQresultErrorMessage?$AA@ 00000001402a1360     total.obj
 0002:00002380       ??_C@_0M@GGLELKDN@PQgetlength?$AA@ 00000001402a1380     total.obj
 0002:00002390       ??_C@_0L@EAFHAFAI@PQgetvalue?$AA@ 00000001402a1390     total.obj
 0002:000023a0       ??_C@_06BLLAJNOJ@PQfmod?$AA@ 00000001402a13a0     total.obj
 0002:000023a8       ??_C@_09KJFKCIHP@PQnfields?$AA@ 00000001402a13a8     total.obj
 0002:000023b8       ??_C@_09IEMNBFLN@PQntuples?$AA@ 00000001402a13b8     total.obj
 0002:000023c8       ??_C@_0P@HKMCCKH@PQresultStatus?$AA@ 00000001402a13c8     total.obj
 0002:000023dc       ??_C@_06HJABFDIF@PQexec?$AA@ 00000001402a13dc     total.obj
 0002:000023e8       ??_C@_07MABPGLLJ@PQclear?$AA@ 00000001402a13e8     total.obj
 0002:000023f8       ??_C@_0N@JCGHFBEK@PQsetdbLogin?$AA@ 00000001402a13f8     total.obj
 0002:00002408       ??_C@_08KJDMDFKG@PQstatus?$AA@ 00000001402a1408     total.obj
 0002:00002418       ??_C@_08KOAKDIDB@PQfinish?$AA@ 00000001402a1418     total.obj
 0002:00002428       ??_C@_0DO@IOJMAJEC@?$CK?$CK?$CK?5Fatal?5error?3?5could?5not?5load?5@ 00000001402a1428     total.obj
 0002:00002478       ??_C@_0O@PCJGMGHH@x64?2libpq?4dll?$AA@ 00000001402a1478     total.obj
 0002:00002488       ??_C@_0M@NBMIAEDP@libpq64?4dll?$AA@ 00000001402a1488     total.obj
 0002:00002498       ??_C@_09NLIGAKNP@libpq?4dll?$AA@ 00000001402a1498     total.obj
 0002:000024b8       ??_7Database@@6B@          00000001402a14b8     total.obj
 0002:000025a8       ??_7CMoveRQ@@6B@           00000001402a15a8     total.obj
 0002:000025c0       ??_7CMoveRSP@@6B@          00000001402a15c0     total.obj
 0002:000025d0       __real@3ffc5a1cac083127    00000001402a15d0     total.obj
 0002:000025e0       __real@3fe6da3c21187e7c    00000001402a15e0     total.obj
 0002:000025f0       __real@3fd60663c74fb54a    00000001402a15f0     total.obj
 0002:00002600       __real@3ff66e978d4fdf3b    00000001402a1600     total.obj
 0002:00002610       ??_C@_0BF@LMBCHBBP@1?42?4840?410008?41?42?44?4?$AA@ 00000001402a1610     total.obj
 0002:00002630       ??_C@_0L@GEHENBCM@scriptdata?$AA@ 00000001402a1630     total.obj
 0002:00002640       ??_C@_02GMHACPFF@?$CFu?$AA@ 00000001402a1640     total.obj
 0002:00002644       ??_C@_03MKLPJJFP@DDO?$AA@  00000001402a1644     total.obj
 0002:00002648       ??_C@_06JGMANLDI@Thread?$AA@ 00000001402a1648     total.obj
 0002:00002650       ??_C@_0M@PCENNPGA@?$CFd?4?$CFd?4?$CFd?4?$CFd?$AA@ 00000001402a1650     total.obj
 0002:00002660       ??_C@_0M@MJPEJEJJ@ConnectedIP?$AA@ 00000001402a1660     total.obj
 0002:00002670       ??_C@_06LGGHOGAF@Called?$AA@ 00000001402a1670     total.obj
 0002:00002678       ??_C@_07BNCBFEGH@Calling?$AA@ 00000001402a1678     total.obj
 0002:00002688       ??_C@_0N@MGHDCBMD@bad?5code?5?$GA?$DP?8?$AA@ 00000001402a1688     total.obj
 0002:00002697       ??_C@_00CNPNBAHC@?$AA@     00000001402a1697     total.obj
 0002:00002698       __real@3ff0000000000000    00000001402a1698     total.obj
 0002:000026a4       ??_C@_06ICGJLFIM@string?$AA@ 00000001402a16a4     total.obj
 0002:000026b0       ??_C@_0BK@GCBHHFH@?$CK?$CK?$CK?5ERROR?5?9?5bad?5heap?5ptr?6?$AA@ 00000001402a16b0     total.obj
 0002:000026d0       ??_C@_0BC@CNLHFBDB@OK?5?9?5end?5of?5heap?6?$AA@ 00000001402a16d0     total.obj
 0002:000026e8       ??_C@_0BL@BHPDEMIM@?$CK?$CK?$CK?5ERROR?5?9?5bad?5heap?5node?6?$AA@ 00000001402a16e8     total.obj
 0002:00002708       ??_C@_0BM@CKKPHOJH@?$CK?$CK?$CK?5ERROR?5?9?5bad?5heap?5start?6?$AA@ 00000001402a1708     total.obj
 0002:00002730       ??_C@_0BB@MLAPJDL@OK?5?9?5empty?5heap?6?$AA@ 00000001402a1730     total.obj
 0002:00002748       ??_C@_0CN@CDOPENFI@?$CFd?5small?5?$CI?$CFd?$CJ?$DL?5?$CFd?5medium?5?$CI?$CFd?$CJ?5?$CFd@ 00000001402a1748     total.obj
 0002:00002780       ??_C@_07LMEPGMD@?$CI?$CFd?$HM?$CFx?$CJ?$AA@ 00000001402a1780     total.obj
 0002:00002790       ??_C@_07GCEINMEC@?$FL?$CFd?$HM?$CFx?$FN?$AA@ 00000001402a1790     total.obj
 0002:0000279c       ??_C@_05ECFJDLDC@?$CF2?42x?$AA@ 00000001402a179c     total.obj
 0002:000027a8       ??_C@_09OJDNCNKB@?$CF2?42x?$CI?$CFc?$CJ?$AA@ 00000001402a17a8     total.obj
 0002:000027b4       ??_C@_04OEDFLLKD@?$CC?$CFs?$CC?$AA@ 00000001402a17b4     total.obj
 0002:000027bc       ??_C@_05NKLPODEL@?$CC?$CFs?$CC?5?$AA@ 00000001402a17bc     total.obj
 0002:000027c4       ??_C@_03IOOJPBPG@?$CFu?5?$AA@ 00000001402a17c4     total.obj
 0002:000027c8       ??_C@_03JDANDILB@?$CFd?5?$AA@ 00000001402a17c8     total.obj
 0002:000027cc       ??_C@_06KOCDJANI@?$CF4?44x?5?$AA@ 00000001402a17cc     total.obj
 0002:000027d4       ??_C@_06FNBBCMBJ@?$CF2?42x?5?$AA@ 00000001402a17d4     total.obj
 0002:000027e0       ??_C@_0BA@DLLIMFJK@?$CI?$CF4?44x?0?5?$CF4?44x?$CJ?5?$AA@ 00000001402a17e0     total.obj
 0002:000027f8       ??_C@_07NPEDDNID@?$CIempty?$CJ?$AA@ 00000001402a17f8     total.obj
 0002:00002808       ??_C@_0O@FKLAHHOF@Sequence?5Item?$AA@ 00000001402a1808     total.obj
 0002:00002818       ??_C@_07BDFBBAOJ@?9?9bad?9?9?$AA@ 00000001402a1818     total.obj
 0002:00002828       ??_C@_0N@KGPPEGAN@End?5sequence?$AA@ 00000001402a1828     total.obj
 0002:00002838       ??_C@_0P@MGFMPEKI@Start?5sequence?$AA@ 00000001402a1838     total.obj
 0002:00002850       ??_C@_0L@MLPMMKAO@DT_FD?5?$CIFD?$CJ?$AA@ 00000001402a1850     total.obj
 0002:00002860       ??_C@_0L@PGAANFNB@DT_FL?5?$CIFL?$CJ?$AA@ 00000001402a1860     total.obj
 0002:00002870       ??_C@_0L@BCGLPGCE@DT_UI?5?$CIUI?$CJ?$AA@ 00000001402a1870     total.obj
 0002:00002880       ??_C@_0P@NNFAPMBC@DT_UINT32?5?$CIUL?$CJ?$AA@ 00000001402a1880     total.obj
 0002:00002898       ??_C@_0P@HMEADLDB@DT_UINT16?5?$CIUS?$CJ?$AA@ 00000001402a1898     total.obj
 0002:000028b0       ??_C@_0N@BHBGMLCI@DT_DATE?5?$CIDA?$CJ?$AA@ 00000001402a18b0     total.obj
 0002:000028c8       ??_7CStoreRQ@@6B@          00000001402a18c8     total.obj
 0002:000028e0       ??_7CStoreRSP@@6B@         00000001402a18e0     total.obj
 0002:000028f0       ??_C@_0EO@NAJAFGMH@?5?5?5?5?9?9dolua?3chunk?5?5?5?5?5?5?5?5?5?5?5?5?5?5?5@ 00000001402a18f0     total.obj
 0002:00002950       ??_C@_0FB@JLLJIKLN@?5?5?5?5?9?9luastart?3chunk?5?5?5?5?5?5?5?5?5?5?5?5@ 00000001402a1950     total.obj
 0002:000029c0       ??_C@_0FB@NGPHLLBA@?5?5?5?5?9?9lua?3chunk?5?5?5?5?5?5?5?5?5?5?5?5?5?5?5?5?5@ 00000001402a19c0     total.obj
 0002:00002a28       ??_C@_0BE@FAEEELGO@Scripting?5options?3?6?$AA@ 00000001402a1a28     total.obj
 0002:00002a40       ??_C@_0DN@DOBHEAIJ@?5?5?5?5?9?9restoremagflags?3?5?5?5?5?5?5?5?5?5?5@ 00000001402a1a40     total.obj
 0002:00002a90       ??_C@_0FA@JOKFCKAM@?5?5?5?5?9?9comparebunchafterburning?3d@ 00000001402a1a90     total.obj
 0002:00002af0       ??_C@_0FB@FNOANEFL@?5?5?5?5?9?9deletebunchafterburning?3de@ 00000001402a1af0     total.obj
 0002:00002b60       ??_C@_0EN@NHJGFIBJ@?5?5?5?5?9?9preparebunchforburning?3to?0@ 00000001402a1b60     total.obj
 0002:00002bc0       ??_C@_0FB@ODGDIPFI@?5?5?5?5?9?9selectseriestomove?3device?0@ 00000001402a1bc0     total.obj
 0002:00002c30       ??_C@_0FB@GENAGGJD@?5?5?5?5?9?9selectlruforarchival?3kb?0de@ 00000001402a1c30     total.obj
 0002:00002ca0       ??_C@_0FA@CDBPECBP@?5?5?5?5?9?9moveseriestodevice?3to?0from@ 00000001402a1ca0     total.obj
 0002:00002d00       ??_C@_0FC@PJGGNEFI@?5?5?5?5?9?9movedatatodevice?3to?0from?5?5@ 00000001402a1d00     total.obj
 0002:00002d70       ??_C@_0EI@ENJNLAMN@?5?5?5?5?9?9testimages?3device?5?5?5?5?5?5?5?5?5@ 00000001402a1d70     total.obj
 0002:00002dd0       ??_C@_0FA@DABHPMJN@?5?5?5?5?9?9verifymirrordisk?3device?5?5?5@ 00000001402a1dd0     total.obj
 0002:00002e30       ??_C@_0ED@HIFEPFN@?5?5?5?5?9?9renamedevice?3from?0to?5?5?5?5?5?5@ 00000001402a1e30     total.obj
 0002:00002e80       ??_C@_0BD@NEIOEFPK@Archival?5options?3?6?$AA@ 00000001402a1e80     total.obj
 0002:00002ea0       ??_C@_0EA@FHHDJCLN@?5?5?5?5?9?9indexdbf?3?5?5?5?5?5?5?5?5?5?5?5?5?5?5?5?5?5@ 00000001402a1ea0     total.obj
 0002:00002ef0       ??_C@_0EO@GKCMJCKL@?5?5?5?5?9?9packdbf?3?5?5?5?5?5?5?5?5?5?5?5?5?5?5?5?5?5?5@ 00000001402a1ef0     total.obj
 0002:00002f50       ??_C@_0BM@DCBOEFNP@For?5DbaseIII?5without?5ODBC?3?6?$AA@ 00000001402a1f50     total.obj
 0002:00002f80       ??_C@_0EC@JCABBKLA@?5?5?5?5?9?9deleterecord?3table?0where?5?5@ 00000001402a1f80     total.obj
 0002:00002fd0       ??_C@_0EN@JBICPHMK@?5?5?5?5?9?9addrecord?3table?$HMflds?$HMvalue@ 00000001402a1fd0     total.obj
 0002:00003030       ??_C@_0EN@MIKKNCPG@?5?5?5?5?9?9extract?3?5?5?5?5?5?5?5?5?5?5?5?5?5?5?5?5?5?5@ 00000001402a2030     total.obj
 0002:00003090       ??_C@_0EJ@DGMNNAMD@?5?5?5?5?9?9extract?3PatientID?5?$DN?5?8id?8?5?5@ 00000001402a2090     total.obj
 0002:000030f0       ??_C@_0EI@FNNBOCHB@?5?5?5?5?9?9imagelister?3srv?$HMpat?$HMser?$HMfm@ 00000001402a20f0     total.obj
 0002:00003150       ??_C@_0EA@JFIGFOAE@?5?5?5?5?9?9serieslister?3srv?$HMpat?$HMstu?$HMf@ 00000001402a2150     total.obj
 0002:000031a0       ??_C@_0DP@MJEFCPJ@?5?5?5?5?9?9imagefinder?3srv?$HMstr?$HMfmt?$HMfi@ 00000001402a21a0     total.obj
 0002:000031f0       ??_C@_0DP@MIGELDBM@?5?5?5?5?9?9seriesfinder?3srv?$HMstr?$HMfmt?$HMf@ 00000001402a21f0     total.obj
 0002:00003240       ??_C@_0EA@IJGGDGHG@?5?5?5?5?9?9studyfinder?3srv?$HMstr?$HMfmt?$HMfi@ 00000001402a2240     total.obj
 0002:00003290       ??_C@_0EB@GIDODNBE@?5?5?5?5?9?9patientfinder?3srv?$HMstr?$HMfmt?$HM@ 00000001402a2290     total.obj
 0002:000032e0       ??_C@_0EL@JGEHIGLC@?5?5?5?5?9?9query2?3tab?$HMfld?$HMwhe?$HMfmt?$HMmax@ 00000001402a22e0     total.obj
 0002:00003340       ??_C@_0EI@EGOJPMBB@?5?5?5?5?9?9query?3table?$HMfields?$HMwhere?$HMf@ 00000001402a2340     total.obj
 0002:00003398       ??_C@_0BD@FAOALLIA@Database?5options?3?6?$AA@ 00000001402a2398     total.obj
 0002:000033b0       ??_C@_0DP@HKBHCING@?5?5?5?5?9?9wadorequest?3parameters?5?5?5?5@ 00000001402a23b0     total.obj
 0002:00003400       ??_C@_0DL@EOAPBNNI@?5?5?5?5?9?9uncompress?3file?0out?5?5?5?5?5?5?5@ 00000001402a2400     total.obj
 0002:00003450       ??_C@_0EI@FNADLOKG@?5?5?5?5?9?9count_frames?3file?5?5?5?5?5?5?5?5?5@ 00000001402a2450     total.obj
 0002:000034b0       ??_C@_0EG@DPBGHKDF@?5?5?5?5?9?9extract_frames?3file?0out?0fi@ 00000001402a24b0     total.obj
 0002:00003510       ??_C@_0EI@PGHPAJGG@?5?5?5?5?9?9convert_to_dicom?3file?0size@ 00000001402a2510     total.obj
 0002:00003570       ??_C@_0EM@LEJMLIPG@?5?5?5?5?9?9convert_to_jpg?3file?0size?0o@ 00000001402a2570     total.obj
 0002:000035d0       ??_C@_0EM@CPKLFIME@?5?5?5?5?9?9convert_to_bmp?3file?0size?0o@ 00000001402a25d0     total.obj
 0002:00003630       ??_C@_0EL@BOBGGPLO@?5?5?5?5?9?9convert_to_gif?3file?0size?0o@ 00000001402a2630     total.obj
 0002:00003690       ??_C@_0BF@ENGDPKLK@Conversion?5options?3?6?$AA@ 00000001402a2690     total.obj
 0002:000036b0       ??_C@_0EF@KMDMFLM@?5?5?5?5?9?9clonedb?3AE?5?5?5?5?5?5?5?5?5?5?5?5?5?5?5?5@ 00000001402a26b0     total.obj
 0002:00003710       ??_C@_0FA@DFJPBGEK@?5?5?5?5?9?9testcompress?3file?5?5?5?5?5?5?5?5?5@ 00000001402a2710     total.obj
 0002:00003770       ??_C@_0DM@DHDOJGCJ@?5?5?5?5?9?9checksum?3string?5?5?5?5?5?5?5?5?5?5?5@ 00000001402a2770     total.obj
 0002:000037c0       ??_C@_0EK@OGNAGNDG@?5?5?5?5?9?9changeuidback?3UID?5?5?5?5?5?5?5?5?5@ 00000001402a27c0     total.obj
 0002:00003820       ??_C@_0EM@JHCCMOOJ@?5?5?5?5?9?9changeuid?3UID?5?5?5?5?5?5?5?5?5?5?5?5?5@ 00000001402a2820     total.obj
 0002:00003880       ??_C@_0DE@DPMHLHCG@?5?5?5?5?9?9genuid?3?5?5?5?5?5?5?5?5?5?5?5?5?5?5?5?5?5?5?5@ 00000001402a2880     total.obj
 0002:000038c0       ??_C@_0P@BBBLEAHC@Test?5options?3?6?$AA@ 00000001402a28c0     total.obj
 0002:000038e0       ??_C@_0EG@NHKHKAAM@?5?5?5?5?9?9scheduletransfer?3options?5?5@ 00000001402a28e0     total.obj
 0002:00003940       ??_C@_0EG@MENMABAF@?5?5?5?5?9?9export?3p?0st?0ser?0sop?0file?0s@ 00000001402a2940     total.obj
 0002:000039a0       ??_C@_0EC@BPADLONP@?5?5?5?5?9?9submit?3p?0s?0s?0s?0target?0pw?0s@ 00000001402a29a0     total.obj
 0002:000039f0       ??_C@_0EC@GLGKMBHA@?5?5?5?5?9?9browsepatient?3searchstring@ 00000001402a29f0     total.obj
 0002:00003a40       ??_C@_0EL@INDLPOMG@?5?5?5?5?9?9prefetch?3patientid?5?5?5?5?5?5?5?5@ 00000001402a2a40     total.obj
 0002:00003aa0       ??_C@_0EC@KAGNPJJG@?5?5?5?5?9?9grabimagesfromserver?3AE?0da@ 00000001402a2aa0     total.obj
 0002:00003af0       ??_C@_0EJ@GJDOGIGM@?5?5?5?5?9?9forward?3file?0mode?0server?5?5@ 00000001402a2af0     total.obj
 0002:00003b48       ??_C@_0DP@FCGDCIOD@?5?5?5?5?9?9dump_header?3filein?0fileout@ 00000001402a2b48     total.obj
 0002:00003ba0       ??_C@_0EA@IHEKIEAF@?5?5?5?5?9?9loadhl7?3file?5?5?5?5?5?5?5?5?5?5?5?5?5?5@ 00000001402a2ba0     total.obj
 0002:00003bf0       ??_C@_0EI@PKKNNHIM@?5?5?5?5?9?9loadanddeletedir?3dir?0patid@ 00000001402a2bf0     total.obj
 0002:00003c50       ??_C@_0FA@OEGFAPIG@?5?5?5?5?9?9addlocalfile?3file?0patid?5?5?5@ 00000001402a2c50     total.obj
 0002:00003cb0       ??_C@_0FA@MKIBNGEE@?5?5?5?5?9?9addimagefile?3file?0patid?5?5?5@ 00000001402a2cb0     total.obj
 0002:00003d10       ??_C@_0BI@MIICOABF@Communication?5options?3?6?$AA@ 00000001402a2d10     total.obj
 0002:00003d30       ??_C@_0EC@CACHFDIH@?5?5?5?5?9?9get_sqldef?3level?0in?0fmt?5Li@ 00000001402a2d30     total.obj
 0002:00003d80       ??_C@_0DO@IOFLCGDK@?5?5?5?5?9?9get_dic?3index?0fmt?5?5?5?5?5?5?5Li@ 00000001402a2d80     total.obj
 0002:00003dd0       ??_C@_0DP@IHFDBCB@?5?5?5?5?9?9delete_remoteae?3index?5?5?5De@ 00000001402a2dd0     total.obj
 0002:00003e20       ??_C@_0EC@GBIHPFKA@?5?5?5?5?9?9put_remoteae?3in?0AE?0name?5Wr@ 00000001402a2e20     total.obj
 0002:00003e70       ??_C@_0EB@JKKKDJGA@?5?5?5?5?9?9get_remoteae?3index?0fmt?5?5Li@ 00000001402a2e70     total.obj
 0002:00003ec0       ??_C@_0DO@FAGMGNJA@?5?5?5?5?9?9delete_localae?3index?5?5?5?5De@ 00000001402a2ec0     total.obj
 0002:00003f10       ??_C@_0EB@FONPPJLA@?5?5?5?5?9?9put_localae?3in?0AE?0name?5?5Wr@ 00000001402a2f10     total.obj
 0002:00003f60       ??_C@_0EA@MIHHHOCG@?5?5?5?5?9?9get_localae?3index?0fmt?5?5?5Li@ 00000001402a2f60     total.obj
 0002:00003fb0       ??_C@_0DP@MJFCEMCL@?5?5?5?5?9?9delete_application?3inde?5De@ 00000001402a2fb0     total.obj
 0002:00004000       ??_C@_0EC@EBIABAAJ@?5?5?5?5?9?9put_application?3i?0U?0n?5?5?5Wr@ 00000001402a3000     total.obj
 0002:00004050       ??_C@_0EB@IPGPFBJI@?5?5?5?5?9?9get_application?3idx?0fmt?5Li@ 00000001402a3050     total.obj
 0002:000040a0       ??_C@_0DP@HOMKDID@?5?5?5?5?9?9delete_transfer?3index?5?5?5De@ 00000001402a30a0     total.obj
 0002:000040f0       ??_C@_0EC@LJEEOEKE@?5?5?5?5?9?9put_transfer?3in?0UID?0nam?5Wr@ 00000001402a30f0     total.obj
 0002:00004140       ??_C@_0EB@JNFHAEBG@?5?5?5?5?9?9get_transfer?3index?0fmt?5?5Li@ 00000001402a3140     total.obj
 0002:00004190       ??_C@_0EB@HOJPJMD@?5?5?5?5?9?9delete_sop?3index?5?5?5?5?5?5?5?5De@ 00000001402a3190     total.obj
 0002:000041e0       ??_C@_0EE@INJJLCEB@?5?5?5?5?9?9put_sop?3index?0UID?0name?5?5Wr@ 00000001402a31e0     total.obj
 0002:00004240       ??_C@_0ED@MMLGOGCH@?5?5?5?5?9?9get_sop?3index?0fmt?5?5?5?5?5?5?5Li@ 00000001402a3240     total.obj
 0002:00004290       ??_C@_0EH@LMABDMDF@?5?5?5?5?9?9read_amap?3?5?5?5?5?5?5?5?5?5?5?5?5?5?5Re@ 00000001402a3290     total.obj
 0002:000042f0       ??_C@_0EF@EHLEEIB@?5?5?5?5?9?9write_amap?3?5?5?5?5?5?5?5?5?5?5?5?5?5Wr@ 00000001402a32f0     total.obj
 0002:00004350       ??_C@_0EG@JAOGGMLD@?5?5?5?5?9?9delete_amap?3index?5?5?5?5?5?5?5De@ 00000001402a3350     total.obj
 0002:000043b0       ??_C@_0EF@NLELCLOP@?5?5?5?5?9?9put_amap?3i?0AE?0ip?0p?$CD?0cmp?5Wr@ 00000001402a33b0     total.obj
 0002:00004410       ??_C@_0EB@NKKIHEFE@?5?5?5?5?9?9get_amaps?3fmt?5?5?5?5?5?5?5?5?5?5?5Li@ 00000001402a3410     total.obj
 0002:00004460       ??_C@_0DP@ILNIMOAK@?5?5?5?5?9?9get_amap?3index?0fmt?5?5?5?5?5?5Li@ 00000001402a3460     total.obj
 0002:000044b0       ??_C@_0EF@GPKMKLHE@?5?5?5?5?9?9read_ini?3?5?5?5?5?5?5?5?5?5?5?5?5?5?5?5Re@ 00000001402a34b0     total.obj
 0002:00004510       ??_C@_0ED@MJNMKOMP@?5?5?5?5?9?9delete_param?3name?5?5?5?5?5?5?5De@ 00000001402a3510     total.obj
 0002:00004560       ??_C@_0EA@JNGKNOOA@?5?5?5?5?9?9put_param?3name?0value?5?5?5?5Wr@ 00000001402a3560     total.obj
 0002:000045b0       ??_C@_0DP@EMPANMAC@?5?5?5?5?9?9get_ini?3fmt?5?5?5?5?5?5?5?5?5?5?5?5?5Li@ 00000001402a35b0     total.obj
 0002:00004600       ??_C@_0DN@IHBLDOFA@?5?5?5?5?9?9get_ini_num?3index?0fmt?5?5?5Li@ 00000001402a3600     total.obj
 0002:00004650       ??_C@_0EB@CKGPCKPL@?5?5?5?5?9?9get_ini_param?3name?0fmt?5?5Re@ 00000001402a3650     total.obj
 0002:000046a0       ??_C@_0EB@HFOCMFLK@?5?5?5?5?9?9get_param?3name?0fmt?5?5?5?5?5?5Re@ 00000001402a36a0     total.obj
 0002:000046f0       ??_C@_0BI@OAAILKPP@Configuration?5options?3?6?$AA@ 00000001402a36f0     total.obj
 0002:00004710       ??_C@_0DK@GBONBNKC@?5?5?5?5?9?9echo?3AE?0file?5?5?5?5?5?5?5?5?5?5?5?5Ec@ 00000001402a3710     total.obj
 0002:00004758       ??_C@_0DL@JFEEDGLG@?5?5?5?5?9?9testmode?3?$CD?5?5?5?5?5?5?5?5?5?5?5?5?5?5Ap@ 00000001402a3758     total.obj
 0002:000047a0       ??_C@_0DJ@FNHJEIEF@?5?5?5?5?9?9get_freestore?3dev?0fmt?5?5?5Re@ 00000001402a37a0     total.obj
 0002:000047f0       ??_C@_0EB@EPLLHJOO@?5?5?5?5?9?9checklargestmalloc?3?5?5?5?5?5Es@ 00000001402a37f0     total.obj
 0002:00004840       ??_C@_0EJ@LADFLINH@?5?5?5?5?9?9status_string?3file?5?5?5?5?5?5Di@ 00000001402a3840     total.obj
 0002:00004898       ??_C@_0DF@MACABEII@?5?5?5?5?9?9display_status?3file?5?5?5?5?5Di@ 00000001402a3898     total.obj
 0002:000048d8       ??_C@_0DH@IFDPELFB@?5?5?5?5?9?9debuglevel?3?$CD?5?5?5?5?5?5?5?5?5?5?5?5Se@ 00000001402a38d8     total.obj
 0002:00004920       ??_C@_0DE@KCAFDKBM@?5?5?5?5?9?9log_on?3file?1port?1pipe?5?5?5St@ 00000001402a3920     total.obj
 0002:00004960       ??_C@_0DD@DLLHLGCN@?5?5?5?5?9?9debuglog_on?3file?1port?5?5?5St@ 00000001402a3960     total.obj
 0002:000049a0       ??_C@_0BC@JPKDHLG@Logging?5options?3?6?$AA@ 00000001402a39a0     total.obj
 0002:000049b8       ??_C@_0DP@NPDLHGNL@?5?5?5?5?9?9safequit?3?5?5?5?5?5?5?5?5?5?5?5?5?5?5?5St@ 00000001402a39b8     total.obj
 0002:00004a08       ??_C@_0CP@KNBCKLDD@?5?5?5?5?9?9quit?3?5?5?5?5?5?5?5?5?5?5?5?5?5?5?5?5?5?5?5St@ 00000001402a3a08     total.obj
 0002:00004a40       ??_C@_0EF@DGODGCGM@?5?5?5?5?9?9makespace?3?$CD?5?5?5?5?5?5?5?5?5?5?5?5?5De@ 00000001402a3a40     total.obj
 0002:00004a98       ??_C@_0DP@CCLLKEAP@?5?5?5?5?9?9regenfile?3file?5?5?5?5?5?5?5?5?5?5Re@ 00000001402a3a98     total.obj
 0002:00004af0       ??_C@_0EJ@NNLBLLJN@?5?5?5?5?9?9regendir?3device?0dir?5?5?5?5?5Re@ 00000001402a3af0     total.obj
 0002:00004b50       ??_C@_0EG@KDPHNCJN@?5?5?5?5?9?9regendevice?3device?5?5?5?5?5?5Re@ 00000001402a3b50     total.obj
 0002:00004ba8       ??_C@_0DL@GGLEGIEM@?5?5?5?5?9?9regen?3?5?5?5?5?5?5?5?5?5?5?5?5?5?5?5?5?5?5Re@ 00000001402a3ba8     total.obj
 0002:00004bf0       ??_C@_0EC@CJMKFLJA@?5?5?5?5?9?9initializetables?32?5?5?5?5?5?5Cl@ 00000001402a3bf0     total.obj
 0002:00004c40       ??_C@_0EJ@MGLADHPB@?5?5?5?5?9?9initializetables?31?5?5?5?5?5?5Cl@ 00000001402a3c40     total.obj
 0002:00004c98       ??_C@_0DJ@PFFPHAFC@?5?5?5?5?9?9initializetables?3?5?5?5?5?5?5?5Cl@ 00000001402a3c98     total.obj
 0002:00004ce0       ??_C@_0BG@ENDFNKJI@Maintenance?5options?3?6?$AA@ 00000001402a3ce0     total.obj
 0002:00004d00       ??_C@_0ED@MBJMLFGO@?5?5?5?5?9?9attachrtplantortstruct?3pla@ 00000001402a3d00     total.obj
 0002:00004d50       ??_C@_0FB@DINHFJHK@?5?5?5?5?9?9attachanytoseries?3any?0samp@ 00000001402a3d50     total.obj
 0002:00004dc0       ??_C@_0EO@CEKOBNND@?5?5?5?5?9?9attachanytostudy?3any?0sampl@ 00000001402a3dc0     total.obj
 0002:00004e20       ??_C@_0EN@KJFOCFOM@?5?5?5?5?9?9attachanytopatient?3any?0sam@ 00000001402a3e20     total.obj
 0002:00004e80       ??_C@_0EB@HOHEKEEN@?5?5?5?5?9?9mergeseriesfile?3file?5?5?5?5Us@ 00000001402a3e80     total.obj
 0002:00004ed0       ??_C@_0EK@EDKEAAGI@?5?5?5?5?9?9mergeseries?3uid?0uid?0?4?4?5?5St@ 00000001402a3ed0     total.obj
 0002:00004f30       ??_C@_0EB@IJGIBCB@?5?5?5?5?9?9mergestudyfile?3file?5?5?5?5?5Us@ 00000001402a3f30     total.obj
 0002:00004f80       ??_C@_0EK@PLCMMCKG@?5?5?5?5?9?9mergestudy?3uid?0uid?0?4?4?5?5?5St@ 00000001402a3f80     total.obj
 0002:00004fd8       ??_C@_0DE@JJPNPGLM@?5?5?5?5?9?9modifyimage?3file?0script?5Ch@ 00000001402a3fd8     total.obj
 0002:00005018       ??_C@_0DG@OPOJANDE@?5?5?5?5?9?9modifyseries?3p?0s?0script?5Ch@ 00000001402a4018     total.obj
 0002:00005060       ??_C@_0EA@DEJPFANJ@?5?5?5?5?9?9modifystudy?3p?0s?0script?5?5Ch@ 00000001402a4060     total.obj
 0002:000050b0       ??_C@_0DE@KCKNGBLC@?5?5?5?5?9?9anonymize?3patid?0file?5?5?5?5An@ 00000001402a40b0     total.obj
 0002:000050f0       ??_C@_0DK@FKEAJJNH@?5?5?5?5?9?9modifypatid?3patid?0file?5?5Ch@ 00000001402a40f0     total.obj
 0002:00005138       ??_C@_0CA@GCPBJEKB@Modification?5of?5dicom?5objects?3?6?$AA@ 00000001402a4138     total.obj
 0002:00005160       ??_C@_0EJ@GJJLHLKN@?5?5?5?5?9?9moveseries?3src?0dst?0patid?3s@ 00000001402a4160     total.obj
 0002:000051c0       ??_C@_0EC@CLKKBGMF@?5?5?5?5?9?9movestudies?3source?0dest?0da@ 00000001402a41c0     total.obj
 0002:00005210       ??_C@_0EJ@BPMFHHLD@?5?5?5?5?9?9movestudy?3source?0dest?0pati@ 00000001402a4210     total.obj
 0002:00005270       ??_C@_0EP@MMNBKKOD@?5?5?5?5?9?9movepatient?3source?0dest?0pa@ 00000001402a4270     total.obj
 0002:000052d0       ??_C@_0BF@LEILPPAB@DICOM?5move?5options?3?6?$AA@ 00000001402a42d0     total.obj
 0002:000052f0       ??_C@_0FB@MLFCNPCH@?5?5?5?5?9?9deletesopfromdb?3pat?0study?0@ 00000001402a42f0     total.obj
 0002:00005360       ??_C@_0EM@HIMBMIG@?5?5?5?5?9?9deleteimagefromdb?3file?5?5?5?5@ 00000001402a4360     total.obj
 0002:000053c0       ??_C@_0EN@EBOEFHPL@?5?5?5?5?9?9deleteseries?3patid?3seriesu@ 00000001402a43c0     total.obj
 0002:00005420       ??_C@_0FA@EEEHEMDM@?5?5?5?5?9?9deletestudies?3date?$CIrange?$CJ?5@ 00000001402a4420     total.obj
 0002:00005480       ??_C@_0EM@PNJJBIKD@?5?5?5?5?9?9deletestudy?3patid?3studyuid@ 00000001402a4480     total.obj
 0002:000054e0       ??_C@_0EO@EIOPFMDN@?5?5?5?5?9?9deletepatient?3patid?5?5?5?5?5?5?5@ 00000001402a44e0     total.obj
 0002:00005540       ??_C@_0FB@PKGDKFFI@?5?5?5?5?9?9deleteimagefile?3file?5?5?5?5?5?5@ 00000001402a4540     total.obj
 0002:000055a8       ??_C@_0BB@ILJBGKBP@Delete?5options?3?6?$AA@ 00000001402a45a8     total.obj
 0002:000055c0       ??_C@_0EA@FDMHELMI@?5?5?5?5?5?5?5?5?5?5?5?5?5?5?5?5?5?5?5?5?5?5?5?5?5?5?5?5?5?5?$CIw@ 00000001402a45c0     total.obj
 0002:00005610       ??_C@_0EO@JNHLGAEA@?5?5?5?5?5?5?5?5?5?5?5?5?5?5?5?5?5?5?5?5?5?5?5?5?5?5?5?5?5?5Se@ 00000001402a4610     total.obj
 0002:00005670       ??_C@_0CP@CNKBIPKD@?$CI3?$CJ?5DGATE?5?$DM?9pPORT?$DO?5?$DM?9qIP?$DO?5?9?9comm@ 00000001402a4670     total.obj
 0002:000056b0       ??_C@_0EL@DKDHCGHP@?$CI2?$CJ?5DGATE?5FileMapping?5?5?5?5?5?5?5?5?5Ru@ 00000001402a46b0     total.obj
 0002:00005710       ??_C@_0EM@DBGDIDAI@?5?5?5?5?5?5?5?5?5?5?5?5?5?5?5?5?5?5?5?5?5?5?5?5?5?5?5?5?5?5Ot@ 00000001402a4710     total.obj
 0002:00005770       ??_C@_0EL@MNFFLHPC@?5?5?5?5?5?5?5?5?5?5?$FL?9gSERVER?0DATE?$FN?5?5?5?5?5gr@ 00000001402a4770     total.obj
 0002:000057d0       ??_C@_0EC@HIMJGMFP@?5?5?5?5?5?5?5?5?5?5?$FL?9ff?$CD?$FN?5?5?5?5?5?5?5?5?5?5?5?5?5?5De@ 00000001402a47d0     total.obj
 0002:00005820       ??_C@_0EO@INMGDNHE@?5?5?5?5?5?5?5?5?5?5?$FL?9f?$DPfile?$HM?9fu?$HM?9c?$CD?$FN?5?5?5ge@ 00000001402a4820     total.obj
 0002:00005880       ??_C@_0EN@IAOAGHFP@?5?5?5?5?5?5?5?5?5?5?$FL?9f?$DMc?$HMk?$DOPATID?0file?$FN?5Ch@ 00000001402a4880     total.obj
 0002:000058e0       ??_C@_0EE@HANLKKGL@?5?5?5?5?5?5?5?5?5?5?$FL?9frDEVICE?0DIR?$FN?5?5?5?5?5Re@ 00000001402a48e0     total.obj
 0002:00005938       ??_C@_0DE@KKKCEGHH@?5?5?5?5?5?5?5?5?5?5?$FL?9zID?$FN?5?5?5?5?5?5?5?5?5?5?5?5?5?5De@ 00000001402a4938     total.obj
 0002:00005980       ??_C@_0EL@JCDPAMHF@?5?5?5?5?5?5?5?5?5?5?$FL?9faFILE?$DM?0ID?$DO?$FN?5?5?5?5?5?5Ad@ 00000001402a4980     total.obj
 0002:000059e0       ??_C@_0EI@OPJAOGIE@?5?5?5?5?5?5?5?5?5?5?$FL?9f?$DMe?$HMd?$HMz?$DOfile?$FN?5?5?5?5?5En@ 00000001402a49e0     total.obj
 0002:00005a40       ??_C@_0EL@DDCHEGDO@?5?5?5?5?5?5?5?5?5?5?$FL?9f?$DMp?$HMt?$HMs?$HMi?$DOID?$FN?5?5?5?5?5De@ 00000001402a4a40     total.obj
 0002:00005aa0       ??_C@_0EM@GCAKLGJK@?5?5?5?5?5?5?5?5?5?5?$FL?9adJUKEBOX1?42?$FN?5?5?5?5?5Ve@ 00000001402a4aa0     total.obj
 0002:00005b00       ??_C@_0EE@CNECALOG@?5?5?5?5?5?5?5?5?5?5?$FL?9acJUKEBOX1?42?$FN?5?5?5?5?5Ve@ 00000001402a4b00     total.obj
 0002:00005b60       ??_C@_0EM@LMFKIAKO@?5?5?5?5?5?5?5?5?5?5?$FL?9abJUKEBOX1?42?0N?$FN?5?5?5Ma@ 00000001402a4b60     total.obj
 0002:00005bc0       ??_C@_0EN@BGEBNPCB@?5?5?5?5?5?5?5?5?5?5?$FL?9av?$HM?9atDEVICE?$FN?5?5?5?5?5Ve@ 00000001402a4bc0     total.obj
 0002:00005c20       ??_C@_0EH@INBEPDON@?5?5?5?5?5?5?5?5?5?5?$FL?9au?$HM?9aeFROM?0TO?$FN?5?5?5?5Un@ 00000001402a4c20     total.obj
 0002:00005c80       ??_C@_0EN@OBAOPIOF@?5?5?5?5?5?5?5?5?5?5?$FL?9as?$CD?0N?$HM?9amFROM?0TO?$FN?5Se@ 00000001402a4c80     total.obj
 0002:00005ce0       ??_C@_0DF@DDPBBGLE@?5?5?5?5?5?5?5?5?5?5?$FL?9j?$CK?$CD?$CD?$HM?9j?9?$CD?$CDFILE?$FN?5?5?5Re@ 00000001402a4ce0     total.obj
 0002:00005d20       ??_C@_0EJ@PNDCIJEE@?5?5?5?5?5?5?5?5?5?5?$FL?9nd?$HM?9nc?$CD?$HM?9jd?$HM?9jc?$CD?$FN?5NK@ 00000001402a4d20     total.obj
 0002:00005d80       ??_C@_0EO@DEJJLDNJ@?5?5?5?5?5?5?5?5?5?5?$FL?9sOpt?$HM?9esap?5d?5u?5p?$FN?5Cr@ 00000001402a4d80     total.obj
 0002:00005de0       ??_C@_0DK@HMLLAACH@?5?5?5?5?5?5?5?5?5?5?$FL?9t?$HM?9o?$FN?5?5?5?5?5?5?5?5?5?5?5?5?5Te@ 00000001402a4de0     total.obj
 0002:00005e30       ??_C@_0EM@KELMDCLP@?5?5?5?5?5?5?5?5?5?5?$FL?9d?$HM?9m?$HM?9k?$FN?5?5?5?5?5?5?5?5?5?5Li@ 00000001402a4e30     total.obj
 0002:00005e90       ??_C@_0EL@IBGEN@?5?5?5?5?5?5?5?5?5?5?$FL?9i?$HM?9r?$HM?9arDEVICE?$FN?5?5?5In@ 00000001402a4e90     total.obj
 0002:00005ef0       ??_C@_0FA@PJIBHANP@?5?5?5?5?5?5?5?5?5?5?$FL?9wDIR?$FN?5?5?5?5?5?5?5?5?5?5?5?5?5Se@ 00000001402a4ef0     total.obj
 0002:00005f50       ??_C@_0EO@LEIILONB@?5?5?5?5?5?5?5?5?5?5?$FL?9p?$CD?$HM?9qIP?$HM?9b?$FN?5?5?5?5?5?5?5Se@ 00000001402a4f50     total.obj
 0002:00005fb0       ??_C@_0EO@ICDJLIP@?$CI1?$CJ?5DGATE?5?$DM?9?$CB?$CD?$HM?9v?$HM?9u?$CD?$HM?9?$FO?$CD?$DO?5?5?5?5Re@ 00000001402a4fb0     total.obj
 0002:00006010       ??_C@_07GNMKOPNN@Usage?3?6?$AA@ 00000001402a5010     total.obj
 0002:00006020       ??_C@_0EG@MJHDCFND@DGATE?3?5UCDMC?1NKI?5DICOM?5server?5th@ 00000001402a5020     total.obj
 0002:00006078       ??_C@_08LJGKCPPM@1?44?418a3?$AA@ 00000001402a5078     total.obj
 0002:00006084       ??_C@_01EEMJAFIK@?6?$AA@   00000001402a5084     total.obj
 0002:00006090       ??_7CFindRQ@@6B@           00000001402a5090     total.obj
 0002:000060a8       ??_7CFindRSP@@6B@          00000001402a50a8     total.obj
 0002:000060c0       ??_7UnknownStorage@@6BCStoreRSP@@@ 00000001402a50c0     total.obj
 0002:000060d8       ??_7UnknownStorage@@6BCStoreRQ@@@ 00000001402a50d8     total.obj
 0002:000060f8       ??_7NCreateRQ@@6B@         00000001402a50f8     total.obj
 0002:00006110       ??_7NCreateRSP@@6B@        00000001402a5110     total.obj
 0002:00006128       ??_7NDeleteRQ@@6B@         00000001402a5128     total.obj
 0002:00006140       ??_7NDeleteRSP@@6B@        00000001402a5140     total.obj
 0002:00006158       ??_7NSetRQ@@6B@            00000001402a5158     total.obj
 0002:00006170       ??_7NSetRSP@@6B@           00000001402a5170     total.obj
 0002:00006188       ??_7NActionRQ@@6B@         00000001402a5188     total.obj
 0002:000061a0       ??_7NActionRSP@@6B@        00000001402a51a0     total.obj
 0002:000061b8       ??_7NGetRQ@@6B@            00000001402a51b8     total.obj
 0002:000061d0       ??_7NGetRSP@@6B@           00000001402a51d0     total.obj
 0002:000061e8       ??_7NEventReportRQ@@6B@    00000001402a51e8     total.obj
 0002:00006200       ??_7NEventReportRSP@@6B@   00000001402a5200     total.obj
 0002:00006218       ??_7ASCPRQ@@6B@            00000001402a5218     total.obj
 0002:00006230       ??_7ASCPRSP@@6B@           00000001402a5230     total.obj
 0002:00006248       ??_7ESCPRQ@@6B@            00000001402a5248     total.obj
 0002:00006260       ??_7ESCPRSP@@6B@           00000001402a5260     total.obj
 0002:0000626c       ??_C@_02KEGNLNML@?0?5?$AA@ 00000001402a526c     total.obj
 0002:00006270       ??_C@_03GBOLEDH@?4gz?$AA@  00000001402a5270     total.obj
 0002:00006274       ??_C@_04GIHENEBL@?4hl7?$AA@ 00000001402a5274     total.obj
 0002:0000627c       ??_C@_03CDFKLIHN@?4v2?$AA@ 00000001402a527c     total.obj
 0002:00006280       ??_C@_04GJKKJJEA@?4dcm?$AA@ 00000001402a5280     total.obj
 0002:00006290       ??_7MyBridgeStorage@@6BCStoreRSP@@@ 00000001402a5290     total.obj
 0002:000062a8       ??_7MyBridgeStorage@@6BCStoreRQ@@@ 00000001402a52a8     total.obj
 0002:000062c8       ??_7CEchoRQ@@6B@           00000001402a52c8     total.obj
 0002:000062e0       ??_7CEchoRSP@@6B@          00000001402a52e0     total.obj
 0002:000062f8       ??_7StandardRetrieve@@6BCMoveRSP@@@ 00000001402a52f8     total.obj
 0002:00006318       ??_7StandardRetrieve@@6BCMoveRQ@@@ 00000001402a5318     total.obj
 0002:00006368       ??_7StorageApp@@6B@        00000001402a5368     total.obj
 0002:00006380       ??_7?$Array@PEAVBufferSpace@@@@6B@ 00000001402a5380     total.obj
 0002:00006398       ??_7?$Array@PEAVVR@@@@6B@  00000001402a5398     total.obj
 0002:000063b0       ??_7?$Array@PEAVVRGroupPQueue@@@@6B@ 00000001402a53b0     total.obj
 0002:000063c8       ??_7?$Array@VTransferSyntax@@@@6B@ 00000001402a53c8     total.obj
 0002:000063e0       ??_7?$Array@VPresentationContext@@@@6B@ 00000001402a53e0     total.obj
 0002:000063f8       ??_7?$Array@VPresentationContextAccept@@@@6B@ 00000001402a53f8     total.obj
 0002:00006410       ??_7?$Array@VAbstractSyntax@@@@6B@ 00000001402a5410     total.obj
 0002:00006428       ??_7?$basic_istream@DU?$char_traits@D@std@@@std@@6B@ 00000001402a5428     total.obj
 0002:00006440       ??_7?$Array@PEAVDICOMDataObject@@@@6B@ 00000001402a5440     total.obj
 0002:00006458       ??_7?$Array@PEAD@@6B@      00000001402a5458     total.obj
 0002:00006470       ??_7?$Array@PEA_J@@6B@     00000001402a5470     total.obj
 0002:00006488       ??_7?$Array@PEAUDBENTRY@@@@6B@ 00000001402a5488     total.obj
 0002:000064a0       ??_7?$Array@H@@6B@         00000001402a54a0     total.obj
 0002:000064b8       ??_7?$Array@UDBENTRY@@@@6B@ 00000001402a54b8     total.obj
 0002:000064d0       ??_7?$Array@PEAU_ACRNemaAddress@@@@6B@ 00000001402a54d0     total.obj
 0002:000064e8       ??_7?$Array@PEAH@@6B@      00000001402a54e8     total.obj
 0002:00006500       ??_7?$Array@PEAU_sectionTable@@@@6B@ 00000001402a5500     total.obj
 0002:00006518       ??_7?$Array@PEAU_iniTable@@@@6B@ 00000001402a5518     total.obj
 0002:00006530       ??_7?$Array@U_RTCElement@@@@6B@ 00000001402a5530     total.obj
 0002:00006548       ??_7?$Array@PEAVDICOMObject@@@@6B@ 00000001402a5548     total.obj
 0002:00006560       ??_7?$basic_ios@DU?$char_traits@D@std@@@std@@6B@ 00000001402a5560     total.obj
 0002:00006570       ??_C@_0BA@JFNIOLAK@string?5too?5long?$AA@ 00000001402a5570     total.obj
 0002:00006590       ??_7?$Array@V?$FixedArrayElement@IU_RTCElement@@@@@@6B@ 00000001402a5590     total.obj
 0002:000065a8       ??_7?$PQueueOfPtr@PEAVVR@@@@6B@ 00000001402a55a8     total.obj
 0002:000065c8       ??_7?$ctype@D@std@@6B@     00000001402a55c8     total.obj
 0002:00006628       ??_7system_error@std@@6B@  00000001402a5628     total.obj
 0002:00006648       ??_7failure@ios_base@std@@6B@ 00000001402a5648     total.obj
 0002:00006660       ??_C@_0BF@OOHOMBOF@ios_base?3?3eofbit?5set?$AA@ 00000001402a5660     total.obj
 0002:00006680       ??_C@_0BG@FMKFHCIL@ios_base?3?3failbit?5set?$AA@ 00000001402a5680     total.obj
 0002:000066a0       ??_C@_0BF@PHHKMMFD@ios_base?3?3badbit?5set?$AA@ 00000001402a56a0     total.obj
 0002:000066bc       ??_C@_01LFCBOECM@?4?$AA@   00000001402a56bc     total.obj
 0002:000066c0       ??_C@_0BI@CJNBCHJI@?$CF?917s?5?$CF?930s?5?$CF?910s?5?$CF?916s?$AA@ 00000001402a56c0     total.obj
 0002:000066e0       ??_C@_0BL@PJIIEOLN@?$CK?$CK?7AE?5?1?5IP?9PORT?5Map?5dump?6?6?$AA@ 00000001402a56e0     total.obj
 0002:00006700       ??_C@_0EPO@IGCNPMFK@?1?$CK?5?$CK?$CK?$CK?$CK?$CK?$CK?$CK?$CK?$CK?$CK?$CK?$CK?$CK?$CK?$CK?$CK?$CK?$CK?$CK?$CK?$CK?$CK?$CK?$CK?$CK?$CK?$CK?$CK?$CK@ 00000001402a5700     total.obj
 0002:00006d00       ??_C@_02BKFDOEMK@wt?$AA@   00000001402a5d00     total.obj
 0002:00006d04       ??_C@_02DKCKIIND@?$CFs?$AA@ 00000001402a5d04     total.obj
 0002:00006d08       ??_C@_0P@DFKNHONL@DicomIni?5Table?$AA@ 00000001402a5d08     total.obj
 0002:00006d20       ??_C@_0CP@PKAIDEGP@Could?5not?5allocate?5?$CFld?5bytes?5for@ 00000001402a5d20     total.obj
 0002:00006d58       ??_C@_0L@GPCGFJNE@?$CFs?$CFd?5?$DN?5?$CFs?6?$AA@ 00000001402a5d58     total.obj
 0002:00006d68       ??_C@_0M@KOCGDFOD@StationName?$AA@ 00000001402a5d68     total.obj
 0002:00006d78       ??_C@_08DEFICJOJ@Modality?$AA@ 00000001402a5d78     total.obj
 0002:00006d88       ??_C@_09MMJIDKPF@Converter?$AA@ 00000001402a5d88     total.obj
 0002:00006d98       ??_C@_09LKOMCJBL@CallingAE?$AA@ 00000001402a5d98     total.obj
 0002:00006da8       ??_C@_08MIEIFJNI@CalledAE?$AA@ 00000001402a5da8     total.obj
 0002:00006db8       ??_C@_0BC@PMIDIMHA@?$CK?$CK?$CK?5?$CFs?5Group?5?$CK?$CK?$CK?6?$AA@ 00000001402a5db8     total.obj
 0002:00006dd0       ??_C@_0L@HGEPOMCB@?$CFs?$CFd?5?$DN?5?$CFd?6?$AA@ 00000001402a5dd0     total.obj
 0002:00006de0       ??_C@_05BFIAAOOA@ource?$AA@ 00000001402a5de0     total.obj
 0002:00006de8       ??_C@_03MCFGOBKC@ine?$AA@  00000001402a5de8     total.obj
 0002:00006dec       ??_C@_05FFAHOMKD@eader?$AA@ 00000001402a5dec     total.obj
 0002:00006df4       ??_C@_06LGPJFOKD@aption?$AA@ 00000001402a5df4     total.obj
 0002:00006dfc       ??_C@_05JFOJHCGJ@iewer?$AA@ 00000001402a5dfc     total.obj
 0002:00006e08       ??_C@_0L@CMBPLCIJ@tudyviewer?$AA@ 00000001402a5e08     total.obj
 0002:00006e18       ??_C@_03NJHJOKAO@ize?$AA@  00000001402a5e18     total.obj
 0002:00006e1c       ??_C@_03KBNIMHHK@ort?$AA@  00000001402a5e1c     total.obj
 0002:00006e20       ??_C@_07DCAJIFBK@consize?$AA@ 00000001402a5e20     total.obj
 0002:00006e2c       ??_C@_06NEFKMKJE@raphic?$AA@ 00000001402a5e2c     total.obj
 0002:00006e34       ??_C@_04IAGNFIBA@size?$AA@ 00000001402a5e34     total.obj
 0002:00006e40       ??_C@_07KPBKPKMH@ompress?$AA@ 00000001402a5e40     total.obj
 0002:00006e4c       ??_C@_06FDEAENJJ@ddress?$AA@ 00000001402a5e4c     total.obj
 0002:00006e58       ??_C@_0L@DEFAOFJI@tationname?$AA@ 00000001402a5e58     total.obj
 0002:00006e68       ??_C@_07JIKOAGHO@odality?$AA@ 00000001402a5e68     total.obj
 0002:00006e74       ??_C@_05IKEMLPPG@ilter?$AA@ 00000001402a5e74     total.obj
 0002:00006e80       ??_C@_08LMJGPKIO@onverter?$AA@ 00000001402a5e80     total.obj
 0002:00006e90       ??_C@_08GHCLILCC@allingae?$AA@ 00000001402a5e90     total.obj
 0002:00006ea0       ??_C@_07BLFMPJP@alledae?$AA@ 00000001402a5ea0     total.obj
 0002:00006eb0       ??_C@_0N@KOIONPME@export?5group?$AA@ 00000001402a5eb0     total.obj
 0002:00006ec0       ??_C@_09FKIPBNGJ@put_param?$AA@ 00000001402a5ec0     total.obj
 0002:00006ed0       ??_C@_0CG@HNBMKDPM@Failed?5to?5open?5temporary?5file?5?$CFs@ 00000001402a5ed0     total.obj
 0002:00006f00       ??_C@_04LCLHPPEN@?4new?$AA@ 00000001402a5f00     total.obj
 0002:00006f08       ??_C@_0BI@EBMAIPPK@?$CFs?5is?5not?5a?5directory?4?6?$AA@ 00000001402a5f08     total.obj
 0002:00006f28       ??_C@_0CD@KJIGPAEF@Base?5directory?5?$CFs?5does?5not?5exist@ 00000001402a5f28     total.obj
 0002:00006f58       ??_C@_0BO@NAEOGENA@The?5basePath?5is?5length?5is?50?4?6?$AA@ 00000001402a5f58     total.obj
 0002:00006f80       ??_C@_0DC@EHKCMEJP@The?5basePath?5is?5to?5long?5to?5appen@ 00000001402a5f80     total.obj
 0002:00006fbc       ??_C@_02KAJCLHKP@no?$AA@   00000001402a5fbc     total.obj
 0002:00006fc0       ??_C@_05LAPONLG@false?$AA@ 00000001402a5fc0     total.obj
 0002:00006fc8       ??_C@_03ICICOMAL@yes?$AA@  00000001402a5fc8     total.obj
 0002:00006fcc       ??_C@_04LOAJBDKD@true?$AA@ 00000001402a5fcc     total.obj
 0002:00006fd8       ??_C@_0DA@EGHLIGFG@Configuration?5file?5?$CFs?5not?5found?0@ 00000001402a5fd8     total.obj
 0002:00007018       ??_C@_0M@HGBLHFJI@?4?2dicom?4ini?$AA@ 00000001402a6018     total.obj
 0002:00007028       ??_C@_09GNOAJMIE@dicom?4ini?$AA@ 00000001402a6028     total.obj
 0002:00007034       ??_C@_01KICIPPFI@?2?$AA@   00000001402a6034     total.obj
 0002:00007038       ??_C@_04PHHEBHMK@?4ini?$AA@ 00000001402a6038     total.obj
 0002:00007040       ??_C@_08HOGDNJKK@?$CFs?5?$DN?5?$CFs?6?$AA@ 00000001402a6040     total.obj
 0002:00007050       ??_C@_0CA@OHHDLOAD@?$CK?$CK?$CK?5Unknown?5table?5section?4?5?$CK?$CK?$CK?6?$AA@ 00000001402a6050     total.obj
 0002:00007078       ??_C@_02PCIJFNDE@?$AN?6?$AA@ 00000001402a6078     total.obj
 0002:00007080       ??_C@_0BC@NGNLPEDH@?5by?5put_param?5on?5?$AA@ 00000001402a6080     total.obj
 0002:00007098       ??_C@_02KPDBPKPG@?$CD?5?$AA@ 00000001402a6098     total.obj
 0002:000070a0       ??_C@_0N@EFKBAAKI@unKnown?5tine?$AA@ 00000001402a60a0     total.obj
 0002:000070b0       ??_C@_05CFGAKADK@?$CF?416g?$AA@ 00000001402a60b0     total.obj
 0002:000070b8       ??_C@_0BM@CPOBIPBF@1?42?4840?410008?45?41?44?41?42?41?41?$AA@ 00000001402a60b8     total.obj
 0002:000070e0       ??_C@_0BM@EMMNMNG@1?42?4840?410008?45?41?44?41?42?41?42?$AA@ 00000001402a60e0     total.obj
 0002:00007108       ??_C@_0BM@DNFECAPL@1?42?4840?410008?45?41?44?41?42?42?41?$AA@ 00000001402a6108     total.obj
 0002:00007130       ??_C@_0BM@BGHJHDDI@1?42?4840?410008?45?41?44?41?42?42?42?$AA@ 00000001402a6130     total.obj
 0002:00007158       ??_C@_0BM@IFOIEHJO@1?42?4840?410008?45?41?44?41?42?43?41?$AA@ 00000001402a6158     total.obj
 0002:00007180       ??_C@_0BM@KOMFBEFN@1?42?4840?410008?45?41?44?41?42?43?42?$AA@ 00000001402a6180     total.obj
 0002:000071a8       ??_C@_0BH@GGCMOEMM@1?42?4840?410008?45?41?44?431?$AA@ 00000001402a61a8     total.obj
 0002:000071c8       ??_C@_0BK@IDBOGHIN@1?42?4840?410008?45?41?44?41?41?41?$AA@ 00000001402a61c8     total.obj
 0002:000071e8       ??_C@_0BK@KIDDDEEO@1?42?4840?410008?45?41?44?41?41?42?$AA@ 00000001402a61e8     total.obj
 0002:00007208       ??_C@_0BK@LBCIAFAP@1?42?4840?410008?45?41?44?41?41?43?$AA@ 00000001402a6208     total.obj
 0002:00007228       ??_C@_0BK@POGJJDMI@1?42?4840?410008?45?41?44?41?41?44?$AA@ 00000001402a6228     total.obj
 0002:00007248       ??_C@_0BK@OHHCKCIJ@1?42?4840?410008?45?41?44?41?41?45?$AA@ 00000001402a6248     total.obj
 0002:00007268       ??_C@_0BK@MMFPPBEK@1?42?4840?410008?45?41?44?41?41?46?$AA@ 00000001402a6268     total.obj
 0002:00007288       ??_C@_0BK@NFEEMAAL@1?42?4840?410008?45?41?44?41?41?47?$AA@ 00000001402a6288     total.obj
 0002:000072a8       ??_C@_0BK@FCNMNMME@1?42?4840?410008?45?41?44?41?41?48?$AA@ 00000001402a62a8     total.obj
 0002:000072c8       ??_C@_0BK@ELMHONIF@1?42?4840?410008?45?41?44?41?41?49?$AA@ 00000001402a62c8     total.obj
 0002:000072e8       ??_C@_0BL@EMMMNHAJ@1?42?4840?410008?45?41?44?41?41?410?$AA@ 00000001402a62e8     total.obj
 0002:00007308       ??_C@_0BL@FFNHOGEI@1?42?4840?410008?45?41?44?41?41?411?$AA@ 00000001402a6308     total.obj
 0002:00007328       ??_C@_0BD@NHFHEGHF@1?42?4840?4113619?44?42?$AA@ 00000001402a6328     total.obj
 0002:00007340       ??_C@_0BD@MOEMHHDE@1?42?4840?4113619?44?43?$AA@ 00000001402a6340     total.obj
 0002:00007358       ??_C@_0BC@EJDJJJFA@1?42?4840?410008?41?41?$AA@ 00000001402a6358     total.obj
 0002:00007378       ??_7?$PQueueOfPtr@PEAVVRGroupPQueue@@@@6B@ 00000001402a6378     total.obj
 0002:00007384       ??_C@_01CLKCMJKC@?5?$AA@   00000001402a6384     total.obj
 0002:00007388       ??_C@_0CM@JNLLLEIH@VR?3SetIf?5out?5of?5memory?5allocatin@ 00000001402a6388     total.obj
 0002:000073c0       ??_C@_0CO@DMPHOMCB@VR?3ReAlloc?5out?5of?5memory?5allocat@ 00000001402a63c0     total.obj
 0002:00007400       ??_7Buffer@@6B@            00000001402a6400     total.obj
 0002:00007420       ??_C@_08KPJCDDHF@?$CF?910?410s?$AA@ 00000001402a6420     total.obj
 0002:00007438       ??_7StandardRetrieveNKI@@6BCMoveRSP@@@ 00000001402a6438     total.obj
 0002:00007458       ??_7StandardRetrieveNKI@@6BCMoveRQ@@@ 00000001402a6458     total.obj
 0002:000074a0       ??_C@_0CN@IOHIKILC@1?42?4826?40?41?43680043?42?4135?41066?45@ 00000001402a64a0     total.obj
 0002:000074d8       ??_C@_0CN@JMMNAHFM@1?42?4826?40?41?43680043?42?4135?41066?45@ 00000001402a64d8     total.obj
 0002:00007510       ??_C@_0CN@CEHBGADJ@1?42?4826?40?41?43680043?42?4135?41066?45@ 00000001402a6510     total.obj
 0002:00007548       ??_C@_03ICFFBAI@RGB?$AA@   00000001402a6548     total.obj
 0002:0000754c       ??_C@_05GIBJPIFE@owned?$AA@ 00000001402a654c     total.obj
 0002:00007554       ??_C@_04EIEKMAKH@ADDO?$AA@ 00000001402a6554     total.obj
 0002:00007560       ??_C@_0BP@FKJKPHDD@Dicom?5sequence?5with?5?$CFd?5entries?$AA@ 00000001402a6560     total.obj
 0002:00007588       ??_C@_0BC@HDMAFCDI@Dicom?5Data?5Object?$AA@ 00000001402a6588     total.obj
 0002:000075a8       ??_7StandardStorage@@6BCStoreRSP@@@ 00000001402a65a8     total.obj
 0002:000075c0       ??_7StandardStorage@@6BCStoreRQ@@@ 00000001402a65c0     total.obj
 0002:000075e8       ??_7StandardQuery@@6BCFindRSP@@@ 00000001402a65e8     total.obj
 0002:00007600       ??_7StandardQuery@@6BCFindRQ@@@ 00000001402a6600     total.obj
 0002:00007648       ??_7MyUnknownStorage@@6BCStoreRSP@@@ 00000001402a6648     total.obj
 0002:00007660       ??_7MyUnknownStorage@@6BCStoreRQ@@@ 00000001402a6660     total.obj
 0002:00007680       ??_7CFSRQ@@6B@             00000001402a6680     total.obj
 0002:00007690       ??_C@_0BG@HOOJJEFA@1?42?4840?410008?45?41?41?41?$AA@ 00000001402a6690     total.obj
 0002:000076b8       ??_7CFSRSP@@6B@            00000001402a66b8     total.obj
 0002:000076d0       ??_7DFSRQ@@6B@             00000001402a66d0     total.obj
 0002:000076e8       ??_7DFSRSP@@6B@            00000001402a66e8     total.obj
 0002:00007700       ??_7SFSRQ@@6B@             00000001402a6700     total.obj
 0002:00007718       ??_7SFSRSP@@6B@            00000001402a6718     total.obj
 0002:00007730       ??_7AFSRQ@@6B@             00000001402a6730     total.obj
 0002:00007748       ??_7AFSRSP@@6B@            00000001402a6748     total.obj
 0002:00007760       ??_7CFBRQ@@6B@             00000001402a6760     total.obj
 0002:00007770       ??_C@_0BG@FFMEMHJD@1?42?4840?410008?45?41?41?42?$AA@ 00000001402a6770     total.obj
 0002:00007798       ??_7CFBRSP@@6B@            00000001402a6798     total.obj
 0002:000077b0       ??_7DFBRQ@@6B@             00000001402a67b0     total.obj
 0002:000077c8       ??_7DFBRSP@@6B@            00000001402a67c8     total.obj
 0002:000077e0       ??_7AFBRQ@@6B@             00000001402a67e0     total.obj
 0002:000077f8       ??_7AFBRSP@@6B@            00000001402a67f8     total.obj
 0002:00007810       ??_7SFBRQ@@6B@             00000001402a6810     total.obj
 0002:00007828       ??_7SFBRSP@@6B@            00000001402a6828     total.obj
 0002:00007840       ??_7SBGIBRQ@@6B@           00000001402a6840     total.obj
 0002:00007850       ??_C@_0BG@DJOGABF@1?42?4840?410008?45?41?41?44?$AA@ 00000001402a6850     total.obj
 0002:00007878       ??_7SBGIBRRSP@@6B@         00000001402a6878     total.obj
 0002:00007890       ??_7SBCIBRQ@@6B@           00000001402a6890     total.obj
 0002:000078a0       ??_C@_0BI@IOIJOIIK@1?42?4840?410008?45?41?41?44?41?$AA@ 00000001402a68a0     total.obj
 0002:000078c8       ??_7SBCIBRRSP@@6B@         00000001402a68c8     total.obj
 0002:000078e0       ??_7GPRQ@@6B@              00000001402a68e0     total.obj
 0002:000078f0       ??_C@_0BH@OCAJCJBF@1?42?4840?410008?45?41?41?416?$AA@ 00000001402a68f0     total.obj
 0002:00007918       ??_7GPRSP@@6B@             00000001402a6918     total.obj
 0002:00007930       ??_7EPRQ@@6B@              00000001402a6930     total.obj
 0002:00007948       ??_7EPRSP@@6B@             00000001402a6948     total.obj
 0002:00007958       ??_C@_0BF@NADPHJIL@1?42?4840?410008?41?420?41?$AA@ 00000001402a6958     total.obj
 0002:00007980       ??_7Verification@@6BCEchoRSP@@@ 00000001402a6980     total.obj
 0002:00007998       ??_7Verification@@6BCEchoRQ@@@ 00000001402a6998     total.obj
 0002:000079b0       ??_7PatientRootRetrieve@@6BCMoveRSP@@@ 00000001402a69b0     total.obj
 0002:000079c8       ??_7PatientRootRetrieve@@6BCMoveRQ@@@ 00000001402a69c8     total.obj
 0002:00007a18       ??_7PatientRootRetrieveNKI@@6BCMoveRSP@@@ 00000001402a6a18     total.obj
 0002:00007a38       ??_7PatientRootRetrieveNKI@@6BCMoveRQ@@@ 00000001402a6a38     total.obj
 0002:00007a88       ??_7PatientRootRetrieveGeneric@@6BCMoveRSP@@@ 00000001402a6a88     total.obj
 0002:00007aa8       ??_7PatientRootRetrieveGeneric@@6BCMoveRQ@@@ 00000001402a6aa8     total.obj
 0002:00007af8       ??_7StudyRootRetrieve@@6BCMoveRSP@@@ 00000001402a6af8     total.obj
 0002:00007b18       ??_7StudyRootRetrieve@@6BCMoveRQ@@@ 00000001402a6b18     total.obj
 0002:00007b68       ??_7StudyRootRetrieveNKI@@6BCMoveRSP@@@ 00000001402a6b68     total.obj
 0002:00007b88       ??_7StudyRootRetrieveNKI@@6BCMoveRQ@@@ 00000001402a6b88     total.obj
 0002:00007bd8       ??_7StudyRootRetrieveGeneric@@6BCMoveRSP@@@ 00000001402a6bd8     total.obj
 0002:00007bf8       ??_7StudyRootRetrieveGeneric@@6BCMoveRQ@@@ 00000001402a6bf8     total.obj
 0002:00007c48       ??_7PatientStudyOnlyQuery@@6BCFindRSP@@@ 00000001402a6c48     total.obj
 0002:00007c60       ??_7PatientStudyOnlyQuery@@6BCFindRQ@@@ 00000001402a6c60     total.obj
 0002:00007ca8       ??_7PatientStudyOnlyRetrieve@@6BCMoveRSP@@@ 00000001402a6ca8     total.obj
 0002:00007cc8       ??_7PatientStudyOnlyRetrieve@@6BCMoveRQ@@@ 00000001402a6cc8     total.obj
 0002:00007d18       ??_7PatientStudyOnlyRetrieveNKI@@6BCMoveRSP@@@ 00000001402a6d18     total.obj
 0002:00007d38       ??_7PatientStudyOnlyRetrieveNKI@@6BCMoveRQ@@@ 00000001402a6d38     total.obj
 0002:00007d88       ??_7PatientStudyOnlyRetrieveGeneric@@6BCMoveRSP@@@ 00000001402a6d88     total.obj
 0002:00007da8       ??_7PatientStudyOnlyRetrieveGeneric@@6BCMoveRQ@@@ 00000001402a6da8     total.obj
 0002:00007dec       ??_C@_06HOBIMJIM@GIF89a?$AA@ 00000001402a6dec     total.obj
 0002:00007df8       ??_C@_0CK@GCBHLBDF@WriteGIFHeader?3?5file?5not?5open?5fo@ 00000001402a6df8     total.obj
 0002:00007e30       ??_C@_0BO@ICAJCGNH@WriteGIFHeader?3?5out?5of?5memory?$AA@ 00000001402a6e30     total.obj
 0002:00007e68       ??_7?$basic_streambuf@DU?$char_traits@D@std@@@std@@6B@ 00000001402a6e68     total.obj
 0002:00007f08       ??_7?$codecvt@DDH@std@@6B@ 00000001402a6f08     total.obj
 0002:00007f60       ??_7VRGroupPQueue@@6B@     00000001402a6f60     total.obj
 0002:00007f78       ??_7LinkedBuffer@@6B@      00000001402a6f78     total.obj
 0002:00007fa0       ??_7FileBuffer@@6B@        00000001402a6fa0     total.obj
 0002:00007fc0       ??_C@_0BD@GJGENGDE@1?42?4840?410008?41?42?$AA?$AA@ 00000001402a6fc0     total.obj
 0002:00007fd8       ??_C@_04EFLJODAN@DICM?$AA@ 00000001402a6fd8     total.obj
 0002:00007fe0       ??_C@_0BA@ELKIONDK@bad?5locale?5name?$AA@ 00000001402a6fe0     total.obj
 0002:00007ff4       ??_C@_02KJPKMKHP@un?$AA@   00000001402a6ff4     total.obj
 0002:00007ff8       ??_C@_0BF@PBHAONCI@a?5small?5array?5string?$AA@ 00000001402a6ff8     total.obj
 0002:00008018       ??_C@_0O@OFLFKGKB@DICOMWorkList?$AA@ 00000001402a7018     total.obj
 0002:00008028       ??_C@_0O@PMKNNGMO@Administrator?$AA@ 00000001402a7028     total.obj
 0002:00008038       ??_C@_0N@HNPGJFKI@PacsUser?4log?$AA@ 00000001402a7038     total.obj
 0002:00008048       ??_C@_0L@JJOEGFOC@UIDToMOPID?$AA@ 00000001402a7048     total.obj
 0002:00008058       ??_C@_0L@HODHPNAI@UIDToCDRID?$AA@ 00000001402a7058     total.obj
 0002:00008068       ??_C@_0BP@GHHAKKID@1?42?4826?40?41?43680043?42?4135?41066?$AA@ 00000001402a7068     total.obj
 0002:00008090       ??_C@_0BA@DEGGLMEG@PacsTrouble?4log?$AA@ 00000001402a7090     total.obj
 0002:000080a8       ??_C@_0N@NHEANOCH@DICOMStudies?$AA@ 00000001402a70a8     total.obj
 0002:000080b8       ??_C@_0N@FMOBDAFI@dgatesop?4lst?$AA@ 00000001402a70b8     total.obj
 0002:000080c8       ??_C@_09IPAEKDAI@localhost?$AA@ 00000001402a70c8     total.obj
 0002:000080d8       ??_C@_0M@BJECHACH@DICOMSeries?$AA@ 00000001402a70d8     total.obj
 0002:000080e8       ??_C@_0BB@NHNDNMOM@RegisteredMOPIDs?$AA@ 00000001402a70e8     total.obj
 0002:00008100       ??_C@_0O@KBEOLIOF@DICOMPatients?$AA@ 00000001402a7100     total.obj
 0002:00008110       ??_C@_08NLHBPEGP@password?$AA@ 00000001402a7110     total.obj
 0002:00008120       ??_C@_09KDDBDKCO@MicroPACS?$AA@ 00000001402a7120     total.obj
 0002:0000812c       ??_C@_04CGFJFPFD@none?$AA@ 00000001402a712c     total.obj
 0002:00008138       ??_C@_0M@PBCAKLKL@DICOMImages?$AA@ 00000001402a7138     total.obj
 0002:00008148       ??_C@_02ENLJKNMP@as?$AA@   00000001402a7148     total.obj
 0002:00008150       ??_C@_0BJ@DADLPAIG@?2?2?4?2pipe?2MicroPACSStatus?$AA@ 00000001402a7150     total.obj
 0002:00008170       ??_C@_0M@CDLCNCGL@?4?2dicom?4sql?$AA@ 00000001402a7170     total.obj
 0002:00008180       ??_C@_07BOCFEEAE@?4?2data?2?$AA@ 00000001402a7180     total.obj
 0002:00008190       ??_C@_0M@HILMMFPM@?4?2dgate?4dic?$AA@ 00000001402a7190     total.obj
 0002:000081a0       ??_C@_0O@MHACMDHI@?4?2acrnema?4map?$AA@ 00000001402a71a0     total.obj
 0002:000081b0       ??_C@_0L@LFFHDMFC@source?3?$CFs?6?$AA@ 00000001402a71b0     total.obj
 0002:000081c0       ??_C@_0BP@ENGKBMIE@Has?5no?5Source?5or?5Lines?5values?6?$AA@ 00000001402a71c0     total.obj
 0002:000081e8       ??_C@_0L@BJFJMDNM@header?3?$CFs?6?$AA@ 00000001402a71e8     total.obj
 0002:000081f8       ??_C@_0M@EBDLPBMP@caption?3?$CFs?6?$AA@ 00000001402a71f8     total.obj
 0002:00008208       ??_C@_0BH@BGNDFOMJ@?6?$CK?$CK?$CK?$CK?5?$CFs?5Section?5?$CK?$CK?$CK?$CK?6?$AA@ 00000001402a7208     total.obj
 0002:00008224       ??_C@_02DPKJAMEF@?$CFd?$AA@ 00000001402a7224     total.obj
 0002:00008228       ??_C@_0CO@PMPFINBK@Error?3?5?$CFd?5is?5greater?5the?5the?5gro@ 00000001402a7228     total.obj
 0002:00008260       ??_C@_01GBGANLPD@0?$AA@    00000001402a7260     total.obj
 0002:00008268       ??_C@_0P@PLMNPDMB@?$CF02d?3?$CF02d?3?$CF02d?$AA@ 00000001402a7268     total.obj
 0002:00008280       ??_C@_0N@DHFDMBCA@orklistquery?$AA@ 00000001402a7280     total.obj
 0002:00008290       ??_C@_06KDFGFPGP@tartup?$AA@ 00000001402a7290     total.obj
 0002:00008298       ??_C@_0N@OIANLKOP@ejectedimage?$AA@ 00000001402a7298     total.obj
 0002:000082a8       ??_C@_0BF@PJAKNCEN@ejectedimageworklist?$AA@ 00000001402a72a8     total.obj
 0002:000082c8       ??_C@_07IMDHEPLG@etrieve?$AA@ 00000001402a72c8     total.obj
 0002:000082d8       ??_C@_0O@FICAAGOA@etrieveresult?$AA@ 00000001402a72d8     total.obj
 0002:000082e8       ??_C@_04KNJPBOON@uery?$AA@ 00000001402a72e8     total.obj
 0002:000082f0       ??_C@_0L@IKEKAFJC@ueryresult?$AA@ 00000001402a72f0     total.obj
 0002:00008300       ??_C@_06JLGDONOJ@ightly?$AA@ 00000001402a7300     total.obj
 0002:00008308       ??_C@_09GCEMGNJG@ovedevice?$AA@ 00000001402a7308     total.obj
 0002:00008318       ??_C@_0BL@BFPKABFH@odalityworklistqueryresult?$AA@ 00000001402a7318     total.obj
 0002:00008338       ??_C@_0M@LGNPKGJL@ergestudies?$AA@ 00000001402a7338     total.obj
 0002:00008348       ??_C@_0L@ONMFBPPJ@ergeseries?$AA@ 00000001402a7348     total.obj
 0002:00008358       ??_C@_05HMOGEFIO@mport?$AA@ 00000001402a7358     total.obj
 0002:00008360       ??_C@_0P@DLCPMGKL@xportconverter?$AA@ 00000001402a7360     total.obj
 0002:00008378       ??_C@_0O@JMLAMOAB@ndassociation?$AA@ 00000001402a7378     total.obj
 0002:00008388       ??_C@_0L@HJAKACJK@ompression?$AA@ 00000001402a7388     total.obj
 0002:00008398       ??_C@_06KOHGLBK@ommand?$AA@ 00000001402a7398     total.obj
 0002:000083a0       ??_C@_0L@GMGJDFDE@lienterror?$AA@ 00000001402a73a0     total.obj
 0002:000083b0       ??_C@_09MGJPNPFB@ackground?$AA@ 00000001402a73b0     total.obj
 0002:000083bc       ??_C@_06DAJOJDHC@rchive?$AA@ 00000001402a73bc     total.obj
 0002:000083c8       ??_C@_0L@BMHHEMCM@ssociation?$AA@ 00000001402a73c8     total.obj
 0002:000083d8       ??_C@_06GFGGBNGB@iptime?$AA@ 00000001402a73d8     total.obj
 0002:000083e0       ??_C@_0BB@LKFMJCFJ@orklisttablename?$AA@ 00000001402a73e0     total.obj
 0002:000083f8       ??_C@_0BF@HDOCIKOP@orklistreturnsiso_ir?$AA@ 00000001402a73f8     total.obj
 0002:00008418       ??_C@_0BJ@MOADGKGN@orklistreturnsiso_ir_100?$AA@ 00000001402a7418     total.obj
 0002:00008438       ??_C@_0M@DMNGDKKK@orklistmode?$AA@ 00000001402a7438     total.obj
 0002:00008448       ??_C@_0M@MNMAJGAN@ebserverfor?$AA@ 00000001402a7448     total.obj
 0002:00008458       ??_C@_0BA@KKPFNON@ebscriptaddress?$AA@ 00000001402a7458     total.obj
 0002:00008470       ??_C@_0L@OHLIHPOC@ebreadonly?$AA@ 00000001402a7470     total.obj
 0002:00008480       ??_C@_06KAIBGKFF@ebpush?$AA@ 00000001402a7480     total.obj
 0002:00008488       ??_C@_0O@FPKKDOJB@ebmag0address?$AA@ 00000001402a7488     total.obj
 0002:00008498       ??_C@_0L@FFJKEON@ebcodebase?$AA@ 00000001402a7498     total.obj
 0002:000084a8       ??_C@_0L@DGDHAIJB@atchfolder?$AA@ 00000001402a74a8     total.obj
 0002:000084b8       ??_C@_0BG@NKJBGIGB@irtualserverperseries?$AA@ 00000001402a74b8     total.obj
 0002:000084d8       ??_C@_0BA@BFCGBAOD@irtualserverfor?$AA@ 00000001402a74d8     total.obj
 0002:000084f0       ??_C@_0P@KOEBFMLI@idtomopidtable?$AA@ 00000001402a74f0     total.obj
 0002:00008508       ??_C@_0P@CKCBKEMP@idtocdridtable?$AA@ 00000001402a7508     total.obj
 0002:00008520       ??_C@_08PIGKFNLN@idprefix?$AA@ 00000001402a7520     total.obj
 0002:00008530       ??_C@_07NKHLOHLG@sername?$AA@ 00000001402a7530     total.obj
 0002:00008540       ??_C@_0L@PMHDHPFO@serlogfile?$AA@ 00000001402a7540     total.obj
 0002:00008550       ??_C@_09KGLBNKFH@seopenjpg?$AA@ 00000001402a7550     total.obj
 0002:00008560       ??_C@_0BI@EOFGFODM@seescapestringconstants?$AA@ 00000001402a7560     total.obj
 0002:00008580       ??_C@_0O@KPPIOLGK@sebuiltinjpeg?$AA@ 00000001402a7580     total.obj
 0002:00008590       ??_C@_0BG@GFMNGLMK@sebuiltindecompressor?$AA@ 00000001402a7590     total.obj
 0002:000085b0       ??_C@_0BC@DLJIIMLK@runcatefieldnames?$AA@ 00000001402a75b0     total.obj
 0002:000085c8       ??_C@_0O@IDOICGGL@roublelogfile?$AA@ 00000001402a75c8     total.obj
 0002:000085d8       ??_C@_07MCHPKCGD@sempdir?$AA@ 00000001402a75d8     total.obj
 0002:000085e4       ??_C@_06FFFOHMGO@cpport?$AA@ 00000001402a75e4     total.obj
 0002:000085f0       ??_C@_0M@FBDFLKAN@cpiptimeout?$AA@ 00000001402a75f0     total.obj
 0002:00008600       ??_C@_0O@BLCBHPJA@tudytablename?$AA@ 00000001402a7600     total.obj
 0002:00008610       ??_C@_0BD@OBINAKCB@tudyquerysortorder?$AA@ 00000001402a7610     total.obj
 0002:00008628       ??_C@_0BG@FGPDCMKH@toragefailederrorcode?$AA@ 00000001402a7628     total.obj
 0002:00008644       ??_C@_05NPNNPNJD@qlite?$AA@ 00000001402a7644     total.obj
 0002:00008650       ??_C@_08GCIAIDDM@qlserver?$AA@ 00000001402a7650     total.obj
 0002:0000865c       ??_C@_06IAFJIFBN@qlhost?$AA@ 00000001402a765c     total.obj
 0002:00008668       ??_C@_0M@OLDGAIBL@opclasslist?$AA@ 00000001402a7668     total.obj
 0002:00008678       ??_C@_0P@MDIFLOKE@eriestablename?$AA@ 00000001402a7678     total.obj
 0002:00008690       ??_C@_0BE@OMENCHKP@eriesquerysortorder?$AA@ 00000001402a7690     total.obj
 0002:000086a8       ??_C@_0P@GHJDHME@enduppercaseae?$AA@ 00000001402a76a8     total.obj
 0002:000086c0       ??_C@_0BC@NDDFMNHM@etryforwardfailed?$AA@ 00000001402a76c0     total.obj
 0002:000086d8       ??_C@_09BFNOFHBD@etrydelay?$AA@ 00000001402a76d8     total.obj
 0002:000086e8       ??_C@_0BI@JEHLJMNF@egisteredmopidtablename?$AA@ 00000001402a76e8     total.obj
 0002:00008708       ??_C@_0BI@HEOIPGKF@egisteredmopdevicetable?$AA@ 00000001402a7708     total.obj
 0002:00008728       ??_C@_09DNFAMEEF@ueryesult?$AA@ 00000001402a7728     total.obj
 0002:00008738       ??_C@_08GEBAPCID@ueuesize?$AA@ 00000001402a7738     total.obj
 0002:00008748       ??_C@_09NEJBEDKA@refetcher?$AA@ 00000001402a7748     total.obj
 0002:00008758       ??_C@_07HOAPPHFE@ostgres?$AA@ 00000001402a7758     total.obj
 0002:00008768       ??_C@_0BA@HJMEKBFA@atienttablename?$AA@ 00000001402a7768     total.obj
 0002:00008780       ??_C@_0BF@DGPBDHDO@atientquerysortorder?$AA@ 00000001402a7780     total.obj
 0002:000087a0       ??_C@_07KIPJPMHN@assword?$AA@ 00000001402a77a0     total.obj
 0002:000087b0       ??_C@_0O@GKHKGOOB@adaewithzeros?$AA@ 00000001402a77b0     total.obj
 0002:000087c0       ??_C@_07EMGJDHHP@acsname?$AA@ 00000001402a77c0     total.obj
 0002:000087cc       ??_C@_06ODGAOPED@ackdbf?$AA@ 00000001402a77cc     total.obj
 0002:000087d8       ??_C@_0BB@GPLNADB@verlapvirtualget?$AA@ 00000001402a77d8     total.obj
 0002:000087f0       ??_C@_0P@GKAHJOBF@peratorconsole?$AA@ 00000001402a77f0     total.obj
 0002:00008808       ??_C@_0M@HCBFKDOG@odicomcheck?$AA@ 00000001402a7808     total.obj
 0002:00008818       ??_C@_0BG@BIDIIKBI@ightlycleanthreshhold?$AA@ 00000001402a7818     total.obj
 0002:00008834       ??_C@_04CIOOKDOC@ysql?$AA@ 00000001402a7834     total.obj
 0002:00008840       ??_C@_08LDBAAIMA@yacrnema?$AA@ 00000001402a7840     total.obj
 0002:00008850       ??_C@_08HDBLIFNG@opdevice?$AA@ 00000001402a7850     total.obj
 0002:00008860       ??_C@_09GLNBEGFB@opdevices?$AA@ 00000001402a7860     total.obj
 0002:00008870       ??_C@_0M@ENOLLIGE@irrordevice?$AA@ 00000001402a7870     total.obj
 0002:00008880       ??_C@_08BMMCIJO@icropacs?$AA@ 00000001402a7880     total.obj
 0002:00008890       ??_C@_0BB@GLHBKCAN@axfilenamelength?$AA@ 00000001402a7890     total.obj
 0002:000088a8       ??_C@_0O@IAKPKKND@axfieldlength?$AA@ 00000001402a78a8     total.obj
 0002:000088b8       ??_C@_0BE@NGNMJGKA@aximumexportretries?$AA@ 00000001402a78b8     total.obj
 0002:000088d0       ??_C@_0CB@DANPHADL@aximumdelayedfetchforwardretries@ 00000001402a78d0     total.obj
 0002:000088f8       ??_C@_0BD@KAIFDNOJ@agdevicethreshhold?$AA@ 00000001402a78f8     total.obj
 0002:00008910       ??_C@_08MNKHGGHG@agdevice?$AA@ 00000001402a7910     total.obj
 0002:00008920       ??_C@_0BH@BEBIOPED@agdevicefullthreshhold?$AA@ 00000001402a7920     total.obj
 0002:0000893c       ??_C@_06IDJKAAHH@rusort?$AA@ 00000001402a793c     total.obj
 0002:00008948       ??_C@_0M@FCLJCHIF@ossyquality?$AA@ 00000001402a7948     total.obj
 0002:00008958       ??_C@_0M@ELALNOLB@ongquerydbf?$AA@ 00000001402a7958     total.obj
 0002:00008968       ??_C@_0L@GNMHFICJ@factorfile?$AA@ 00000001402a7968     total.obj
 0002:00008978       ??_C@_0N@EDAJCFOJ@ukeboxdevice?$AA@ 00000001402a7978     total.obj
 0002:00008988       ??_C@_07HNGOHMDF@ndexdbf?$AA@ 00000001402a7988     total.obj
 0002:00008998       ??_C@_0BD@OABDKCFP@ncomingcompression?$AA@ 00000001402a7998     total.obj
 0002:000089b0       ??_C@_0BH@GGPPIOFB@mportexportdraganddrop?$AA@ 00000001402a79b0     total.obj
 0002:000089d0       ??_C@_0O@HEAJPEAM@magetablename?$AA@ 00000001402a79d0     total.obj
 0002:000089e0       ??_C@_0BD@BLBIJBDK@magequerysortorder?$AA@ 00000001402a79e0     total.obj
 0002:000089f8       ??_C@_0BH@OBFAPMNP@gnoreoutofmemoryerrors?$AA@ 00000001402a79f8     total.obj
 0002:00008a18       ??_C@_0BJ@CPCNFMPM@gnoremagdevicethreshhold?$AA@ 00000001402a7a18     total.obj
 0002:00008a38       ??_C@_0BD@FAOKMIJ@orwardcollectdelay?$AA@ 00000001402a7a38     total.obj
 0002:00008a50       ??_C@_0BJ@NIEHDOCK@orwardassociationrelease?$AA@ 00000001402a7a50     total.obj
 0002:00008a70       ??_C@_0BO@LIPIAANO@orwardassociationrefreshdelay?$AA@ 00000001402a7a70     total.obj
 0002:00008a98       ??_C@_0BM@KABHAFCL@orwardassociationclosedelay?$AA@ 00000001402a7a98     total.obj
 0002:00008ac0       ??_C@_0BH@LAIPGDNK@orwardassociationlevel?$AA@ 00000001402a7ac0     total.obj
 0002:00008ae0       ??_C@_09LABHENO@ixphilips?$AA@ 00000001402a7ae0     total.obj
 0002:00008af0       ??_C@_07IIPHGJGA@ixkodak?$AA@ 00000001402a7af0     total.obj
 0002:00008b00       ??_C@_0O@LMNGKOAB@ilenamesyntax?$AA@ 00000001402a7b00     total.obj
 0002:00008b10       ??_C@_0BA@DPOGHJBM@ilecompressmode?$AA@ 00000001402a7b10     total.obj
 0002:00008b28       ??_C@_0L@ODELFPKJ@ailholdoff?$AA@ 00000001402a7b28     total.obj
 0002:00008b38       ??_C@_05CPPNNGKG@xport?$AA@ 00000001402a7b38     total.obj
 0002:00008b40       ??_C@_0BF@JLKBNBIL@nablereadaheadthread?$AA@ 00000001402a7b40     total.obj
 0002:00008b60       ??_C@_0BE@EHCMEJBL@nablecomputedfields?$AA@ 00000001402a7b60     total.obj
 0002:00008b78       ??_C@_06MABICCFH@dition?$AA@ 00000001402a7b78     total.obj
 0002:00008b80       ??_C@_06CBCDKNAL@umpini?$AA@ 00000001402a7b80     total.obj
 0002:00008b88       ??_C@_0BD@PNHCKPE@oublebackslashtodb?$AA@ 00000001402a7b88     total.obj
 0002:00008ba0       ??_C@_0BG@FAJKILHC@roppedfilecompression?$AA@ 00000001402a7ba0     total.obj
 0002:00008bc0       ??_C@_0O@LCMEEFOG@marktablename?$AA@ 00000001402a7bc0     total.obj
 0002:00008bd0       ??_C@_09JHOPAJEK@ictionary?$AA@ 00000001402a7bd0     total.obj
 0002:00008be0       ??_C@_0BH@NJDLHEKP@ecompressnon16bitsjpeg?$AA@ 00000001402a7be0     total.obj
 0002:00008c00       ??_C@_09BEGLPJDM@ebuglevel?$AA@ 00000001402a7c00     total.obj
 0002:00008c10       ??_C@_08LDGLBMHG@drdevice?$AA@ 00000001402a7c10     total.obj
 0002:00008c20       ??_C@_0BA@LCBKPIKE@achevirtualdata?$AA@ 00000001402a7c20     total.obj
 0002:00008c38       ??_C@_0L@FCFIEJJ@achedevice?$AA@ 00000001402a7c38     total.obj
 0002:00008c48       ??_C@_0BC@LJPGOAHI@rchivecompression?$AA@ 00000001402a7c48     total.obj
 0002:00008c60       ??_C@_06LKGNHJNO@nypage?$AA@ 00000001402a7c60     total.obj
 0002:00008c68       ??_C@_0N@EHMNFAEJ@llowtruncate?$AA@ 00000001402a7c68     total.obj
 0002:00008c78       ??_C@_09FLEBKHCE@crnemamap?$AA@ 00000001402a7c78     total.obj
 0002:00008c88       ??_C@_0N@HIBBACLP@ccessupdates?$AA@ 00000001402a7c88     total.obj
 0002:00008c98       ??_C@_0CH@KMFDFGPE@Cound?5not?5create?5new?5ini?5table?5a@ 00000001402a7c98     total.obj
 0002:00008cc8       ??_C@_0CA@CBEMGPMK@Ini?5name?5?$CFs?5has?5no?5equal?5sign?4?6?$AA@ 00000001402a7cc8     total.obj
 0002:00008cf0       ??_C@_0BP@IIGJFCOJ@ini?5table?5for?5unknown?5ini?5data?$AA@ 00000001402a7cf0     total.obj
 0002:00008d18       ??_C@_09MLGAJAED@undefined?$AA@ 00000001402a7d18     total.obj
 0002:00008d28       ??_C@_0CP@IODPKGCI@Testing?5transfer?3?5?8?$CFs?8?5against?5l@ 00000001402a7d28     total.obj
 0002:00008d60       ??_C@_0CD@DLKKAON@1?42?4826?40?41?43680043?42?4135?41066?41@ 00000001402a7d60     total.obj
 0002:00008d90       ??_C@_0N@LACKHJCB@1?44?418?1WIN32?$AA@ 00000001402a7d90     total.obj
 0002:00008da8       ??_7MemoryBuffer@@6B@      00000001402a7da8     total.obj
 0002:00008dd0       ??_7PDataTF@@6B@           00000001402a7dd0     total.obj
 0002:00008de8       ??_7DICOMObject@@6B@       00000001402a7de8     total.obj
 0002:00008e1c       ??_C@_06OLJJCGEE@ELSCIN?$AA@ 00000001402a7e1c     total.obj
 0002:00008e24       ??_C@_06DFFEGOAP@ACUSON?$AA@ 00000001402a7e24     total.obj
 0002:00008e2c       ??_C@_03FCEBNIND@?2?$CFf?$AA@ 00000001402a7e2c     total.obj
 0002:00008e30       ??_C@_05IDNELAAE@?$CFf?2?$CFf?$AA@ 00000001402a7e30     total.obj
 0002:00008e38       __real@00000000            00000001402a7e38     total.obj
 0002:00008e40       ??_C@_0N@EKLDIJPL@MONOCHROME2?5?$AA@ 00000001402a7e40     total.obj
 0002:00008e58       ??_7RunTimeClassStorage@@6BCStoreRSP@@@ 00000001402a7e58     total.obj
 0002:00008e70       ??_7RunTimeClassStorage@@6BCStoreRQ@@@ 00000001402a7e70     total.obj
 0002:00008e98       ??_7PatientRootQuery@@6BCFindRSP@@@ 00000001402a7e98     total.obj
 0002:00008eb0       ??_7PatientRootQuery@@6BCFindRQ@@@ 00000001402a7eb0     total.obj
 0002:00008ef8       ??_7StudyRootQuery@@6BCFindRSP@@@ 00000001402a7ef8     total.obj
 0002:00008f10       ??_7StudyRootQuery@@6BCFindRQ@@@ 00000001402a7f10     total.obj
 0002:00008f58       ??_7ModalityWorkListQuery@@6BCFindRSP@@@ 00000001402a7f58     total.obj
 0002:00008f70       ??_7ModalityWorkListQuery@@6BCFindRQ@@@ 00000001402a7f70     total.obj
 0002:00008fb8       ??_7MyPatientRootRetrieve@@6BCMoveRSP@@@ 00000001402a7fb8     total.obj
 0002:00008fd8       ??_7MyPatientRootRetrieve@@6BCMoveRQ@@@ 00000001402a7fd8     total.obj
 0002:00009028       ??_7MyPatientRootRetrieveNKI@@6BCMoveRSP@@@ 00000001402a8028     total.obj
 0002:00009048       ??_7MyPatientRootRetrieveNKI@@6BCMoveRQ@@@ 00000001402a8048     total.obj
 0002:00009098       ??_7MyPatientRootRetrieveGeneric@@6BCMoveRSP@@@ 00000001402a8098     total.obj
 0002:000090b8       ??_7MyPatientRootRetrieveGeneric@@6BCMoveRQ@@@ 00000001402a80b8     total.obj
 0002:00009108       ??_7MyStudyRootRetrieve@@6BCMoveRSP@@@ 00000001402a8108     total.obj
 0002:00009128       ??_7MyStudyRootRetrieve@@6BCMoveRQ@@@ 00000001402a8128     total.obj
 0002:00009178       ??_7MyStudyRootRetrieveNKI@@6BCMoveRSP@@@ 00000001402a8178     total.obj
 0002:00009198       ??_7MyStudyRootRetrieveNKI@@6BCMoveRQ@@@ 00000001402a8198     total.obj
 0002:000091e8       ??_7MyStudyRootRetrieveGeneric@@6BCMoveRSP@@@ 00000001402a81e8     total.obj
 0002:00009208       ??_7MyStudyRootRetrieveGeneric@@6BCMoveRQ@@@ 00000001402a8208     total.obj
 0002:00009258       ??_7MyPatientStudyOnlyQuery@@6BCFindRSP@@@ 00000001402a8258     total.obj
 0002:00009270       ??_7MyPatientStudyOnlyQuery@@6BCFindRQ@@@ 00000001402a8270     total.obj
 0002:000092b8       ??_7MyPatientStudyOnlyRetrieve@@6BCMoveRSP@@@ 00000001402a82b8     total.obj
 0002:000092d8       ??_7MyPatientStudyOnlyRetrieve@@6BCMoveRQ@@@ 00000001402a82d8     total.obj
 0002:00009328       ??_7MyPatientStudyOnlyRetrieveNKI@@6BCMoveRSP@@@ 00000001402a8328     total.obj
 0002:00009348       ??_7MyPatientStudyOnlyRetrieveNKI@@6BCMoveRQ@@@ 00000001402a8348     total.obj
 0002:00009398       ??_7MyPatientStudyOnlyRetrieveGeneric@@6BCMoveRSP@@@ 00000001402a8398     total.obj
 0002:000093b8       ??_7MyPatientStudyOnlyRetrieveGeneric@@6BCMoveRQ@@@ 00000001402a83b8     total.obj
 0002:00009430       ??_C@_08EPJLHIJG@bad?5cast?$AA@ 00000001402a8430     total.obj
 0002:00009448       ??_7?$PQueue@V?$FixedArrayElement@IU_RTCElement@@@@@@6B@ 00000001402a8448     total.obj
 0002:00009458       ??_C@_0M@BICMBGPD@?$CFs?5section?6?$AA@ 00000001402a8458     total.obj
 0002:00009468       ??_C@_0BP@PFAKIPOL@?6?$CK?$CK?$CK?$CK?5Unknoun?5section?$CIs?$CJ?5?$CK?$CK?$CK?$CK?6?$AA@ 00000001402a8468     total.obj
 0002:00009490       ??_C@_0BB@KEPJNDDL@studyviewer?3?7?$CFs?6?$AA@ 00000001402a8490     total.obj
 0002:000094a8       ??_C@_0M@LHHBJMPJ@viewer?3?7?$CFs?6?$AA@ 00000001402a84a8     total.obj
 0002:000094b8       ??_C@_09IGJAFHMC@size?3?7?$CFs?6?$AA@ 00000001402a84b8     total.obj
 0002:000094c8       ??_C@_09MPBBJIE@port?3?7?$CFs?6?$AA@ 00000001402a84c8     total.obj
 0002:000094d8       ??_C@_0O@HNHHMOMN@iconsize?3?7?$CFs?6?$AA@ 00000001402a84d8     total.obj
 0002:000094e8       ??_C@_0N@CNGNFPBB@graphic?3?7?$CFs?6?$AA@ 00000001402a84e8     total.obj
 0002:000094f8       ??_C@_0L@OOJAGLOC@dsize?3?7?$CFs?6?$AA@ 00000001402a84f8     total.obj
 0002:00009508       ??_C@_0O@DHPGPGAK@compress?3?7?$CFs?6?$AA@ 00000001402a8508     total.obj
 0002:00009518       ??_C@_0N@GAOFOCNF@address?3?7?$CFs?6?$AA@ 00000001402a8518     total.obj
 0002:00009528       ??_C@_0CA@DDCMFOAG@?6?$CK?$CK?$CK?$CK?5WebDefaults?5section?5?$CK?$CK?$CK?$CK?6?$AA@ 00000001402a8528     total.obj
 0002:00009550       ??_C@_0M@FKJFDCPC@bridge?3?7?$CFs?6?$AA@ 00000001402a8550     total.obj
 0002:00009560       ??_C@_0CA@JHJMPPGM@?6?$CK?$CK?$CK?$CK?5WadoServers?5section?5?$CK?$CK?$CK?$CK?6?$AA@ 00000001402a8560     total.obj
 0002:00009588       ??_C@_0BM@KJKPLMCK@?6?$CK?$CK?$CK?$CK?5Scripts?5section?5?$CK?$CK?$CK?$CK?6?$AA@ 00000001402a8588     total.obj
 0002:000095b0       ??_C@_0N@FMNPLJIP@shoppingcart?$AA@ 00000001402a85b0     total.obj
 0002:000095c0       ??_C@_09HIJGMLNB@markstudy?$AA@ 00000001402a85c0     total.obj
 0002:000095d0       ??_C@_0L@GIECNBFL@markseries?$AA@ 00000001402a85d0     total.obj
 0002:000095e0       ??_C@_0M@JMOGOHPI@MergeSeries?$AA@ 00000001402a85e0     total.obj
 0002:000095f0       ??_C@_0O@JKPEDDAI@ExportConvter?$AA@ 00000001402a85f0     total.obj
 0002:00009600       ??_C@_0BP@FCMNLOLO@?$CK?$CK?$CK?5Import?5export?5arrays?4?5?$CK?$CK?$CK?6?$AA@ 00000001402a8600     total.obj
 0002:00009628       ??_C@_0N@IFMNPFNC@startup?3?7?$CFs?6?$AA@ 00000001402a8628     total.obj
 0002:00009638       ??_C@_0N@MKAEGLNF@nightly?3?7?$CFs?6?$AA@ 00000001402a8638     total.obj
 0002:00009648       ??_C@_0BE@PBEONOFG@endassociation?3?7?$CFs?6?$AA@ 00000001402a8648     total.obj
 0002:00009660       ??_C@_0BB@ILHEFDIG@clienterror?3?7?$CFs?6?$AA@ 00000001402a8660     total.obj
 0002:00009678       ??_C@_0BA@GGHAHNC@background?3?7?$CFs?6?$AA@ 00000001402a8678     total.obj
 0002:00009690       ??_C@_0BB@CAGIAHJI@association?3?7?$CFs?6?$AA@ 00000001402a8690     total.obj
 0002:000096a8       ??_C@_0BI@PDPEMBDG@?6?$CK?$CK?$CK?$CK?5lua?5section?5?$CK?$CK?$CK?$CK?6?$AA@ 00000001402a86a8     total.obj
 0002:000096c8       ??_C@_0M@NHKDIFON@DefaultPage?$AA@ 00000001402a86c8     total.obj
 0002:000096d8       ??_C@_0BB@IMMBNCLD@DefaultPage?3?7?$CFs?6?$AA@ 00000001402a86d8     total.obj
 0002:000096f0       ??_C@_07GGNFJELO@AnyPage?$AA@ 00000001402a86f0     total.obj
 0002:00009700       ??_C@_0N@LGHFNMEJ@AnyPage?3?7?$CFs?6?$AA@ 00000001402a8700     total.obj
 0002:00009710       ??_C@_0O@ODKLJJNO@WorkListQuery?$AA@ 00000001402a8710     total.obj
 0002:00009720       ??_C@_0O@PHALIPKM@RejectedImage?$AA@ 00000001402a8720     total.obj
 0002:00009730       ??_C@_0BG@NDJKNDFP@RejectedImageWorkList?$AA@ 00000001402a8730     total.obj
 0002:00009750       ??_C@_08FDLIONIB@Retrieve?$AA@ 00000001402a8750     total.obj
 0002:00009760       ??_C@_0P@LHOKBAPP@RetrieveResult?$AA@ 00000001402a8760     total.obj
 0002:00009774       ??_C@_05BNKNJDAB@Query?$AA@ 00000001402a8774     total.obj
 0002:00009780       ??_C@_0M@PCHLFNOO@QueryResult?$AA@ 00000001402a8780     total.obj
 0002:00009790       ??_C@_0L@DICANJHI@MoveDevice?$AA@ 00000001402a8790     total.obj
 0002:000097a0       ??_C@_0BM@DCANELNO@ModalityWorkListQueryResult?$AA@ 00000001402a87a0     total.obj
 0002:000097c8       ??_C@_0N@MBKJLFPF@MergeStudies?$AA@ 00000001402a87c8     total.obj
 0002:000097d8       ??_C@_0L@CGONHBEC@MergeSerie?$AA@ 00000001402a87d8     total.obj
 0002:000097e8       ??_C@_06IBNLALPJ@Import?$AA@ 00000001402a87e8     total.obj
 0002:000097f0       ??_C@_06BFGAPCKF@Export?$AA@ 00000001402a87f0     total.obj
 0002:000097f8       ??_C@_0M@COKFBABJ@Compression?$AA@ 00000001402a87f8     total.obj
 0002:00009808       ??_C@_07CNOHFBBG@Archive?$AA@ 00000001402a8808     total.obj
 0002:00009818       ??_C@_0CB@OELIDDGF@?$CK?$CK?$CK?$CK?5Import?5export?5arrays?4?5?$CK?$CK?$CK?$CK?6@ 00000001402a8818     total.obj
 0002:00009840       ??_C@_0BH@HOLFFBPC@VirtualServerPerSeries?$AA@ 00000001402a8840     total.obj
 0002:00009860       ??_C@_0BB@DCDOENGE@VirtualServerFor?$AA@ 00000001402a8860     total.obj
 0002:00009878       ??_C@_0N@KGCBEHMK@MIRRORDevice?$AA@ 00000001402a8878     total.obj
 0002:00009888       ??_C@_09BHFKEPNH@MAGDevice?$AA@ 00000001402a8888     total.obj
 0002:00009898       ??_C@_0O@NIPMPCKF@JUKEBOXDevice?$AA@ 00000001402a8898     total.obj
 0002:000098a8       ??_C@_0M@CPHBMDHE@CACHEDevice?$AA@ 00000001402a88a8     total.obj
 0002:000098b8       ??_C@_0BH@DKEHHCF@?$CK?$CK?$CK?$CK?5Ini?5arrays?4?5?$CK?$CK?$CK?$CK?6?$AA@ 00000001402a88b8     total.obj
 0002:000098d8       ??_C@_07KALIJACO@ziptime?$AA@ 00000001402a88d8     total.obj
 0002:000098e8       ??_C@_0BH@IDBHOLGK@WorkListTableName?3?7?$CFs?6?$AA@ 00000001402a88e8     total.obj
 0002:00009908       ??_C@_0BP@DKMJPMAE@WorkListReturnsISO_IR_100?3?7?$CFd?6?$AA@ 00000001402a8908     total.obj
 0002:00009930       ??_C@_0BL@FEPGGGJE@WorkListReturnsISO_IR?3?7?$CFd?6?$AA@ 00000001402a8930     total.obj
 0002:00009950       ??_C@_0BC@IMBHFOKL@WorkListMode?3?7?$CFd?6?$AA@ 00000001402a8950     total.obj
 0002:00009968       ??_C@_0BC@MNMFMGGO@WebServerFor?3?7?$CFs?6?$AA@ 00000001402a8968     total.obj
 0002:00009980       ??_C@_0BG@CIBKBPLP@WebScriptAddress?3?7?$CFs?6?$AA@ 00000001402a8980     total.obj
 0002:000099a0       ??_C@_0BD@JMOKKMCK@WebReadOnly?3FALSE?6?$AA@ 00000001402a89a0     total.obj
 0002:000099b8       ??_C@_0BC@CIHKLAAF@WebReadOnly?3TRUE?6?$AA@ 00000001402a89b8     total.obj
 0002:000099d0       ??_C@_0P@CNHJEEGB@WebPush?3FALSE?6?$AA@ 00000001402a89d0     total.obj
 0002:000099e8       ??_C@_0O@LAHLNPDO@WebPush?3TRUE?6?$AA@ 00000001402a89e8     total.obj
 0002:000099f8       ??_C@_0BE@GFJLPMIE@WebMAG0Address?3?7?$CFs?6?$AA@ 00000001402a89f8     total.obj
 0002:00009a10       ??_C@_0BB@FCPKAKFB@WebCodeBase?3?7?$CFs?6?$AA@ 00000001402a8a10     total.obj
 0002:00009a28       ??_C@_0CC@JMCOIKFM@monitorfolder2?5?$CCWatchFolder?$CC?3?7?$CFs@ 00000001402a8a28     total.obj
 0002:00009a50       ??_C@_0CL@LLNPEINO@UIDToMOPIDTableName?5?$CCUIDToMOPIDT@ 00000001402a8a50     total.obj
 0002:00009a88       ??_C@_0CL@FDEAONEJ@UIDToCDRIDTableName?5?$CCUIDToCDRIDT@ 00000001402a8a88     total.obj
 0002:00009ac0       ??_C@_0P@GANNBOA@UIDPrefix?3?7?$CFs?6?$AA@ 00000001402a8ac0     total.obj
 0002:00009ad8       ??_C@_0O@FGCDJAEB@UserName?3?7?$CFs?6?$AA@ 00000001402a8ad8     total.obj
 0002:00009ae8       ??_C@_0CA@MIMBMGKH@UseEscapeStringConstants?3FALSE?6?$AA@ 00000001402a8ae8     total.obj
 0002:00009b10       ??_C@_0BP@NNEHBEPD@UseEscapeStringConstants?3TRUE?6?$AA@ 00000001402a8b10     total.obj
 0002:00009b38       ??_C@_0BG@HICCLPAC@UseBuiltInJPEG?3FALSE?6?$AA@ 00000001402a8b38     total.obj
 0002:00009b58       ??_C@_0BF@OOKGJDIJ@UseBuiltInJPEG?3TRUE?6?$AA@ 00000001402a8b58     total.obj
 0002:00009b78       ??_C@_0BL@BNKMCFKM@TruncateFieldNamesLen?3?7?$CFd?6?$AA@ 00000001402a8b78     total.obj
 0002:00009b98       ??_C@_0BI@MIBFIMJP@TruncateFieldNames?3?7?$CFd?6?$AA@ 00000001402a8b98     total.obj
 0002:00009bb8       ??_C@_0N@EACIKOIJ@TempDir?3?7?$CFs?6?$AA@ 00000001402a8bb8     total.obj
 0002:00009bc8       ??_C@_0BE@IGJKJLDJ@Port?5?$CCTCPPort?$CC?3?7?$CFs?6?$AA@ 00000001402a8bc8     total.obj
 0002:00009be0       ??_C@_0BC@PNLDLAPI@TCPIPTimeOut?3?7?$CFd?6?$AA@ 00000001402a8be0     total.obj
 0002:00009bf8       ??_C@_0BE@IJHEHOPH@StudyTableName?3?7?$CFs?6?$AA@ 00000001402a8bf8     total.obj
 0002:00009c10       ??_C@_0BJ@CGKNKELC@StudyQuerySortOrder?3?7?$CFs?6?$AA@ 00000001402a8c10     total.obj
 0002:00009c30       ??_C@_0BM@EHAIFKOA@StorageFailedErrorCode?3?7?$CFd?6?$AA@ 00000001402a8c30     total.obj
 0002:00009c58       ??_C@_0BM@LIADIBHO@DataSource?5?$CCSQLServer?$CC?3?7?$CFs?6?$AA@ 00000001402a8c58     total.obj
 0002:00009c80       ??_C@_0BI@JLPJDBGH@DataHost?5?$CCSQLHost?$CC?3?7?$CFs?6?$AA@ 00000001402a8c80     total.obj
 0002:00009ca0       ??_C@_0CB@NBLGCBKD@SOPClassFile?5?$CCSOPClassList?$CC?3?7?$CFs?6@ 00000001402a8ca0     total.obj
 0002:00009cc8       ??_C@_0BF@KBDEMEJK@SeriesTableName?3?7?$CFs?6?$AA@ 00000001402a8cc8     total.obj
 0002:00009ce8       ??_C@_0BK@BIAHJKNK@SeriesQuerySortOrder?3?7?$CFs?6?$AA@ 00000001402a8ce8     total.obj
 0002:00009d08       ??_C@_0BH@EBMLIJCP@SendUpperCaseAE?3FALSE?6?$AA@ 00000001402a8d08     total.obj
 0002:00009d28       ??_C@_0BG@ECDHMGK@SendUpperCaseAE?3TRUE?6?$AA@ 00000001402a8d28     total.obj
 0002:00009d48       ??_C@_0BK@IDAEGIKH@RetryForwardFailed?3FALSE?6?$AA@ 00000001402a8d48     total.obj
 0002:00009d68       ??_C@_0BJ@BMDNFDNG@RetryForwardFailed?3TRUE?6?$AA@ 00000001402a8d68     total.obj
 0002:00009d88       ??_C@_0BA@LJBJJMMF@RetryDelay?3?7?$CFd?6?$AA@ 00000001402a8d88     total.obj
 0002:00009da0       ??_C@_0BO@OMMJFMIB@RegisteredMOPIDTableName?3?7?$CFs?6?$AA@ 00000001402a8da0     total.obj
 0002:00009dc8       ??_C@_0P@DDOFMNFH@QueueSize?3?7?$CFd?6?$AA@ 00000001402a8dc8     total.obj
 0002:00009de0       ??_C@_0BA@JJBOKIIP@Prefetcher?3?7?$CFd?6?$AA@ 00000001402a8de0     total.obj
 0002:00009df8       ??_C@_0BG@HLNGEKBO@PatientTableName?3?7?$CFs?6?$AA@ 00000001402a8df8     total.obj
 0002:00009e18       ??_C@_0BL@IAFGGENL@PatientQuerySortOrder?3?7?$CFs?6?$AA@ 00000001402a8e18     total.obj
 0002:00009e38       ??_C@_0O@HLLICADC@Password?3?7?$CFs?6?$AA@ 00000001402a8e38     total.obj
 0002:00009e48       ??_C@_0BL@HACJKOOH@ServerName?5?$CCPACSName?$CC?3?7?$CFs?6?$AA@ 00000001402a8e48     total.obj
 0002:00009e68       ??_C@_0P@DDBPKLAE@PackDBF?3FALSE?6?$AA@ 00000001402a8e68     total.obj
 0002:00009e80       ??_C@_0O@NHGGNCKM@PackDBF?3TRUE?6?$AA@ 00000001402a8e80     total.obj
 0002:00009e90       ??_C@_0BH@ODHPCPBK@OverlapVirtualGet?3?7?$CFd?6?$AA@ 00000001402a8e90     total.obj
 0002:00009eb0       ??_C@_0CC@GPNNKDPN@OCPipeName?5?$CCOperatorConsole?$CC?3?7?$CFs@ 00000001402a8eb0     total.obj
 0002:00009ed8       ??_C@_0BE@LOPMKOEE@NoDicomCheck?3FALSE?6?$AA@ 00000001402a8ed8     total.obj
 0002:00009ef0       ??_C@_0BD@DMGOGHLD@NoDicomCheck?3TRUE?6?$AA@ 00000001402a8ef0     total.obj
 0002:00009f08       ??_C@_0BM@IPKKOOLE@NightlyCleanThreshhold?3?7?$CFd?6?$AA@ 00000001402a8f08     total.obj
 0002:00009f30       ??_C@_0P@DODJNGFB@MyACRNema?3?7?$CFs?6?$AA@ 00000001402a8f30     total.obj
 0002:00009f48       ??_C@_0BH@BHMDEDIP@MaxFileNameLength?3?7?$CFd?6?$AA@ 00000001402a8f48     total.obj
 0002:00009f68       ??_C@_0BE@OPOOPBGF@MaxFieldLength?3?7?$CFd?6?$AA@ 00000001402a8f68     total.obj
 0002:00009f80       ??_C@_0BK@LOHCOKGJ@MaximumExportRetries?3?7?$CFd?6?$AA@ 00000001402a8f80     total.obj
 0002:00009fa0       ??_C@_0CH@CNLJNAMJ@MaximumDelayedFetchForwardRetrie@ 00000001402a8fa0     total.obj
 0002:00009fd0       ??_C@_0BJ@ELIAHMAI@MAGDeviceThreshHold?3?7?$CFd?6?$AA@ 00000001402a8fd0     total.obj
 0002:00009ff0       ??_C@_0BN@HMFFLPI@MAGDeviceFullThreshHold?3?7?$CFd?6?$AA@ 00000001402a8ff0     total.obj
 0002:0000a018       ??_C@_0N@LKPLBCAG@LRUSort?3?7?$CFs?6?$AA@ 00000001402a9018     total.obj
 0002:0000a028       ??_C@_0BC@DHDDLMID@LossyQuality?3?7?$CFd?6?$AA@ 00000001402a9028     total.obj
 0002:0000a040       ??_C@_0BC@PAGJCMK@LongQueryDBF?3?7?$CFd?6?$AA@ 00000001402a9040     total.obj
 0002:0000a058       ??_C@_0BB@KOMHFJHD@kFactorFile?3?7?$CFs?6?$AA@ 00000001402a9058     total.obj
 0002:0000a070       ??_C@_0O@JPMGLFBO@IndexDBF?3?7?$CFd?6?$AA@ 00000001402a9070     total.obj
 0002:0000a080       ??_C@_0BJ@NIHKCOHB@IncomingCompression?3?7?$CFs?6?$AA@ 00000001402a9080     total.obj
 0002:0000a0a0       ??_C@_0BP@FDHFEFFC@ImportExportDragAndDrop?3FALSE?6?$AA@ 00000001402a90a0     total.obj
 0002:0000a0c8       ??_C@_0BO@NAGFBDD@ImportExportDragAndDrop?3TRUE?6?$AA@ 00000001402a90c8     total.obj
 0002:0000a0f0       ??_C@_0BE@MEDCOOPH@ImageTableName?3?7?$CFs?6?$AA@ 00000001402a90f0     total.obj
 0002:0000a108       ??_C@_0BJ@KKCNIFCM@ImageQuerySortOrder?3?7?$CFs?6?$AA@ 00000001402a9108     total.obj
 0002:0000a128       ??_C@_0BP@KGDINHJA@IgnoreOutOfMemoryErrors?3FALSE?6?$AA@ 00000001402a9128     total.obj
 0002:0000a150       ??_C@_0BO@EPFAMEGE@IgnoreOutOfMemoryErrors?3TRUE?6?$AA@ 00000001402a9150     total.obj
 0002:0000a178       ??_C@_0CB@PGFJOBFD@IgnoreMAGDeviceThreshHold?3FALSE?6@ 00000001402a9178     total.obj
 0002:0000a1a0       ??_C@_0CA@CLBHDLBE@IgnoreMAGDeviceThreshHold?3TRUE?6?$AA@ 00000001402a91a0     total.obj
 0002:0000a1c8       ??_C@_0BJ@HKMDLMG@ForwardCollectDelay?3?7?$CFd?6?$AA@ 00000001402a91c8     total.obj
 0002:0000a1e8       ??_C@_0CB@GANOPANF@ForwardAssociationRelease?3FALSE?6@ 00000001402a91e8     total.obj
 0002:0000a210       ??_C@_0CA@KFKODDFO@ForwardAssociationRelease?3TRUE?6?$AA@ 00000001402a9210     total.obj
 0002:0000a238       ??_C@_0CE@LPHBOJGA@ForwardAssociationRefreshDelay?3?7@ 00000001402a9238     total.obj
 0002:0000a268       ??_C@_0CC@OHBPABGE@ForwardAssociationCloseDelay?3?7?$CFd@ 00000001402a9268     total.obj
 0002:0000a290       ??_C@_0CF@LAEHHFHG@Level?5?$CCForwardAssociationLevel?$CC?3@ 00000001402a9290     total.obj
 0002:0000a2c0       ??_C@_0BC@CMDJDBGP@FixPhilips?3FALSE?6?$AA@ 00000001402a92c0     total.obj
 0002:0000a2d8       ??_C@_0BB@CLHPNHHP@FixPhilips?3TRUE?6?$AA@ 00000001402a92d8     total.obj
 0002:0000a2f0       ??_C@_0BA@LMJKPICN@FixKodak?3FALSE?6?$AA@ 00000001402a92f0     total.obj
 0002:0000a308       ??_C@_0P@DHKLAEHA@FixKodak?3TRUE?6?$AA@ 00000001402a9308     total.obj
 0002:0000a320       ??_C@_0BK@OHPCBCCF@FileNameSyntaxString?3?7?$CFs?6?$AA@ 00000001402a9320     total.obj
 0002:0000a340       ??_C@_0BG@IPDDDHLH@FileCompressMode?3?7?$CFd?6?$AA@ 00000001402a9340     total.obj
 0002:0000a360       ??_C@_0BB@IDEABDJP@FailHoldOff?3?7?$CFd?6?$AA@ 00000001402a9360     total.obj
 0002:0000a378       ??_C@_0BM@MFEHNEOD@EnableComputedFields?3FALSE?6?$AA@ 00000001402a9378     total.obj
 0002:0000a3a0       ??_C@_0BL@DGDPGOHJ@EnableComputedFields?3TRUE?6?$AA@ 00000001402a93a0     total.obj
 0002:0000a3c0       ??_C@_0BN@GLFLPACC@EnableReadAheadThread?3FALSE?6?$AA@ 00000001402a93c0     total.obj
 0002:0000a3e8       ??_C@_0BM@PLHBOFJB@EnableReadAheadThread?3TRUE?6?$AA@ 00000001402a93e8     total.obj
 0002:0000a410       ??_C@_0BL@HAOFIOGH@DoubleBackSlashToDB?3FALSE?6?$AA@ 00000001402a9410     total.obj
 0002:0000a430       ??_C@_0BK@EEKKNLME@DoubleBackSlashToDB?3TRUE?6?$AA@ 00000001402a9430     total.obj
 0002:0000a450       ??_C@_0BM@CIPJEEJO@DroppedFileCompression?3?7?$CFs?6?$AA@ 00000001402a9450     total.obj
 0002:0000a478       ??_C@_0BA@KBJHFBNI@Dictionary?3?7?$CFs?6?$AA@ 00000001402a9478     total.obj
 0002:0000a490       ??_C@_0BL@GHAFLDEI@DebugVRs?5?$CCDebugLevel?$CC?3?7?$CFd?6?$AA@ 00000001402a9490     total.obj
 0002:0000a4b0       ??_C@_0N@ENLOOCLO@db_type?3?7?$CFd?6?$AA@ 00000001402a94b0     total.obj
 0002:0000a4c0       ??_C@_0BI@HJMPBBLE@CacheVirtualData?3FALSE?6?$AA@ 00000001402a94c0     total.obj
 0002:0000a4e0       ??_C@_0BH@NIHJCDMI@CacheVirtualData?3TRUE?6?$AA@ 00000001402a94e0     total.obj
 0002:0000a500       ??_C@_0BI@FAONJEJM@ArchiveCompression?3?7?$CFs?6?$AA@ 00000001402a9500     total.obj
 0002:0000a520       ??_C@_0BD@MBHJNMPE@AllowTruncate?3?7?$CFs?6?$AA@ 00000001402a9520     total.obj
 0002:0000a538       ??_C@_0BA@JAPPEMOM@ACRNemaMap?3?7?$CFs?6?$AA@ 00000001402a9538     total.obj
 0002:0000a550       ??_C@_0N@HOIGBHN@Edition?3?7?$CFd?6?$AA@ 00000001402a9550     total.obj
 0002:0000a560       ??_C@_0P@NCKBMOBI@MicroPACS?3?7?$CFs?6?$AA@ 00000001402a9560     total.obj
 0002:0000a578       ??_C@_0BJ@CGFNGMJM@?$CK?$CK?$CK?5sscscp?5section?5?$CK?$CK?$CK?3?6?$AA@ 00000001402a9578     total.obj
 0002:0000a598       ??_C@_0CG@FDDLMBIF@?5?5?5?5?5with?5a?5working?5directory?5of@ 00000001402a9598     total.obj
 0002:0000a5c8       ??_C@_0CA@BIMJBOI@?$CK?$CK?$CK?5A?5dump?5of?5the?5?$CFs?5file?4?5?$CK?$CK?$CK?6?$AA@ 00000001402a95c8     total.obj
 0002:0000a5f0       ??_C@_0CE@BHPHEANO@DumpIni?5set?5to?5true?0?5dgate?5exiti@ 00000001402a95f0     total.obj
 0002:0000a620       ??_C@_0M@OFDHBBB@defaultpage?$AA@ 00000001402a9620     total.obj
 0002:0000a630       ??_C@_07FOGCNJOM@anypage?$AA@ 00000001402a9630     total.obj
 0002:0000a63c       ??_C@_02FCBLCILD@?5?$DN?$AA@ 00000001402a963c     total.obj
 0002:0000a640       ??_C@_08HMEBKAKE@Unknown?$CB?$AA@ 00000001402a9640     total.obj
 0002:0000a650       ??_C@_0BH@BLFGCGIL@No?5webdefaults?5section?$AA@ 00000001402a9650     total.obj
 0002:0000a670       ??_C@_0M@IFALKJDG@webdefaults?$AA@ 00000001402a9670     total.obj
 0002:0000a680       ??_C@_06ENCEOGKI@bridge?$AA@ 00000001402a9680     total.obj
 0002:0000a688       ??_C@_0BI@MPFHNLOK@No?5wado?5servers?5section?$AA@ 00000001402a9688     total.obj
 0002:0000a6a8       ??_C@_0M@IKMCCPMC@wadoservers?$AA@ 00000001402a96a8     total.obj
 0002:0000a6b8       ??_C@_0BD@JGJJLNAJ@No?5scripts?5section?$AA@ 00000001402a96b8     total.obj
 0002:0000a6d0       ??_C@_07OMEBBDEO@scripts?$AA@ 00000001402a96d0     total.obj
 0002:0000a6e0       ??_C@_0P@PPNCGBJI@No?5lua?5section?$AA@ 00000001402a96e0     total.obj
 0002:0000a6f4       ??_C@_03IBJHJIAF@lua?$AA@  00000001402a96f4     total.obj
 0002:0000a6f8       ??_C@_0O@HKCINDAA@No?5?$CFs?5section?$AA@ 00000001402a96f8     total.obj
 0002:0000a708       ??_C@_06JGBJPOPP@Global?$AA@ 00000001402a9708     total.obj
 0002:0000a710       ??_C@_08LEBHHPDM@Sopclass?$AA@ 00000001402a9710     total.obj
 0002:0000a71c       ??_C@_05NBEAGECF@Image?$AA@ 00000001402a971c     total.obj
 0002:0000a724       ??_C@_06KHKFGFJK@Series?$AA@ 00000001402a9724     total.obj
 0002:0000a72c       ??_C@_05CFLHJDOH@Study?$AA@ 00000001402a972c     total.obj
 0002:0000a738       ??_C@_08EFCIFPIF@Personal?$AA@ 00000001402a9738     total.obj
 0002:0000a748       ??_C@_0L@DCNJHNHF@Enterprise?$AA@ 00000001402a9748     total.obj
 0002:0000a758       ??_C@_09CLAAHCGK@Workgroup?$AA@ 00000001402a9758     total.obj
 0002:0000a768       ??_C@_0BI@BNDAEEEL@Not?5an?5dicom?4ini?5option?$AA@ 00000001402a9768     total.obj
 0002:0000a788       ??_C@_0N@OKDJDEOD@lua?5ini?5data?$AA@ 00000001402a9788     total.obj
 0002:0000a798       ??_C@_0BJ@JOCHEIMJ@Content?9type?3?5text?1html?6?$AA@ 00000001402a9798     total.obj
 0002:0000a7b8       ??_C@_0BI@GBOIHPMF@data?5structure?5ini?5data?$AA@ 00000001402a97b8     total.obj
 0002:0000a7e0       ??_C@_0EM@PPCAKFHF@A?5second?5MicroPACS?5entry?5was?5fou@ 00000001402a97e0     total.obj
 0002:0000a83c       ??_C@_06FJKEMHGD@global?$AA@ 00000001402a983c     total.obj
 0002:0000a848       ??_C@_08DGOGPNJP@sopclass?$AA@ 00000001402a9848     total.obj
 0002:0000a854       ??_C@_05NGOMGBBD@image?$AA@ 00000001402a9854     total.obj
 0002:0000a85c       ??_C@_06GIBIFMAG@series?$AA@ 00000001402a985c     total.obj
 0002:0000a864       ??_C@_05CCBLJGNB@study?$AA@ 00000001402a9864     total.obj
 0002:0000a870       ??_C@_07BKDPPBFF@patient?$AA@ 00000001402a9870     total.obj
 0002:0000a880       ??_C@_0L@LEEFPCKC@enterprise?$AA@ 00000001402a9880     total.obj
 0002:0000a890       ??_C@_08MHNJNNCG@personal?$AA@ 00000001402a9890     total.obj
 0002:0000a8a0       ??_C@_0BG@CFILMBDJ@Unknown?5section?5table?$AA@ 00000001402a98a0     total.obj
 0002:0000a8bc       ??_C@_05HNKDMFLJ@ridge?$AA@ 00000001402a98bc     total.obj
 0002:0000a8c8       ??_C@_0N@OBCDENHJ@Wado?5servers?$AA@ 00000001402a98c8     total.obj
 0002:0000a8d8       ??_C@_0N@KMLPONBL@seriesviewer?$AA@ 00000001402a98d8     total.obj
 0002:0000a8e8       ??_C@_04IEEOGCNJ@5124?$AA@ 00000001402a98e8     total.obj
 0002:0000a8f0       ??_C@_02DEEDNHFK@48?$AA@   00000001402a98f0     total.obj
 0002:0000a8f4       ??_C@_02PJNNDDDA@n4?$AA@   00000001402a98f4     total.obj
 0002:0000a8f8       ??_C@_0N@NGAEKJIP@Web?5defaults?$AA@ 00000001402a98f8     total.obj
 0002:0000a910       ??_7MyPatientRootQuery@@6BCFindRSP@@@ 00000001402a9910     total.obj
 0002:0000a928       ??_7MyPatientRootQuery@@6BCFindRQ@@@ 00000001402a9928     total.obj
 0002:0000a970       ??_7MyStudyRootQuery@@6BCFindRSP@@@ 00000001402a9970     total.obj
 0002:0000a988       ??_7MyStudyRootQuery@@6BCFindRQ@@@ 00000001402a9988     total.obj
 0002:0000a9d0       ??_7MyModalityWorkListQuery@@6BCFindRSP@@@ 00000001402a99d0     total.obj
 0002:0000a9e8       ??_7MyModalityWorkListQuery@@6BCFindRQ@@@ 00000001402a99e8     total.obj
 0002:0000aa68       ??_7?$basic_filebuf@DU?$char_traits@D@std@@@std@@6B@ 00000001402a9a68     total.obj
 0002:0000ab00       ??_C@_0BI@CFPLBAOH@invalid?5string?5position?$AA@ 00000001402a9b00     total.obj
 0002:0000ab20       ??_C@_0CA@LAFDEJEK@Got?5?$HL?5?$CFs?0?5?$CFs?0?5?$CFs?0?5?$CFs?0?5?$CFs?0?5?$CFs?5?$HN?6?$AA@ 00000001402a9b20     total.obj
 0002:0000ab50       ??_C@_0EB@FMGKHDDL@Expected?5?$HL?5Group?0?5Element?0?5Colum@ 00000001402a9b50     total.obj
 0002:0000aba0       ??_C@_0BG@BDCFHGIH@Unknown?5SQL?5Type?3?5?$CFs?6?$AA@ 00000001402a9ba0     total.obj
 0002:0000abc0       ??_C@_0BI@MLNCMBFI@Unknown?5DICOM?5Type?3?5?$CFs?6?$AA@ 00000001402a9bc0     total.obj
 0002:0000abe0       ??_C@_0BM@IDLKHJFB@Expected?3?5Database?5?5?$HL?5?3?5?$CFs?6?$AA@ 00000001402a9be0     total.obj
 0002:0000ac04       ??_C@_01MCMALHOG@a?$AA@    00000001402a9c04     total.obj
 0002:0000ac08       ??_C@_03ELIFGAKH@?$CK?$CK?$CK?$AA@ 00000001402a9c08     total.obj
 0002:0000ac10       ??_C@_0BN@EPGKMGPL@?$CF04d?$CF02d?$CF02d?5?$CF02d?3?$CF02d?3?$CF02d?5?$AA@ 00000001402a9c10     total.obj
 0002:0000ac34       ??_C@_05KJDPJACP@?$FL?$CFs?$FN?5?$AA@ 00000001402a9c34     total.obj
 0002:0000ac3c       ??_C@_04FFECLNGO@lua?3?$AA@ 00000001402a9c3c     total.obj
 0002:0000ac48       ??_C@_0CL@IDGNCPI@?$CK?$CK?$CKError?5getting?5free?5store?5for?5@ 00000001402a9c48     total.obj
 0002:0000ac80       ??_C@_0BJ@HAGFJCGF@FreeStore?5Left?5?$CFd?5on?5?$CFs?6?$AA@ 00000001402a9c80     total.obj
 0002:0000aca0       ??_C@_02HDBGODGB@?2?2?$AA@ 00000001402a9ca0     total.obj
 0002:0000aca8       ??_C@_07JOFIJICC@JUKEBOX?$AA@ 00000001402a9ca8     total.obj
 0002:0000acb4       ??_C@_05NIEEMHIM@CACHE?$AA@ 00000001402a9cb4     total.obj
 0002:0000acbc       ??_C@_06LPIEMBDF@MIRROR?$AA@ 00000001402a9cbc     total.obj
 0002:0000acc4       ??_C@_03HEFOFDEK@mag?$AA@  00000001402a9cc4     total.obj
 0002:0000acc8       ??_C@_0DC@LEAEGLLP@?$CK?$CK?$CKLocated?5file?5on?5wrong?5device?3@ 00000001402a9cc8     total.obj
 0002:0000ad04       ??_C@_05KBLMHMDL@MAG?$CFd?$AA@ 00000001402a9d04     total.obj
 0002:0000ad10       ??_C@_07KNCBHCLI@CACHE?$CFd?$AA@ 00000001402a9d10     total.obj
 0002:0000ad1c       ??_C@_03KBEBNCEG@?4?$CFd?$AA@ 00000001402a9d1c     total.obj
 0002:0000ad20       ??_C@_09GGHBOJKG@JUKEBOX?$CFd?$AA@ 00000001402a9d20     total.obj
 0002:0000ad30       ??_C@_0DD@HMMGLJLH@?$CK?$CK?$CKLocated?5file?5on?5mirror?5device@ 00000001402a9d30     total.obj
 0002:0000ad70       ??_C@_08HBEFKFLM@MIRROR?$CFd?$AA@ 00000001402a9d70     total.obj
 0002:0000ad7c       ??_C@_03HJKFJODG@MAG?$AA@  00000001402a9d7c     total.obj
 0002:0000ad80       ??_C@_0BF@CHPOOIBF@Locating?5file?3?$CFs?5?$CFs?6?$AA@ 00000001402a9d80     total.obj
 0002:0000ada0       __real@3fe0000000000000    00000001402a9da0     total.obj
 0002:0000adb0       __real@3f50000000000000    00000001402a9db0     total.obj
 0002:0000adbc       ??_C@_03POBHGEJB@BIN?$AA@  00000001402a9dbc     total.obj
 0002:0000adc0       ??_C@_02DJGKEECL@?4?4?$AA@ 00000001402a9dc0     total.obj
 0002:0000adc8       ??_C@_08FPHOKLMI@INCOMING?$AA@ 00000001402a9dc8     total.obj
 0002:0000add4       ??_C@_03EMIMMIHL@?$CK?4?$CK?$AA@ 00000001402a9dd4     total.obj
 0002:0000add8       ??_C@_04PKMKHFNF@?$DN?5?$CFs?$AA@ 00000001402a9dd8     total.obj
 0002:0000ade0       ??_C@_07FKFGOLAI@LIKE?5?$CFs?$AA@ 00000001402a9de0     total.obj
 0002:0000adf0       ??_C@_0EA@MGOJHPJA@Archival?3?5?$CK?$CK?$CK?5to?9device?5?$CI?$CFs?$CJ?5sho@ 00000001402a9df0     total.obj
 0002:0000ae40       ??_C@_0DJ@CMHAGBLF@Archival?3?5?$CK?$CK?$CK?5to?9device?5?$CI?$CFs?$CJ?5has@ 00000001402a9e40     total.obj
 0002:0000ae88       ??_C@_0BN@DIMBHHMC@Located?5cache?5directory?3?5?$CFs?6?$AA@ 00000001402a9e88     total.obj
 0002:0000aeb0       ??_C@_0DG@JOCKJLOM@Archival?3?5?$CK?$CK?$CK?5could?5not?5find?5cac@ 00000001402a9eb0     total.obj
 0002:0000aef0       ??_C@_0O@GHAONBLD@CACHE?$CFd?4?$CFd?4?$CFd?$AA@ 00000001402a9ef0     total.obj
 0002:0000af00       ??_C@_0CC@CCBKJPEG@Fiximage?3?5Fixed?5Kodak?5patient?5ID@ 00000001402a9f00     total.obj
 0002:0000af28       ??_C@_0CE@MLCJKCAI@Fiximage?3?5Fixed?5Philips?5patient?5@ 00000001402a9f28     total.obj
 0002:0000af58       ??_C@_0CC@HAGCAOCE@Fiximage?3?5Fixed?5empty?5patient?5ID@ 00000001402a9f58     total.obj
 0002:0000af80       ??_C@_0BM@IDDIMJPE@Fiximage?3?5Added?5patient?5ID?6?$AA@ 00000001402a9f80     total.obj
 0002:0000afa8       ??_C@_0DI@INEMEIPH@Fiximage?3?5truncated?5?$CFd?5trailing?5@ 00000001402a9fa8     total.obj
 0002:0000aff0       ??_C@_0BO@JDOCGGJE@Fiximage?3?5Added?5patient?5name?6?$AA@ 00000001402a9ff0     total.obj
 0002:0000b018       ??_C@_0M@JGEIBMIN@?$CFs?4?$CFu?4?$CFd?4?$CFu?$AA@ 00000001402aa018     total.obj
 0002:0000b028       ??_C@_02KCGKONDD@?47?$AA@  00000001402aa028     total.obj
 0002:0000b02c       ??_C@_02OHHJMEON@?8?8?$AA@ 00000001402aa02c     total.obj
 0002:0000b030       ??_C@_0EB@JKLGPPGK@?$CK?$CK?$CK?$FLNewDeleteFromDB?$FN?5?9FAILED?3?5DD@ 00000001402aa030     total.obj
 0002:0000b080       ??_C@_0BI@HPEALGJI@DICOMWorkList?4PatientID?$AA@ 00000001402aa080     total.obj
 0002:0000b0a0       ??_C@_0BN@MFOJONGP@DICOMWorkList?4PatientID?5?$DN?5?$CFs?$AA@ 00000001402aa0a0     total.obj
 0002:0000b0c8       ??_C@_0BH@FHFHAAEG@DICOMStudies?4PatientID?$AA@ 00000001402aa0c8     total.obj
 0002:0000b0e8       ??_C@_0BN@OGHFPACC@DICOMPatients?4PatientID?5?$DN?5?$CFs?$AA@ 00000001402aa0e8     total.obj
 0002:0000b110       ??_C@_0BM@IPABCGEO@DICOMStudies?4PatientID?5?$DN?5?$CFs?$AA@ 00000001402aa110     total.obj
 0002:0000b138       ??_C@_0BH@OKCEDCNP@DICOMSeries?4StudyInsta?$AA@ 00000001402aa138     total.obj
